ARM GAS  C:\Users\Graziano\AppData\Local\Temp\cckBvh4m.s 			page 1


   1              		.syntax unified
   2              		.cpu cortex-m3
   3              		.fpu softvfp
   4              		.eabi_attribute 20, 1
   5              		.eabi_attribute 21, 1
   6              		.eabi_attribute 23, 3
   7              		.eabi_attribute 24, 1
   8              		.eabi_attribute 25, 1
   9              		.eabi_attribute 26, 1
  10              		.eabi_attribute 30, 4
  11              		.eabi_attribute 34, 1
  12              		.eabi_attribute 18, 4
  13              		.thumb
  14              		.file	"ADC_INT.c"
  15              		.text
  16              	.Ltext0:
  17              		.cfi_sections	.debug_frame
  18              		.section	.text.ADC_ISR1,"ax",%progbits
  19              		.align	1
  20              		.global	ADC_ISR1
  21              		.thumb
  22              		.thumb_func
  23              		.type	ADC_ISR1, %function
  24              	ADC_ISR1:
  25              	.LFB0:
  26              		.file 1 ".\\Generated_Source\\PSoC5\\ADC_INT.c"
   1:.\Generated_Source\PSoC5/ADC_INT.c **** /*******************************************************************************
   2:.\Generated_Source\PSoC5/ADC_INT.c **** * File Name: ADC_INT.c
   3:.\Generated_Source\PSoC5/ADC_INT.c **** * Version 3.10
   4:.\Generated_Source\PSoC5/ADC_INT.c **** *
   5:.\Generated_Source\PSoC5/ADC_INT.c **** * Description:
   6:.\Generated_Source\PSoC5/ADC_INT.c **** *  This file contains the code that operates during the ADC_DelSig interrupt
   7:.\Generated_Source\PSoC5/ADC_INT.c **** *  service routine.
   8:.\Generated_Source\PSoC5/ADC_INT.c **** *
   9:.\Generated_Source\PSoC5/ADC_INT.c **** * Note:
  10:.\Generated_Source\PSoC5/ADC_INT.c **** *
  11:.\Generated_Source\PSoC5/ADC_INT.c **** ********************************************************************************
  12:.\Generated_Source\PSoC5/ADC_INT.c **** * Copyright 2008-2013, Cypress Semiconductor Corporation.  All rights reserved.
  13:.\Generated_Source\PSoC5/ADC_INT.c **** * You may use this file only in accordance with the license, terms, conditions,
  14:.\Generated_Source\PSoC5/ADC_INT.c **** * disclaimers, and limitations in the end user license agreement accompanying
  15:.\Generated_Source\PSoC5/ADC_INT.c **** * the software package with which this file was provided.
  16:.\Generated_Source\PSoC5/ADC_INT.c **** *******************************************************************************/
  17:.\Generated_Source\PSoC5/ADC_INT.c **** 
  18:.\Generated_Source\PSoC5/ADC_INT.c **** #include "ADC.h"
  19:.\Generated_Source\PSoC5/ADC_INT.c **** 
  20:.\Generated_Source\PSoC5/ADC_INT.c **** 
  21:.\Generated_Source\PSoC5/ADC_INT.c **** /*******************************************************************************
  22:.\Generated_Source\PSoC5/ADC_INT.c **** * Custom Declarations and Variables
  23:.\Generated_Source\PSoC5/ADC_INT.c **** * - add user include files, prototypes and variables between the following
  24:.\Generated_Source\PSoC5/ADC_INT.c **** *   #START and #END tags
  25:.\Generated_Source\PSoC5/ADC_INT.c **** *******************************************************************************/
  26:.\Generated_Source\PSoC5/ADC_INT.c **** /* `#START ADC_SYS_VAR`  */
  27:.\Generated_Source\PSoC5/ADC_INT.c **** #include "AMuxSeq.h"
  28:.\Generated_Source\PSoC5/ADC_INT.c **** #include <gobee.h>
  29:.\Generated_Source\PSoC5/ADC_INT.c **** #include <gobeelib.h>
  30:.\Generated_Source\PSoC5/ADC_INT.c **** 
  31:.\Generated_Source\PSoC5/ADC_INT.c **** uint8 iIndex=0;
ARM GAS  C:\Users\Graziano\AppData\Local\Temp\cckBvh4m.s 			page 2


  32:.\Generated_Source\PSoC5/ADC_INT.c **** uint16 Conversion=0;
  33:.\Generated_Source\PSoC5/ADC_INT.c **** extern int16 AdcValue[ADC_MUX_LENGHT];
  34:.\Generated_Source\PSoC5/ADC_INT.c **** /* `#END`  */
  35:.\Generated_Source\PSoC5/ADC_INT.c **** 
  36:.\Generated_Source\PSoC5/ADC_INT.c **** 
  37:.\Generated_Source\PSoC5/ADC_INT.c **** #if(ADC_IRQ_REMOVE == 0u)
  38:.\Generated_Source\PSoC5/ADC_INT.c **** 
  39:.\Generated_Source\PSoC5/ADC_INT.c **** 
  40:.\Generated_Source\PSoC5/ADC_INT.c ****     /*****************************************************************************
  41:.\Generated_Source\PSoC5/ADC_INT.c ****     * Function Name: ADC_ISR1
  42:.\Generated_Source\PSoC5/ADC_INT.c ****     ******************************************************************************
  43:.\Generated_Source\PSoC5/ADC_INT.c ****     *
  44:.\Generated_Source\PSoC5/ADC_INT.c ****     * Summary:
  45:.\Generated_Source\PSoC5/ADC_INT.c ****     *  Handle Interrupt Service Routine.
  46:.\Generated_Source\PSoC5/ADC_INT.c ****     *
  47:.\Generated_Source\PSoC5/ADC_INT.c ****     * Parameters:
  48:.\Generated_Source\PSoC5/ADC_INT.c ****     *  None
  49:.\Generated_Source\PSoC5/ADC_INT.c ****     *
  50:.\Generated_Source\PSoC5/ADC_INT.c ****     * Return:
  51:.\Generated_Source\PSoC5/ADC_INT.c ****     *  None
  52:.\Generated_Source\PSoC5/ADC_INT.c ****     *
  53:.\Generated_Source\PSoC5/ADC_INT.c ****     * Reentrant:
  54:.\Generated_Source\PSoC5/ADC_INT.c ****     *  No
  55:.\Generated_Source\PSoC5/ADC_INT.c ****     *
  56:.\Generated_Source\PSoC5/ADC_INT.c ****     *****************************************************************************/
  57:.\Generated_Source\PSoC5/ADC_INT.c ****     CY_ISR( ADC_ISR1)
  58:.\Generated_Source\PSoC5/ADC_INT.c ****     {
  27              		.loc 1 58 0
  28              		.cfi_startproc
  29              		@ args = 0, pretend = 0, frame = 0
  30              		@ frame_needed = 0, uses_anonymous_args = 0
  31 0000 10B5     		push	{r4, lr}
  32              	.LCFI0:
  33              		.cfi_def_cfa_offset 8
  34              		.cfi_offset 4, -8
  35              		.cfi_offset 14, -4
  59:.\Generated_Source\PSoC5/ADC_INT.c ****         /**************************************************************************
  60:.\Generated_Source\PSoC5/ADC_INT.c ****         *  Custom Code
  61:.\Generated_Source\PSoC5/ADC_INT.c ****         *  - add user ISR code between the following #START and #END tags
  62:.\Generated_Source\PSoC5/ADC_INT.c ****         **************************************************************************/
  63:.\Generated_Source\PSoC5/ADC_INT.c ****         /* `#START MAIN_ADC_ISR1`  */
  64:.\Generated_Source\PSoC5/ADC_INT.c **** 	
  65:.\Generated_Source\PSoC5/ADC_INT.c **** 	ADC_StopConvert();						//The ADC is stopped after every conversion. This is to reduce the crossta
  36              		.loc 1 65 0
  37 0002 FFF7FEFF 		bl	ADC_StopConvert
  38              	.LVL0:
  66:.\Generated_Source\PSoC5/ADC_INT.c **** 	
  67:.\Generated_Source\PSoC5/ADC_INT.c **** 	Conversion = ADC_GetResult16();			//Get the ADC result for the present channel
  39              		.loc 1 67 0
  40 0006 FFF7FEFF 		bl	ADC_GetResult16
  41              	.LVL1:
  42 000a 084C     		ldr	r4, .L2
  43 000c 2080     		strh	r0, [r4, #0]	@ movhi
  68:.\Generated_Source\PSoC5/ADC_INT.c **** 	
  69:.\Generated_Source\PSoC5/ADC_INT.c **** 	AMuxSeq_Next();							// Connect next channel.
  44              		.loc 1 69 0
  45 000e FFF7FEFF 		bl	AMuxSeq_Next
ARM GAS  C:\Users\Graziano\AppData\Local\Temp\cckBvh4m.s 			page 3


  46              	.LVL2:
  70:.\Generated_Source\PSoC5/ADC_INT.c **** 	
  71:.\Generated_Source\PSoC5/ADC_INT.c **** 	AdcValue[iIndex] = Conversion;			// Store Conversion into the array
  47              		.loc 1 71 0
  48 0012 A378     		ldrb	r3, [r4, #2]	@ zero_extendqisi2
  49 0014 2188     		ldrh	r1, [r4, #0]
  50 0016 064A     		ldr	r2, .L2+4
  72:.\Generated_Source\PSoC5/ADC_INT.c **** 	
  73:.\Generated_Source\PSoC5/ADC_INT.c **** 	iIndex=(iIndex+1)%ADC_MUX_LENGHT;		//Increment the channel index for the next channel
  51              		.loc 1 73 0
  52 0018 581C     		adds	r0, r3, #1
  71:.\Generated_Source\PSoC5/ADC_INT.c **** 	AdcValue[iIndex] = Conversion;			// Store Conversion into the array
  53              		.loc 1 71 0
  54 001a 22F81310 		strh	r1, [r2, r3, lsl #1]	@ movhi
  55              		.loc 1 73 0
  56 001e 00F00703 		and	r3, r0, #7
  57 0022 A370     		strb	r3, [r4, #2]
  74:.\Generated_Source\PSoC5/ADC_INT.c **** 	
  75:.\Generated_Source\PSoC5/ADC_INT.c **** 	ADC_StartConvert();	
  76:.\Generated_Source\PSoC5/ADC_INT.c **** 	
  77:.\Generated_Source\PSoC5/ADC_INT.c ****         /* `#END`  */
  78:.\Generated_Source\PSoC5/ADC_INT.c **** 
  79:.\Generated_Source\PSoC5/ADC_INT.c ****         /* Stop the conversion if conversion mode is single sample and resolution
  80:.\Generated_Source\PSoC5/ADC_INT.c ****         *  is above 16 bits.
  81:.\Generated_Source\PSoC5/ADC_INT.c ****         */
  82:.\Generated_Source\PSoC5/ADC_INT.c ****         #if(ADC_CFG1_RESOLUTION > 16 && \
  83:.\Generated_Source\PSoC5/ADC_INT.c ****             ADC_CFG1_CONV_MODE == ADC_MODE_SINGLE_SAMPLE)
  84:.\Generated_Source\PSoC5/ADC_INT.c ****             ADC_StopConvert();
  85:.\Generated_Source\PSoC5/ADC_INT.c ****             /* Software flag for checking conversion complete or not. Will be used when
  86:.\Generated_Source\PSoC5/ADC_INT.c ****             *  resolution is above 16 bits and conversion mode is single sample 
  87:.\Generated_Source\PSoC5/ADC_INT.c **** 			*/
  88:.\Generated_Source\PSoC5/ADC_INT.c ****             ADC_convDone = ADC_DEC_CONV_DONE;
  89:.\Generated_Source\PSoC5/ADC_INT.c ****         #endif /* Single sample conversion mode with resolution above 16 bits */
  90:.\Generated_Source\PSoC5/ADC_INT.c **** 
  91:.\Generated_Source\PSoC5/ADC_INT.c ****     }
  58              		.loc 1 91 0
  59 0024 BDE81040 		pop	{r4, lr}
  75:.\Generated_Source\PSoC5/ADC_INT.c **** 	ADC_StartConvert();	
  60              		.loc 1 75 0
  61 0028 FFF7FEBF 		b	ADC_StartConvert
  62              	.LVL3:
  63              	.L3:
  64              		.align	2
  65              	.L2:
  66 002c 00000000 		.word	.LANCHOR0
  67 0030 00000000 		.word	AdcValue
  68              		.cfi_endproc
  69              	.LFE0:
  70              		.size	ADC_ISR1, .-ADC_ISR1
  71              		.section	.text.ADC_ISR2,"ax",%progbits
  72              		.align	1
  73              		.global	ADC_ISR2
  74              		.thumb
  75              		.thumb_func
  76              		.type	ADC_ISR2, %function
  77              	ADC_ISR2:
  78              	.LFB1:
ARM GAS  C:\Users\Graziano\AppData\Local\Temp\cckBvh4m.s 			page 4


  92:.\Generated_Source\PSoC5/ADC_INT.c **** 
  93:.\Generated_Source\PSoC5/ADC_INT.c **** 
  94:.\Generated_Source\PSoC5/ADC_INT.c ****     /*****************************************************************************
  95:.\Generated_Source\PSoC5/ADC_INT.c ****     * Function Name: ADC_ISR2
  96:.\Generated_Source\PSoC5/ADC_INT.c ****     ******************************************************************************
  97:.\Generated_Source\PSoC5/ADC_INT.c ****     *
  98:.\Generated_Source\PSoC5/ADC_INT.c ****     * Summary:
  99:.\Generated_Source\PSoC5/ADC_INT.c ****     *  Handle Interrupt Service Routine.
 100:.\Generated_Source\PSoC5/ADC_INT.c ****     *
 101:.\Generated_Source\PSoC5/ADC_INT.c ****     * Parameters:
 102:.\Generated_Source\PSoC5/ADC_INT.c ****     *  None
 103:.\Generated_Source\PSoC5/ADC_INT.c ****     *
 104:.\Generated_Source\PSoC5/ADC_INT.c ****     * Return:
 105:.\Generated_Source\PSoC5/ADC_INT.c ****     *  None
 106:.\Generated_Source\PSoC5/ADC_INT.c ****     *
 107:.\Generated_Source\PSoC5/ADC_INT.c ****     * Reentrant:
 108:.\Generated_Source\PSoC5/ADC_INT.c ****     *  No
 109:.\Generated_Source\PSoC5/ADC_INT.c ****     *
 110:.\Generated_Source\PSoC5/ADC_INT.c ****     *****************************************************************************/
 111:.\Generated_Source\PSoC5/ADC_INT.c ****     CY_ISR( ADC_ISR2)
 112:.\Generated_Source\PSoC5/ADC_INT.c ****     {
  79              		.loc 1 112 0
  80              		.cfi_startproc
  81              		@ args = 0, pretend = 0, frame = 0
  82              		@ frame_needed = 0, uses_anonymous_args = 0
  83              		@ link register save eliminated.
  84 0000 7047     		bx	lr
  85              		.cfi_endproc
  86              	.LFE1:
  87              		.size	ADC_ISR2, .-ADC_ISR2
  88              		.section	.text.ADC_ISR3,"ax",%progbits
  89              		.align	1
  90              		.global	ADC_ISR3
  91              		.thumb
  92              		.thumb_func
  93              		.type	ADC_ISR3, %function
  94              	ADC_ISR3:
  95              	.LFB2:
 113:.\Generated_Source\PSoC5/ADC_INT.c ****         /***************************************************************************
 114:.\Generated_Source\PSoC5/ADC_INT.c ****         *  Custom Code
 115:.\Generated_Source\PSoC5/ADC_INT.c ****         *  - add user ISR code between the following #START and #END tags
 116:.\Generated_Source\PSoC5/ADC_INT.c ****         **************************************************************************/
 117:.\Generated_Source\PSoC5/ADC_INT.c ****         /* `#START MAIN_ADC_ISR2`  */
 118:.\Generated_Source\PSoC5/ADC_INT.c **** 
 119:.\Generated_Source\PSoC5/ADC_INT.c ****         /* `#END`  */
 120:.\Generated_Source\PSoC5/ADC_INT.c **** 
 121:.\Generated_Source\PSoC5/ADC_INT.c ****         /* Stop the conversion conversion mode is single sample and resolution
 122:.\Generated_Source\PSoC5/ADC_INT.c ****         *  is above 16 bits.
 123:.\Generated_Source\PSoC5/ADC_INT.c ****         */
 124:.\Generated_Source\PSoC5/ADC_INT.c ****         #if(ADC_CFG2_RESOLUTION > 16 && \
 125:.\Generated_Source\PSoC5/ADC_INT.c ****             ADC_CFG2_CONVMODE == ADC_MODE_SINGLE_SAMPLE)
 126:.\Generated_Source\PSoC5/ADC_INT.c ****             ADC_StopConvert();
 127:.\Generated_Source\PSoC5/ADC_INT.c ****             /* Software flag for checking conversion complete or not. Will be used when
 128:.\Generated_Source\PSoC5/ADC_INT.c ****             *   resolution is above 16 bits and conversion mode is single sample 
 129:.\Generated_Source\PSoC5/ADC_INT.c **** 			*/
 130:.\Generated_Source\PSoC5/ADC_INT.c ****             ADC_convDone = ADC_DEC_CONV_DONE;
 131:.\Generated_Source\PSoC5/ADC_INT.c ****         #endif /* Single sample conversion mode with resolution above 16 bits */
ARM GAS  C:\Users\Graziano\AppData\Local\Temp\cckBvh4m.s 			page 5


 132:.\Generated_Source\PSoC5/ADC_INT.c **** 
 133:.\Generated_Source\PSoC5/ADC_INT.c ****     }
 134:.\Generated_Source\PSoC5/ADC_INT.c **** 
 135:.\Generated_Source\PSoC5/ADC_INT.c **** 
 136:.\Generated_Source\PSoC5/ADC_INT.c ****     /*****************************************************************************
 137:.\Generated_Source\PSoC5/ADC_INT.c ****     * Function Name: ADC_ISR3
 138:.\Generated_Source\PSoC5/ADC_INT.c ****     ******************************************************************************
 139:.\Generated_Source\PSoC5/ADC_INT.c ****     *
 140:.\Generated_Source\PSoC5/ADC_INT.c ****     * Summary:
 141:.\Generated_Source\PSoC5/ADC_INT.c ****     *  Handle Interrupt Service Routine.
 142:.\Generated_Source\PSoC5/ADC_INT.c ****     *
 143:.\Generated_Source\PSoC5/ADC_INT.c ****     * Parameters:
 144:.\Generated_Source\PSoC5/ADC_INT.c ****     *  None
 145:.\Generated_Source\PSoC5/ADC_INT.c ****     *
 146:.\Generated_Source\PSoC5/ADC_INT.c ****     * Return:
 147:.\Generated_Source\PSoC5/ADC_INT.c ****     *  None
 148:.\Generated_Source\PSoC5/ADC_INT.c ****     *
 149:.\Generated_Source\PSoC5/ADC_INT.c ****     * Reentrant:
 150:.\Generated_Source\PSoC5/ADC_INT.c ****     *  No
 151:.\Generated_Source\PSoC5/ADC_INT.c ****     *
 152:.\Generated_Source\PSoC5/ADC_INT.c ****     *****************************************************************************/
 153:.\Generated_Source\PSoC5/ADC_INT.c ****     CY_ISR( ADC_ISR3)
 154:.\Generated_Source\PSoC5/ADC_INT.c ****     {
  96              		.loc 1 154 0
  97              		.cfi_startproc
  98              		@ args = 0, pretend = 0, frame = 0
  99              		@ frame_needed = 0, uses_anonymous_args = 0
 100              		@ link register save eliminated.
 101 0000 7047     		bx	lr
 102              		.cfi_endproc
 103              	.LFE2:
 104              		.size	ADC_ISR3, .-ADC_ISR3
 105              		.section	.text.ADC_ISR4,"ax",%progbits
 106              		.align	1
 107              		.global	ADC_ISR4
 108              		.thumb
 109              		.thumb_func
 110              		.type	ADC_ISR4, %function
 111              	ADC_ISR4:
 112              	.LFB3:
 155:.\Generated_Source\PSoC5/ADC_INT.c ****         /***************************************************************************
 156:.\Generated_Source\PSoC5/ADC_INT.c ****         *  Custom Code
 157:.\Generated_Source\PSoC5/ADC_INT.c ****         *  - add user ISR code between the following #START and #END tags
 158:.\Generated_Source\PSoC5/ADC_INT.c ****         **************************************************************************/
 159:.\Generated_Source\PSoC5/ADC_INT.c ****         /* `#START MAIN_ADC_ISR3`  */
 160:.\Generated_Source\PSoC5/ADC_INT.c **** 
 161:.\Generated_Source\PSoC5/ADC_INT.c ****         /* `#END`  */
 162:.\Generated_Source\PSoC5/ADC_INT.c **** 
 163:.\Generated_Source\PSoC5/ADC_INT.c ****         /* Stop the conversion if conversion mode is set to single sample and
 164:.\Generated_Source\PSoC5/ADC_INT.c ****         *  resolution is above 16 bits.
 165:.\Generated_Source\PSoC5/ADC_INT.c ****         */
 166:.\Generated_Source\PSoC5/ADC_INT.c ****         #if(ADC_CFG3_RESOLUTION > 16 && \
 167:.\Generated_Source\PSoC5/ADC_INT.c ****             ADC_CFG3_CONVMODE == ADC_MODE_SINGLE_SAMPLE)
 168:.\Generated_Source\PSoC5/ADC_INT.c ****             ADC_StopConvert();
 169:.\Generated_Source\PSoC5/ADC_INT.c ****             /* Software flag for checking conversion complete or not. Will be used when
 170:.\Generated_Source\PSoC5/ADC_INT.c ****             *  resolution is above 16 bits and conversion mode is single sample 
 171:.\Generated_Source\PSoC5/ADC_INT.c **** 			*/
ARM GAS  C:\Users\Graziano\AppData\Local\Temp\cckBvh4m.s 			page 6


 172:.\Generated_Source\PSoC5/ADC_INT.c ****             ADC_convDone = ADC_DEC_CONV_DONE;
 173:.\Generated_Source\PSoC5/ADC_INT.c ****         #endif /* Single sample conversion mode with resolution above 16 bits */
 174:.\Generated_Source\PSoC5/ADC_INT.c ****     }
 175:.\Generated_Source\PSoC5/ADC_INT.c **** 
 176:.\Generated_Source\PSoC5/ADC_INT.c **** 
 177:.\Generated_Source\PSoC5/ADC_INT.c ****     /*****************************************************************************
 178:.\Generated_Source\PSoC5/ADC_INT.c ****     * Function Name: ADC_ISR4
 179:.\Generated_Source\PSoC5/ADC_INT.c ****     ******************************************************************************
 180:.\Generated_Source\PSoC5/ADC_INT.c ****     *
 181:.\Generated_Source\PSoC5/ADC_INT.c ****     * Summary:
 182:.\Generated_Source\PSoC5/ADC_INT.c ****     *  Handle Interrupt Service Routine.
 183:.\Generated_Source\PSoC5/ADC_INT.c ****     *
 184:.\Generated_Source\PSoC5/ADC_INT.c ****     * Parameters:
 185:.\Generated_Source\PSoC5/ADC_INT.c ****     *  None
 186:.\Generated_Source\PSoC5/ADC_INT.c ****     *
 187:.\Generated_Source\PSoC5/ADC_INT.c ****     * Return:
 188:.\Generated_Source\PSoC5/ADC_INT.c ****     *  None
 189:.\Generated_Source\PSoC5/ADC_INT.c ****     *
 190:.\Generated_Source\PSoC5/ADC_INT.c ****     * Reentrant:
 191:.\Generated_Source\PSoC5/ADC_INT.c ****     *  No
 192:.\Generated_Source\PSoC5/ADC_INT.c ****     *
 193:.\Generated_Source\PSoC5/ADC_INT.c ****     *****************************************************************************/
 194:.\Generated_Source\PSoC5/ADC_INT.c ****     CY_ISR( ADC_ISR4)
 195:.\Generated_Source\PSoC5/ADC_INT.c ****     {
 113              		.loc 1 195 0
 114              		.cfi_startproc
 115              		@ args = 0, pretend = 0, frame = 0
 116              		@ frame_needed = 0, uses_anonymous_args = 0
 117              		@ link register save eliminated.
 118 0000 7047     		bx	lr
 119              		.cfi_endproc
 120              	.LFE3:
 121              		.size	ADC_ISR4, .-ADC_ISR4
 122              		.global	Conversion
 123              		.global	iIndex
 124              		.comm	gobee_vparam,0,1
 125              		.bss
 126              		.align	1
 127              		.set	.LANCHOR0,. + 0
 128              		.type	Conversion, %object
 129              		.size	Conversion, 2
 130              	Conversion:
 131 0000 0000     		.space	2
 132              		.type	iIndex, %object
 133              		.size	iIndex, 1
 134              	iIndex:
 135 0002 00       		.space	1
 136 0003 00       		.text
 137              	.Letext0:
 138              		.file 2 ".\\Generated_Source\\PSoC5\\cytypes.h"
 139              		.file 3 "./gobee.h"
 140              		.file 4 ".\\Generated_Source\\PSoC5\\ADC.h"
 141              		.file 5 ".\\Generated_Source\\PSoC5\\cyfitter_cfg.h"