ARM GAS  C:\Users\Graziano\AppData\Local\Temp\ccO8ch7V.s 			page 1


   1              		.syntax unified
   2              		.cpu cortex-m3
   3              		.fpu softvfp
   4              		.eabi_attribute 20, 1
   5              		.eabi_attribute 21, 1
   6              		.eabi_attribute 23, 3
   7              		.eabi_attribute 24, 1
   8              		.eabi_attribute 25, 1
   9              		.eabi_attribute 26, 1
  10              		.eabi_attribute 30, 4
  11              		.eabi_attribute 34, 1
  12              		.eabi_attribute 18, 4
  13              		.thumb
  14              		.file	"BLE_XRES.c"
  15              		.text
  16              	.Ltext0:
  17              		.cfi_sections	.debug_frame
  18              		.section	.text.BLE_XRES_Write,"ax",%progbits
  19              		.align	1
  20              		.global	BLE_XRES_Write
  21              		.thumb
  22              		.thumb_func
  23              		.type	BLE_XRES_Write, %function
  24              	BLE_XRES_Write:
  25              	.LFB0:
  26              		.file 1 ".\\Generated_Source\\PSoC5\\BLE_XRES.c"
   1:.\Generated_Source\PSoC5/BLE_XRES.c **** /*******************************************************************************
   2:.\Generated_Source\PSoC5/BLE_XRES.c **** * File Name: BLE_XRES.c  
   3:.\Generated_Source\PSoC5/BLE_XRES.c **** * Version 2.5
   4:.\Generated_Source\PSoC5/BLE_XRES.c **** *
   5:.\Generated_Source\PSoC5/BLE_XRES.c **** * Description:
   6:.\Generated_Source\PSoC5/BLE_XRES.c **** *  This file contains API to enable firmware control of a Pins component.
   7:.\Generated_Source\PSoC5/BLE_XRES.c **** *
   8:.\Generated_Source\PSoC5/BLE_XRES.c **** * Note:
   9:.\Generated_Source\PSoC5/BLE_XRES.c **** *
  10:.\Generated_Source\PSoC5/BLE_XRES.c **** ********************************************************************************
  11:.\Generated_Source\PSoC5/BLE_XRES.c **** * Copyright 2008-2014, Cypress Semiconductor Corporation.  All rights reserved.
  12:.\Generated_Source\PSoC5/BLE_XRES.c **** * You may use this file only in accordance with the license, terms, conditions, 
  13:.\Generated_Source\PSoC5/BLE_XRES.c **** * disclaimers, and limitations in the end user license agreement accompanying 
  14:.\Generated_Source\PSoC5/BLE_XRES.c **** * the software package with which this file was provided.
  15:.\Generated_Source\PSoC5/BLE_XRES.c **** *******************************************************************************/
  16:.\Generated_Source\PSoC5/BLE_XRES.c **** 
  17:.\Generated_Source\PSoC5/BLE_XRES.c **** #include "cytypes.h"
  18:.\Generated_Source\PSoC5/BLE_XRES.c **** #include "BLE_XRES.h"
  19:.\Generated_Source\PSoC5/BLE_XRES.c **** 
  20:.\Generated_Source\PSoC5/BLE_XRES.c **** /* APIs are not generated for P15[7:6] on PSoC 5 */
  21:.\Generated_Source\PSoC5/BLE_XRES.c **** #if !(CY_PSOC5A &&\
  22:.\Generated_Source\PSoC5/BLE_XRES.c **** 	 BLE_XRES__PORT == 15 && ((BLE_XRES__MASK & 0xC0) != 0))
  23:.\Generated_Source\PSoC5/BLE_XRES.c **** 
  24:.\Generated_Source\PSoC5/BLE_XRES.c **** 
  25:.\Generated_Source\PSoC5/BLE_XRES.c **** /*******************************************************************************
  26:.\Generated_Source\PSoC5/BLE_XRES.c **** * Function Name: BLE_XRES_Write
  27:.\Generated_Source\PSoC5/BLE_XRES.c **** ********************************************************************************
  28:.\Generated_Source\PSoC5/BLE_XRES.c **** *
  29:.\Generated_Source\PSoC5/BLE_XRES.c **** * Summary:
  30:.\Generated_Source\PSoC5/BLE_XRES.c **** *  Assign a new value to the digital port's data output register.  
  31:.\Generated_Source\PSoC5/BLE_XRES.c **** *
ARM GAS  C:\Users\Graziano\AppData\Local\Temp\ccO8ch7V.s 			page 2


  32:.\Generated_Source\PSoC5/BLE_XRES.c **** * Parameters:  
  33:.\Generated_Source\PSoC5/BLE_XRES.c **** *  prtValue:  The value to be assigned to the Digital Port. 
  34:.\Generated_Source\PSoC5/BLE_XRES.c **** *
  35:.\Generated_Source\PSoC5/BLE_XRES.c **** * Return: 
  36:.\Generated_Source\PSoC5/BLE_XRES.c **** *  None
  37:.\Generated_Source\PSoC5/BLE_XRES.c **** *  
  38:.\Generated_Source\PSoC5/BLE_XRES.c **** *******************************************************************************/
  39:.\Generated_Source\PSoC5/BLE_XRES.c **** void BLE_XRES_Write(uint8 value) 
  40:.\Generated_Source\PSoC5/BLE_XRES.c **** {
  27              		.loc 1 40 0
  28              		.cfi_startproc
  29              		@ args = 0, pretend = 0, frame = 0
  30              		@ frame_needed = 0, uses_anonymous_args = 0
  31              		@ link register save eliminated.
  32              	.LVL0:
  41:.\Generated_Source\PSoC5/BLE_XRES.c ****     uint8 staticBits = (BLE_XRES_DR & (uint8)(~BLE_XRES_MASK));
  33              		.loc 1 41 0
  34 0000 044B     		ldr	r3, .L2
  42:.\Generated_Source\PSoC5/BLE_XRES.c ****     BLE_XRES_DR = staticBits | ((uint8)(value << BLE_XRES_SHIFT) & BLE_XRES_MASK);
  35              		.loc 1 42 0
  36 0002 00F00100 		and	r0, r0, #1
  37              	.LVL1:
  41:.\Generated_Source\PSoC5/BLE_XRES.c ****     uint8 staticBits = (BLE_XRES_DR & (uint8)(~BLE_XRES_MASK));
  38              		.loc 1 41 0
  39 0006 1A78     		ldrb	r2, [r3, #0]	@ zero_extendqisi2
  40              	.LVL2:
  41 0008 02F0FE01 		and	r1, r2, #254
  42              		.loc 1 42 0
  43 000c 40EA0102 		orr	r2, r0, r1
  44              	.LVL3:
  45 0010 1A70     		strb	r2, [r3, #0]
  46 0012 7047     		bx	lr
  47              	.L3:
  48              		.align	2
  49              	.L2:
  50 0014 00510040 		.word	1073762560
  51              		.cfi_endproc
  52              	.LFE0:
  53              		.size	BLE_XRES_Write, .-BLE_XRES_Write
  54              		.section	.text.BLE_XRES_SetDriveMode,"ax",%progbits
  55              		.align	1
  56              		.global	BLE_XRES_SetDriveMode
  57              		.thumb
  58              		.thumb_func
  59              		.type	BLE_XRES_SetDriveMode, %function
  60              	BLE_XRES_SetDriveMode:
  61              	.LFB1:
  43:.\Generated_Source\PSoC5/BLE_XRES.c **** }
  44:.\Generated_Source\PSoC5/BLE_XRES.c **** 
  45:.\Generated_Source\PSoC5/BLE_XRES.c **** 
  46:.\Generated_Source\PSoC5/BLE_XRES.c **** /*******************************************************************************
  47:.\Generated_Source\PSoC5/BLE_XRES.c **** * Function Name: BLE_XRES_SetDriveMode
  48:.\Generated_Source\PSoC5/BLE_XRES.c **** ********************************************************************************
  49:.\Generated_Source\PSoC5/BLE_XRES.c **** *
  50:.\Generated_Source\PSoC5/BLE_XRES.c **** * Summary:
  51:.\Generated_Source\PSoC5/BLE_XRES.c **** *  Change the drive mode on the pins of the port.
  52:.\Generated_Source\PSoC5/BLE_XRES.c **** * 
ARM GAS  C:\Users\Graziano\AppData\Local\Temp\ccO8ch7V.s 			page 3


  53:.\Generated_Source\PSoC5/BLE_XRES.c **** * Parameters:  
  54:.\Generated_Source\PSoC5/BLE_XRES.c **** *  mode:  Change the pins to one of the following drive modes.
  55:.\Generated_Source\PSoC5/BLE_XRES.c **** *
  56:.\Generated_Source\PSoC5/BLE_XRES.c **** *  BLE_XRES_DM_STRONG     Strong Drive 
  57:.\Generated_Source\PSoC5/BLE_XRES.c **** *  BLE_XRES_DM_OD_HI      Open Drain, Drives High 
  58:.\Generated_Source\PSoC5/BLE_XRES.c **** *  BLE_XRES_DM_OD_LO      Open Drain, Drives Low 
  59:.\Generated_Source\PSoC5/BLE_XRES.c **** *  BLE_XRES_DM_RES_UP     Resistive Pull Up 
  60:.\Generated_Source\PSoC5/BLE_XRES.c **** *  BLE_XRES_DM_RES_DWN    Resistive Pull Down 
  61:.\Generated_Source\PSoC5/BLE_XRES.c **** *  BLE_XRES_DM_RES_UPDWN  Resistive Pull Up/Down 
  62:.\Generated_Source\PSoC5/BLE_XRES.c **** *  BLE_XRES_DM_DIG_HIZ    High Impedance Digital 
  63:.\Generated_Source\PSoC5/BLE_XRES.c **** *  BLE_XRES_DM_ALG_HIZ    High Impedance Analog 
  64:.\Generated_Source\PSoC5/BLE_XRES.c **** *
  65:.\Generated_Source\PSoC5/BLE_XRES.c **** * Return: 
  66:.\Generated_Source\PSoC5/BLE_XRES.c **** *  None
  67:.\Generated_Source\PSoC5/BLE_XRES.c **** *
  68:.\Generated_Source\PSoC5/BLE_XRES.c **** *******************************************************************************/
  69:.\Generated_Source\PSoC5/BLE_XRES.c **** void BLE_XRES_SetDriveMode(uint8 mode) 
  70:.\Generated_Source\PSoC5/BLE_XRES.c **** {
  62              		.loc 1 70 0
  63              		.cfi_startproc
  64              		@ args = 0, pretend = 0, frame = 0
  65              		@ frame_needed = 0, uses_anonymous_args = 0
  66              		@ link register save eliminated.
  67              	.LVL4:
  71:.\Generated_Source\PSoC5/BLE_XRES.c **** 	CyPins_SetPinDriveMode(BLE_XRES_0, mode);
  68              		.loc 1 71 0
  69 0000 044B     		ldr	r3, .L5
  70 0002 00F00E00 		and	r0, r0, #14
  71              	.LVL5:
  72 0006 1A78     		ldrb	r2, [r3, #0]	@ zero_extendqisi2
  73 0008 22F00E01 		bic	r1, r2, #14
  74 000c 40EA0102 		orr	r2, r0, r1
  75 0010 1A70     		strb	r2, [r3, #0]
  76 0012 7047     		bx	lr
  77              	.L6:
  78              		.align	2
  79              	.L5:
  80 0014 00500040 		.word	1073762304
  81              		.cfi_endproc
  82              	.LFE1:
  83              		.size	BLE_XRES_SetDriveMode, .-BLE_XRES_SetDriveMode
  84              		.section	.text.BLE_XRES_Read,"ax",%progbits
  85              		.align	1
  86              		.global	BLE_XRES_Read
  87              		.thumb
  88              		.thumb_func
  89              		.type	BLE_XRES_Read, %function
  90              	BLE_XRES_Read:
  91              	.LFB2:
  72:.\Generated_Source\PSoC5/BLE_XRES.c **** }
  73:.\Generated_Source\PSoC5/BLE_XRES.c **** 
  74:.\Generated_Source\PSoC5/BLE_XRES.c **** 
  75:.\Generated_Source\PSoC5/BLE_XRES.c **** /*******************************************************************************
  76:.\Generated_Source\PSoC5/BLE_XRES.c **** * Function Name: BLE_XRES_Read
  77:.\Generated_Source\PSoC5/BLE_XRES.c **** ********************************************************************************
  78:.\Generated_Source\PSoC5/BLE_XRES.c **** *
  79:.\Generated_Source\PSoC5/BLE_XRES.c **** * Summary:
ARM GAS  C:\Users\Graziano\AppData\Local\Temp\ccO8ch7V.s 			page 4


  80:.\Generated_Source\PSoC5/BLE_XRES.c **** *  Read the current value on the pins of the Digital Port in right justified 
  81:.\Generated_Source\PSoC5/BLE_XRES.c **** *  form.
  82:.\Generated_Source\PSoC5/BLE_XRES.c **** *
  83:.\Generated_Source\PSoC5/BLE_XRES.c **** * Parameters:  
  84:.\Generated_Source\PSoC5/BLE_XRES.c **** *  None
  85:.\Generated_Source\PSoC5/BLE_XRES.c **** *
  86:.\Generated_Source\PSoC5/BLE_XRES.c **** * Return: 
  87:.\Generated_Source\PSoC5/BLE_XRES.c **** *  Returns the current value of the Digital Port as a right justified number
  88:.\Generated_Source\PSoC5/BLE_XRES.c **** *  
  89:.\Generated_Source\PSoC5/BLE_XRES.c **** * Note:
  90:.\Generated_Source\PSoC5/BLE_XRES.c **** *  Macro BLE_XRES_ReadPS calls this function. 
  91:.\Generated_Source\PSoC5/BLE_XRES.c **** *  
  92:.\Generated_Source\PSoC5/BLE_XRES.c **** *******************************************************************************/
  93:.\Generated_Source\PSoC5/BLE_XRES.c **** uint8 BLE_XRES_Read(void) 
  94:.\Generated_Source\PSoC5/BLE_XRES.c **** {
  92              		.loc 1 94 0
  93              		.cfi_startproc
  94              		@ args = 0, pretend = 0, frame = 0
  95              		@ frame_needed = 0, uses_anonymous_args = 0
  96              		@ link register save eliminated.
  95:.\Generated_Source\PSoC5/BLE_XRES.c ****     return (BLE_XRES_PS & BLE_XRES_MASK) >> BLE_XRES_SHIFT;
  97              		.loc 1 95 0
  98 0000 024B     		ldr	r3, .L8
  99 0002 1878     		ldrb	r0, [r3, #0]	@ zero_extendqisi2
  96:.\Generated_Source\PSoC5/BLE_XRES.c **** }
 100              		.loc 1 96 0
 101 0004 00F00100 		and	r0, r0, #1
 102 0008 7047     		bx	lr
 103              	.L9:
 104 000a 00BF     		.align	2
 105              	.L8:
 106 000c 01510040 		.word	1073762561
 107              		.cfi_endproc
 108              	.LFE2:
 109              		.size	BLE_XRES_Read, .-BLE_XRES_Read
 110              		.section	.text.BLE_XRES_ReadDataReg,"ax",%progbits
 111              		.align	1
 112              		.global	BLE_XRES_ReadDataReg
 113              		.thumb
 114              		.thumb_func
 115              		.type	BLE_XRES_ReadDataReg, %function
 116              	BLE_XRES_ReadDataReg:
 117              	.LFB3:
  97:.\Generated_Source\PSoC5/BLE_XRES.c **** 
  98:.\Generated_Source\PSoC5/BLE_XRES.c **** 
  99:.\Generated_Source\PSoC5/BLE_XRES.c **** /*******************************************************************************
 100:.\Generated_Source\PSoC5/BLE_XRES.c **** * Function Name: BLE_XRES_ReadDataReg
 101:.\Generated_Source\PSoC5/BLE_XRES.c **** ********************************************************************************
 102:.\Generated_Source\PSoC5/BLE_XRES.c **** *
 103:.\Generated_Source\PSoC5/BLE_XRES.c **** * Summary:
 104:.\Generated_Source\PSoC5/BLE_XRES.c **** *  Read the current value assigned to a Digital Port's data output register
 105:.\Generated_Source\PSoC5/BLE_XRES.c **** *
 106:.\Generated_Source\PSoC5/BLE_XRES.c **** * Parameters:  
 107:.\Generated_Source\PSoC5/BLE_XRES.c **** *  None 
 108:.\Generated_Source\PSoC5/BLE_XRES.c **** *
 109:.\Generated_Source\PSoC5/BLE_XRES.c **** * Return: 
 110:.\Generated_Source\PSoC5/BLE_XRES.c **** *  Returns the current value assigned to the Digital Port's data output register
ARM GAS  C:\Users\Graziano\AppData\Local\Temp\ccO8ch7V.s 			page 5


 111:.\Generated_Source\PSoC5/BLE_XRES.c **** *  
 112:.\Generated_Source\PSoC5/BLE_XRES.c **** *******************************************************************************/
 113:.\Generated_Source\PSoC5/BLE_XRES.c **** uint8 BLE_XRES_ReadDataReg(void) 
 114:.\Generated_Source\PSoC5/BLE_XRES.c **** {
 118              		.loc 1 114 0
 119              		.cfi_startproc
 120              		@ args = 0, pretend = 0, frame = 0
 121              		@ frame_needed = 0, uses_anonymous_args = 0
 122              		@ link register save eliminated.
 115:.\Generated_Source\PSoC5/BLE_XRES.c ****     return (BLE_XRES_DR & BLE_XRES_MASK) >> BLE_XRES_SHIFT;
 123              		.loc 1 115 0
 124 0000 024B     		ldr	r3, .L11
 125 0002 1878     		ldrb	r0, [r3, #0]	@ zero_extendqisi2
 116:.\Generated_Source\PSoC5/BLE_XRES.c **** }
 126              		.loc 1 116 0
 127 0004 00F00100 		and	r0, r0, #1
 128 0008 7047     		bx	lr
 129              	.L12:
 130 000a 00BF     		.align	2
 131              	.L11:
 132 000c 00510040 		.word	1073762560
 133              		.cfi_endproc
 134              	.LFE3:
 135              		.size	BLE_XRES_ReadDataReg, .-BLE_XRES_ReadDataReg
 136              		.text
 137              	.Letext0:
 138              		.file 2 ".\\Generated_Source\\PSoC5\\cytypes.h"