ARM GAS  C:\Users\Graziano\AppData\Local\Temp\cc2U6mNu.s 			page 1


   1              		.syntax unified
   2              		.cpu cortex-m3
   3              		.fpu softvfp
   4              		.eabi_attribute 20, 1
   5              		.eabi_attribute 21, 1
   6              		.eabi_attribute 23, 3
   7              		.eabi_attribute 24, 1
   8              		.eabi_attribute 25, 1
   9              		.eabi_attribute 26, 1
  10              		.eabi_attribute 30, 4
  11              		.eabi_attribute 34, 1
  12              		.eabi_attribute 18, 4
  13              		.thumb
  14              		.file	"Clock_SYS.c"
  15              		.text
  16              	.Ltext0:
  17              		.cfi_sections	.debug_frame
  18              		.section	.text.Clock_SYS_Start,"ax",%progbits
  19              		.align	1
  20              		.global	Clock_SYS_Start
  21              		.thumb
  22              		.thumb_func
  23              		.type	Clock_SYS_Start, %function
  24              	Clock_SYS_Start:
  25              	.LFB0:
  26              		.file 1 ".\\Generated_Source\\PSoC5\\Clock_SYS.c"
   1:.\Generated_Source\PSoC5/Clock_SYS.c **** /*******************************************************************************
   2:.\Generated_Source\PSoC5/Clock_SYS.c **** * File Name: Clock_SYS.c
   3:.\Generated_Source\PSoC5/Clock_SYS.c **** * Version 2.20
   4:.\Generated_Source\PSoC5/Clock_SYS.c **** *
   5:.\Generated_Source\PSoC5/Clock_SYS.c **** *  Description:
   6:.\Generated_Source\PSoC5/Clock_SYS.c **** *   This file provides the source code to the API for the clock component.
   7:.\Generated_Source\PSoC5/Clock_SYS.c **** *
   8:.\Generated_Source\PSoC5/Clock_SYS.c **** *  Note:
   9:.\Generated_Source\PSoC5/Clock_SYS.c **** *
  10:.\Generated_Source\PSoC5/Clock_SYS.c **** ********************************************************************************
  11:.\Generated_Source\PSoC5/Clock_SYS.c **** * Copyright 2008-2012, Cypress Semiconductor Corporation.  All rights reserved.
  12:.\Generated_Source\PSoC5/Clock_SYS.c **** * You may use this file only in accordance with the license, terms, conditions, 
  13:.\Generated_Source\PSoC5/Clock_SYS.c **** * disclaimers, and limitations in the end user license agreement accompanying 
  14:.\Generated_Source\PSoC5/Clock_SYS.c **** * the software package with which this file was provided.
  15:.\Generated_Source\PSoC5/Clock_SYS.c **** *******************************************************************************/
  16:.\Generated_Source\PSoC5/Clock_SYS.c **** 
  17:.\Generated_Source\PSoC5/Clock_SYS.c **** #include <cydevice_trm.h>
  18:.\Generated_Source\PSoC5/Clock_SYS.c **** #include "Clock_SYS.h"
  19:.\Generated_Source\PSoC5/Clock_SYS.c **** 
  20:.\Generated_Source\PSoC5/Clock_SYS.c **** /* Clock Distribution registers. */
  21:.\Generated_Source\PSoC5/Clock_SYS.c **** #define CLK_DIST_LD              (* (reg8 *) CYREG_CLKDIST_LD)
  22:.\Generated_Source\PSoC5/Clock_SYS.c **** #define CLK_DIST_BCFG2           (* (reg8 *) CYREG_CLKDIST_BCFG2)
  23:.\Generated_Source\PSoC5/Clock_SYS.c **** #define BCFG2_MASK               (0x80u)
  24:.\Generated_Source\PSoC5/Clock_SYS.c **** #define CLK_DIST_DMASK           (* (reg8 *) CYREG_CLKDIST_DMASK)
  25:.\Generated_Source\PSoC5/Clock_SYS.c **** #define CLK_DIST_AMASK           (* (reg8 *) CYREG_CLKDIST_AMASK)
  26:.\Generated_Source\PSoC5/Clock_SYS.c **** 
  27:.\Generated_Source\PSoC5/Clock_SYS.c **** #define HAS_CLKDIST_LD_DISABLE   (CY_PSOC3 || CY_PSOC5LP)
  28:.\Generated_Source\PSoC5/Clock_SYS.c **** 
  29:.\Generated_Source\PSoC5/Clock_SYS.c **** 
  30:.\Generated_Source\PSoC5/Clock_SYS.c **** /*******************************************************************************
  31:.\Generated_Source\PSoC5/Clock_SYS.c **** * Function Name: Clock_SYS_Start
ARM GAS  C:\Users\Graziano\AppData\Local\Temp\cc2U6mNu.s 			page 2


  32:.\Generated_Source\PSoC5/Clock_SYS.c **** ********************************************************************************
  33:.\Generated_Source\PSoC5/Clock_SYS.c **** *
  34:.\Generated_Source\PSoC5/Clock_SYS.c **** * Summary:
  35:.\Generated_Source\PSoC5/Clock_SYS.c **** *  Starts the clock. Note that on startup, clocks may be already running if the
  36:.\Generated_Source\PSoC5/Clock_SYS.c **** *  "Start on Reset" option is enabled in the DWR.
  37:.\Generated_Source\PSoC5/Clock_SYS.c **** *
  38:.\Generated_Source\PSoC5/Clock_SYS.c **** * Parameters:
  39:.\Generated_Source\PSoC5/Clock_SYS.c **** *  None
  40:.\Generated_Source\PSoC5/Clock_SYS.c **** *
  41:.\Generated_Source\PSoC5/Clock_SYS.c **** * Returns:
  42:.\Generated_Source\PSoC5/Clock_SYS.c **** *  None
  43:.\Generated_Source\PSoC5/Clock_SYS.c **** *
  44:.\Generated_Source\PSoC5/Clock_SYS.c **** *******************************************************************************/
  45:.\Generated_Source\PSoC5/Clock_SYS.c **** void Clock_SYS_Start(void) 
  46:.\Generated_Source\PSoC5/Clock_SYS.c **** {
  27              		.loc 1 46 0
  28              		.cfi_startproc
  29              		@ args = 0, pretend = 0, frame = 0
  30              		@ frame_needed = 0, uses_anonymous_args = 0
  31              		@ link register save eliminated.
  47:.\Generated_Source\PSoC5/Clock_SYS.c ****     /* Set the bit to enable the clock. */
  48:.\Generated_Source\PSoC5/Clock_SYS.c ****     Clock_SYS_CLKEN |= Clock_SYS_CLKEN_MASK;
  32              		.loc 1 48 0
  33 0000 044B     		ldr	r3, .L2
  34 0002 1A78     		ldrb	r2, [r3, #0]	@ zero_extendqisi2
  35 0004 42F08000 		orr	r0, r2, #128
  36 0008 1870     		strb	r0, [r3, #0]
  49:.\Generated_Source\PSoC5/Clock_SYS.c **** 	Clock_SYS_CLKSTBY |= Clock_SYS_CLKSTBY_MASK;
  37              		.loc 1 49 0
  38 000a 197C     		ldrb	r1, [r3, #16]	@ zero_extendqisi2
  39 000c 41F08002 		orr	r2, r1, #128
  40 0010 1A74     		strb	r2, [r3, #16]
  41 0012 7047     		bx	lr
  42              	.L3:
  43              		.align	2
  44              	.L2:
  45 0014 A2430040 		.word	1073759138
  46              		.cfi_endproc
  47              	.LFE0:
  48              		.size	Clock_SYS_Start, .-Clock_SYS_Start
  49              		.section	.text.Clock_SYS_Stop,"ax",%progbits
  50              		.align	1
  51              		.global	Clock_SYS_Stop
  52              		.thumb
  53              		.thumb_func
  54              		.type	Clock_SYS_Stop, %function
  55              	Clock_SYS_Stop:
  56              	.LFB1:
  50:.\Generated_Source\PSoC5/Clock_SYS.c **** }
  51:.\Generated_Source\PSoC5/Clock_SYS.c **** 
  52:.\Generated_Source\PSoC5/Clock_SYS.c **** 
  53:.\Generated_Source\PSoC5/Clock_SYS.c **** /*******************************************************************************
  54:.\Generated_Source\PSoC5/Clock_SYS.c **** * Function Name: Clock_SYS_Stop
  55:.\Generated_Source\PSoC5/Clock_SYS.c **** ********************************************************************************
  56:.\Generated_Source\PSoC5/Clock_SYS.c **** *
  57:.\Generated_Source\PSoC5/Clock_SYS.c **** * Summary:
  58:.\Generated_Source\PSoC5/Clock_SYS.c **** *  Stops the clock and returns immediately. This API does not require the
ARM GAS  C:\Users\Graziano\AppData\Local\Temp\cc2U6mNu.s 			page 3


  59:.\Generated_Source\PSoC5/Clock_SYS.c **** *  source clock to be running but may return before the hardware is actually
  60:.\Generated_Source\PSoC5/Clock_SYS.c **** *  disabled. If the settings of the clock are changed after calling this
  61:.\Generated_Source\PSoC5/Clock_SYS.c **** *  function, the clock may glitch when it is started. To avoid the clock
  62:.\Generated_Source\PSoC5/Clock_SYS.c **** *  glitch, use the StopBlock function.
  63:.\Generated_Source\PSoC5/Clock_SYS.c **** *
  64:.\Generated_Source\PSoC5/Clock_SYS.c **** * Parameters:
  65:.\Generated_Source\PSoC5/Clock_SYS.c **** *  None
  66:.\Generated_Source\PSoC5/Clock_SYS.c **** *
  67:.\Generated_Source\PSoC5/Clock_SYS.c **** * Returns:
  68:.\Generated_Source\PSoC5/Clock_SYS.c **** *  None
  69:.\Generated_Source\PSoC5/Clock_SYS.c **** *
  70:.\Generated_Source\PSoC5/Clock_SYS.c **** *******************************************************************************/
  71:.\Generated_Source\PSoC5/Clock_SYS.c **** void Clock_SYS_Stop(void) 
  72:.\Generated_Source\PSoC5/Clock_SYS.c **** {
  57              		.loc 1 72 0
  58              		.cfi_startproc
  59              		@ args = 0, pretend = 0, frame = 0
  60              		@ frame_needed = 0, uses_anonymous_args = 0
  61              		@ link register save eliminated.
  73:.\Generated_Source\PSoC5/Clock_SYS.c ****     /* Clear the bit to disable the clock. */
  74:.\Generated_Source\PSoC5/Clock_SYS.c ****     Clock_SYS_CLKEN &= (uint8)(~Clock_SYS_CLKEN_MASK);
  62              		.loc 1 74 0
  63 0000 044B     		ldr	r3, .L5
  64 0002 1A78     		ldrb	r2, [r3, #0]	@ zero_extendqisi2
  65 0004 02F07F00 		and	r0, r2, #127
  66 0008 1870     		strb	r0, [r3, #0]
  75:.\Generated_Source\PSoC5/Clock_SYS.c **** 	Clock_SYS_CLKSTBY &= (uint8)(~Clock_SYS_CLKSTBY_MASK);
  67              		.loc 1 75 0
  68 000a 197C     		ldrb	r1, [r3, #16]	@ zero_extendqisi2
  69 000c 01F07F02 		and	r2, r1, #127
  70 0010 1A74     		strb	r2, [r3, #16]
  71 0012 7047     		bx	lr
  72              	.L6:
  73              		.align	2
  74              	.L5:
  75 0014 A2430040 		.word	1073759138
  76              		.cfi_endproc
  77              	.LFE1:
  78              		.size	Clock_SYS_Stop, .-Clock_SYS_Stop
  79              		.section	.text.Clock_SYS_StopBlock,"ax",%progbits
  80              		.align	1
  81              		.global	Clock_SYS_StopBlock
  82              		.thumb
  83              		.thumb_func
  84              		.type	Clock_SYS_StopBlock, %function
  85              	Clock_SYS_StopBlock:
  86              	.LFB2:
  76:.\Generated_Source\PSoC5/Clock_SYS.c **** }
  77:.\Generated_Source\PSoC5/Clock_SYS.c **** 
  78:.\Generated_Source\PSoC5/Clock_SYS.c **** 
  79:.\Generated_Source\PSoC5/Clock_SYS.c **** #if(CY_PSOC3 || CY_PSOC5LP)
  80:.\Generated_Source\PSoC5/Clock_SYS.c **** 
  81:.\Generated_Source\PSoC5/Clock_SYS.c **** 
  82:.\Generated_Source\PSoC5/Clock_SYS.c **** /*******************************************************************************
  83:.\Generated_Source\PSoC5/Clock_SYS.c **** * Function Name: Clock_SYS_StopBlock
  84:.\Generated_Source\PSoC5/Clock_SYS.c **** ********************************************************************************
  85:.\Generated_Source\PSoC5/Clock_SYS.c **** *
ARM GAS  C:\Users\Graziano\AppData\Local\Temp\cc2U6mNu.s 			page 4


  86:.\Generated_Source\PSoC5/Clock_SYS.c **** * Summary:
  87:.\Generated_Source\PSoC5/Clock_SYS.c **** *  Stops the clock and waits for the hardware to actually be disabled before
  88:.\Generated_Source\PSoC5/Clock_SYS.c **** *  returning. This ensures that the clock is never truncated (high part of the
  89:.\Generated_Source\PSoC5/Clock_SYS.c **** *  cycle will terminate before the clock is disabled and the API returns).
  90:.\Generated_Source\PSoC5/Clock_SYS.c **** *  Note that the source clock must be running or this API will never return as
  91:.\Generated_Source\PSoC5/Clock_SYS.c **** *  a stopped clock cannot be disabled.
  92:.\Generated_Source\PSoC5/Clock_SYS.c **** *
  93:.\Generated_Source\PSoC5/Clock_SYS.c **** * Parameters:
  94:.\Generated_Source\PSoC5/Clock_SYS.c **** *  None
  95:.\Generated_Source\PSoC5/Clock_SYS.c **** *
  96:.\Generated_Source\PSoC5/Clock_SYS.c **** * Returns:
  97:.\Generated_Source\PSoC5/Clock_SYS.c **** *  None
  98:.\Generated_Source\PSoC5/Clock_SYS.c **** *
  99:.\Generated_Source\PSoC5/Clock_SYS.c **** *******************************************************************************/
 100:.\Generated_Source\PSoC5/Clock_SYS.c **** void Clock_SYS_StopBlock(void) 
 101:.\Generated_Source\PSoC5/Clock_SYS.c **** {
  87              		.loc 1 101 0
  88              		.cfi_startproc
  89              		@ args = 0, pretend = 0, frame = 0
  90              		@ frame_needed = 0, uses_anonymous_args = 0
  91 0000 10B5     		push	{r4, lr}
  92              	.LCFI0:
  93              		.cfi_def_cfa_offset 8
  94              		.cfi_offset 4, -8
  95              		.cfi_offset 14, -4
 102:.\Generated_Source\PSoC5/Clock_SYS.c ****     if ((Clock_SYS_CLKEN & Clock_SYS_CLKEN_MASK) != 0u)
  96              		.loc 1 102 0
  97 0002 144B     		ldr	r3, .L12
  98 0004 1878     		ldrb	r0, [r3, #0]	@ zero_extendqisi2
  99 0006 0306     		lsls	r3, r0, #24
 100 0008 23D5     		bpl	.L7
 101              	.LBB10:
 103:.\Generated_Source\PSoC5/Clock_SYS.c ****     {
 104:.\Generated_Source\PSoC5/Clock_SYS.c **** #if HAS_CLKDIST_LD_DISABLE
 105:.\Generated_Source\PSoC5/Clock_SYS.c ****         uint16 oldDivider;
 106:.\Generated_Source\PSoC5/Clock_SYS.c **** 
 107:.\Generated_Source\PSoC5/Clock_SYS.c ****         CLK_DIST_LD = 0u;
 108:.\Generated_Source\PSoC5/Clock_SYS.c **** 
 109:.\Generated_Source\PSoC5/Clock_SYS.c ****         /* Clear all the mask bits except ours. */
 110:.\Generated_Source\PSoC5/Clock_SYS.c **** #if defined(Clock_SYS__CFG3)
 111:.\Generated_Source\PSoC5/Clock_SYS.c ****         CLK_DIST_AMASK = Clock_SYS_CLKEN_MASK;
 112:.\Generated_Source\PSoC5/Clock_SYS.c ****         CLK_DIST_DMASK = 0x00u;
 113:.\Generated_Source\PSoC5/Clock_SYS.c **** #else
 114:.\Generated_Source\PSoC5/Clock_SYS.c ****         CLK_DIST_DMASK = Clock_SYS_CLKEN_MASK;
 102              		.loc 1 114 0
 103 000a 1349     		ldr	r1, .L12+4
 107:.\Generated_Source\PSoC5/Clock_SYS.c ****         CLK_DIST_LD = 0u;
 104              		.loc 1 107 0
 105 000c 134A     		ldr	r2, .L12+8
 106 000e 0024     		movs	r4, #0
 115:.\Generated_Source\PSoC5/Clock_SYS.c ****         CLK_DIST_AMASK = 0x00u;
 116:.\Generated_Source\PSoC5/Clock_SYS.c **** #endif /* Clock_SYS__CFG3 */
 117:.\Generated_Source\PSoC5/Clock_SYS.c **** 
 118:.\Generated_Source\PSoC5/Clock_SYS.c ****         /* Clear mask of bus clock. */
 119:.\Generated_Source\PSoC5/Clock_SYS.c ****         CLK_DIST_BCFG2 &= (uint8)(~BCFG2_MASK);
 107              		.loc 1 119 0
 108 0010 1348     		ldr	r0, .L12+12
ARM GAS  C:\Users\Graziano\AppData\Local\Temp\cc2U6mNu.s 			page 5


 114:.\Generated_Source\PSoC5/Clock_SYS.c ****         CLK_DIST_DMASK = Clock_SYS_CLKEN_MASK;
 109              		.loc 1 114 0
 110 0012 8023     		movs	r3, #128
 107:.\Generated_Source\PSoC5/Clock_SYS.c ****         CLK_DIST_LD = 0u;
 111              		.loc 1 107 0
 112 0014 1470     		strb	r4, [r2, #0]
 114:.\Generated_Source\PSoC5/Clock_SYS.c ****         CLK_DIST_DMASK = Clock_SYS_CLKEN_MASK;
 113              		.loc 1 114 0
 114 0016 0B70     		strb	r3, [r1, #0]
 115:.\Generated_Source\PSoC5/Clock_SYS.c ****         CLK_DIST_AMASK = 0x00u;
 115              		.loc 1 115 0
 116 0018 0C71     		strb	r4, [r1, #4]
 117              		.loc 1 119 0
 118 001a 0478     		ldrb	r4, [r0, #0]	@ zero_extendqisi2
 119 001c 04F07F03 		and	r3, r4, #127
 120 0020 0370     		strb	r3, [r0, #0]
 120:.\Generated_Source\PSoC5/Clock_SYS.c **** 
 121:.\Generated_Source\PSoC5/Clock_SYS.c ****         oldDivider = CY_GET_REG16(Clock_SYS_DIV_PTR);
 121              		.loc 1 121 0
 122 0022 9430     		adds	r0, r0, #148
 123 0024 0188     		ldrh	r1, [r0, #0]
 122:.\Generated_Source\PSoC5/Clock_SYS.c ****         CY_SET_REG16(CYREG_CLKDIST_WRK0, oldDivider);
 124              		.loc 1 122 0
 125 0026 0F48     		ldr	r0, .L12+16
 121:.\Generated_Source\PSoC5/Clock_SYS.c ****         oldDivider = CY_GET_REG16(Clock_SYS_DIV_PTR);
 126              		.loc 1 121 0
 127 0028 8BB2     		uxth	r3, r1
 128              	.LVL0:
 123:.\Generated_Source\PSoC5/Clock_SYS.c ****         CLK_DIST_LD = CYCLK_LD_DISABLE | CYCLK_LD_SYNC_EN | CYCLK_LD_LOAD;
 129              		.loc 1 123 0
 130 002a 0724     		movs	r4, #7
 122:.\Generated_Source\PSoC5/Clock_SYS.c ****         CY_SET_REG16(CYREG_CLKDIST_WRK0, oldDivider);
 131              		.loc 1 122 0
 132 002c 0380     		strh	r3, [r0, #0]	@ movhi
 133              		.loc 1 123 0
 134 002e 1470     		strb	r4, [r2, #0]
 135              	.LVL1:
 136              	.L9:
 124:.\Generated_Source\PSoC5/Clock_SYS.c **** 
 125:.\Generated_Source\PSoC5/Clock_SYS.c ****         /* Wait for clock to be disabled */
 126:.\Generated_Source\PSoC5/Clock_SYS.c ****         while ((CLK_DIST_LD & CYCLK_LD_LOAD) != 0u) { }
 137              		.loc 1 126 0 discriminator 1
 138 0030 0A4A     		ldr	r2, .L12+8
 139 0032 1178     		ldrb	r1, [r2, #0]	@ zero_extendqisi2
 140 0034 11F00100 		ands	r0, r1, #1
 141 0038 FAD1     		bne	.L9
 127:.\Generated_Source\PSoC5/Clock_SYS.c **** #endif /* HAS_CLKDIST_LD_DISABLE */
 128:.\Generated_Source\PSoC5/Clock_SYS.c **** 
 129:.\Generated_Source\PSoC5/Clock_SYS.c ****         /* Clear the bit to disable the clock. */
 130:.\Generated_Source\PSoC5/Clock_SYS.c ****         Clock_SYS_CLKEN &= (uint8)(~Clock_SYS_CLKEN_MASK);
 142              		.loc 1 130 0
 143 003a 0649     		ldr	r1, .L12
 144 003c 0C78     		ldrb	r4, [r1, #0]	@ zero_extendqisi2
 145 003e 04F07F04 		and	r4, r4, #127
 146 0042 0C70     		strb	r4, [r1, #0]
 131:.\Generated_Source\PSoC5/Clock_SYS.c ****         Clock_SYS_CLKSTBY &= (uint8)(~Clock_SYS_CLKSTBY_MASK);
 147              		.loc 1 131 0
ARM GAS  C:\Users\Graziano\AppData\Local\Temp\cc2U6mNu.s 			page 6


 148 0044 0C7C     		ldrb	r4, [r1, #16]	@ zero_extendqisi2
 149 0046 04F07F04 		and	r4, r4, #127
 150 004a 0C74     		strb	r4, [r1, #16]
 132:.\Generated_Source\PSoC5/Clock_SYS.c **** 
 133:.\Generated_Source\PSoC5/Clock_SYS.c **** #if HAS_CLKDIST_LD_DISABLE
 134:.\Generated_Source\PSoC5/Clock_SYS.c ****         /* Clear the disable bit */
 135:.\Generated_Source\PSoC5/Clock_SYS.c ****         CLK_DIST_LD = 0x00u;
 151              		.loc 1 135 0
 152 004c 1070     		strb	r0, [r2, #0]
 136:.\Generated_Source\PSoC5/Clock_SYS.c ****         CY_SET_REG16(Clock_SYS_DIV_PTR, oldDivider);
 153              		.loc 1 136 0
 154 004e A2F89B30 		strh	r3, [r2, #155]	@ movhi
 155              	.LVL2:
 156              	.L7:
 157 0052 10BD     		pop	{r4, pc}
 158              	.L13:
 159              		.align	2
 160              	.L12:
 161 0054 A2430040 		.word	1073759138
 162 0058 10400040 		.word	1073758224
 163 005c 01400040 		.word	1073758209
 164 0060 08400040 		.word	1073758216
 165 0064 02400040 		.word	1073758210
 166              	.LBE10:
 167              		.cfi_endproc
 168              	.LFE2:
 169              		.size	Clock_SYS_StopBlock, .-Clock_SYS_StopBlock
 170              		.section	.text.Clock_SYS_StandbyPower,"ax",%progbits
 171              		.align	1
 172              		.global	Clock_SYS_StandbyPower
 173              		.thumb
 174              		.thumb_func
 175              		.type	Clock_SYS_StandbyPower, %function
 176              	Clock_SYS_StandbyPower:
 177              	.LFB3:
 137:.\Generated_Source\PSoC5/Clock_SYS.c **** #endif /* HAS_CLKDIST_LD_DISABLE */
 138:.\Generated_Source\PSoC5/Clock_SYS.c ****     }
 139:.\Generated_Source\PSoC5/Clock_SYS.c **** }
 140:.\Generated_Source\PSoC5/Clock_SYS.c **** #endif /* (CY_PSOC3 || CY_PSOC5LP) */
 141:.\Generated_Source\PSoC5/Clock_SYS.c **** 
 142:.\Generated_Source\PSoC5/Clock_SYS.c **** 
 143:.\Generated_Source\PSoC5/Clock_SYS.c **** /*******************************************************************************
 144:.\Generated_Source\PSoC5/Clock_SYS.c **** * Function Name: Clock_SYS_StandbyPower
 145:.\Generated_Source\PSoC5/Clock_SYS.c **** ********************************************************************************
 146:.\Generated_Source\PSoC5/Clock_SYS.c **** *
 147:.\Generated_Source\PSoC5/Clock_SYS.c **** * Summary:
 148:.\Generated_Source\PSoC5/Clock_SYS.c **** *  Sets whether the clock is active in standby mode.
 149:.\Generated_Source\PSoC5/Clock_SYS.c **** *
 150:.\Generated_Source\PSoC5/Clock_SYS.c **** * Parameters:
 151:.\Generated_Source\PSoC5/Clock_SYS.c **** *  state:  0 to disable clock during standby, nonzero to enable.
 152:.\Generated_Source\PSoC5/Clock_SYS.c **** *
 153:.\Generated_Source\PSoC5/Clock_SYS.c **** * Returns:
 154:.\Generated_Source\PSoC5/Clock_SYS.c **** *  None
 155:.\Generated_Source\PSoC5/Clock_SYS.c **** *
 156:.\Generated_Source\PSoC5/Clock_SYS.c **** *******************************************************************************/
 157:.\Generated_Source\PSoC5/Clock_SYS.c **** void Clock_SYS_StandbyPower(uint8 state) 
 158:.\Generated_Source\PSoC5/Clock_SYS.c **** {
ARM GAS  C:\Users\Graziano\AppData\Local\Temp\cc2U6mNu.s 			page 7


 178              		.loc 1 158 0
 179              		.cfi_startproc
 180              		@ args = 0, pretend = 0, frame = 0
 181              		@ frame_needed = 0, uses_anonymous_args = 0
 182              		@ link register save eliminated.
 183              	.LVL3:
 184 0000 044B     		ldr	r3, .L18
 159:.\Generated_Source\PSoC5/Clock_SYS.c ****     if(state == 0u)
 160:.\Generated_Source\PSoC5/Clock_SYS.c ****     {
 161:.\Generated_Source\PSoC5/Clock_SYS.c ****         Clock_SYS_CLKSTBY &= (uint8)(~Clock_SYS_CLKSTBY_MASK);
 185              		.loc 1 161 0
 186 0002 1A78     		ldrb	r2, [r3, #0]	@ zero_extendqisi2
 159:.\Generated_Source\PSoC5/Clock_SYS.c ****     if(state == 0u)
 187              		.loc 1 159 0
 188 0004 10B9     		cbnz	r0, .L15
 189              		.loc 1 161 0
 190 0006 02F07F00 		and	r0, r2, #127
 191              	.LVL4:
 192 000a 01E0     		b	.L17
 193              	.LVL5:
 194              	.L15:
 162:.\Generated_Source\PSoC5/Clock_SYS.c ****     }
 163:.\Generated_Source\PSoC5/Clock_SYS.c ****     else
 164:.\Generated_Source\PSoC5/Clock_SYS.c ****     {
 165:.\Generated_Source\PSoC5/Clock_SYS.c ****         Clock_SYS_CLKSTBY |= Clock_SYS_CLKSTBY_MASK;
 195              		.loc 1 165 0
 196 000c 42F08000 		orr	r0, r2, #128
 197              	.LVL6:
 198              	.L17:
 199 0010 1870     		strb	r0, [r3, #0]
 200 0012 7047     		bx	lr
 201              	.L19:
 202              		.align	2
 203              	.L18:
 204 0014 B2430040 		.word	1073759154
 205              		.cfi_endproc
 206              	.LFE3:
 207              		.size	Clock_SYS_StandbyPower, .-Clock_SYS_StandbyPower
 208              		.section	.text.Clock_SYS_SetDividerRegister,"ax",%progbits
 209              		.align	1
 210              		.global	Clock_SYS_SetDividerRegister
 211              		.thumb
 212              		.thumb_func
 213              		.type	Clock_SYS_SetDividerRegister, %function
 214              	Clock_SYS_SetDividerRegister:
 215              	.LFB4:
 166:.\Generated_Source\PSoC5/Clock_SYS.c ****     }
 167:.\Generated_Source\PSoC5/Clock_SYS.c **** }
 168:.\Generated_Source\PSoC5/Clock_SYS.c **** 
 169:.\Generated_Source\PSoC5/Clock_SYS.c **** 
 170:.\Generated_Source\PSoC5/Clock_SYS.c **** /*******************************************************************************
 171:.\Generated_Source\PSoC5/Clock_SYS.c **** * Function Name: Clock_SYS_SetDividerRegister
 172:.\Generated_Source\PSoC5/Clock_SYS.c **** ********************************************************************************
 173:.\Generated_Source\PSoC5/Clock_SYS.c **** *
 174:.\Generated_Source\PSoC5/Clock_SYS.c **** * Summary:
 175:.\Generated_Source\PSoC5/Clock_SYS.c **** *  Modifies the clock divider and, thus, the frequency. When the clock divider
 176:.\Generated_Source\PSoC5/Clock_SYS.c **** *  register is set to zero or changed from zero, the clock will be temporarily
ARM GAS  C:\Users\Graziano\AppData\Local\Temp\cc2U6mNu.s 			page 8


 177:.\Generated_Source\PSoC5/Clock_SYS.c **** *  disabled in order to change the SSS mode bit. If the clock is enabled when
 178:.\Generated_Source\PSoC5/Clock_SYS.c **** *  SetDividerRegister is called, then the source clock must be running.
 179:.\Generated_Source\PSoC5/Clock_SYS.c **** *
 180:.\Generated_Source\PSoC5/Clock_SYS.c **** * Parameters:
 181:.\Generated_Source\PSoC5/Clock_SYS.c **** *  clkDivider:  Divider register value (0-65,535). This value is NOT the
 182:.\Generated_Source\PSoC5/Clock_SYS.c **** *    divider; the clock hardware divides by clkDivider plus one. For example,
 183:.\Generated_Source\PSoC5/Clock_SYS.c **** *    to divide the clock by 2, this parameter should be set to 1.
 184:.\Generated_Source\PSoC5/Clock_SYS.c **** *  restart:  If nonzero, restarts the clock divider: the current clock cycle
 185:.\Generated_Source\PSoC5/Clock_SYS.c **** *   will be truncated and the new divide value will take effect immediately. If
 186:.\Generated_Source\PSoC5/Clock_SYS.c **** *   zero, the new divide value will take effect at the end of the current clock
 187:.\Generated_Source\PSoC5/Clock_SYS.c **** *   cycle.
 188:.\Generated_Source\PSoC5/Clock_SYS.c **** *
 189:.\Generated_Source\PSoC5/Clock_SYS.c **** * Returns:
 190:.\Generated_Source\PSoC5/Clock_SYS.c **** *  None
 191:.\Generated_Source\PSoC5/Clock_SYS.c **** *
 192:.\Generated_Source\PSoC5/Clock_SYS.c **** *******************************************************************************/
 193:.\Generated_Source\PSoC5/Clock_SYS.c **** void Clock_SYS_SetDividerRegister(uint16 clkDivider, uint8 restart)
 194:.\Generated_Source\PSoC5/Clock_SYS.c ****                                 
 195:.\Generated_Source\PSoC5/Clock_SYS.c **** {
 216              		.loc 1 195 0
 217              		.cfi_startproc
 218              		@ args = 0, pretend = 0, frame = 0
 219              		@ frame_needed = 0, uses_anonymous_args = 0
 220              	.LVL7:
 221 0000 F0B5     		push	{r4, r5, r6, r7, lr}
 222              	.LCFI1:
 223              		.cfi_def_cfa_offset 20
 224              		.cfi_offset 4, -20
 225              		.cfi_offset 5, -16
 226              		.cfi_offset 6, -12
 227              		.cfi_offset 7, -8
 228              		.cfi_offset 14, -4
 229              	.LBB11:
 230              	.LBB12:
 196:.\Generated_Source\PSoC5/Clock_SYS.c ****     uint8 enabled;
 197:.\Generated_Source\PSoC5/Clock_SYS.c **** 
 198:.\Generated_Source\PSoC5/Clock_SYS.c ****     uint8 currSrc = Clock_SYS_GetSourceRegister();
 199:.\Generated_Source\PSoC5/Clock_SYS.c ****     uint16 oldDivider = Clock_SYS_GetDividerRegister();
 200:.\Generated_Source\PSoC5/Clock_SYS.c **** 
 201:.\Generated_Source\PSoC5/Clock_SYS.c ****     if (clkDivider != oldDivider)
 202:.\Generated_Source\PSoC5/Clock_SYS.c ****     {
 203:.\Generated_Source\PSoC5/Clock_SYS.c ****         enabled = Clock_SYS_CLKEN & Clock_SYS_CLKEN_MASK;
 204:.\Generated_Source\PSoC5/Clock_SYS.c **** 
 205:.\Generated_Source\PSoC5/Clock_SYS.c ****         if ((currSrc == (uint8)CYCLK_SRC_SEL_CLK_SYNC_D) && ((oldDivider == 0u) || (clkDivider == 0
 206:.\Generated_Source\PSoC5/Clock_SYS.c ****         {
 207:.\Generated_Source\PSoC5/Clock_SYS.c ****             /* Moving to/from SSS requires correct ordering to prevent halting the clock    */
 208:.\Generated_Source\PSoC5/Clock_SYS.c ****             if (oldDivider == 0u)
 209:.\Generated_Source\PSoC5/Clock_SYS.c ****             {
 210:.\Generated_Source\PSoC5/Clock_SYS.c ****                 /* Moving away from SSS, set the divider first so when SSS is cleared we    */
 211:.\Generated_Source\PSoC5/Clock_SYS.c ****                 /* don't halt the clock.  Using the shadow load isn't required as the       */
 212:.\Generated_Source\PSoC5/Clock_SYS.c ****                 /* divider is ignored while SSS is set.                                     */
 213:.\Generated_Source\PSoC5/Clock_SYS.c ****                 CY_SET_REG16(Clock_SYS_DIV_PTR, clkDivider);
 214:.\Generated_Source\PSoC5/Clock_SYS.c ****                 Clock_SYS_MOD_SRC &= (uint8)(~CYCLK_SSS);
 215:.\Generated_Source\PSoC5/Clock_SYS.c ****             }
 216:.\Generated_Source\PSoC5/Clock_SYS.c ****             else
 217:.\Generated_Source\PSoC5/Clock_SYS.c ****             {
 218:.\Generated_Source\PSoC5/Clock_SYS.c ****                 /* Moving to SSS, set SSS which then ignores the divider and we can set     */
ARM GAS  C:\Users\Graziano\AppData\Local\Temp\cc2U6mNu.s 			page 9


 219:.\Generated_Source\PSoC5/Clock_SYS.c ****                 /* it without bothering with the shadow load.                               */
 220:.\Generated_Source\PSoC5/Clock_SYS.c ****                 Clock_SYS_MOD_SRC |= CYCLK_SSS;
 221:.\Generated_Source\PSoC5/Clock_SYS.c ****                 CY_SET_REG16(Clock_SYS_DIV_PTR, clkDivider);
 222:.\Generated_Source\PSoC5/Clock_SYS.c ****             }
 223:.\Generated_Source\PSoC5/Clock_SYS.c ****         }
 224:.\Generated_Source\PSoC5/Clock_SYS.c ****         else
 225:.\Generated_Source\PSoC5/Clock_SYS.c ****         {
 226:.\Generated_Source\PSoC5/Clock_SYS.c **** 			
 227:.\Generated_Source\PSoC5/Clock_SYS.c ****             if (enabled != 0u)
 228:.\Generated_Source\PSoC5/Clock_SYS.c ****             {
 229:.\Generated_Source\PSoC5/Clock_SYS.c ****                 CLK_DIST_LD = 0x00u;
 230:.\Generated_Source\PSoC5/Clock_SYS.c **** 
 231:.\Generated_Source\PSoC5/Clock_SYS.c ****                 /* Clear all the mask bits except ours. */
 232:.\Generated_Source\PSoC5/Clock_SYS.c **** #if defined(Clock_SYS__CFG3)
 233:.\Generated_Source\PSoC5/Clock_SYS.c ****                 CLK_DIST_AMASK = Clock_SYS_CLKEN_MASK;
 234:.\Generated_Source\PSoC5/Clock_SYS.c ****                 CLK_DIST_DMASK = 0x00u;
 235:.\Generated_Source\PSoC5/Clock_SYS.c **** #else
 236:.\Generated_Source\PSoC5/Clock_SYS.c ****                 CLK_DIST_DMASK = Clock_SYS_CLKEN_MASK;
 237:.\Generated_Source\PSoC5/Clock_SYS.c ****                 CLK_DIST_AMASK = 0x00u;
 238:.\Generated_Source\PSoC5/Clock_SYS.c **** #endif /* Clock_SYS__CFG3 */
 239:.\Generated_Source\PSoC5/Clock_SYS.c ****                 /* Clear mask of bus clock. */
 240:.\Generated_Source\PSoC5/Clock_SYS.c ****                 CLK_DIST_BCFG2 &= (uint8)(~BCFG2_MASK);
 241:.\Generated_Source\PSoC5/Clock_SYS.c **** 
 242:.\Generated_Source\PSoC5/Clock_SYS.c ****                 /* If clock is currently enabled, disable it if async or going from N-to-1*/
 243:.\Generated_Source\PSoC5/Clock_SYS.c ****                 if (((Clock_SYS_MOD_SRC & CYCLK_SYNC) == 0u) || (clkDivider == 0u))
 244:.\Generated_Source\PSoC5/Clock_SYS.c ****                 {
 245:.\Generated_Source\PSoC5/Clock_SYS.c **** #if HAS_CLKDIST_LD_DISABLE
 246:.\Generated_Source\PSoC5/Clock_SYS.c ****                     CY_SET_REG16(CYREG_CLKDIST_WRK0, oldDivider);
 247:.\Generated_Source\PSoC5/Clock_SYS.c ****                     CLK_DIST_LD = CYCLK_LD_DISABLE|CYCLK_LD_SYNC_EN|CYCLK_LD_LOAD;
 248:.\Generated_Source\PSoC5/Clock_SYS.c **** 
 249:.\Generated_Source\PSoC5/Clock_SYS.c ****                     /* Wait for clock to be disabled */
 250:.\Generated_Source\PSoC5/Clock_SYS.c ****                     while ((CLK_DIST_LD & CYCLK_LD_LOAD) != 0u) { }
 251:.\Generated_Source\PSoC5/Clock_SYS.c **** #endif /* HAS_CLKDIST_LD_DISABLE */
 252:.\Generated_Source\PSoC5/Clock_SYS.c **** 
 253:.\Generated_Source\PSoC5/Clock_SYS.c ****                     Clock_SYS_CLKEN &= (uint8)(~Clock_SYS_CLKEN_MASK);
 254:.\Generated_Source\PSoC5/Clock_SYS.c **** 
 255:.\Generated_Source\PSoC5/Clock_SYS.c **** #if HAS_CLKDIST_LD_DISABLE
 256:.\Generated_Source\PSoC5/Clock_SYS.c ****                     /* Clear the disable bit */
 257:.\Generated_Source\PSoC5/Clock_SYS.c ****                     CLK_DIST_LD = 0x00u;
 258:.\Generated_Source\PSoC5/Clock_SYS.c **** #endif /* HAS_CLKDIST_LD_DISABLE */
 259:.\Generated_Source\PSoC5/Clock_SYS.c ****                 }
 260:.\Generated_Source\PSoC5/Clock_SYS.c ****             }
 261:.\Generated_Source\PSoC5/Clock_SYS.c **** 
 262:.\Generated_Source\PSoC5/Clock_SYS.c ****             /* Load divide value. */
 263:.\Generated_Source\PSoC5/Clock_SYS.c ****             if ((Clock_SYS_CLKEN & Clock_SYS_CLKEN_MASK) != 0u)
 264:.\Generated_Source\PSoC5/Clock_SYS.c ****             {
 265:.\Generated_Source\PSoC5/Clock_SYS.c ****                 /* If the clock is still enabled, use the shadow registers */
 266:.\Generated_Source\PSoC5/Clock_SYS.c ****                 CY_SET_REG16(CYREG_CLKDIST_WRK0, clkDivider);
 267:.\Generated_Source\PSoC5/Clock_SYS.c **** 
 268:.\Generated_Source\PSoC5/Clock_SYS.c ****                 CLK_DIST_LD = (CYCLK_LD_LOAD | ((restart != 0u) ? CYCLK_LD_SYNC_EN : 0x00u));
 269:.\Generated_Source\PSoC5/Clock_SYS.c ****                 while ((CLK_DIST_LD & CYCLK_LD_LOAD) != 0u) { }
 270:.\Generated_Source\PSoC5/Clock_SYS.c ****             }
 271:.\Generated_Source\PSoC5/Clock_SYS.c ****             else
 272:.\Generated_Source\PSoC5/Clock_SYS.c ****             {
 273:.\Generated_Source\PSoC5/Clock_SYS.c ****                 /* If the clock is disabled, set the divider directly */
 274:.\Generated_Source\PSoC5/Clock_SYS.c ****                 CY_SET_REG16(Clock_SYS_DIV_PTR, clkDivider);
 275:.\Generated_Source\PSoC5/Clock_SYS.c **** 				Clock_SYS_CLKEN |= enabled;
ARM GAS  C:\Users\Graziano\AppData\Local\Temp\cc2U6mNu.s 			page 10


 276:.\Generated_Source\PSoC5/Clock_SYS.c ****             }
 277:.\Generated_Source\PSoC5/Clock_SYS.c ****         }
 278:.\Generated_Source\PSoC5/Clock_SYS.c ****     }
 279:.\Generated_Source\PSoC5/Clock_SYS.c **** }
 280:.\Generated_Source\PSoC5/Clock_SYS.c **** 
 281:.\Generated_Source\PSoC5/Clock_SYS.c **** 
 282:.\Generated_Source\PSoC5/Clock_SYS.c **** /*******************************************************************************
 283:.\Generated_Source\PSoC5/Clock_SYS.c **** * Function Name: Clock_SYS_GetDividerRegister
 284:.\Generated_Source\PSoC5/Clock_SYS.c **** ********************************************************************************
 285:.\Generated_Source\PSoC5/Clock_SYS.c **** *
 286:.\Generated_Source\PSoC5/Clock_SYS.c **** * Summary:
 287:.\Generated_Source\PSoC5/Clock_SYS.c **** *  Gets the clock divider register value.
 288:.\Generated_Source\PSoC5/Clock_SYS.c **** *
 289:.\Generated_Source\PSoC5/Clock_SYS.c **** * Parameters:
 290:.\Generated_Source\PSoC5/Clock_SYS.c **** *  None
 291:.\Generated_Source\PSoC5/Clock_SYS.c **** *
 292:.\Generated_Source\PSoC5/Clock_SYS.c **** * Returns:
 293:.\Generated_Source\PSoC5/Clock_SYS.c **** *  Divide value of the clock minus 1. For example, if the clock is set to
 294:.\Generated_Source\PSoC5/Clock_SYS.c **** *  divide by 2, the return value will be 1.
 295:.\Generated_Source\PSoC5/Clock_SYS.c **** *
 296:.\Generated_Source\PSoC5/Clock_SYS.c **** *******************************************************************************/
 297:.\Generated_Source\PSoC5/Clock_SYS.c **** uint16 Clock_SYS_GetDividerRegister(void) 
 298:.\Generated_Source\PSoC5/Clock_SYS.c **** {
 299:.\Generated_Source\PSoC5/Clock_SYS.c ****     return CY_GET_REG16(Clock_SYS_DIV_PTR);
 300:.\Generated_Source\PSoC5/Clock_SYS.c **** }
 301:.\Generated_Source\PSoC5/Clock_SYS.c **** 
 302:.\Generated_Source\PSoC5/Clock_SYS.c **** 
 303:.\Generated_Source\PSoC5/Clock_SYS.c **** /*******************************************************************************
 304:.\Generated_Source\PSoC5/Clock_SYS.c **** * Function Name: Clock_SYS_SetModeRegister
 305:.\Generated_Source\PSoC5/Clock_SYS.c **** ********************************************************************************
 306:.\Generated_Source\PSoC5/Clock_SYS.c **** *
 307:.\Generated_Source\PSoC5/Clock_SYS.c **** * Summary:
 308:.\Generated_Source\PSoC5/Clock_SYS.c **** *  Sets flags that control the operating mode of the clock. This function only
 309:.\Generated_Source\PSoC5/Clock_SYS.c **** *  changes flags from 0 to 1; flags that are already 1 will remain unchanged.
 310:.\Generated_Source\PSoC5/Clock_SYS.c **** *  To clear flags, use the ClearModeRegister function. The clock must be
 311:.\Generated_Source\PSoC5/Clock_SYS.c **** *  disabled before changing the mode.
 312:.\Generated_Source\PSoC5/Clock_SYS.c **** *
 313:.\Generated_Source\PSoC5/Clock_SYS.c **** * Parameters:
 314:.\Generated_Source\PSoC5/Clock_SYS.c **** *  clkMode: Bit mask containing the bits to set. For PSoC 3 and PSoC 5,
 315:.\Generated_Source\PSoC5/Clock_SYS.c **** *   clkMode should be a set of the following optional bits or'ed together.
 316:.\Generated_Source\PSoC5/Clock_SYS.c **** *   - CYCLK_EARLY Enable early phase mode. Rising edge of output clock will
 317:.\Generated_Source\PSoC5/Clock_SYS.c **** *                 occur when the divider count reaches half of the divide
 318:.\Generated_Source\PSoC5/Clock_SYS.c **** *                 value.
 319:.\Generated_Source\PSoC5/Clock_SYS.c **** *   - CYCLK_DUTY  Enable 50% duty cycle output. When enabled, the output clock
 320:.\Generated_Source\PSoC5/Clock_SYS.c **** *                 is asserted for approximately half of its period. When
 321:.\Generated_Source\PSoC5/Clock_SYS.c **** *                 disabled, the output clock is asserted for one period of the
 322:.\Generated_Source\PSoC5/Clock_SYS.c **** *                 source clock.
 323:.\Generated_Source\PSoC5/Clock_SYS.c **** *   - CYCLK_SYNC  Enable output synchronization to master clock. This should
 324:.\Generated_Source\PSoC5/Clock_SYS.c **** *                 be enabled for all synchronous clocks.
 325:.\Generated_Source\PSoC5/Clock_SYS.c **** *   See the Technical Reference Manual for details about setting the mode of
 326:.\Generated_Source\PSoC5/Clock_SYS.c **** *   the clock. Specifically, see the CLKDIST.DCFG.CFG2 register.
 327:.\Generated_Source\PSoC5/Clock_SYS.c **** *
 328:.\Generated_Source\PSoC5/Clock_SYS.c **** * Returns:
 329:.\Generated_Source\PSoC5/Clock_SYS.c **** *  None
 330:.\Generated_Source\PSoC5/Clock_SYS.c **** *
 331:.\Generated_Source\PSoC5/Clock_SYS.c **** *******************************************************************************/
 332:.\Generated_Source\PSoC5/Clock_SYS.c **** void Clock_SYS_SetModeRegister(uint8 modeBitMask) 
ARM GAS  C:\Users\Graziano\AppData\Local\Temp\cc2U6mNu.s 			page 11


 333:.\Generated_Source\PSoC5/Clock_SYS.c **** {
 334:.\Generated_Source\PSoC5/Clock_SYS.c ****     Clock_SYS_MOD_SRC |= modeBitMask & (uint8)Clock_SYS_MODE_MASK;
 335:.\Generated_Source\PSoC5/Clock_SYS.c **** }
 336:.\Generated_Source\PSoC5/Clock_SYS.c **** 
 337:.\Generated_Source\PSoC5/Clock_SYS.c **** 
 338:.\Generated_Source\PSoC5/Clock_SYS.c **** /*******************************************************************************
 339:.\Generated_Source\PSoC5/Clock_SYS.c **** * Function Name: Clock_SYS_ClearModeRegister
 340:.\Generated_Source\PSoC5/Clock_SYS.c **** ********************************************************************************
 341:.\Generated_Source\PSoC5/Clock_SYS.c **** *
 342:.\Generated_Source\PSoC5/Clock_SYS.c **** * Summary:
 343:.\Generated_Source\PSoC5/Clock_SYS.c **** *  Clears flags that control the operating mode of the clock. This function
 344:.\Generated_Source\PSoC5/Clock_SYS.c **** *  only changes flags from 1 to 0; flags that are already 0 will remain
 345:.\Generated_Source\PSoC5/Clock_SYS.c **** *  unchanged. To set flags, use the SetModeRegister function. The clock must be
 346:.\Generated_Source\PSoC5/Clock_SYS.c **** *  disabled before changing the mode.
 347:.\Generated_Source\PSoC5/Clock_SYS.c **** *
 348:.\Generated_Source\PSoC5/Clock_SYS.c **** * Parameters:
 349:.\Generated_Source\PSoC5/Clock_SYS.c **** *  clkMode: Bit mask containing the bits to clear. For PSoC 3 and PSoC 5,
 350:.\Generated_Source\PSoC5/Clock_SYS.c **** *   clkMode should be a set of the following optional bits or'ed together.
 351:.\Generated_Source\PSoC5/Clock_SYS.c **** *   - CYCLK_EARLY Enable early phase mode. Rising edge of output clock will
 352:.\Generated_Source\PSoC5/Clock_SYS.c **** *                 occur when the divider count reaches half of the divide
 353:.\Generated_Source\PSoC5/Clock_SYS.c **** *                 value.
 354:.\Generated_Source\PSoC5/Clock_SYS.c **** *   - CYCLK_DUTY  Enable 50% duty cycle output. When enabled, the output clock
 355:.\Generated_Source\PSoC5/Clock_SYS.c **** *                 is asserted for approximately half of its period. When
 356:.\Generated_Source\PSoC5/Clock_SYS.c **** *                 disabled, the output clock is asserted for one period of the
 357:.\Generated_Source\PSoC5/Clock_SYS.c **** *                 source clock.
 358:.\Generated_Source\PSoC5/Clock_SYS.c **** *   - CYCLK_SYNC  Enable output synchronization to master clock. This should
 359:.\Generated_Source\PSoC5/Clock_SYS.c **** *                 be enabled for all synchronous clocks.
 360:.\Generated_Source\PSoC5/Clock_SYS.c **** *   See the Technical Reference Manual for details about setting the mode of
 361:.\Generated_Source\PSoC5/Clock_SYS.c **** *   the clock. Specifically, see the CLKDIST.DCFG.CFG2 register.
 362:.\Generated_Source\PSoC5/Clock_SYS.c **** *
 363:.\Generated_Source\PSoC5/Clock_SYS.c **** * Returns:
 364:.\Generated_Source\PSoC5/Clock_SYS.c **** *  None
 365:.\Generated_Source\PSoC5/Clock_SYS.c **** *
 366:.\Generated_Source\PSoC5/Clock_SYS.c **** *******************************************************************************/
 367:.\Generated_Source\PSoC5/Clock_SYS.c **** void Clock_SYS_ClearModeRegister(uint8 modeBitMask) 
 368:.\Generated_Source\PSoC5/Clock_SYS.c **** {
 369:.\Generated_Source\PSoC5/Clock_SYS.c ****     Clock_SYS_MOD_SRC &= (uint8)(~modeBitMask) | (uint8)(~(uint8)(Clock_SYS_MODE_MASK));
 370:.\Generated_Source\PSoC5/Clock_SYS.c **** }
 371:.\Generated_Source\PSoC5/Clock_SYS.c **** 
 372:.\Generated_Source\PSoC5/Clock_SYS.c **** 
 373:.\Generated_Source\PSoC5/Clock_SYS.c **** /*******************************************************************************
 374:.\Generated_Source\PSoC5/Clock_SYS.c **** * Function Name: Clock_SYS_GetModeRegister
 375:.\Generated_Source\PSoC5/Clock_SYS.c **** ********************************************************************************
 376:.\Generated_Source\PSoC5/Clock_SYS.c **** *
 377:.\Generated_Source\PSoC5/Clock_SYS.c **** * Summary:
 378:.\Generated_Source\PSoC5/Clock_SYS.c **** *  Gets the clock mode register value.
 379:.\Generated_Source\PSoC5/Clock_SYS.c **** *
 380:.\Generated_Source\PSoC5/Clock_SYS.c **** * Parameters:
 381:.\Generated_Source\PSoC5/Clock_SYS.c **** *  None
 382:.\Generated_Source\PSoC5/Clock_SYS.c **** *
 383:.\Generated_Source\PSoC5/Clock_SYS.c **** * Returns:
 384:.\Generated_Source\PSoC5/Clock_SYS.c **** *  Bit mask representing the enabled mode bits. See the SetModeRegister and
 385:.\Generated_Source\PSoC5/Clock_SYS.c **** *  ClearModeRegister descriptions for details about the mode bits.
 386:.\Generated_Source\PSoC5/Clock_SYS.c **** *
 387:.\Generated_Source\PSoC5/Clock_SYS.c **** *******************************************************************************/
 388:.\Generated_Source\PSoC5/Clock_SYS.c **** uint8 Clock_SYS_GetModeRegister(void) 
 389:.\Generated_Source\PSoC5/Clock_SYS.c **** {
ARM GAS  C:\Users\Graziano\AppData\Local\Temp\cc2U6mNu.s 			page 12


 390:.\Generated_Source\PSoC5/Clock_SYS.c ****     return Clock_SYS_MOD_SRC & (uint8)(Clock_SYS_MODE_MASK);
 391:.\Generated_Source\PSoC5/Clock_SYS.c **** }
 392:.\Generated_Source\PSoC5/Clock_SYS.c **** 
 393:.\Generated_Source\PSoC5/Clock_SYS.c **** 
 394:.\Generated_Source\PSoC5/Clock_SYS.c **** /*******************************************************************************
 395:.\Generated_Source\PSoC5/Clock_SYS.c **** * Function Name: Clock_SYS_SetSourceRegister
 396:.\Generated_Source\PSoC5/Clock_SYS.c **** ********************************************************************************
 397:.\Generated_Source\PSoC5/Clock_SYS.c **** *
 398:.\Generated_Source\PSoC5/Clock_SYS.c **** * Summary:
 399:.\Generated_Source\PSoC5/Clock_SYS.c **** *  Sets the input source of the clock. The clock must be disabled before
 400:.\Generated_Source\PSoC5/Clock_SYS.c **** *  changing the source. The old and new clock sources must be running.
 401:.\Generated_Source\PSoC5/Clock_SYS.c **** *
 402:.\Generated_Source\PSoC5/Clock_SYS.c **** * Parameters:
 403:.\Generated_Source\PSoC5/Clock_SYS.c **** *  clkSource:  For PSoC 3 and PSoC 5 devices, clkSource should be one of the
 404:.\Generated_Source\PSoC5/Clock_SYS.c **** *   following input sources:
 405:.\Generated_Source\PSoC5/Clock_SYS.c **** *   - CYCLK_SRC_SEL_SYNC_DIG
 406:.\Generated_Source\PSoC5/Clock_SYS.c **** *   - CYCLK_SRC_SEL_IMO
 407:.\Generated_Source\PSoC5/Clock_SYS.c **** *   - CYCLK_SRC_SEL_XTALM
 408:.\Generated_Source\PSoC5/Clock_SYS.c **** *   - CYCLK_SRC_SEL_ILO
 409:.\Generated_Source\PSoC5/Clock_SYS.c **** *   - CYCLK_SRC_SEL_PLL
 410:.\Generated_Source\PSoC5/Clock_SYS.c **** *   - CYCLK_SRC_SEL_XTALK
 411:.\Generated_Source\PSoC5/Clock_SYS.c **** *   - CYCLK_SRC_SEL_DSI_G
 412:.\Generated_Source\PSoC5/Clock_SYS.c **** *   - CYCLK_SRC_SEL_DSI_D/CYCLK_SRC_SEL_DSI_A
 413:.\Generated_Source\PSoC5/Clock_SYS.c **** *   See the Technical Reference Manual for details on clock sources.
 414:.\Generated_Source\PSoC5/Clock_SYS.c **** *
 415:.\Generated_Source\PSoC5/Clock_SYS.c **** * Returns:
 416:.\Generated_Source\PSoC5/Clock_SYS.c **** *  None
 417:.\Generated_Source\PSoC5/Clock_SYS.c **** *
 418:.\Generated_Source\PSoC5/Clock_SYS.c **** *******************************************************************************/
 419:.\Generated_Source\PSoC5/Clock_SYS.c **** void Clock_SYS_SetSourceRegister(uint8 clkSource) 
 420:.\Generated_Source\PSoC5/Clock_SYS.c **** {
 421:.\Generated_Source\PSoC5/Clock_SYS.c ****     uint16 currDiv = Clock_SYS_GetDividerRegister();
 422:.\Generated_Source\PSoC5/Clock_SYS.c ****     uint8 oldSrc = Clock_SYS_GetSourceRegister();
 423:.\Generated_Source\PSoC5/Clock_SYS.c **** 
 424:.\Generated_Source\PSoC5/Clock_SYS.c ****     if (((oldSrc != ((uint8)CYCLK_SRC_SEL_CLK_SYNC_D)) && 
 425:.\Generated_Source\PSoC5/Clock_SYS.c ****         (clkSource == ((uint8)CYCLK_SRC_SEL_CLK_SYNC_D))) && (currDiv == 0u))
 426:.\Generated_Source\PSoC5/Clock_SYS.c ****     {
 427:.\Generated_Source\PSoC5/Clock_SYS.c ****         /* Switching to Master and divider is 1, set SSS, which will output master, */
 428:.\Generated_Source\PSoC5/Clock_SYS.c ****         /* then set the source so we are consistent.                                */
 429:.\Generated_Source\PSoC5/Clock_SYS.c ****         Clock_SYS_MOD_SRC |= CYCLK_SSS;
 430:.\Generated_Source\PSoC5/Clock_SYS.c ****         Clock_SYS_MOD_SRC =
 431:.\Generated_Source\PSoC5/Clock_SYS.c ****             (Clock_SYS_MOD_SRC & (uint8)(~Clock_SYS_SRC_SEL_MSK)) | clkSource;
 432:.\Generated_Source\PSoC5/Clock_SYS.c ****     }
 433:.\Generated_Source\PSoC5/Clock_SYS.c ****     else if (((oldSrc == ((uint8)CYCLK_SRC_SEL_CLK_SYNC_D)) && 
 434:.\Generated_Source\PSoC5/Clock_SYS.c ****             (clkSource != ((uint8)CYCLK_SRC_SEL_CLK_SYNC_D))) && (currDiv == 0u))
 435:.\Generated_Source\PSoC5/Clock_SYS.c ****     {
 436:.\Generated_Source\PSoC5/Clock_SYS.c ****         /* Switching from Master to not and divider is 1, set source, so we don't   */
 437:.\Generated_Source\PSoC5/Clock_SYS.c ****         /* lock when we clear SSS.                                                  */
 438:.\Generated_Source\PSoC5/Clock_SYS.c ****         Clock_SYS_MOD_SRC =
 439:.\Generated_Source\PSoC5/Clock_SYS.c ****             (Clock_SYS_MOD_SRC & (uint8)(~Clock_SYS_SRC_SEL_MSK)) | clkSource;
 440:.\Generated_Source\PSoC5/Clock_SYS.c ****         Clock_SYS_MOD_SRC &= (uint8)(~CYCLK_SSS);
 441:.\Generated_Source\PSoC5/Clock_SYS.c ****     }
 442:.\Generated_Source\PSoC5/Clock_SYS.c ****     else
 443:.\Generated_Source\PSoC5/Clock_SYS.c ****     {
 444:.\Generated_Source\PSoC5/Clock_SYS.c ****         Clock_SYS_MOD_SRC =
 445:.\Generated_Source\PSoC5/Clock_SYS.c ****             (Clock_SYS_MOD_SRC & (uint8)(~Clock_SYS_SRC_SEL_MSK)) | clkSource;
 446:.\Generated_Source\PSoC5/Clock_SYS.c ****     }
ARM GAS  C:\Users\Graziano\AppData\Local\Temp\cc2U6mNu.s 			page 13


 447:.\Generated_Source\PSoC5/Clock_SYS.c **** }
 448:.\Generated_Source\PSoC5/Clock_SYS.c **** 
 449:.\Generated_Source\PSoC5/Clock_SYS.c **** 
 450:.\Generated_Source\PSoC5/Clock_SYS.c **** /*******************************************************************************
 451:.\Generated_Source\PSoC5/Clock_SYS.c **** * Function Name: Clock_SYS_GetSourceRegister
 452:.\Generated_Source\PSoC5/Clock_SYS.c **** ********************************************************************************
 453:.\Generated_Source\PSoC5/Clock_SYS.c **** *
 454:.\Generated_Source\PSoC5/Clock_SYS.c **** * Summary:
 455:.\Generated_Source\PSoC5/Clock_SYS.c **** *  Gets the input source of the clock.
 456:.\Generated_Source\PSoC5/Clock_SYS.c **** *
 457:.\Generated_Source\PSoC5/Clock_SYS.c **** * Parameters:
 458:.\Generated_Source\PSoC5/Clock_SYS.c **** *  None
 459:.\Generated_Source\PSoC5/Clock_SYS.c **** *
 460:.\Generated_Source\PSoC5/Clock_SYS.c **** * Returns:
 461:.\Generated_Source\PSoC5/Clock_SYS.c **** *  The input source of the clock. See SetSourceRegister for details.
 462:.\Generated_Source\PSoC5/Clock_SYS.c **** *
 463:.\Generated_Source\PSoC5/Clock_SYS.c **** *******************************************************************************/
 464:.\Generated_Source\PSoC5/Clock_SYS.c **** uint8 Clock_SYS_GetSourceRegister(void) 
 465:.\Generated_Source\PSoC5/Clock_SYS.c **** {
 466:.\Generated_Source\PSoC5/Clock_SYS.c ****     return Clock_SYS_MOD_SRC & Clock_SYS_SRC_SEL_MSK;
 231              		.loc 1 466 0
 232 0002 2C4B     		ldr	r3, .L42
 233              	.LBE12:
 234              	.LBE11:
 235              	.LBB15:
 236              	.LBB16:
 299:.\Generated_Source\PSoC5/Clock_SYS.c ****     return CY_GET_REG16(Clock_SYS_DIV_PTR);
 237              		.loc 1 299 0
 238 0004 2C4C     		ldr	r4, .L42+4
 239              	.LBE16:
 240              	.LBE15:
 241              	.LBB19:
 242              	.LBB13:
 243              		.loc 1 466 0
 244 0006 1E78     		ldrb	r6, [r3, #0]	@ zero_extendqisi2
 245              	.LBE13:
 246              	.LBE19:
 247              	.LBB20:
 248              	.LBB17:
 299:.\Generated_Source\PSoC5/Clock_SYS.c ****     return CY_GET_REG16(Clock_SYS_DIV_PTR);
 249              		.loc 1 299 0
 250 0008 2288     		ldrh	r2, [r4, #0]
 251              	.LBE17:
 252              	.LBE20:
 253              	.LBB21:
 254              	.LBB14:
 255              		.loc 1 466 0
 256 000a 06F00706 		and	r6, r6, #7
 257              	.LBE14:
 258              	.LBE21:
 259              	.LBB22:
 260              	.LBB18:
 299:.\Generated_Source\PSoC5/Clock_SYS.c ****     return CY_GET_REG16(Clock_SYS_DIV_PTR);
 261              		.loc 1 299 0
 262 000e 92B2     		uxth	r2, r2
 263              	.LBE18:
 264              	.LBE22:
ARM GAS  C:\Users\Graziano\AppData\Local\Temp\cc2U6mNu.s 			page 14


 201:.\Generated_Source\PSoC5/Clock_SYS.c ****     if (clkDivider != oldDivider)
 265              		.loc 1 201 0
 266 0010 9042     		cmp	r0, r2
 267 0012 4ED0     		beq	.L20
 203:.\Generated_Source\PSoC5/Clock_SYS.c ****         enabled = Clock_SYS_CLKEN & Clock_SYS_CLKEN_MASK;
 268              		.loc 1 203 0
 269 0014 294D     		ldr	r5, .L42+8
 270 0016 2D78     		ldrb	r5, [r5, #0]	@ zero_extendqisi2
 271              	.LVL8:
 205:.\Generated_Source\PSoC5/Clock_SYS.c ****         if ((currSrc == (uint8)CYCLK_SRC_SEL_CLK_SYNC_D) && ((oldDivider == 0u) || (clkDivider == 0
 272              		.loc 1 205 0
 273 0018 66B9     		cbnz	r6, .L23
 205:.\Generated_Source\PSoC5/Clock_SYS.c ****         if ((currSrc == (uint8)CYCLK_SRC_SEL_CLK_SYNC_D) && ((oldDivider == 0u) || (clkDivider == 0
 274              		.loc 1 205 0 is_stmt 0 discriminator 1
 275 001a 32B1     		cbz	r2, .L24
 276 001c 50B9     		cbnz	r0, .L23
 277              	.L25:
 220:.\Generated_Source\PSoC5/Clock_SYS.c ****                 Clock_SYS_MOD_SRC |= CYCLK_SSS;
 278              		.loc 1 220 0 is_stmt 1
 279 001e 1978     		ldrb	r1, [r3, #0]	@ zero_extendqisi2
 280              	.LVL9:
 281 0020 41F04002 		orr	r2, r1, #64
 282 0024 1A70     		strb	r2, [r3, #0]
 221:.\Generated_Source\PSoC5/Clock_SYS.c ****                 CY_SET_REG16(Clock_SYS_DIV_PTR, clkDivider);
 283              		.loc 1 221 0
 284 0026 2080     		strh	r0, [r4, #0]	@ movhi
 285 0028 F0BD     		pop	{r4, r5, r6, r7, pc}
 286              	.LVL10:
 287              	.L24:
 213:.\Generated_Source\PSoC5/Clock_SYS.c ****                 CY_SET_REG16(Clock_SYS_DIV_PTR, clkDivider);
 288              		.loc 1 213 0
 289 002a 2080     		strh	r0, [r4, #0]	@ movhi
 214:.\Generated_Source\PSoC5/Clock_SYS.c ****                 Clock_SYS_MOD_SRC &= (uint8)(~CYCLK_SSS);
 290              		.loc 1 214 0
 291 002c 1878     		ldrb	r0, [r3, #0]	@ zero_extendqisi2
 292              	.LVL11:
 293 002e 00F0BF02 		and	r2, r0, #191
 294 0032 3DE0     		b	.L41
 295              	.LVL12:
 296              	.L23:
 203:.\Generated_Source\PSoC5/Clock_SYS.c ****         enabled = Clock_SYS_CLKEN & Clock_SYS_CLKEN_MASK;
 297              		.loc 1 203 0
 298 0034 25F07F03 		bic	r3, r5, #127
 227:.\Generated_Source\PSoC5/Clock_SYS.c ****             if (enabled != 0u)
 299              		.loc 1 227 0
 300 0038 03F0FF05 		and	r5, r3, #255
 301              	.LVL13:
 302 003c 0BB3     		cbz	r3, .L27
 236:.\Generated_Source\PSoC5/Clock_SYS.c ****                 CLK_DIST_DMASK = Clock_SYS_CLKEN_MASK;
 303              		.loc 1 236 0
 304 003e 204E     		ldr	r6, .L42+12
 229:.\Generated_Source\PSoC5/Clock_SYS.c ****                 CLK_DIST_LD = 0x00u;
 305              		.loc 1 229 0
 306 0040 204B     		ldr	r3, .L42+16
 307 0042 0024     		movs	r4, #0
 236:.\Generated_Source\PSoC5/Clock_SYS.c ****                 CLK_DIST_DMASK = Clock_SYS_CLKEN_MASK;
 308              		.loc 1 236 0
ARM GAS  C:\Users\Graziano\AppData\Local\Temp\cc2U6mNu.s 			page 15


 309 0044 8027     		movs	r7, #128
 229:.\Generated_Source\PSoC5/Clock_SYS.c ****                 CLK_DIST_LD = 0x00u;
 310              		.loc 1 229 0
 311 0046 1C70     		strb	r4, [r3, #0]
 236:.\Generated_Source\PSoC5/Clock_SYS.c ****                 CLK_DIST_DMASK = Clock_SYS_CLKEN_MASK;
 312              		.loc 1 236 0
 313 0048 3770     		strb	r7, [r6, #0]
 237:.\Generated_Source\PSoC5/Clock_SYS.c ****                 CLK_DIST_AMASK = 0x00u;
 314              		.loc 1 237 0
 315 004a 3471     		strb	r4, [r6, #4]
 240:.\Generated_Source\PSoC5/Clock_SYS.c ****                 CLK_DIST_BCFG2 &= (uint8)(~BCFG2_MASK);
 316              		.loc 1 240 0
 317 004c 1E4C     		ldr	r4, .L42+20
 318 004e 2678     		ldrb	r6, [r4, #0]	@ zero_extendqisi2
 319 0050 06F07F06 		and	r6, r6, #127
 320 0054 2670     		strb	r6, [r4, #0]
 243:.\Generated_Source\PSoC5/Clock_SYS.c ****                 if (((Clock_SYS_MOD_SRC & CYCLK_SYNC) == 0u) || (clkDivider == 0u))
 321              		.loc 1 243 0
 322 0056 9634     		adds	r4, r4, #150
 323 0058 2478     		ldrb	r4, [r4, #0]	@ zero_extendqisi2
 324 005a 04F00804 		and	r4, r4, #8
 325 005e E4B2     		uxtb	r4, r4
 326 0060 04B1     		cbz	r4, .L28
 243:.\Generated_Source\PSoC5/Clock_SYS.c ****                 if (((Clock_SYS_MOD_SRC & CYCLK_SYNC) == 0u) || (clkDivider == 0u))
 327              		.loc 1 243 0 is_stmt 0 discriminator 1
 328 0062 70B9     		cbnz	r0, .L27
 329              	.L28:
 246:.\Generated_Source\PSoC5/Clock_SYS.c ****                     CY_SET_REG16(CYREG_CLKDIST_WRK0, oldDivider);
 330              		.loc 1 246 0 is_stmt 1
 331 0064 194E     		ldr	r6, .L42+24
 332 0066 3280     		strh	r2, [r6, #0]	@ movhi
 247:.\Generated_Source\PSoC5/Clock_SYS.c ****                     CLK_DIST_LD = CYCLK_LD_DISABLE|CYCLK_LD_SYNC_EN|CYCLK_LD_LOAD;
 333              		.loc 1 247 0
 334 0068 0722     		movs	r2, #7
 335 006a 1A70     		strb	r2, [r3, #0]
 336              	.L30:
 250:.\Generated_Source\PSoC5/Clock_SYS.c ****                     while ((CLK_DIST_LD & CYCLK_LD_LOAD) != 0u) { }
 337              		.loc 1 250 0 discriminator 1
 338 006c 154B     		ldr	r3, .L42+16
 339 006e 1C78     		ldrb	r4, [r3, #0]	@ zero_extendqisi2
 340 0070 14F00104 		ands	r4, r4, #1
 341 0074 FAD1     		bne	.L30
 253:.\Generated_Source\PSoC5/Clock_SYS.c ****                     Clock_SYS_CLKEN &= (uint8)(~Clock_SYS_CLKEN_MASK);
 342              		.loc 1 253 0
 343 0076 114A     		ldr	r2, .L42+8
 344 0078 1678     		ldrb	r6, [r2, #0]	@ zero_extendqisi2
 345 007a 06F07F06 		and	r6, r6, #127
 346 007e 1670     		strb	r6, [r2, #0]
 257:.\Generated_Source\PSoC5/Clock_SYS.c ****                     CLK_DIST_LD = 0x00u;
 347              		.loc 1 257 0
 348 0080 1C70     		strb	r4, [r3, #0]
 349              	.L27:
 263:.\Generated_Source\PSoC5/Clock_SYS.c ****             if ((Clock_SYS_CLKEN & Clock_SYS_CLKEN_MASK) != 0u)
 350              		.loc 1 263 0
 351 0082 0E4B     		ldr	r3, .L42+8
 352 0084 1A78     		ldrb	r2, [r3, #0]	@ zero_extendqisi2
 353 0086 1206     		lsls	r2, r2, #24
ARM GAS  C:\Users\Graziano\AppData\Local\Temp\cc2U6mNu.s 			page 16


 354 0088 0DD5     		bpl	.L31
 266:.\Generated_Source\PSoC5/Clock_SYS.c ****                 CY_SET_REG16(CYREG_CLKDIST_WRK0, clkDivider);
 355              		.loc 1 266 0
 356 008a A3F56873 		sub	r3, r3, #928
 268:.\Generated_Source\PSoC5/Clock_SYS.c ****                 CLK_DIST_LD = (CYCLK_LD_LOAD | ((restart != 0u) ? CYCLK_LD_SYNC_EN : 0x00u));
 357              		.loc 1 268 0
 358 008e 0029     		cmp	r1, #0
 359 0090 0CBF     		ite	eq
 360 0092 0121     		moveq	r1, #1
 361 0094 0321     		movne	r1, #3
 362              	.LVL14:
 266:.\Generated_Source\PSoC5/Clock_SYS.c ****                 CY_SET_REG16(CYREG_CLKDIST_WRK0, clkDivider);
 363              		.loc 1 266 0
 364 0096 1880     		strh	r0, [r3, #0]	@ movhi
 268:.\Generated_Source\PSoC5/Clock_SYS.c ****                 CLK_DIST_LD = (CYCLK_LD_LOAD | ((restart != 0u) ? CYCLK_LD_SYNC_EN : 0x00u));
 365              		.loc 1 268 0
 366 0098 03F8011C 		strb	r1, [r3, #-1]
 367              	.LVL15:
 368              	.L33:
 269:.\Generated_Source\PSoC5/Clock_SYS.c ****                 while ((CLK_DIST_LD & CYCLK_LD_LOAD) != 0u) { }
 369              		.loc 1 269 0 discriminator 1
 370 009c 0948     		ldr	r0, .L42+16
 371 009e 0278     		ldrb	r2, [r0, #0]	@ zero_extendqisi2
 372 00a0 D207     		lsls	r2, r2, #31
 373 00a2 FBD4     		bmi	.L33
 374 00a4 F0BD     		pop	{r4, r5, r6, r7, pc}
 375              	.LVL16:
 376              	.L31:
 274:.\Generated_Source\PSoC5/Clock_SYS.c ****                 CY_SET_REG16(Clock_SYS_DIV_PTR, clkDivider);
 377              		.loc 1 274 0
 378 00a6 0449     		ldr	r1, .L42+4
 379              	.LVL17:
 380 00a8 0880     		strh	r0, [r1, #0]	@ movhi
 275:.\Generated_Source\PSoC5/Clock_SYS.c **** 				Clock_SYS_CLKEN |= enabled;
 381              		.loc 1 275 0
 382 00aa 1878     		ldrb	r0, [r3, #0]	@ zero_extendqisi2
 383              	.LVL18:
 384 00ac 45EA0002 		orr	r2, r5, r0
 385              	.LVL19:
 386              	.L41:
 387 00b0 1A70     		strb	r2, [r3, #0]
 388              	.L20:
 389 00b2 F0BD     		pop	{r4, r5, r6, r7, pc}
 390              	.L43:
 391              		.align	2
 392              	.L42:
 393 00b4 9E400040 		.word	1073758366
 394 00b8 9C400040 		.word	1073758364
 395 00bc A2430040 		.word	1073759138
 396 00c0 10400040 		.word	1073758224
 397 00c4 01400040 		.word	1073758209
 398 00c8 08400040 		.word	1073758216
 399 00cc 02400040 		.word	1073758210
 400              		.cfi_endproc
 401              	.LFE4:
 402              		.size	Clock_SYS_SetDividerRegister, .-Clock_SYS_SetDividerRegister
 403              		.section	.text.Clock_SYS_GetDividerRegister,"ax",%progbits
ARM GAS  C:\Users\Graziano\AppData\Local\Temp\cc2U6mNu.s 			page 17


 404              		.align	1
 405              		.global	Clock_SYS_GetDividerRegister
 406              		.thumb
 407              		.thumb_func
 408              		.type	Clock_SYS_GetDividerRegister, %function
 409              	Clock_SYS_GetDividerRegister:
 410              	.LFB5:
 298:.\Generated_Source\PSoC5/Clock_SYS.c **** {
 411              		.loc 1 298 0
 412              		.cfi_startproc
 413              		@ args = 0, pretend = 0, frame = 0
 414              		@ frame_needed = 0, uses_anonymous_args = 0
 415              		@ link register save eliminated.
 299:.\Generated_Source\PSoC5/Clock_SYS.c ****     return CY_GET_REG16(Clock_SYS_DIV_PTR);
 416              		.loc 1 299 0
 417 0000 014B     		ldr	r3, .L45
 418 0002 1888     		ldrh	r0, [r3, #0]
 300:.\Generated_Source\PSoC5/Clock_SYS.c **** }
 419              		.loc 1 300 0
 420 0004 80B2     		uxth	r0, r0
 421 0006 7047     		bx	lr
 422              	.L46:
 423              		.align	2
 424              	.L45:
 425 0008 9C400040 		.word	1073758364
 426              		.cfi_endproc
 427              	.LFE5:
 428              		.size	Clock_SYS_GetDividerRegister, .-Clock_SYS_GetDividerRegister
 429              		.section	.text.Clock_SYS_SetModeRegister,"ax",%progbits
 430              		.align	1
 431              		.global	Clock_SYS_SetModeRegister
 432              		.thumb
 433              		.thumb_func
 434              		.type	Clock_SYS_SetModeRegister, %function
 435              	Clock_SYS_SetModeRegister:
 436              	.LFB6:
 333:.\Generated_Source\PSoC5/Clock_SYS.c **** {
 437              		.loc 1 333 0
 438              		.cfi_startproc
 439              		@ args = 0, pretend = 0, frame = 0
 440              		@ frame_needed = 0, uses_anonymous_args = 0
 441              		@ link register save eliminated.
 442              	.LVL20:
 334:.\Generated_Source\PSoC5/Clock_SYS.c ****     Clock_SYS_MOD_SRC |= modeBitMask & (uint8)Clock_SYS_MODE_MASK;
 443              		.loc 1 334 0
 444 0000 034B     		ldr	r3, .L48
 445 0002 00F0F800 		and	r0, r0, #248
 446              	.LVL21:
 447 0006 1A78     		ldrb	r2, [r3, #0]	@ zero_extendqisi2
 448 0008 40EA0201 		orr	r1, r0, r2
 449 000c 1970     		strb	r1, [r3, #0]
 450 000e 7047     		bx	lr
 451              	.L49:
 452              		.align	2
 453              	.L48:
 454 0010 9E400040 		.word	1073758366
 455              		.cfi_endproc
ARM GAS  C:\Users\Graziano\AppData\Local\Temp\cc2U6mNu.s 			page 18


 456              	.LFE6:
 457              		.size	Clock_SYS_SetModeRegister, .-Clock_SYS_SetModeRegister
 458              		.section	.text.Clock_SYS_ClearModeRegister,"ax",%progbits
 459              		.align	1
 460              		.global	Clock_SYS_ClearModeRegister
 461              		.thumb
 462              		.thumb_func
 463              		.type	Clock_SYS_ClearModeRegister, %function
 464              	Clock_SYS_ClearModeRegister:
 465              	.LFB7:
 368:.\Generated_Source\PSoC5/Clock_SYS.c **** {
 466              		.loc 1 368 0
 467              		.cfi_startproc
 468              		@ args = 0, pretend = 0, frame = 0
 469              		@ frame_needed = 0, uses_anonymous_args = 0
 470              		@ link register save eliminated.
 471              	.LVL22:
 369:.\Generated_Source\PSoC5/Clock_SYS.c ****     Clock_SYS_MOD_SRC &= (uint8)(~modeBitMask) | (uint8)(~(uint8)(Clock_SYS_MODE_MASK));
 472              		.loc 1 369 0
 473 0000 034B     		ldr	r3, .L51
 474 0002 C043     		mvns	r0, r0
 475              	.LVL23:
 476 0004 1A78     		ldrb	r2, [r3, #0]	@ zero_extendqisi2
 477 0006 40F00701 		orr	r1, r0, #7
 478 000a 0A40     		ands	r2, r2, r1
 479 000c 1A70     		strb	r2, [r3, #0]
 480 000e 7047     		bx	lr
 481              	.L52:
 482              		.align	2
 483              	.L51:
 484 0010 9E400040 		.word	1073758366
 485              		.cfi_endproc
 486              	.LFE7:
 487              		.size	Clock_SYS_ClearModeRegister, .-Clock_SYS_ClearModeRegister
 488              		.section	.text.Clock_SYS_GetModeRegister,"ax",%progbits
 489              		.align	1
 490              		.global	Clock_SYS_GetModeRegister
 491              		.thumb
 492              		.thumb_func
 493              		.type	Clock_SYS_GetModeRegister, %function
 494              	Clock_SYS_GetModeRegister:
 495              	.LFB8:
 389:.\Generated_Source\PSoC5/Clock_SYS.c **** {
 496              		.loc 1 389 0
 497              		.cfi_startproc
 498              		@ args = 0, pretend = 0, frame = 0
 499              		@ frame_needed = 0, uses_anonymous_args = 0
 500              		@ link register save eliminated.
 390:.\Generated_Source\PSoC5/Clock_SYS.c ****     return Clock_SYS_MOD_SRC & (uint8)(Clock_SYS_MODE_MASK);
 501              		.loc 1 390 0
 502 0000 024B     		ldr	r3, .L54
 503 0002 1878     		ldrb	r0, [r3, #0]	@ zero_extendqisi2
 391:.\Generated_Source\PSoC5/Clock_SYS.c **** }
 504              		.loc 1 391 0
 505 0004 00F0F800 		and	r0, r0, #248
 506 0008 7047     		bx	lr
 507              	.L55:
ARM GAS  C:\Users\Graziano\AppData\Local\Temp\cc2U6mNu.s 			page 19


 508 000a 00BF     		.align	2
 509              	.L54:
 510 000c 9E400040 		.word	1073758366
 511              		.cfi_endproc
 512              	.LFE8:
 513              		.size	Clock_SYS_GetModeRegister, .-Clock_SYS_GetModeRegister
 514              		.section	.text.Clock_SYS_SetSourceRegister,"ax",%progbits
 515              		.align	1
 516              		.global	Clock_SYS_SetSourceRegister
 517              		.thumb
 518              		.thumb_func
 519              		.type	Clock_SYS_SetSourceRegister, %function
 520              	Clock_SYS_SetSourceRegister:
 521              	.LFB9:
 420:.\Generated_Source\PSoC5/Clock_SYS.c **** {
 522              		.loc 1 420 0
 523              		.cfi_startproc
 524              		@ args = 0, pretend = 0, frame = 0
 525              		@ frame_needed = 0, uses_anonymous_args = 0
 526              		@ link register save eliminated.
 527              	.LVL24:
 528              	.LBB23:
 529              	.LBB24:
 299:.\Generated_Source\PSoC5/Clock_SYS.c ****     return CY_GET_REG16(Clock_SYS_DIV_PTR);
 530              		.loc 1 299 0
 531 0000 124B     		ldr	r3, .L64
 532 0002 1988     		ldrh	r1, [r3, #0]
 533              	.LBE24:
 534              	.LBE23:
 535              	.LBB26:
 536              	.LBB27:
 537              		.loc 1 466 0
 538 0004 0233     		adds	r3, r3, #2
 539 0006 1A78     		ldrb	r2, [r3, #0]	@ zero_extendqisi2
 540              	.LBE27:
 541              	.LBE26:
 542              	.LBB28:
 543              	.LBB25:
 299:.\Generated_Source\PSoC5/Clock_SYS.c ****     return CY_GET_REG16(Clock_SYS_DIV_PTR);
 544              		.loc 1 299 0
 545 0008 89B2     		uxth	r1, r1
 546              	.LBE25:
 547              	.LBE28:
 424:.\Generated_Source\PSoC5/Clock_SYS.c ****     if (((oldSrc != ((uint8)CYCLK_SRC_SEL_CLK_SYNC_D)) && 
 548              		.loc 1 424 0
 549 000a 12F0070F 		tst	r2, #7
 550 000e 1A46     		mov	r2, r3
 551 0010 09D0     		beq	.L57
 424:.\Generated_Source\PSoC5/Clock_SYS.c ****     if (((oldSrc != ((uint8)CYCLK_SRC_SEL_CLK_SYNC_D)) && 
 552              		.loc 1 424 0 is_stmt 0 discriminator 1
 553 0012 A0B9     		cbnz	r0, .L58
 425:.\Generated_Source\PSoC5/Clock_SYS.c ****         (clkSource == ((uint8)CYCLK_SRC_SEL_CLK_SYNC_D))) && (currDiv == 0u))
 554              		.loc 1 425 0 is_stmt 1
 555 0014 99B9     		cbnz	r1, .L58
 429:.\Generated_Source\PSoC5/Clock_SYS.c ****         Clock_SYS_MOD_SRC |= CYCLK_SSS;
 556              		.loc 1 429 0
 557 0016 1A78     		ldrb	r2, [r3, #0]	@ zero_extendqisi2
ARM GAS  C:\Users\Graziano\AppData\Local\Temp\cc2U6mNu.s 			page 20


 558 0018 42F04000 		orr	r0, r2, #64
 559              	.LVL25:
 560 001c 1870     		strb	r0, [r3, #0]
 431:.\Generated_Source\PSoC5/Clock_SYS.c ****             (Clock_SYS_MOD_SRC & (uint8)(~Clock_SYS_SRC_SEL_MSK)) | clkSource;
 561              		.loc 1 431 0
 562 001e 1978     		ldrb	r1, [r3, #0]	@ zero_extendqisi2
 430:.\Generated_Source\PSoC5/Clock_SYS.c ****         Clock_SYS_MOD_SRC =
 563              		.loc 1 430 0
 564 0020 01F0F801 		and	r1, r1, #248
 565 0024 09E0     		b	.L63
 566              	.LVL26:
 567              	.L57:
 433:.\Generated_Source\PSoC5/Clock_SYS.c ****     else if (((oldSrc == ((uint8)CYCLK_SRC_SEL_CLK_SYNC_D)) && 
 568              		.loc 1 433 0 discriminator 1
 569 0026 50B1     		cbz	r0, .L58
 434:.\Generated_Source\PSoC5/Clock_SYS.c ****             (clkSource != ((uint8)CYCLK_SRC_SEL_CLK_SYNC_D))) && (currDiv == 0u))
 570              		.loc 1 434 0
 571 0028 49B9     		cbnz	r1, .L58
 439:.\Generated_Source\PSoC5/Clock_SYS.c ****             (Clock_SYS_MOD_SRC & (uint8)(~Clock_SYS_SRC_SEL_MSK)) | clkSource;
 572              		.loc 1 439 0
 573 002a 1978     		ldrb	r1, [r3, #0]	@ zero_extendqisi2
 438:.\Generated_Source\PSoC5/Clock_SYS.c ****         Clock_SYS_MOD_SRC =
 574              		.loc 1 438 0
 575 002c 21F00702 		bic	r2, r1, #7
 576 0030 1043     		orrs	r0, r0, r2
 577              	.LVL27:
 578 0032 1870     		strb	r0, [r3, #0]
 440:.\Generated_Source\PSoC5/Clock_SYS.c ****         Clock_SYS_MOD_SRC &= (uint8)(~CYCLK_SSS);
 579              		.loc 1 440 0
 580 0034 1878     		ldrb	r0, [r3, #0]	@ zero_extendqisi2
 581 0036 00F0BF01 		and	r1, r0, #191
 582              	.L63:
 583 003a 1970     		strb	r1, [r3, #0]
 584 003c 7047     		bx	lr
 585              	.LVL28:
 586              	.L58:
 445:.\Generated_Source\PSoC5/Clock_SYS.c ****             (Clock_SYS_MOD_SRC & (uint8)(~Clock_SYS_SRC_SEL_MSK)) | clkSource;
 587              		.loc 1 445 0
 588 003e 1378     		ldrb	r3, [r2, #0]	@ zero_extendqisi2
 444:.\Generated_Source\PSoC5/Clock_SYS.c ****         Clock_SYS_MOD_SRC =
 589              		.loc 1 444 0
 590 0040 23F00701 		bic	r1, r3, #7
 591 0044 0843     		orrs	r0, r0, r1
 592              	.LVL29:
 593 0046 1070     		strb	r0, [r2, #0]
 594 0048 7047     		bx	lr
 595              	.L65:
 596 004a 00BF     		.align	2
 597              	.L64:
 598 004c 9C400040 		.word	1073758364
 599              		.cfi_endproc
 600              	.LFE9:
 601              		.size	Clock_SYS_SetSourceRegister, .-Clock_SYS_SetSourceRegister
 602              		.section	.text.Clock_SYS_GetSourceRegister,"ax",%progbits
 603              		.align	1
 604              		.global	Clock_SYS_GetSourceRegister
 605              		.thumb
ARM GAS  C:\Users\Graziano\AppData\Local\Temp\cc2U6mNu.s 			page 21


 606              		.thumb_func
 607              		.type	Clock_SYS_GetSourceRegister, %function
 608              	Clock_SYS_GetSourceRegister:
 609              	.LFB10:
 465:.\Generated_Source\PSoC5/Clock_SYS.c **** {
 610              		.loc 1 465 0
 611              		.cfi_startproc
 612              		@ args = 0, pretend = 0, frame = 0
 613              		@ frame_needed = 0, uses_anonymous_args = 0
 614              		@ link register save eliminated.
 615              		.loc 1 466 0
 616 0000 024B     		ldr	r3, .L67
 617 0002 1878     		ldrb	r0, [r3, #0]	@ zero_extendqisi2
 467:.\Generated_Source\PSoC5/Clock_SYS.c **** }
 618              		.loc 1 467 0
 619 0004 00F00700 		and	r0, r0, #7
 620 0008 7047     		bx	lr
 621              	.L68:
 622 000a 00BF     		.align	2
 623              	.L67:
 624 000c 9E400040 		.word	1073758366
 625              		.cfi_endproc
 626              	.LFE10:
 627              		.size	Clock_SYS_GetSourceRegister, .-Clock_SYS_GetSourceRegister
 628              		.text
 629              	.Letext0:
 630              		.file 2 "./Generated_Source/PSoC5/cytypes.h"