ARM GAS  C:\Users\Graziano\AppData\Local\Temp\cccvomne.s 			page 1


   1              		.syntax unified
   2              		.cpu cortex-m3
   3              		.fpu softvfp
   4              		.eabi_attribute 20, 1
   5              		.eabi_attribute 21, 1
   6              		.eabi_attribute 23, 3
   7              		.eabi_attribute 24, 1
   8              		.eabi_attribute 25, 1
   9              		.eabi_attribute 26, 1
  10              		.eabi_attribute 30, 4
  11              		.eabi_attribute 34, 1
  12              		.eabi_attribute 18, 4
  13              		.thumb
  14              		.file	"console.c"
  15              		.text
  16              	.Ltext0:
  17              		.cfi_sections	.debug_frame
  18              		.section	.text.ShowParamsDirector,"ax",%progbits
  19              		.align	1
  20              		.global	ShowParamsDirector
  21              		.thumb
  22              		.thumb_func
  23              		.type	ShowParamsDirector, %function
  24              	ShowParamsDirector:
  25              	.LFB56:
  26              		.file 1 ".\\console.c"
   1:.\console.c   **** /* ==============================================
   2:.\console.c   ****  *                                              *
   3:.\console.c   ****  * GoBee Director Console Interface functions	*
   4:.\console.c   ****  *												*
   5:.\console.c   ****  * Copyright 2016 Gobee Srl		         		*
   6:.\console.c   ****  * Author : Graziano G. Ravizza                 *
   7:.\console.c   ****  * All Rights Reserved							*
   8:.\console.c   ****  * UNPUBLISHED, LICENSED SOFTWARE.				*
   9:.\console.c   ****  *												*
  10:.\console.c   ****  * CONFIDENTIAL AND PROPRIETARY INFORMATION		*
  11:.\console.c   ****  * WHICH IS THE PROPERTY OF Gobee Srl			*
  12:.\console.c   ****  * ==============================================
  13:.\console.c   **** */
  14:.\console.c   **** 
  15:.\console.c   **** /* Include files */
  16:.\console.c   **** #include <device.h>
  17:.\console.c   **** #include <stdio.h>
  18:.\console.c   **** #include <stdlib.h>
  19:.\console.c   **** #include <string.h>
  20:.\console.c   **** 
  21:.\console.c   **** #include <gobee.h>
  22:.\console.c   **** #include <console.h>
  23:.\console.c   **** #include <systrings.h>
  24:.\console.c   **** #include <gobeelib.h>
  25:.\console.c   **** #include <ITG-3701.h>
  26:.\console.c   **** #include <motor_CTRL.h>
  27:.\console.c   **** #include <pid_lib.h>
  28:.\console.c   **** #include <das.h>
  29:.\console.c   **** #include <My_I2C_lib.h>
  30:.\console.c   **** #include <mover.h>
  31:.\console.c   **** #include <estimators.h>
ARM GAS  C:\Users\Graziano\AppData\Local\Temp\cccvomne.s 			page 2


  32:.\console.c   **** 
  33:.\console.c   **** 
  34:.\console.c   **** /* External Global Wars */
  35:.\console.c   **** extern struct GOBEE_PARAMS gobee_param;
  36:.\console.c   **** extern int16 AdcValue[ADC_MUX_LENGHT];
  37:.\console.c   **** 
  38:.\console.c   **** extern uint8 machine_state;			/* Initial Machine State = POWERON 					*/
  39:.\console.c   **** 									/* Machine States = [POWERON | OPERATIVE | FAULT]	*/
  40:.\console.c   **** 
  41:.\console.c   **** extern uint8 machine_state_backup;	/* machine state backup var for test mode			*/
  42:.\console.c   **** 
  43:.\console.c   **** /* extern Control Variables */
  44:.\console.c   **** extern float fsampling;			/* fsampling [kHz]							*/
  45:.\console.c   **** 
  46:.\console.c   **** /* external global wars */
  47:.\console.c   **** extern struct DAS_VALUES das;				/* DAS- Digital Acquisition System struct 	 */
  48:.\console.c   **** 
  49:.\console.c   **** /* External Motor Axis 		 */
  50:.\console.c   **** extern struct MOTOR_AXIS pan_axis; 			/* PAN  Motor Axis Parameters & RT Datas	*/
  51:.\console.c   **** extern struct MOTOR_AXIS tilt_axis; 		/* TILT Motor Axis Parameters & RT Datas	*/
  52:.\console.c   **** 
  53:.\console.c   **** /* EXTERNAL Feedback Encoder */
  54:.\console.c   **** extern struct ENCODER pan_feedback_encoder;
  55:.\console.c   **** extern struct ENCODER tilt_feedback_encoder;
  56:.\console.c   **** 
  57:.\console.c   **** /* GLOBAL MOVER PATH Array */
  58:.\console.c   **** /* 16 paths 			   */
  59:.\console.c   **** extern path_type path[PATH_N_MAX];		/* path array structure 	*/
  60:.\console.c   **** extern path_type path_to_home;			/* path to home structure instatiation		*/
  61:.\console.c   **** extern mover_type mover;				/* mover structure			*/
  62:.\console.c   **** 
  63:.\console.c   **** /* external events structure	*/
  64:.\console.c   **** extern struct EVENTS events;
  65:.\console.c   **** 
  66:.\console.c   **** /* external ITG-3701 digital gyro vars */
  67:.\console.c   **** extern float gRes;      				// scale resolutions per LSB for the sensors
  68:.\console.c   **** extern int16 gyroCount[3];  			// Stores the 16-bit signed gyro output
  69:.\console.c   **** extern float gx, gy, gz; 				// variables to hold latest sensor data values 
  70:.\console.c   **** extern float gyroBias[3];			 	// Bias corrections for gyro, accelerometer, and magnetometer
  71:.\console.c   **** extern float temperature;          		// Stores the ITG3701yro internal chip temperature in degrees 
  72:.\console.c   **** 
  73:.\console.c   **** /* extern accelerometer and gyroscopes and estimated Variables */
  74:.\console.c   **** extern int16 gyro_ADC_offset;			/* analog gyroscope ADC offset				*/
  75:.\console.c   **** 
  76:.\console.c   **** extern float angle_estim_analog_gyro;	/* estimated angle [deg] from ADXRS646     (analog gyro) 			*
  77:.\console.c   **** extern float angle_estim_digital_gyro;	/* estimated angle [deg] from ADXRS453     (digital gyro)			
  78:.\console.c   **** extern float angle_estim_acc;			/* estimated angle [deg] from ADXL203      (analog accelerometer) 	
  79:.\console.c   **** extern float angle_estim_acc_lowpass;	/* Low Pass Filtered estimated angle [deg] (analog accelerome
  80:.\console.c   **** 
  81:.\console.c   **** extern signed long system_dynamic_scalar;	/* x_acc_ADC^2 + y_acc_ADC^2 - (1g_ADC)^2						*/
  82:.\console.c   **** 
  83:.\console.c   **** extern float gyro;					/* analog gyroscope float value						*/
  84:.\console.c   **** //extern float gyro_offset_fine;		/* fine Gyro offset									*/
  85:.\console.c   **** extern float int_gyro;				/* estimated angle [deg] from ADXRS646				*/
  86:.\console.c   **** extern float angle;					/* Complementary Filter Estimated angle float [deg]	*/
  87:.\console.c   **** extern float angle_lowpass;
  88:.\console.c   **** extern float agyro_mean;			/* analog gyro mean_value(t)						*/
ARM GAS  C:\Users\Graziano\AppData\Local\Temp\cccvomne.s 			page 3


  89:.\console.c   **** extern float agyro_mean_previous;	/* analog gyro mean_value(t-1)						*/
  90:.\console.c   **** extern uint32 iteration;			/* mean value iteration counter						*/
  91:.\console.c   **** extern uint8 agyro_messg;			/* analog gyro message passing console --> isr_ctrl	*/
  92:.\console.c   **** extern uint16 GyroNullPauseTicks;	/* centiseconds ticks counter for Gyroscope Autonull Procedure De
  93:.\console.c   **** 
  94:.\console.c   **** /* extern Analog ADXL325 3D accelerometer vars) */
  95:.\console.c   **** extern struct ANALOG_3D_ACCELEROMETER aacc;
  96:.\console.c   **** 
  97:.\console.c   **** /* GLOBAL Analog External ADXRS646 gyroscope vars) */
  98:.\console.c   **** extern struct ANALOG_GYRO agyro;
  99:.\console.c   **** 
 100:.\console.c   **** //extern Digital Gyroscope Vars
 101:.\console.c   **** extern unsigned long int dgyro_spi32;	/* ADXRS453 Digital Gyro 32 bit SPI Response			*/
 102:.\console.c   **** extern float dgyro_rate_float;			/* ADXRS453 Digital Gyro Rate (float) [deg/sec] 		*/
 103:.\console.c   **** extern float dgyro_mean;				/* digital gyro mean_value(t)							*/
 104:.\console.c   **** extern float dgyro_mean_of;				/* digital gyro ofsetted mean_value(t)					*/
 105:.\console.c   **** extern uint8 dgyro_messg;				/* digital gyro message passing console --> isr_ctrl	*/
 106:.\console.c   **** 
 107:.\console.c   **** 
 108:.\console.c   **** /* EXTERNAL CONTROL CHECK VARS */
 109:.\console.c   **** extern uint16 isr_START_check_counter;
 110:.\console.c   **** extern uint16 isr_STOP_check_counter;
 111:.\console.c   **** 
 112:.\console.c   **** /* EXTERNAL EEPROM Buffers */
 113:.\console.c   **** extern char8 EEreadBuffer[18];
 114:.\console.c   **** extern char8 EEwriteBuffer[18];
 115:.\console.c   **** 
 116:.\console.c   **** extern struct  GOBEE_FAULTS nemo_Faults;			/* Faults Flags Structure */
 117:.\console.c   **** 
 118:.\console.c   **** 
 119:.\console.c   **** /* ASTIM WAVES (3Hz - 3333 samples/sec */
 120:.\console.c   **** extern const uint8 CYCODE WaveDAC8_wave_sine[WaveDAC8_WAVE_SINE_LENGTH];
 121:.\console.c   **** extern const uint8 CYCODE WaveDAC8_wave_triangle[WaveDAC8_WAVE_TRIANGLE_LENGTH];
 122:.\console.c   **** extern const uint8 CYCODE WaveDAC8_wave_square[WaveDAC8_WAVE_SQUARE_LENGTH];
 123:.\console.c   **** 
 124:.\console.c   **** /* Console Module Wars */
 125:.\console.c   **** char   userInputBuffer[40]="";		/* User Input Buffer from USB UART 	*/
 126:.\console.c   **** struct command actual_cmd;
 127:.\console.c   **** uint8  USB_Check_prev;				/* USB Check(t-1) 					*/
 128:.\console.c   **** char   slegenda[15]="";				/* hystogram legenda string 		*/
 129:.\console.c   **** 
 130:.\console.c   **** 
 131:.\console.c   **** //////////////////////////////////////////////////////////////////////////
 132:.\console.c   **** // Show Parameters Auxiliary Functions
 133:.\console.c   **** //////////////////////////////////////////////////////////////////////////
 134:.\console.c   **** void ShowParamsDirector(void)
 135:.\console.c   **** {	
  27              		.loc 1 135 0
  28              		.cfi_startproc
  29              		@ args = 0, pretend = 0, frame = 0
  30              		@ frame_needed = 0, uses_anonymous_args = 0
  31              		@ link register save eliminated.
 136:.\console.c   **** 		switch (gobee_param.director)
  32              		.loc 1 136 0
  33 0000 1B4B     		ldr	r3, .L24
  34 0002 1878     		ldrb	r0, [r3, #0]	@ zero_extendqisi2
  35 0004 1228     		cmp	r0, #18
ARM GAS  C:\Users\Graziano\AppData\Local\Temp\cccvomne.s 			page 4


  36 0006 2FD8     		bhi	.L2
  37 0008 DFE800F0 		tbb	[pc, r0]
  38              	.L21:
  39 000c 0A       		.byte	(.L3-.L21)/2
  40 000d 0C       		.byte	(.L4-.L21)/2
  41 000e 0E       		.byte	(.L5-.L21)/2
  42 000f 10       		.byte	(.L6-.L21)/2
  43 0010 12       		.byte	(.L7-.L21)/2
  44 0011 14       		.byte	(.L8-.L21)/2
  45 0012 16       		.byte	(.L9-.L21)/2
  46 0013 18       		.byte	(.L10-.L21)/2
  47 0014 1A       		.byte	(.L11-.L21)/2
  48 0015 1C       		.byte	(.L12-.L21)/2
  49 0016 1E       		.byte	(.L13-.L21)/2
  50 0017 20       		.byte	(.L14-.L21)/2
  51 0018 22       		.byte	(.L15-.L21)/2
  52 0019 24       		.byte	(.L16-.L21)/2
  53 001a 2E       		.byte	(.L2-.L21)/2
  54 001b 26       		.byte	(.L17-.L21)/2
  55 001c 28       		.byte	(.L18-.L21)/2
  56 001d 2A       		.byte	(.L19-.L21)/2
  57 001e 2C       		.byte	(.L20-.L21)/2
  58 001f 00       		.align	1
  59              	.L3:
 137:.\console.c   **** 	{
 138:.\console.c   **** 		case AKIRA:
 139:.\console.c   **** 			printf("Akira Kurosawa");
  60              		.loc 1 139 0
  61 0020 1448     		ldr	r0, .L24+4
  62 0022 22E0     		b	.L22
  63              	.L4:
 140:.\console.c   **** 			break;	
 141:.\console.c   **** 		case ALFRED:
 142:.\console.c   **** 			printf("Alfred Hitchcock");
  64              		.loc 1 142 0
  65 0024 1448     		ldr	r0, .L24+8
  66 0026 20E0     		b	.L22
  67              	.L5:
 143:.\console.c   **** 			break;
 144:.\console.c   **** 		case DE_PALMA:
 145:.\console.c   **** 			printf("Brian De Palma");
  68              		.loc 1 145 0
  69 0028 1448     		ldr	r0, .L24+12
  70 002a 1EE0     		b	.L22
  71              	.L6:
 146:.\console.c   **** 			break;	
 147:.\console.c   **** 		case CHARLIE:
 148:.\console.c   **** 			printf("Charlie Chaplin");
  72              		.loc 1 148 0
  73 002c 1448     		ldr	r0, .L24+16
  74 002e 1CE0     		b	.L22
  75              	.L7:
 149:.\console.c   **** 			break;	
 150:.\console.c   **** 		case LINCH:
 151:.\console.c   **** 			printf("David Linch");
  76              		.loc 1 151 0
  77 0030 1448     		ldr	r0, .L24+20
ARM GAS  C:\Users\Graziano\AppData\Local\Temp\cccvomne.s 			page 5


  78 0032 1AE0     		b	.L22
  79              	.L8:
 152:.\console.c   **** 			break;
 153:.\console.c   **** 		case COPPOLA:
 154:.\console.c   **** 			printf("Francis Ford Coppola");
  80              		.loc 1 154 0
  81 0034 1448     		ldr	r0, .L24+24
  82 0036 18E0     		b	.L22
  83              	.L9:
 155:.\console.c   **** 			break;
 156:.\console.c   **** 		case MARTIN:
 157:.\console.c   **** 			printf("Martin Scorsese");
  84              		.loc 1 157 0
  85 0038 1448     		ldr	r0, .L24+28
  86 003a 16E0     		b	.L22
  87              	.L10:
 158:.\console.c   **** 			break;	
 159:.\console.c   **** 		case QUENTIN:
 160:.\console.c   **** 			printf("Quentin Tarantino");
  88              		.loc 1 160 0
  89 003c 1448     		ldr	r0, .L24+32
  90 003e 14E0     		b	.L22
  91              	.L11:
 161:.\console.c   **** 			break;
 162:.\console.c   **** 		case RIDLEY:
 163:.\console.c   **** 			printf("Ridley Scott");
  92              		.loc 1 163 0
  93 0040 1448     		ldr	r0, .L24+36
  94 0042 12E0     		b	.L22
  95              	.L12:
 164:.\console.c   **** 			break;
 165:.\console.c   **** 		case SERGIO:
 166:.\console.c   **** 			printf("Sergio Leone");
  96              		.loc 1 166 0
  97 0044 1448     		ldr	r0, .L24+40
  98 0046 10E0     		b	.L22
  99              	.L13:
 167:.\console.c   **** 			break;
 168:.\console.c   **** 		case STEVEN:
 169:.\console.c   **** 			printf("Steven Spielberg");
 100              		.loc 1 169 0
 101 0048 1448     		ldr	r0, .L24+44
 102 004a 0EE0     		b	.L22
 103              	.L14:
 170:.\console.c   **** 			break;
 171:.\console.c   **** 		case TIM:
 172:.\console.c   **** 			printf("Tim Burton");
 104              		.loc 1 172 0
 105 004c 1448     		ldr	r0, .L24+48
 106 004e 0CE0     		b	.L22
 107              	.L15:
 173:.\console.c   **** 			break;
 174:.\console.c   **** 		case WES:
 175:.\console.c   **** 			printf("Wes Craven");
 108              		.loc 1 175 0
 109 0050 1448     		ldr	r0, .L24+52
 110 0052 0AE0     		b	.L22
ARM GAS  C:\Users\Graziano\AppData\Local\Temp\cccvomne.s 			page 6


 111              	.L16:
 176:.\console.c   **** 			break;
 177:.\console.c   **** 		case FEDERICO:
 178:.\console.c   **** 			printf("Federico Fellini");
 112              		.loc 1 178 0
 113 0054 1448     		ldr	r0, .L24+56
 114 0056 08E0     		b	.L22
 115              	.L17:
 179:.\console.c   **** 			break;
 180:.\console.c   **** 		case CRISTOPHER:
 181:.\console.c   **** 			printf("Christopher Nolan");
 116              		.loc 1 181 0
 117 0058 1448     		ldr	r0, .L24+60
 118 005a 06E0     		b	.L22
 119              	.L18:
 182:.\console.c   **** 			break;
 183:.\console.c   **** 		case GUILLERMO:
 184:.\console.c   **** 			printf("Gullermo Del Toro");
 120              		.loc 1 184 0
 121 005c 1448     		ldr	r0, .L24+64
 122 005e 04E0     		b	.L22
 123              	.L19:
 185:.\console.c   **** 			break;	
 186:.\console.c   **** 		case GEORGE:
 187:.\console.c   **** 			printf("George Lucas");
 124              		.loc 1 187 0
 125 0060 1448     		ldr	r0, .L24+68
 126 0062 02E0     		b	.L22
 127              	.L20:
 188:.\console.c   **** 			break;	
 189:.\console.c   **** 		case JJ:
 190:.\console.c   **** 			printf("J.J. Abrams");
 128              		.loc 1 190 0
 129 0064 1448     		ldr	r0, .L24+72
 130 0066 00E0     		b	.L22
 131              	.L2:
 191:.\console.c   **** 			break;			
 192:.\console.c   **** 		default:
 193:.\console.c   **** 			printf("You");
 132              		.loc 1 193 0
 133 0068 1448     		ldr	r0, .L24+76
 134              	.L22:
 194:.\console.c   **** 			break;
 195:.\console.c   **** 	}		
 196:.\console.c   **** }
 135              		.loc 1 196 0
 193:.\console.c   **** 			printf("You");
 136              		.loc 1 193 0
 137 006a FFF7FEBF 		b	printf
 138              	.LVL0:
 139              	.L25:
 140 006e 00BF     		.align	2
 141              	.L24:
 142 0070 00000000 		.word	gobee_param
 143 0074 00000000 		.word	.LC0
 144 0078 0F000000 		.word	.LC1
 145 007c 20000000 		.word	.LC2
ARM GAS  C:\Users\Graziano\AppData\Local\Temp\cccvomne.s 			page 7


 146 0080 2F000000 		.word	.LC3
 147 0084 3F000000 		.word	.LC4
 148 0088 4B000000 		.word	.LC5
 149 008c 60000000 		.word	.LC6
 150 0090 70000000 		.word	.LC7
 151 0094 82000000 		.word	.LC8
 152 0098 8F000000 		.word	.LC9
 153 009c 9C000000 		.word	.LC10
 154 00a0 AD000000 		.word	.LC11
 155 00a4 B8000000 		.word	.LC12
 156 00a8 C3000000 		.word	.LC13
 157 00ac D4000000 		.word	.LC14
 158 00b0 E6000000 		.word	.LC15
 159 00b4 F8000000 		.word	.LC16
 160 00b8 05010000 		.word	.LC17
 161 00bc 11010000 		.word	.LC18
 162              		.cfi_endproc
 163              	.LFE56:
 164              		.size	ShowParamsDirector, .-ShowParamsDirector
 165              		.global	__aeabi_f2d
 166              		.global	__aeabi_fdiv
 167              		.global	__aeabi_ddiv
 168              		.global	__aeabi_d2f
 169              		.section	.text.ShowParamsGainAnaoutPan,"ax",%progbits
 170              		.align	1
 171              		.global	ShowParamsGainAnaoutPan
 172              		.thumb
 173              		.thumb_func
 174              		.type	ShowParamsGainAnaoutPan, %function
 175              	ShowParamsGainAnaoutPan:
 176              	.LFB57:
 197:.\console.c   **** 
 198:.\console.c   **** 
 199:.\console.c   **** void ShowParamsGainAnaoutPan(void)
 200:.\console.c   **** {	
 177              		.loc 1 200 0
 178              		.cfi_startproc
 179              		@ args = 0, pretend = 0, frame = 0
 180              		@ frame_needed = 0, uses_anonymous_args = 0
 181 0000 10B5     		push	{r4, lr}
 182              	.LCFI0:
 183              		.cfi_def_cfa_offset 8
 184              		.cfi_offset 4, -8
 185              		.cfi_offset 14, -4
 201:.\console.c   **** 	printf("%4f ",(float)(pan_axis.param.Gain_ANAOUT.fnum));
 186              		.loc 1 201 0
 187 0002 174C     		ldr	r4, .L27+8
 188 0004 206A     		ldr	r0, [r4, #32]	@ float
 189 0006 FFF7FEFF 		bl	__aeabi_f2d
 190              	.LVL1:
 191 000a 0246     		mov	r2, r0
 192 000c 0B46     		mov	r3, r1
 193 000e 1548     		ldr	r0, .L27+12
 194 0010 FFF7FEFF 		bl	printf
 195              	.LVL2:
 202:.\console.c   **** 	/********************************************************************************/
 203:.\console.c   **** 	/* Again (I/O_EQV) = DAC_Resolution/ADC_Resolution * VMAX_ADC/VMAX_DAC * 1/Kopf	*/
ARM GAS  C:\Users\Graziano\AppData\Local\Temp\cccvomne.s 			page 8


 204:.\console.c   **** 	/* Again (I/O_EQV) =            255/4096           *       5V/4V       * 1/Kopf	*/
 205:.\console.c   **** 	/* Again (I/O_EQV) = 0.077819824 / Kopf											*/
 206:.\console.c   **** 	/********************************************************************************/
 207:.\console.c   **** 	/* 1V Output --> [step] * AGAIN = 255/4 --> [step] = 255/4 * 1/AGAIN			*/
 208:.\console.c   **** 	/********************************************************************************/
 209:.\console.c   **** 	printf("  1V=%4.1f [step]",(float)(63.75/(pan_axis.param.Gain_ANAOUT.fnum)));
 196              		.loc 1 209 0
 197 0014 216A     		ldr	r1, [r4, #32]	@ float
 198 0016 1448     		ldr	r0, .L27+16
 199 0018 FFF7FEFF 		bl	__aeabi_fdiv
 200              	.LVL3:
 201 001c FFF7FEFF 		bl	__aeabi_f2d
 202              	.LVL4:
 203 0020 0246     		mov	r2, r0
 204 0022 0B46     		mov	r3, r1
 205 0024 1148     		ldr	r0, .L27+20
 206 0026 FFF7FEFF 		bl	printf
 207              	.LVL5:
 210:.\console.c   **** 	printf("  (I/O_EQV=f(Kopf)=%1.6f\r\n",(float)(0.077819824/pan_axis.param.Kopf.fnum));
 208              		.loc 1 210 0
 209 002a E069     		ldr	r0, [r4, #28]	@ float
 210 002c FFF7FEFF 		bl	__aeabi_f2d
 211              	.LVL6:
 212 0030 0246     		mov	r2, r0
 213 0032 0B46     		mov	r3, r1
 214 0034 08A1     		adr	r1, .L27
 215 0036 D1E90001 		ldrd	r0, [r1]
 216 003a FFF7FEFF 		bl	__aeabi_ddiv
 217              	.LVL7:
 218 003e FFF7FEFF 		bl	__aeabi_d2f
 219              	.LVL8:
 220 0042 FFF7FEFF 		bl	__aeabi_f2d
 221              	.LVL9:
 222 0046 0246     		mov	r2, r0
 223 0048 0948     		ldr	r0, .L27+24
 224 004a 0B46     		mov	r3, r1
 211:.\console.c   **** }
 225              		.loc 1 211 0
 226 004c BDE81040 		pop	{r4, lr}
 210:.\console.c   **** 	printf("  (I/O_EQV=f(Kopf)=%1.6f\r\n",(float)(0.077819824/pan_axis.param.Kopf.fnum));
 227              		.loc 1 210 0
 228 0050 FFF7FEBF 		b	printf
 229              	.LVL10:
 230              	.L28:
 231 0054 AFF30080 		.align	3
 232              	.L27:
 233 0058 597B0FFF 		.word	-15762599
 234 005c FFEBB33F 		.word	1068755967
 235 0060 00000000 		.word	pan_axis
 236 0064 15010000 		.word	.LC19
 237 0068 00007F42 		.word	1115619328
 238 006c 1A010000 		.word	.LC20
 239 0070 2C010000 		.word	.LC21
 240              		.cfi_endproc
 241              	.LFE57:
 242              		.size	ShowParamsGainAnaoutPan, .-ShowParamsGainAnaoutPan
 243 0074 AFF30080 		.section	.text.ShowParamsKiPan,"ax",%progbits
ARM GAS  C:\Users\Graziano\AppData\Local\Temp\cccvomne.s 			page 9


 244              		.align	1
 245              		.global	ShowParamsKiPan
 246              		.thumb
 247              		.thumb_func
 248              		.type	ShowParamsKiPan, %function
 249              	ShowParamsKiPan:
 250              	.LFB58:
 212:.\console.c   **** 
 213:.\console.c   **** void ShowParamsKiPan(void)
 214:.\console.c   **** {
 251              		.loc 1 214 0
 252              		.cfi_startproc
 253              		@ args = 0, pretend = 0, frame = 0
 254              		@ frame_needed = 0, uses_anonymous_args = 0
 255 0000 73B5     		push	{r0, r1, r4, r5, r6, lr}
 256              	.LCFI1:
 257              		.cfi_def_cfa_offset 24
 258              		.cfi_offset 0, -24
 259              		.cfi_offset 1, -20
 260              		.cfi_offset 4, -16
 261              		.cfi_offset 5, -12
 262              		.cfi_offset 6, -8
 263              		.cfi_offset 14, -4
 215:.\console.c   **** 	printf("%1.6f (Tau=%1.6f [msec])",
 216:.\console.c   **** 		   (float)(pan_axis.param.Kif.fnum),(float)convKiTi(pan_axis.param.Kpf.fnum, pan_axis.param.Kif.f
 264              		.loc 1 216 0
 265 0002 0C4B     		ldr	r3, .L30
 266 0004 0C4A     		ldr	r2, .L30+4
 267 0006 5C69     		ldr	r4, [r3, #20]	@ float
 268 0008 D868     		ldr	r0, [r3, #12]	@ float
 269 000a 1268     		ldr	r2, [r2, #0]	@ float
 270 000c 2146     		mov	r1, r4
 271 000e FFF7FEFF 		bl	convKiTi
 272              	.LVL11:
 273 0012 0646     		mov	r6, r0
 215:.\console.c   **** 	printf("%1.6f (Tau=%1.6f [msec])",
 274              		.loc 1 215 0
 275 0014 2046     		mov	r0, r4
 276 0016 FFF7FEFF 		bl	__aeabi_f2d
 277              	.LVL12:
 278 001a 0446     		mov	r4, r0
 279 001c 3046     		mov	r0, r6
 280 001e 0D46     		mov	r5, r1
 281 0020 FFF7FEFF 		bl	__aeabi_f2d
 282              	.LVL13:
 283 0024 2246     		mov	r2, r4
 284 0026 CDE90001 		strd	r0, [sp]
 285 002a 2B46     		mov	r3, r5
 286 002c 0348     		ldr	r0, .L30+8
 287 002e FFF7FEFF 		bl	printf
 288              	.LVL14:
 217:.\console.c   **** }
 289              		.loc 1 217 0
 290 0032 7CBD     		pop	{r2, r3, r4, r5, r6, pc}
 291              	.L31:
 292              		.align	2
 293              	.L30:
ARM GAS  C:\Users\Graziano\AppData\Local\Temp\cccvomne.s 			page 10


 294 0034 00000000 		.word	pan_axis
 295 0038 00000000 		.word	fsampling
 296 003c 47010000 		.word	.LC22
 297              		.cfi_endproc
 298              	.LFE58:
 299              		.size	ShowParamsKiPan, .-ShowParamsKiPan
 300              		.section	.text.ShowParamsKiTilt,"ax",%progbits
 301              		.align	1
 302              		.global	ShowParamsKiTilt
 303              		.thumb
 304              		.thumb_func
 305              		.type	ShowParamsKiTilt, %function
 306              	ShowParamsKiTilt:
 307              	.LFB59:
 218:.\console.c   **** 
 219:.\console.c   **** void ShowParamsKiTilt(void)
 220:.\console.c   **** {
 308              		.loc 1 220 0
 309              		.cfi_startproc
 310              		@ args = 0, pretend = 0, frame = 0
 311              		@ frame_needed = 0, uses_anonymous_args = 0
 312 0000 73B5     		push	{r0, r1, r4, r5, r6, lr}
 313              	.LCFI2:
 314              		.cfi_def_cfa_offset 24
 315              		.cfi_offset 0, -24
 316              		.cfi_offset 1, -20
 317              		.cfi_offset 4, -16
 318              		.cfi_offset 5, -12
 319              		.cfi_offset 6, -8
 320              		.cfi_offset 14, -4
 221:.\console.c   **** 	printf("%1.6f (Tau=%1.6f [msec])",
 222:.\console.c   **** 		   (float)(tilt_axis.param.Kif.fnum),(float)convKiTi(tilt_axis.param.Kpf.fnum, tilt_axis.param.Ki
 321              		.loc 1 222 0
 322 0002 0C4B     		ldr	r3, .L33
 323 0004 0C4A     		ldr	r2, .L33+4
 324 0006 5C69     		ldr	r4, [r3, #20]	@ float
 325 0008 D868     		ldr	r0, [r3, #12]	@ float
 326 000a 1268     		ldr	r2, [r2, #0]	@ float
 327 000c 2146     		mov	r1, r4
 328 000e FFF7FEFF 		bl	convKiTi
 329              	.LVL15:
 330 0012 0646     		mov	r6, r0
 221:.\console.c   **** 	printf("%1.6f (Tau=%1.6f [msec])",
 331              		.loc 1 221 0
 332 0014 2046     		mov	r0, r4
 333 0016 FFF7FEFF 		bl	__aeabi_f2d
 334              	.LVL16:
 335 001a 0446     		mov	r4, r0
 336 001c 3046     		mov	r0, r6
 337 001e 0D46     		mov	r5, r1
 338 0020 FFF7FEFF 		bl	__aeabi_f2d
 339              	.LVL17:
 340 0024 2246     		mov	r2, r4
 341 0026 CDE90001 		strd	r0, [sp]
 342 002a 2B46     		mov	r3, r5
 343 002c 0348     		ldr	r0, .L33+8
 344 002e FFF7FEFF 		bl	printf
ARM GAS  C:\Users\Graziano\AppData\Local\Temp\cccvomne.s 			page 11


 345              	.LVL18:
 223:.\console.c   **** }
 346              		.loc 1 223 0
 347 0032 7CBD     		pop	{r2, r3, r4, r5, r6, pc}
 348              	.L34:
 349              		.align	2
 350              	.L33:
 351 0034 00000000 		.word	tilt_axis
 352 0038 00000000 		.word	fsampling
 353 003c 47010000 		.word	.LC22
 354              		.cfi_endproc
 355              	.LFE59:
 356              		.size	ShowParamsKiTilt, .-ShowParamsKiTilt
 357              		.section	.text.ShowParamsColorPan,"ax",%progbits
 358              		.align	1
 359              		.global	ShowParamsColorPan
 360              		.thumb
 361              		.thumb_func
 362              		.type	ShowParamsColorPan, %function
 363              	ShowParamsColorPan:
 364              	.LFB60:
 224:.\console.c   **** 
 225:.\console.c   **** void ShowParamsColorPan(void)
 226:.\console.c   **** {	
 365              		.loc 1 226 0
 366              		.cfi_startproc
 367              		@ args = 0, pretend = 0, frame = 0
 368              		@ frame_needed = 0, uses_anonymous_args = 0
 369 0000 10B5     		push	{r4, lr}
 370              	.LCFI3:
 371              		.cfi_def_cfa_offset 8
 372              		.cfi_offset 4, -8
 373              		.cfi_offset 14, -4
 227:.\console.c   **** 	printf("%1u:",(uint16)(pan_axis.param.color));
 374              		.loc 1 227 0
 375 0002 164C     		ldr	r4, .L49
 376 0004 1648     		ldr	r0, .L49+4
 377 0006 94F82410 		ldrb	r1, [r4, #36]	@ zero_extendqisi2
 378 000a FFF7FEFF 		bl	printf
 379              	.LVL19:
 228:.\console.c   **** 	
 229:.\console.c   **** 	if (pan_axis.param.color == GYRO_RATE)
 380              		.loc 1 229 0
 381 000e 94F82430 		ldrb	r3, [r4, #36]	@ zero_extendqisi2
 382 0012 0BB9     		cbnz	r3, .L36
 230:.\console.c   **** 	{
 231:.\console.c   **** 		printf("GYRO RATE");
 383              		.loc 1 231 0
 384 0014 1348     		ldr	r0, .L49+8
 385 0016 1DE0     		b	.L48
 386              	.L36:
 232:.\console.c   **** 	}
 233:.\console.c   **** 	else if (pan_axis.param.color == SLAVE_ENC_POS)
 387              		.loc 1 233 0
 388 0018 012B     		cmp	r3, #1
 389 001a 01D1     		bne	.L37
 234:.\console.c   **** 	{
ARM GAS  C:\Users\Graziano\AppData\Local\Temp\cccvomne.s 			page 12


 235:.\console.c   **** 		printf("SLAVE ENCODER POSITION");
 390              		.loc 1 235 0
 391 001c 1248     		ldr	r0, .L49+12
 392 001e 19E0     		b	.L48
 393              	.L37:
 236:.\console.c   **** 	}
 237:.\console.c   **** 	else if (pan_axis.param.color == SLAVE_ENC_VEL)
 394              		.loc 1 237 0
 395 0020 022B     		cmp	r3, #2
 396 0022 01D1     		bne	.L38
 238:.\console.c   **** 	{
 239:.\console.c   **** 		printf("SLAVE ENCODER VELOCITY");
 397              		.loc 1 239 0
 398 0024 1148     		ldr	r0, .L49+16
 399 0026 15E0     		b	.L48
 400              	.L38:
 240:.\console.c   **** 	}	
 241:.\console.c   **** 	else if (pan_axis.param.color == ASTIM_IN)
 401              		.loc 1 241 0
 402 0028 032B     		cmp	r3, #3
 403 002a 01D1     		bne	.L39
 242:.\console.c   **** 	{
 243:.\console.c   **** 		printf("ASTIM INPUT");
 404              		.loc 1 243 0
 405 002c 1048     		ldr	r0, .L49+20
 406 002e 11E0     		b	.L48
 407              	.L39:
 244:.\console.c   **** 	}	
 245:.\console.c   **** 	else if (pan_axis.param.color == CTRL_ERROR)
 408              		.loc 1 245 0
 409 0030 042B     		cmp	r3, #4
 410 0032 01D1     		bne	.L40
 246:.\console.c   **** 	{
 247:.\console.c   **** 		printf("error(t)");
 411              		.loc 1 247 0
 412 0034 0F48     		ldr	r0, .L49+24
 413 0036 0DE0     		b	.L48
 414              	.L40:
 248:.\console.c   **** 	}	
 249:.\console.c   **** 	else if (pan_axis.param.color == CTRL_DERROR)
 415              		.loc 1 249 0
 416 0038 052B     		cmp	r3, #5
 417 003a 01D1     		bne	.L41
 250:.\console.c   **** 	{
 251:.\console.c   **** 		printf("d(error(t))/dt");
 418              		.loc 1 251 0
 419 003c 0E48     		ldr	r0, .L49+28
 420 003e 09E0     		b	.L48
 421              	.L41:
 252:.\console.c   **** 	}
 253:.\console.c   **** 	else if (pan_axis.param.color == CTRL_IERROR)
 422              		.loc 1 253 0
 423 0040 062B     		cmp	r3, #6
 424 0042 01D1     		bne	.L42
 425              	.L43:
 254:.\console.c   **** 	{
 255:.\console.c   **** 		printf("integral(error(t)*dt)");
ARM GAS  C:\Users\Graziano\AppData\Local\Temp\cccvomne.s 			page 13


 426              		.loc 1 255 0
 427 0044 0D48     		ldr	r0, .L49+32
 428 0046 05E0     		b	.L48
 429              	.L42:
 256:.\console.c   **** 	}
 257:.\console.c   **** 	else if (pan_axis.param.color == CTRL_AZIERROR)
 430              		.loc 1 257 0
 431 0048 072B     		cmp	r3, #7
 432 004a FBD0     		beq	.L43
 258:.\console.c   **** 	{
 259:.\console.c   **** 		printf("integral(error(t)*dt)");
 260:.\console.c   **** 	}
 261:.\console.c   **** 	else if (pan_axis.param.color == CTRL_AZIERROR)
 262:.\console.c   **** 	{
 263:.\console.c   **** 		printf("Ki * integral(e(t)) (fixed 4Vpp Output at PWM MAX)");
 264:.\console.c   **** 	}		
 265:.\console.c   **** 	else if (pan_axis.param.color == CTRL_CV)
 433              		.loc 1 265 0
 434 004c 082B     		cmp	r3, #8
 266:.\console.c   **** 	{
 267:.\console.c   **** 		printf("cv(t) (fixed 4Vpp Output at PWM MAX)");
 435              		.loc 1 267 0
 436 004e 0CBF     		ite	eq
 437 0050 0B48     		ldreq	r0, .L49+36
 268:.\console.c   **** 	}
 269:.\console.c   **** 	else
 270:.\console.c   **** 	{
 271:.\console.c   **** 		printf("INTERNAL FW ERROR!   ");
 438              		.loc 1 271 0
 439 0052 0C48     		ldrne	r0, .L49+40
 440              	.L48:
 272:.\console.c   **** 	}	
 273:.\console.c   **** }				
 441              		.loc 1 273 0
 442 0054 BDE81040 		pop	{r4, lr}
 271:.\console.c   **** 		printf("INTERNAL FW ERROR!   ");
 443              		.loc 1 271 0
 444 0058 FFF7FEBF 		b	printf
 445              	.LVL20:
 446              	.L50:
 447              		.align	2
 448              	.L49:
 449 005c 00000000 		.word	pan_axis
 450 0060 60010000 		.word	.LC23
 451 0064 65010000 		.word	.LC24
 452 0068 6F010000 		.word	.LC25
 453 006c 86010000 		.word	.LC26
 454 0070 9D010000 		.word	.LC27
 455 0074 A9010000 		.word	.LC28
 456 0078 B2010000 		.word	.LC29
 457 007c C1010000 		.word	.LC30
 458 0080 D7010000 		.word	.LC31
 459 0084 FC010000 		.word	.LC32
 460              		.cfi_endproc
 461              	.LFE60:
 462              		.size	ShowParamsColorPan, .-ShowParamsColorPan
 463              		.section	.text.AnyButtonPressed,"ax",%progbits
ARM GAS  C:\Users\Graziano\AppData\Local\Temp\cccvomne.s 			page 14


 464              		.align	1
 465              		.global	AnyButtonPressed
 466              		.thumb
 467              		.thumb_func
 468              		.type	AnyButtonPressed, %function
 469              	AnyButtonPressed:
 470              	.LFB64:
 274:.\console.c   **** 
 275:.\console.c   **** // ****************************************************************
 276:.\console.c   **** // *** BUFFERIZER (pass 1 of 3)								    ***
 277:.\console.c   **** // ****************************************************************
 278:.\console.c   **** // *** Legge l'UART USB e popola il buffer userInputBuffer      ***
 279:.\console.c   **** // ****************************************************************
 280:.\console.c   **** 
 281:.\console.c   **** uint8 ReadUSBbuffer(bit echo, bit timeout)
 282:.\console.c   **** {
 283:.\console.c   **** 	uint8 index = 0;
 284:.\console.c   **** 	uint16 ticks = 0;
 285:.\console.c   **** 	char charin;
 286:.\console.c   **** 	
 287:.\console.c   **** 	clear_string(userInputBuffer);
 288:.\console.c   **** 	
 289:.\console.c   **** 	while ((index < sizeof(userInputBuffer)-1)
 290:.\console.c   **** 			&& ((charin=UART_USB_GetChar()) != '\r')
 291:.\console.c   **** 			&& (ticks < TIMEOUT_TICKS) 
 292:.\console.c   **** 			&& (USB_Check() == USB_INSERTED))
 293:.\console.c   **** 	{
 294:.\console.c   **** 		if ((charin != 0) && (charin != '\n'))
 295:.\console.c   **** 		{
 296:.\console.c   **** 			userInputBuffer[index] = tolower((int)charin);
 297:.\console.c   **** 			index++;
 298:.\console.c   **** 			if (echo == 1)
 299:.\console.c   **** 			{
 300:.\console.c   **** 				printf("%c", charin);
 301:.\console.c   **** 			}
 302:.\console.c   **** 			ticks = 0;
 303:.\console.c   **** 		}
 304:.\console.c   **** 		else
 305:.\console.c   **** 		{
 306:.\console.c   **** 			if (timeout == 1)
 307:.\console.c   **** 			{
 308:.\console.c   **** 				ticks++;
 309:.\console.c   **** 			}
 310:.\console.c   **** 		}
 311:.\console.c   **** 	}
 312:.\console.c   **** 	userInputBuffer[index] = '\0';
 313:.\console.c   **** 	
 314:.\console.c   **** 	if (index >= sizeof(userInputBuffer)-1)
 315:.\console.c   **** 	{
 316:.\console.c   **** 		return READ_BUFF_OVERFLOW;
 317:.\console.c   **** 	}
 318:.\console.c   **** 	else
 319:.\console.c   **** 	{
 320:.\console.c   **** 		if (ticks >= TIMEOUT_TICKS)
 321:.\console.c   **** 		{
 322:.\console.c   **** 			return READ_TIMEOUT;
 323:.\console.c   **** 		}
ARM GAS  C:\Users\Graziano\AppData\Local\Temp\cccvomne.s 			page 15


 324:.\console.c   **** 		else
 325:.\console.c   **** 		{
 326:.\console.c   **** 			return READ_OK;
 327:.\console.c   **** 		}
 328:.\console.c   **** 	}
 329:.\console.c   **** }	
 330:.\console.c   **** 
 331:.\console.c   **** // ************************************************************************
 332:.\console.c   **** // *** SCANNERIZER (pass 2 of 3)									    ***
 333:.\console.c   **** // ************************************************************************
 334:.\console.c   **** // *** Estrae quattro sottostinghe dallo Standard Input (USB)
 335:.\console.c   **** // *** e le associa ai token di actual_command:
 336:.\console.c   **** // *** actual_command.action    <-- primo token
 337:.\console.c   **** // *** actual_command.parameter <-- secondo token 
 338:.\console.c   **** // *** actual_command.number1   <-- terzo token
 339:.\console.c   **** // *** actual_command.number2   <-- quarto token
 340:.\console.c   **** // *** restituisce:
 341:.\console.c   **** // *** 0: SCAN_OK
 342:.\console.c   **** // *** 1: SCANNING ERROR (tokens > 4)
 343:.\console.c   **** // ************************************************************************
 344:.\console.c   **** 
 345:.\console.c   **** uint8 scanner2(bit verbose)
 346:.\console.c   **** {
 347:.\console.c   **** 	uint8 rdstat=0;
 348:.\console.c   **** 	uint8 uidx=0, uidy=0;	
 349:.\console.c   **** 	char localBuffer[40];
 350:.\console.c   **** 	char* p;
 351:.\console.c   **** 
 352:.\console.c   **** 	clear_string(actual_cmd.action);
 353:.\console.c   **** 	clear_string(actual_cmd.parameter);	
 354:.\console.c   **** 	clear_string(actual_cmd.number1);	
 355:.\console.c   **** 	clear_string(actual_cmd.number2);	
 356:.\console.c   **** 
 357:.\console.c   **** 	/* Reads from USB buffer (standard input) */
 358:.\console.c   **** 	rdstat=ReadUSBbuffer(ECHO_ON, TIMEOUT_OFF);
 359:.\console.c   **** 	
 360:.\console.c   **** 	/* Extract 4 Tokens */
 361:.\console.c   **** 	if (rdstat == READ_OK)
 362:.\console.c   **** 	{
 363:.\console.c   **** 		clear_string(localBuffer);
 364:.\console.c   **** 		//strcpy(localBuffer, userInputBuffer);
 365:.\console.c   **** 
 366:.\console.c   **** 		/*** strcopy with BACKSPACE control	***/
 367:.\console.c   **** 		uidx = 0;												// reset user  buffer pointer
 368:.\console.c   **** 		uidy = 0;									 			// reset local buffer pointer
 369:.\console.c   **** 		while ((uidx<40) && (userInputBuffer[uidx] != '\0'))	// while there is string to copy
 370:.\console.c   **** 		{
 371:.\console.c   **** 			while ((uidx<40) && (userInputBuffer[uidx] == 8))	// 	while there is ASCII BACKSPACE   = 8 (\b, 
 372:.\console.c   **** 			{
 373:.\console.c   **** 				uidx = uidx + 1;								//		points to the next char
 374:.\console.c   **** 
 375:.\console.c   **** 				if (uidy>0)										//		if there are characters to cancel
 376:.\console.c   **** 				{												//
 377:.\console.c   **** 					uidy = uidy - 1;							//			cancel the previous copied characters
 378:.\console.c   **** 				}												//		
 379:.\console.c   **** 			}
 380:.\console.c   **** 			localBuffer[uidy] = userInputBuffer[uidx];			//	copy one character from user to local buffer
ARM GAS  C:\Users\Graziano\AppData\Local\Temp\cccvomne.s 			page 16


 381:.\console.c   **** 			uidx++;												//	increments user  buffer pointer
 382:.\console.c   **** 			uidy++;												//	increments local buffer pointer
 383:.\console.c   **** 		}
 384:.\console.c   **** 		localBuffer[uidy] = '\0';								//terminate the local buffer string
 385:.\console.c   **** 		/*** strcopy with BACKSPACE control END ***/
 386:.\console.c   **** 		
 387:.\console.c   **** 		p = strtok(localBuffer, " ");
 388:.\console.c   **** 
 389:.\console.c   **** 		if (p != NULL)
 390:.\console.c   **** 		{
 391:.\console.c   **** 			strcpy(actual_cmd.action, p);	
 392:.\console.c   **** 			p = strtok(NULL, " ");
 393:.\console.c   **** 		}
 394:.\console.c   **** 		else
 395:.\console.c   **** 		{
 396:.\console.c   **** 			clear_string(actual_cmd.action);
 397:.\console.c   **** 		}
 398:.\console.c   **** 
 399:.\console.c   **** 		if (p != NULL)
 400:.\console.c   **** 		{
 401:.\console.c   **** 			strcpy(actual_cmd.parameter, p);	
 402:.\console.c   **** 			p = strtok(NULL, " ");
 403:.\console.c   **** 		}
 404:.\console.c   **** 		else
 405:.\console.c   **** 		{
 406:.\console.c   **** 			clear_string(actual_cmd.parameter);
 407:.\console.c   **** 		}
 408:.\console.c   **** 		
 409:.\console.c   **** 		if (p != NULL)
 410:.\console.c   **** 		{
 411:.\console.c   **** 			strcpy(actual_cmd.number1, p);	
 412:.\console.c   **** 			p = strtok(NULL, " ");
 413:.\console.c   **** 		}
 414:.\console.c   **** 		else
 415:.\console.c   **** 		{
 416:.\console.c   **** 			clear_string(actual_cmd.number1);
 417:.\console.c   **** 		}
 418:.\console.c   **** 
 419:.\console.c   **** 		if (p != NULL)
 420:.\console.c   **** 		{
 421:.\console.c   **** 			strcpy(actual_cmd.number2, p);	
 422:.\console.c   **** 			p = strtok(NULL, " ");
 423:.\console.c   **** 		}
 424:.\console.c   **** 		else
 425:.\console.c   **** 		{
 426:.\console.c   **** 			clear_string(actual_cmd.number2);
 427:.\console.c   **** 		}
 428:.\console.c   **** 	
 429:.\console.c   **** 	}
 430:.\console.c   **** 
 431:.\console.c   **** 	if (verbose == VERBOSE_ON)
 432:.\console.c   **** 	{
 433:.\console.c   **** 		printf("\r\n");
 434:.\console.c   **** 		printf("buff=");
 435:.\console.c   **** 		//prints user input buffer until string termination
 436:.\console.c   **** 		uidx=0;
 437:.\console.c   **** 		while ((uidx<40) && (userInputBuffer[uidx] != '\0'))
ARM GAS  C:\Users\Graziano\AppData\Local\Temp\cccvomne.s 			page 17


 438:.\console.c   **** 		{
 439:.\console.c   **** 			if (userInputBuffer[uidx] == 8)			// ASCII BACKSPACE   = 8 (\b, ^H)
 440:.\console.c   **** 			{
 441:.\console.c   **** 				printf("[b]");
 442:.\console.c   **** 			}
 443:.\console.c   **** 			else if (userInputBuffer[uidx] == 127)	// ASCII DELETE7CANC = 127 (^?)
 444:.\console.c   **** 			{
 445:.\console.c   **** 				printf("[d]");
 446:.\console.c   **** 			}			
 447:.\console.c   **** 			else
 448:.\console.c   **** 			{
 449:.\console.c   **** 				printf ("%c", userInputBuffer[uidx]);
 450:.\console.c   **** 			}
 451:.\console.c   **** 			uidx++;
 452:.\console.c   **** 		}
 453:.\console.c   **** //		printf(userInputBuffer);
 454:.\console.c   **** 		
 455:.\console.c   **** 		printf(" tk1=");
 456:.\console.c   **** 		printf(actual_cmd.action);
 457:.\console.c   **** 		printf(" tk2=");
 458:.\console.c   **** 		printf(actual_cmd.parameter);
 459:.\console.c   **** 		printf(" tk3=");
 460:.\console.c   **** 		printf(actual_cmd.number1);
 461:.\console.c   **** 		printf(" tk4=");		
 462:.\console.c   **** 		printf(actual_cmd.number2);
 463:.\console.c   **** 		printf("\r\n");		
 464:.\console.c   **** 	}
 465:.\console.c   **** 	else
 466:.\console.c   **** 	{
 467:.\console.c   **** 		printf("\r\n");	
 468:.\console.c   **** 		printf("\r\n");
 469:.\console.c   **** 	}
 470:.\console.c   **** 	
 471:.\console.c   **** 	return 0;	//SCAN_OK//	
 472:.\console.c   **** }
 473:.\console.c   **** 
 474:.\console.c   **** 
 475:.\console.c   **** 
 476:.\console.c   **** 
 477:.\console.c   **** // ************************************************************************
 478:.\console.c   **** // *** PARSERIZER (pass 3 of 3)										    ***
 479:.\console.c   **** // ************************************************************************
 480:.\console.c   **** uint8 parser()
 481:.\console.c   **** {
 482:.\console.c   **** 	uint8 scanstat __attribute__ ((unused));
 483:.\console.c   **** 	
 484:.\console.c   **** 	uint8 director;			/* Director local								*/
 485:.\console.c   **** 	uint8 feedback_type;	/* Feedback Type local							*/
 486:.\console.c   **** 	uint8 kplowpass=0;		/* Low Pass filter on Kp (0 = OFF)				*/
 487:.\console.c   **** 	float alpha=0;			/* alpha local									*/
 488:.\console.c   **** 	float beta=0;			/* beta local									*/	
 489:.\console.c   **** 	float sensivity_fine=0;	/* Analog Gyro Sensivity						*/	
 490:.\console.c   **** 	float gamma=0;			/* gamma local									*/		
 491:.\console.c   **** 	uint8 polarity=0;		/* Motor Polarity local							*/
 492:.\console.c   **** 	int16 offset=0;			/* generic int16 Offset							*/
 493:.\console.c   **** 	
 494:.\console.c   **** 	float Kp;				/* Kp local										*/
ARM GAS  C:\Users\Graziano\AppData\Local\Temp\cccvomne.s 			page 18


 495:.\console.c   **** 	//float deadband;			/* e(t) deadband local							*/
 496:.\console.c   **** 	float Kd;				/* Kd local										*/	
 497:.\console.c   **** 	float Ki;				/* Ki local										*/
 498:.\console.c   **** 	float Ksi;				/* Ksi local									*/	
 499:.\console.c   **** 	float Kopf;				/* Kopf local									*/	
 500:.\console.c   **** 	float anaout_gain;		/* Analog Output Gain local						*/
 501:.\console.c   **** 	uint8 color;			/* color local									*/
 502:.\console.c   **** 	
 503:.\console.c   **** 	float  offset_fine;		/* Gyroscopes Offset Fine - real number			*/
 504:.\console.c   **** 
 505:.\console.c   **** 	uint8 astim_type=0;		/* astim loc									*/
 506:.\console.c   **** 	int16 speed_loc=0;		/* Local speed for motor testing				*/
 507:.\console.c   **** 	int16 deltam_loc;		/* Local Delta Master							*/
 508:.\console.c   **** 	
 509:.\console.c   **** 	uint8 path_n=0;			/* path number local							*/
 510:.\console.c   **** 	
 511:.\console.c   **** 	float jump_g_th=0;		/* jump G threshold local						*/
 512:.\console.c   **** 
 513:.\console.c   **** 	//uint16 TargetTicks=0;			/* ANULL Command Target Ticks for tick point print	*/
 514:.\console.c   **** 	//uint16 MeanCalculusTime=0;		/* ANULL Command Mean Calculus Time (anull cmd)		*/ 
 515:.\console.c   **** 	//float gyro_offset_fine_backup;	/* ANULL Command Gyro Offset Fine Backup			*/
 516:.\console.c   **** 
 517:.\console.c   **** 	uint8 dummy __attribute__ ((unused));
 518:.\console.c   **** 	uint8 idx=0;
 519:.\console.c   **** 
 520:.\console.c   **** 	
 521:.\console.c   **** 	/* Scanner */
 522:.\console.c   **** 	scanstat = scanner2(VERBOSE_OFF);
 523:.\console.c   **** 
 524:.\console.c   **** 	
 525:.\console.c   **** 	//=====================================================================//
 526:.\console.c   **** 	//=== COMMANDS PARSING 												===//
 527:.\console.c   **** 	//=====================================================================//
 528:.\console.c   **** 
 529:.\console.c   **** 	/* CMD 'BOOT' */	
 530:.\console.c   **** 	if (strcmp(actual_cmd.action, "boot") == 0)
 531:.\console.c   **** 	{
 532:.\console.c   **** 		if (strlen(actual_cmd.parameter) == 0)
 533:.\console.c   **** 		{
 534:.\console.c   **** 			printf("\r\nAre you sure to start Bootload [Y/N]?");		
 535:.\console.c   **** 			if (ButtonYNChoice(ECHO_OFF) == _YES)
 536:.\console.c   **** 			{
 537:.\console.c   **** 				printf("\r\n!!!Wait for Bootloading (power off to stop bootloading process)\r\n");
 538:.\console.c   **** 				CyDelay(100);
 539:.\console.c   **** 				/* This API will pass the program control to the Bootloader portion of the flash.
 540:.\console.c   **** 			   	It will also cause the Bootloader to wait indefinitely for the host to start communication *
 541:.\console.c   **** 				//Bootloadable_Load();
 542:.\console.c   **** 			}
 543:.\console.c   **** 			else
 544:.\console.c   **** 			{
 545:.\console.c   **** 				printf("\r\nBootloading aborted!");
 546:.\console.c   **** 			}
 547:.\console.c   **** 		}
 548:.\console.c   **** 		else
 549:.\console.c   **** 		{
 550:.\console.c   **** 			printf(STR_ERROR1);
 551:.\console.c   **** 		}
ARM GAS  C:\Users\Graziano\AppData\Local\Temp\cccvomne.s 			page 19


 552:.\console.c   **** 	goto exitpars;
 553:.\console.c   **** 	}
 554:.\console.c   **** 	/* END CMD BOOT */ 
 555:.\console.c   **** 
 556:.\console.c   **** #if DAS_ELABORATION		
 557:.\console.c   **** 	/* CMD $DAS (Digital Acquisition System START */
 558:.\console.c   **** 	if (strcmp(actual_cmd.action, "$das") == 0)
 559:.\console.c   **** 	{
 560:.\console.c   **** 		if (strlen(actual_cmd.parameter) == 0)
 561:.\console.c   **** 		{
 562:.\console.c   **** 			printf("DAS Vers.0.01 Gamma Starting!\r\n");
 563:.\console.c   **** 			printf("Reference Sawtooth Output!\r\n");
 564:.\console.c   **** 			CyDelay(300);	/* 300msec delay */
 565:.\console.c   **** 			
 566:.\console.c   **** 			das.control = DAS_SAWS_ENABLED;	
 567:.\console.c   **** 			
 568:.\console.c   **** 			isr_DAS_Start();				/* Start DAS ISR	*/
 569:.\console.c   **** 		}
 570:.\console.c   **** 		else
 571:.\console.c   **** 		{
 572:.\console.c   **** 			printf ("*err\n");
 573:.\console.c   **** 		}
 574:.\console.c   **** 	goto exitpars;
 575:.\console.c   **** 	}
 576:.\console.c   **** 	/* END CMD $DAS*/
 577:.\console.c   **** 
 578:.\console.c   **** 	
 579:.\console.c   **** 	/* CMD $DASC (Digital Acquisition System START */
 580:.\console.c   **** 	if (strcmp(actual_cmd.action, "$dasc") == 0)
 581:.\console.c   **** 	{
 582:.\console.c   **** 		if (strlen(actual_cmd.parameter) == 0)
 583:.\console.c   **** 		{
 584:.\console.c   **** 			printf("DAS Vers.0.01 Gamma Starting!\r\n");
 585:.\console.c   **** 			printf("Gobee Control System Output!\r\n");
 586:.\console.c   **** 			CyDelay(300);	/* 300msec delay */
 587:.\console.c   **** 			
 588:.\console.c   **** 			das.control = DAS_GOBEE_CONTROL_VARS_ENABLED;	
 589:.\console.c   **** 			
 590:.\console.c   **** 			isr_DAS_Start();				/* Start DAS ISR	*/
 591:.\console.c   **** 		}
 592:.\console.c   **** 		else
 593:.\console.c   **** 		{
 594:.\console.c   **** 			printf ("*err\n");
 595:.\console.c   **** 		}
 596:.\console.c   **** 	goto exitpars;
 597:.\console.c   **** 	}
 598:.\console.c   **** 	/* END CMD $DASC*/
 599:.\console.c   **** 	
 600:.\console.c   **** 	
 601:.\console.c   **** 	/* CMD $DASI (Digital Acquisition System START */
 602:.\console.c   **** 	if (strcmp(actual_cmd.action, "$dasi") == 0)
 603:.\console.c   **** 	{
 604:.\console.c   **** 		if (strlen(actual_cmd.parameter) == 0)
 605:.\console.c   **** 		{
 606:.\console.c   **** 			printf("DAS Vers.0.01 Gamma Starting!\r\n");
 607:.\console.c   **** 			printf("Gobee Inertial Vars Output!\r\n");
 608:.\console.c   **** 			CyDelay(300);	/* 300msec delay */
ARM GAS  C:\Users\Graziano\AppData\Local\Temp\cccvomne.s 			page 20


 609:.\console.c   **** 			
 610:.\console.c   **** 			das.control = DAS_GOBEE_INERTIAL_VARS_ENABLED;	
 611:.\console.c   **** 			
 612:.\console.c   **** 			isr_DAS_Start();				/* Start DAS ISR	*/
 613:.\console.c   **** 		}
 614:.\console.c   **** 		else
 615:.\console.c   **** 		{
 616:.\console.c   **** 			printf ("*err\n");
 617:.\console.c   **** 		}
 618:.\console.c   **** 	goto exitpars;
 619:.\console.c   **** 	}
 620:.\console.c   **** 	/* END CMD $DASI*/	
 621:.\console.c   **** 
 622:.\console.c   **** 	
 623:.\console.c   **** 	/* CMD $DASBUF1 (Digital Acquisition System START) BUFFERING GOBEE CONTROL VARS   */
 624:.\console.c   **** 	if ((strcmp(actual_cmd.action, "$dasbuf1") == 0) ||
 625:.\console.c   **** 		(strcmp(actual_cmd.action, "$b1") == 0)) 
 626:.\console.c   **** 	{
 627:.\console.c   **** 		if (strlen(actual_cmd.parameter) == 0)
 628:.\console.c   **** 		{
 629:.\console.c   **** 			printf("DAS Vers.0.02A Alpha Starting!\r\n");
 630:.\console.c   **** 			printf("Gobee Control Vars Buffering!\r\n");
 631:.\console.c   **** 			CyDelay(300);	/* 300msec delay */
 632:.\console.c   **** 			
 633:.\console.c   **** 			DASbufferingInit();			/* DAS Buffering Init  */
 634:.\console.c   **** 			DASbufferingStart();		/* DAS Buffering Start */
 635:.\console.c   **** 			
 636:.\console.c   **** 			das.control = DAS_BUFFERING_GOBEE_CVs_ENABLED;	
 637:.\console.c   **** 			
 638:.\console.c   **** 			isr_DAS_Start();				/* Start DAS ISR	*/			
 639:.\console.c   **** 		}
 640:.\console.c   **** 		else
 641:.\console.c   **** 		{
 642:.\console.c   **** 			printf ("*err\n");
 643:.\console.c   **** 		}
 644:.\console.c   **** 	goto exitpars;
 645:.\console.c   **** 	}
 646:.\console.c   **** 	/* END CMD $DASBUF1*/	
 647:.\console.c   **** 
 648:.\console.c   **** 	
 649:.\console.c   **** 	/* CMD $DASBUF2 (Digital Acquisition System START) BUFFERING GOBEE CONTROL VARS   */
 650:.\console.c   **** 	if ((strcmp(actual_cmd.action, "$dasbuf2") == 0) ||
 651:.\console.c   **** 		(strcmp(actual_cmd.action, "$b2") == 0)) 
 652:.\console.c   **** 	{
 653:.\console.c   **** 		if (strlen(actual_cmd.parameter) == 0)
 654:.\console.c   **** 		{
 655:.\console.c   **** 			printf("DAS Vers.0.02A Alpha Starting!\r\n");
 656:.\console.c   **** 			printf("Gobee Inertial Vars Buffering!\r\n");
 657:.\console.c   **** 			CyDelay(300);	/* 300msec delay */
 658:.\console.c   **** 			
 659:.\console.c   **** 			DASbufferingInit();			/* DAS Buffering Init  */
 660:.\console.c   **** 			DASbufferingStart();		/* DAS Buffering Start */
 661:.\console.c   **** 			
 662:.\console.c   **** 			das.control = DAS_BUFFERING_GOBEE_IVs_ENABLED;	
 663:.\console.c   **** 			
 664:.\console.c   **** 			isr_DAS_Start();				/* Start DAS ISR	*/			
 665:.\console.c   **** 		}
ARM GAS  C:\Users\Graziano\AppData\Local\Temp\cccvomne.s 			page 21


 666:.\console.c   **** 		else
 667:.\console.c   **** 		{
 668:.\console.c   **** 			printf ("*err\n");
 669:.\console.c   **** 		}
 670:.\console.c   **** 	goto exitpars;
 671:.\console.c   **** 	}
 672:.\console.c   **** 	/* END CMD $DASBUF2*/	
 673:.\console.c   **** 	
 674:.\console.c   **** 	
 675:.\console.c   **** 	/* CMD $DASDBUF1 (Digital Acquisition System START) DEBUFFERING GOBEE CONTROL VARS */
 676:.\console.c   **** 	if ((strcmp(actual_cmd.action, "$dasdbuf1") == 0) ||
 677:.\console.c   **** 		(strcmp(actual_cmd.action, "$d1") == 0)) 
 678:.\console.c   **** 	{
 679:.\console.c   **** 		if (strlen(actual_cmd.parameter) == 0)
 680:.\console.c   **** 		{
 681:.\console.c   **** 			printf("Gobee Control Vars DE-Buffering!\r\n");
 682:.\console.c   **** 			CyDelay(300);	/* 300msec delay */
 683:.\console.c   **** 			
 684:.\console.c   **** 			DASdebufferingInit();		/* DAS DeBuffering Init  			*/
 685:.\console.c   **** 			DASdebufferingStart();		/* DAS DeBuffering Buffer Start 	*/
 686:.\console.c   **** 			
 687:.\console.c   **** 			das.control = DAS_DEBUFFERING_GOBEE_CVs_ENABLED;	
 688:.\console.c   **** 			
 689:.\console.c   **** 			isr_DAS_Start();				/* Start DAS ISR	*/
 690:.\console.c   **** 		}
 691:.\console.c   **** 		else
 692:.\console.c   **** 		{
 693:.\console.c   **** 			printf ("*err\n");
 694:.\console.c   **** 		}
 695:.\console.c   **** 	goto exitpars;
 696:.\console.c   **** 	}
 697:.\console.c   **** 	/* END CMD $DASDBUF1 */
 698:.\console.c   **** 	
 699:.\console.c   **** 	
 700:.\console.c   **** 	/* CMD $DASDBUF2 (Digital Acquisition System START) DEBUFFERING GOBEE INERTIAl VARS */
 701:.\console.c   **** 	if ((strcmp(actual_cmd.action, "$dasdbuf2") == 0) ||
 702:.\console.c   **** 		(strcmp(actual_cmd.action, "$d2") == 0)) 
 703:.\console.c   **** 	{
 704:.\console.c   **** 		if (strlen(actual_cmd.parameter) == 0)
 705:.\console.c   **** 		{
 706:.\console.c   **** 			printf("Gobee Inertial Vars DE-Buffering!\r\n");
 707:.\console.c   **** 			CyDelay(300);	/* 300msec delay */			
 708:.\console.c   **** 			
 709:.\console.c   **** 			DASdebufferingInit();		/* DAS DeBuffering Init  			*/
 710:.\console.c   **** 			DASdebufferingStart();		/* DAS DeBuffering Buffer Start 	*/
 711:.\console.c   **** 			
 712:.\console.c   **** 			das.control = DAS_DEBUFFERING_GOBEE_IVs_ENABLED;	
 713:.\console.c   **** 			
 714:.\console.c   **** 			isr_DAS_Start();				/* Start DAS ISR	*/
 715:.\console.c   **** 		}
 716:.\console.c   **** 		else
 717:.\console.c   **** 		{
 718:.\console.c   **** 			printf ("*err\n");
 719:.\console.c   **** 		}
 720:.\console.c   **** 	goto exitpars;
 721:.\console.c   **** 	}
 722:.\console.c   **** 	/* END CMD $DASDBUF2 */
ARM GAS  C:\Users\Graziano\AppData\Local\Temp\cccvomne.s 			page 22


 723:.\console.c   **** 	
 724:.\console.c   **** 	
 725:.\console.c   **** 	/* CMD $DKO (Digital Acquisition System STOP */
 726:.\console.c   **** 	if ((strcmp(actual_cmd.action, "$dko") == 0) ||
 727:.\console.c   **** 		(strcmp(actual_cmd.action, "$$") == 0))
 728:.\console.c   **** 	{
 729:.\console.c   **** 		if (strlen(actual_cmd.parameter) == 0)
 730:.\console.c   **** 		{
 731:.\console.c   **** 			das.control = DAS_DISABLED;		
 732:.\console.c   **** 
 733:.\console.c   **** 			DASbufferingStop();			/* DAS Buffering Stop */
 734:.\console.c   **** 			
 735:.\console.c   **** 			isr_DAS_Stop();				/* Stop DAS ISR		  */
 736:.\console.c   **** 
 737:.\console.c   **** 			CyDelay(300);	/* 300msec delay */	
 738:.\console.c   **** 			printf("\r\n");
 739:.\console.c   **** 			printf("DAS Stopped!\r\n");
 740:.\console.c   **** 			
 741:.\console.c   **** 		}
 742:.\console.c   **** 		else
 743:.\console.c   **** 		{
 744:.\console.c   **** 			printf ("*err\n");
 745:.\console.c   **** 		}
 746:.\console.c   **** 	goto exitpars;
 747:.\console.c   **** 	}
 748:.\console.c   **** 	/* END CMD $DKO*/	
 749:.\console.c   **** #endif
 750:.\console.c   **** 
 751:.\console.c   **** 
 752:.\console.c   **** 	/* CMD TEST BUZZER */
 753:.\console.c   **** 	if (strcmp(actual_cmd.action, "tbuz") == 0)
 754:.\console.c   **** 	{
 755:.\console.c   **** 		if (strlen(actual_cmd.parameter) == 0)
 756:.\console.c   **** 		{
 757:.\console.c   **** 			printf("Buzzer testing!\r\n");
 758:.\console.c   ****      		for (idx = 0; idx < 3; idx++)
 759:.\console.c   ****      		{			
 760:.\console.c   **** 				Control_Reg_BUZ_Write(BUZZER_ON);	/* buzzer on			*/
 761:.\console.c   **** 				CyDelay(250);						/* 250msec sec delay	*/
 762:.\console.c   **** 				Control_Reg_BUZ_Write(BUZZER_OFF);	/* buzzer off			*/
 763:.\console.c   **** 				CyDelay(125);						/* 125msec sec delay	*/			
 764:.\console.c   **** 			}
 765:.\console.c   **** 		}
 766:.\console.c   **** 		else
 767:.\console.c   **** 		{
 768:.\console.c   **** 			printf ("*err\n");
 769:.\console.c   **** 		}
 770:.\console.c   **** 	goto exitpars;
 771:.\console.c   **** 	}
 772:.\console.c   **** 	/* END CMD TEST BUZZER */	
 773:.\console.c   **** 
 774:.\console.c   **** 	
 775:.\console.c   **** 	/* CMD CLEAR ENCODER */
 776:.\console.c   **** 	if (strcmp(actual_cmd.action, "clre") == 0)
 777:.\console.c   **** 	{
 778:.\console.c   **** 		if (strlen(actual_cmd.parameter) == 0)
 779:.\console.c   **** 		{
ARM GAS  C:\Users\Graziano\AppData\Local\Temp\cccvomne.s 			page 23


 780:.\console.c   **** 			printf ("*pan encoder cleared\n");
 781:.\console.c   **** 			QuadDec_PAN_SetCounter(0);
 782:.\console.c   **** 		}
 783:.\console.c   **** 		else
 784:.\console.c   **** 		{
 785:.\console.c   **** 			printf ("*err\n");
 786:.\console.c   **** 		}
 787:.\console.c   **** 	goto exitpars;
 788:.\console.c   **** 	}
 789:.\console.c   **** 	/* END CMD TEST BUZZER */	
 790:.\console.c   **** 	
 791:.\console.c   **** 	
 792:.\console.c   **** 	/* CMD TEST INVENSENSE ITG3701 */
 793:.\console.c   **** 	if ((strcmp(actual_cmd.action, "titg3701") == 0) ||
 794:.\console.c   **** 	   (strcmp(actual_cmd.action, "t3701") == 0))
 795:.\console.c   **** 	{
 796:.\console.c   **** 		if (strlen(actual_cmd.parameter) == 0)
 797:.\console.c   **** 		{
 798:.\console.c   **** 			printf("Invensense ITG-3701 testing!\r\n");
 799:.\console.c   **** 			ITG3701_test();
 800:.\console.c   **** 		}
 801:.\console.c   **** 		else
 802:.\console.c   **** 		{
 803:.\console.c   **** 			printf ("*err\n");
 804:.\console.c   **** 		}
 805:.\console.c   **** 	goto exitpars;
 806:.\console.c   **** 	}
 807:.\console.c   **** 	/* END CMD TEST INVENSENSE ITG3701 */	
 808:.\console.c   **** 
 809:.\console.c   **** 	
 810:.\console.c   **** 	/* CMD STOP MAPPING STATE MACHINE */
 811:.\console.c   **** 	if ((strcmp(actual_cmd.action, "stopmapsm") == 0) ||
 812:.\console.c   **** 	   (strcmp(actual_cmd.action, "stopsm") == 0))
 813:.\console.c   **** 	{
 814:.\console.c   **** 		if (strlen(actual_cmd.parameter) == 0)
 815:.\console.c   **** 		{
 816:.\console.c   **** 			printf("MAPPING STATE MACHINE Stopped!\r\n");
 817:.\console.c   **** 			
 818:.\console.c   **** 			/* Mapping State Machine Initialization */
 819:.\console.c   **** 			MappingStateMachineInit();
 820:.\console.c   **** 		}
 821:.\console.c   **** 		else
 822:.\console.c   **** 		{
 823:.\console.c   **** 			printf ("*err\n");
 824:.\console.c   **** 		}
 825:.\console.c   **** 	goto exitpars;
 826:.\console.c   **** 	}
 827:.\console.c   **** 	/* END CMD STOP MAPPING STATE MACHINE */
 828:.\console.c   **** 
 829:.\console.c   **** 	
 830:.\console.c   **** 	/* CMD DEENERGIZE */
 831:.\console.c   **** 	if ((strcmp(actual_cmd.action, "deenergize") == 0) ||
 832:.\console.c   **** 	   (strcmp(actual_cmd.action, "deen") == 0))
 833:.\console.c   **** 	{
 834:.\console.c   **** 		if (strlen(actual_cmd.parameter) == 0)
 835:.\console.c   **** 		{
 836:.\console.c   **** 			printf("PAN Motor DEENERGIZED & Driver Sleeped!\r\n");
ARM GAS  C:\Users\Graziano\AppData\Local\Temp\cccvomne.s 			page 24


 837:.\console.c   **** 			machine_state = GOBEE_DEENERGIZED;
 838:.\console.c   **** 			
 839:.\console.c   **** 			/* Mapping State Machine Initialization */
 840:.\console.c   **** 			MappingStateMachineInit();
 841:.\console.c   **** 			
 842:.\console.c   **** 			mototor_sleep(&pan_axis);
 843:.\console.c   **** 		}
 844:.\console.c   **** 		else
 845:.\console.c   **** 		{
 846:.\console.c   **** 			printf ("*err\n");
 847:.\console.c   **** 		}
 848:.\console.c   **** 	goto exitpars;
 849:.\console.c   **** 	}
 850:.\console.c   **** 	/* END CMD DEENERGIZE */	
 851:.\console.c   **** 
 852:.\console.c   **** 	
 853:.\console.c   **** 	/* CMD ENERGIZE */
 854:.\console.c   **** 	if ((strcmp(actual_cmd.action, "energize") == 0) ||
 855:.\console.c   **** 	   (strcmp(actual_cmd.action, "en") == 0))
 856:.\console.c   **** 	{
 857:.\console.c   **** 		if (strlen(actual_cmd.parameter) == 0)
 858:.\console.c   **** 		{
 859:.\console.c   **** 			printf("PAN Motor ENERGIZED!\r\n");
 860:.\console.c   **** 			QuadDec_PAN_Start();						/* Reset PAN Feedback Encoder Counter	*/
 861:.\console.c   **** 
 862:.\console.c   **** 			events.mapping_sm_status = SM_ON_ORIGIN;	/* Mapping State Machine Initialization */
 863:.\console.c   **** 			
 864:.\console.c   **** 			CyDelay(100);
 865:.\console.c   **** 			machine_state = GOBEE_ENERGIZED;			
 866:.\console.c   **** 			mototor_energize(&pan_axis);
 867:.\console.c   **** 		}
 868:.\console.c   **** 		else
 869:.\console.c   **** 		{
 870:.\console.c   **** 			printf ("*err\n");
 871:.\console.c   **** 		}
 872:.\console.c   **** 	goto exitpars;
 873:.\console.c   **** 	}
 874:.\console.c   **** 	/* END CMD ENERGIZE */	
 875:.\console.c   **** 	
 876:.\console.c   **** 	
 877:.\console.c   **** //	/* CMD TEST MOTOR CW  */
 878:.\console.c   **** //	if (strcmp(actual_cmd.action, "tmotcw") == 0)
 879:.\console.c   **** //	{
 880:.\console.c   **** //		if (((speed_loc = atoi(actual_cmd.parameter)) >= 0)
 881:.\console.c   **** //		&& (speed_loc = atoi(actual_cmd.parameter)) <= MOTOR_PWM_PERIOD_HALF)
 882:.\console.c   **** //		{
 883:.\console.c   **** //			//disabilita controllo ma non encoder
 884:.\console.c   **** //			PWM_MOTOR_PAN_WriteCompare((int16)speed_loc+MOTOR_PWM_PERIOD_HALF);
 885:.\console.c   **** //			
 886:.\console.c   **** //			printf("Motor running CW!");
 887:.\console.c   **** ////			printf("Motor running CCW: any key to exit test!");	
 888:.\console.c   **** ////			while (AnyButtonPressed() == NO_PRESSED)
 889:.\console.c   **** ////			{
 890:.\console.c   **** ////				//
 891:.\console.c   **** ////			}
 892:.\console.c   **** ////			PWM_MOTOR_PAN_WriteCompare(1500);
 893:.\console.c   **** //			
ARM GAS  C:\Users\Graziano\AppData\Local\Temp\cccvomne.s 			page 25


 894:.\console.c   **** //			//abilita controllo motore
 895:.\console.c   **** //			goto exitpars;
 896:.\console.c   **** //		}
 897:.\console.c   **** //		else
 898:.\console.c   **** //		{
 899:.\console.c   **** //			printf(STR_ERROR5);				/* ERROR5: Number not allowed */
 900:.\console.c   **** //		}
 901:.\console.c   **** //	goto exitpars;
 902:.\console.c   **** //	}
 903:.\console.c   **** //	/* END CMD TEST MOTOR CW */		
 904:.\console.c   **** 
 905:.\console.c   **** 	
 906:.\console.c   **** 	/* CMD TEST PAN MOTOR CCW & CW  */
 907:.\console.c   **** 	if (strcmp(actual_cmd.action, "tmotp") == 0)
 908:.\console.c   **** 	{
 909:.\console.c   **** 		if (((speed_loc = atoi(actual_cmd.parameter)) >= -MOTOR_PWM_PERIOD_HALF)
 910:.\console.c   **** 		&& (speed_loc = atoi(actual_cmd.parameter)) <= MOTOR_PWM_PERIOD_HALF)
 911:.\console.c   **** 		{
 912:.\console.c   **** 			pan_axis.mc.pwm_test_var = MOTOR_PWM_PERIOD_HALF + speed_loc;		/* set pan pwm test value 			*/
 913:.\console.c   ****  			tilt_axis.mc.pwm_test_var = MOTOR_PWM_PERIOD_HALF;		            /* set tilt pwm to 50% 		    	*
 914:.\console.c   **** 			machine_state_backup = machine_state;								/* push machine state 				*/
 915:.\console.c   **** 			machine_state = GOBEE_TEST;											/* signaling to control TEST MODE 	*/
 916:.\console.c   **** 			mototor_energize(&pan_axis);										/* energize the pan axis			*/
 917:.\console.c   **** 			
 918:.\console.c   **** 			printf("PAN Motor Energized & Running: any key to exit test!\r\n");	
 919:.\console.c   **** 			while (AnyButtonPressed() == NO_PRESSED)
 920:.\console.c   **** 			{																	/* SHOWs Encoder RT values			*/
 921:.\console.c   **** 				printf("Fbk Encoder Pos=%+ld [step] ", (int32)pan_feedback_encoder.position);
 922:.\console.c   **** 				printf(" Vel=%+1.2f [step/s]", (float)pan_feedback_encoder.velocity);
 923:.\console.c   **** 				printf(" Vel=%+1.2f [rpm]", (float)(pan_feedback_encoder.velocity*60)/(float)pan_feedback_encod
 924:.\console.c   **** 				printf(" F=%+1.2f [Hz]", (float)(pan_feedback_encoder.velocity/((float)pan_feedback_encoder.par
 925:.\console.c   **** 				if ((Status_Reg_MOTORS_Read() & SR_PAN_MOT_FL) == 0)
 926:.\console.c   **** 				{
 927:.\console.c   **** 					printf(" (IPK!)");	
 928:.\console.c   **** 				}
 929:.\console.c   **** 				printf("\r\n");	
 930:.\console.c   **** 				CyDelay(50);
 931:.\console.c   **** 			}
 932:.\console.c   **** 			
 933:.\console.c   **** 			printf("PAN Motor DEENERGIZED & Driver Sleeped!\r\n");
 934:.\console.c   **** 			mototor_sleep(&pan_axis);											/* deenergize the pan axis			*/
 935:.\console.c   **** 			
 936:.\console.c   **** 			pan_axis.mc.pwm_test_var = MOTOR_PWM_PERIOD_HALF;					/* reset pwm test value 			*/
 937:.\console.c   **** 			machine_state = machine_state_backup;								/* pop machine state 				*/
 938:.\console.c   **** 			
 939:.\console.c   **** 			goto exitpars;
 940:.\console.c   **** 		}
 941:.\console.c   **** 		else
 942:.\console.c   **** 		{
 943:.\console.c   **** 			printf(STR_ERROR5);				/* ERROR5: Number not allowed */
 944:.\console.c   **** 		}
 945:.\console.c   **** 	goto exitpars;
 946:.\console.c   **** 	}
 947:.\console.c   **** 	/* END CMD TEST PAN MOTOR CCW & CW */	
 948:.\console.c   **** 
 949:.\console.c   **** 	/* CMD TEST TILT MOTOR CCW & CW  */
 950:.\console.c   **** 	if (strcmp(actual_cmd.action, "tmott") == 0)
ARM GAS  C:\Users\Graziano\AppData\Local\Temp\cccvomne.s 			page 26


 951:.\console.c   **** 	{
 952:.\console.c   **** 		if (((speed_loc = atoi(actual_cmd.parameter)) >= -MOTOR_PWM_PERIOD_HALF)
 953:.\console.c   **** 		&& (speed_loc = atoi(actual_cmd.parameter)) <= MOTOR_PWM_PERIOD_HALF)
 954:.\console.c   **** 		{
 955:.\console.c   **** 			tilt_axis.mc.pwm_test_var = MOTOR_PWM_PERIOD_HALF + speed_loc;		/* set tilt pwm test value 			*/
 956:.\console.c   ****  			pan_axis.mc.pwm_test_var = MOTOR_PWM_PERIOD_HALF;		            /* set pan pwm to 50% 		    	*/ 
 957:.\console.c   **** 			machine_state_backup = machine_state;								/* push machine state 				*/
 958:.\console.c   **** 			machine_state = GOBEE_TEST;											/* signaling to control TEST MODE 	*/
 959:.\console.c   **** 			mototor_energize(&tilt_axis);										/* energize the tilt axis			*/
 960:.\console.c   **** 			
 961:.\console.c   **** 			printf("TILT Motor Energized & Running: any key to exit test!\r\n");	
 962:.\console.c   **** 			while (AnyButtonPressed() == NO_PRESSED)
 963:.\console.c   **** 			{																	/* SHOWs Encoder RT values			*/
 964:.\console.c   **** 				printf("Fbk Encoder Pos=%+ld [step] ", (int32)tilt_feedback_encoder.position);
 965:.\console.c   **** 				printf(" Vel=%+1.2f [step/s]", (float)tilt_feedback_encoder.velocity);
 966:.\console.c   **** 				printf(" Vel=%+1.2f [rpm]", (float)(tilt_feedback_encoder.velocity*60)/(float)pan_feedback_enco
 967:.\console.c   **** 				printf(" F=%+1.2f [Hz]", (float)(tilt_feedback_encoder.velocity/((float)pan_feedback_encoder.pa
 968:.\console.c   **** 				if ((Status_Reg_MOTORS_Read() & SR_TILT_MOT_FL) == 0)
 969:.\console.c   **** 				{
 970:.\console.c   **** 					printf(" (IPK!)");	
 971:.\console.c   **** 				}
 972:.\console.c   **** 				printf("\r\n");	
 973:.\console.c   **** 				CyDelay(50);
 974:.\console.c   **** 			}
 975:.\console.c   **** 			
 976:.\console.c   **** 			printf("TILT Motor DEENERGIZED & Driver Sleeped!\r\n");
 977:.\console.c   **** 			mototor_sleep(&tilt_axis);											/* deenergize the pan axis			*/
 978:.\console.c   **** 			
 979:.\console.c   **** 			tilt_axis.mc.pwm_test_var = MOTOR_PWM_PERIOD_HALF;					/* reset pwm test value 			*/
 980:.\console.c   **** 			machine_state = machine_state_backup;								/* pop machine state 				*/
 981:.\console.c   **** 			
 982:.\console.c   **** 			goto exitpars;
 983:.\console.c   **** 		}
 984:.\console.c   **** 		else
 985:.\console.c   **** 		{
 986:.\console.c   **** 			printf(STR_ERROR5);				/* ERROR5: Number not allowed */
 987:.\console.c   **** 		}
 988:.\console.c   **** 	goto exitpars;
 989:.\console.c   **** 	}
 990:.\console.c   **** 	/* END CMD TEST PAN MOTOR CCW & CW */	    
 991:.\console.c   **** 
 992:.\console.c   **** 	
 993:.\console.c   **** 	/* CMD DELTAMASTER TILT */
 994:.\console.c   **** 	if ((strcmp(actual_cmd.action, "dmastert") == 0) ||
 995:.\console.c   **** 		(strcmp(actual_cmd.action, "dmt") == 0))
 996:.\console.c   **** 	{
 997:.\console.c   **** 		if (((deltam_loc = atoi(actual_cmd.parameter)) >= -500)
 998:.\console.c   **** 		&& ((deltam_loc = atoi(actual_cmd.parameter)) <= 500))	
 999:.\console.c   **** 		{
1000:.\console.c   **** 			printf("Warning! Delting Tilt Master!\r\n");
1001:.\console.c   **** 			tilt_axis.mc.master_enc_position = tilt_axis.mc.master_enc_position + deltam_loc;
1002:.\console.c   **** 		}
1003:.\console.c   **** 		else
1004:.\console.c   **** 		{
1005:.\console.c   **** 			printf ("*err\n");
1006:.\console.c   **** 		}
1007:.\console.c   **** 	goto exitpars;
ARM GAS  C:\Users\Graziano\AppData\Local\Temp\cccvomne.s 			page 27


1008:.\console.c   **** 	}
1009:.\console.c   **** 	/* END CMD DELTAMASTER TILT */
1010:.\console.c   **** 	
1011:.\console.c   **** 	
1012:.\console.c   **** 	/* CMD ZERO GYRO */
1013:.\console.c   **** 	if (strcmp(actual_cmd.action, "zg") == 0)
1014:.\console.c   **** 	{
1015:.\console.c   **** 		if (strlen(actual_cmd.parameter) == 0)
1016:.\console.c   **** 		{
1017:.\console.c   **** 			printf("Warning! Reset Analog Gyro Integral (gyro estimated angle)!\r\n");
1018:.\console.c   **** 			angle = 0.0;
1019:.\console.c   **** 			agyro.angle = 0;
1020:.\console.c   **** 		}
1021:.\console.c   **** 		else
1022:.\console.c   **** 		{
1023:.\console.c   **** 			printf ("*err\n");
1024:.\console.c   **** 		}
1025:.\console.c   **** 	goto exitpars;
1026:.\console.c   **** 	}
1027:.\console.c   **** 	/* END CMD ZERO GYRO*/
1028:.\console.c   **** 	
1029:.\console.c   **** 	
1030:.\console.c   **** 	/* CMD ANALOG GYRO MEAN START  */
1031:.\console.c   **** 	if (strcmp(actual_cmd.action, "agmstart") == 0)
1032:.\console.c   **** 	{
1033:.\console.c   **** 		if (strlen(actual_cmd.parameter) == 0)
1034:.\console.c   **** 		{
1035:.\console.c   **** 			printf("Warning! Analog Gyro Mean Value Calculus RESETTED and STARTED!\r\n");
1036:.\console.c   **** 			agyro_messg = AGYRO_MEAN_START;
1037:.\console.c   **** 		}
1038:.\console.c   **** 		else
1039:.\console.c   **** 		{
1040:.\console.c   **** 			printf ("*err\n");
1041:.\console.c   **** 		}
1042:.\console.c   **** 	goto exitpars;
1043:.\console.c   **** 	}
1044:.\console.c   **** 	/* END CMD ANALOG GYRO MEAN START  */		
1045:.\console.c   **** 
1046:.\console.c   **** 
1047:.\console.c   **** 	/* CMD ANALOG GYRO MEAN STOP  */
1048:.\console.c   **** 	if (strcmp(actual_cmd.action, "agmstop") == 0)
1049:.\console.c   **** 	{
1050:.\console.c   **** 		if (strlen(actual_cmd.parameter) == 0)
1051:.\console.c   **** 		{
1052:.\console.c   **** 			printf("Warning! Analog Gyro Mean Value Calculus STOPPED!\r\n");
1053:.\console.c   **** 			agyro_messg = AGYRO_MEAN_STOP;
1054:.\console.c   **** 		}
1055:.\console.c   **** 		else
1056:.\console.c   **** 		{
1057:.\console.c   **** 			printf ("*err\n");
1058:.\console.c   **** 		}
1059:.\console.c   **** 	goto exitpars;
1060:.\console.c   **** 	}
1061:.\console.c   **** 	/* END CMD ANALOG GYRO MEAN STOP  */	
1062:.\console.c   **** 	
1063:.\console.c   **** 	
1064:.\console.c   **** 	/* CMD DIGITAL GYRO MEAN START  */
ARM GAS  C:\Users\Graziano\AppData\Local\Temp\cccvomne.s 			page 28


1065:.\console.c   **** 	if (strcmp(actual_cmd.action, "dgmstart") == 0)
1066:.\console.c   **** 	{
1067:.\console.c   **** 		if (strlen(actual_cmd.parameter) == 0)
1068:.\console.c   **** 		{
1069:.\console.c   **** 			printf("Warning! Digital Gyro Mean Value Calculus RESETTED and STARTED!\r\n");
1070:.\console.c   **** 			dgyro_messg = DGYRO_MEAN_START;
1071:.\console.c   **** 		}
1072:.\console.c   **** 		else
1073:.\console.c   **** 		{
1074:.\console.c   **** 			printf ("*err\n");
1075:.\console.c   **** 		}
1076:.\console.c   **** 	goto exitpars;
1077:.\console.c   **** 	}
1078:.\console.c   **** 	/* END CMD DIGITAL GYRO MEAN START  */		
1079:.\console.c   **** 
1080:.\console.c   **** 
1081:.\console.c   **** 	/* CMD DIGITAL GYRO MEAN STOP  */
1082:.\console.c   **** 	if (strcmp(actual_cmd.action, "dgmstop") == 0)
1083:.\console.c   **** 	{
1084:.\console.c   **** 		if (strlen(actual_cmd.parameter) == 0)
1085:.\console.c   **** 		{
1086:.\console.c   **** 			printf("Warning! Digital Gyro Mean Value Calculus STOPPED!\r\n");
1087:.\console.c   **** 			dgyro_messg = DGYRO_MEAN_STOP;
1088:.\console.c   **** 		}
1089:.\console.c   **** 		else
1090:.\console.c   **** 		{
1091:.\console.c   **** 			printf ("*err\n");
1092:.\console.c   **** 		}
1093:.\console.c   **** 	goto exitpars;
1094:.\console.c   **** 	}
1095:.\console.c   **** 	/* END CMD DIGITAL GYRO MEAN STOP  */	
1096:.\console.c   **** 
1097:.\console.c   **** 	
1098:.\console.c   **** //	/* CMD ANALOG GYRO AUTOMATIC OFFSET NULL  */
1099:.\console.c   **** //	if (strcmp(actual_cmd.action, "anull") == 0)
1100:.\console.c   **** //	{
1101:.\console.c   **** //		if (gobee_param.RTNBC_Function_ENABLE == RTNBC_FUNCTION_OFF)
1102:.\console.c   **** //		{
1103:.\console.c   **** //			/* blink LED_OK green led with CALIBRATING (FAST) repetition rate */
1104:.\console.c   **** //			Counter_LED_WritePeriod(LED_OK_CALIBRATING);
1105:.\console.c   **** //		
1106:.\console.c   **** //			printf("=== Automatic ANALOG Gyro Offset Null Procedure STARTED! ===\r\n");
1107:.\console.c   **** //			
1108:.\console.c   **** //			//ANULL: 1 Zero Gyro Command
1109:.\console.c   **** //			printf("Warning! Reset Analog Gyro Integral (analog gyro estimated angle)!\r\n");
1110:.\console.c   **** //			agyro.angle = 0;	
1111:.\console.c   **** //			
1112:.\console.c   **** //			//ANULL: 2 Reset previous Offset Fine
1113:.\console.c   **** //			printf("Warning! Previuous Offset Fine Cleared!\r\n");
1114:.\console.c   **** //			gyro_offset_fine_backup = gobee_param.gyro_offset_fine.fnum;
1115:.\console.c   **** //			gobee_param.gyro_offset_fine.fnum = 0;
1116:.\console.c   **** //			
1117:.\console.c   **** //			//ANULL: 3 "Secure" Start Mean Calculus
1118:.\console.c   **** //			printf("Warning! Analog Gyro Mean Value Calculus RESETTED and STARTED!\r\n");
1119:.\console.c   **** //			agyro_messg = AGYRO_MEAN_STOP;	
1120:.\console.c   **** //			CyDelay(100);	/* 100 msec delay */
1121:.\console.c   **** //			agyro_messg = AGYRO_MEAN_START;
ARM GAS  C:\Users\Graziano\AppData\Local\Temp\cccvomne.s 			page 29


1122:.\console.c   **** //			
1123:.\console.c   **** //			//ANULL: 4 Wait Ticks Delay
1124:.\console.c   **** //			GyroNullPauseTicks = 0;	/* Reset Gyro Null pause Ticks 				*/
1125:.\console.c   **** //			TargetTicks = 100;		/* Reset Target Ticks (tick point print)	*/
1126:.\console.c   **** //			if ((MeanCalculusTime = atoi(actual_cmd.parameter)) == 0)
1127:.\console.c   **** //			{
1128:.\console.c   **** //				MeanCalculusTime = 1000; /* 10 sec (1000 centiseconds) default Hp. isr_Ticks=100Hz */
1129:.\console.c   **** //				printf("[10 sec mean time (default)]\r\n");
1130:.\console.c   **** //			}
1131:.\console.c   **** //			else
1132:.\console.c   **** //			{
1133:.\console.c   **** //				printf("[%4u sec mean time]\r\n", (uint16)MeanCalculusTime);
1134:.\console.c   **** //				MeanCalculusTime = MeanCalculusTime * 100; /* censtiseconds  Hp. isr_Ticks=100Hz */
1135:.\console.c   **** //			}
1136:.\console.c   **** //			
1137:.\console.c   **** //			isr_Ticks_Start();				// Start Wait Ticks  isr (100Hz)
1138:.\console.c   **** //			
1139:.\console.c   **** //			while (AnyButtonPressed() == NO_PRESSED)
1140:.\console.c   **** //			{
1141:.\console.c   **** //				if (GyroNullPauseTicks >= MeanCalculusTime)
1142:.\console.c   **** //				{
1143:.\console.c   **** //					isr_Ticks_Stop();				// Stop Wait Ticks  isr (100Hz)
1144:.\console.c   **** //
1145:.\console.c   **** //					//ANULL: 5 Stop Mean Calculus
1146:.\console.c   **** //					printf("\r\nWarning! Analog Gyro Mean Value Calculus STOPPED!\r\n");
1147:.\console.c   **** //					agyro_messg = AGYRO_MEAN_STOP;	
1148:.\console.c   **** //					
1149:.\console.c   **** //					//ANULL: 6 SET AGFINE Ccmmand
1150:.\console.c   **** //					gobee_param.gyro_offset_fine.fnum = -agyro.mean_rate;
1151:.\console.c   **** //					
1152:.\console.c   **** //					/* Writes Ki on EEPROM */
1153:.\console.c   **** //					dummy = WriteAllEEparams();
1154:.\console.c   **** //					printf(STR_REM_STOF, (float)-agyro.mean_rate);   /* REM: Analog Gyro Offset Fine...*/		
1155:.\console.c   **** //					printf("\r\n* Final Temp=%1.1f[C]\r\n", (float) ((float)(((AdcValue[EXT_GYRO_TEMP] + 2048) *
1156:.\console.c   **** //
1157:.\console.c   **** //					//ANULL: 7 Zero Gyro Command
1158:.\console.c   **** //					printf("\r\nWarning! Reset Analog Gyro Integral (analog gyro estimated angle)!\r\n");
1159:.\console.c   **** //					agyro.angle = 0;
1160:.\console.c   **** //					
1161:.\console.c   **** //					/* blink LED_OK green led with OPERATIVE (SLOW) repetition rate */
1162:.\console.c   **** //					Counter_LED_WritePeriod(LED_OK_OPERATIVE);
1163:.\console.c   **** //					
1164:.\console.c   **** //					goto exitpars;					
1165:.\console.c   **** //				}
1166:.\console.c   **** //				
1167:.\console.c   **** //				if (GyroNullPauseTicks >= TargetTicks)	// seconds ticks print (Hp. isr_Ticks = 100Hz)	
1168:.\console.c   **** //				{
1169:.\console.c   **** //					TargetTicks = TargetTicks + 100;	/* Increment Target Ticks (tick point print) (Hp. isr_Ticks
1170:.\console.c   **** //					printf(".");
1171:.\console.c   **** //				}
1172:.\console.c   **** //			}
1173:.\console.c   **** //			isr_Ticks_Stop();				// Stop Wait Ticks  isr (100Hz)
1174:.\console.c   **** //			printf("\r\nWarning! Automatic Analog Gyro Offset Null Procedure USER STOPPED!\r\n");
1175:.\console.c   **** //			printf("(agfine NOT updated!)\r\n");
1176:.\console.c   **** //			gobee_param.gyro_offset_fine.fnum = gyro_offset_fine_backup;
1177:.\console.c   **** //				
1178:.\console.c   **** //			/* blink LED_OK green led with OPERATIVE (SLOW) repetition rate */
ARM GAS  C:\Users\Graziano\AppData\Local\Temp\cccvomne.s 			page 30


1179:.\console.c   **** //			Counter_LED_WritePeriod(LED_OK_OPERATIVE);
1180:.\console.c   **** //		}
1181:.\console.c   **** //		else
1182:.\console.c   **** //		{
1183:.\console.c   **** //			printf("=== Procedure NOT STARTED! Refused by RTNBC ===\r\n");
1184:.\console.c   **** //		}
1185:.\console.c   **** //		goto exitpars;
1186:.\console.c   **** //	}
1187:.\console.c   **** //	/* END CMD ANALOG GYRO AUTOMATIC OFFSET NULL  */		
1188:.\console.c   **** 	
1189:.\console.c   **** 	
1190:.\console.c   **** 	/* NOP CMD */	
1191:.\console.c   **** 	if (strlen(actual_cmd.action) == 0)
1192:.\console.c   **** 	{
1193:.\console.c   **** 	goto exitpars;
1194:.\console.c   **** 	}
1195:.\console.c   **** 	/* END NOP CMD */
1196:.\console.c   **** 
1197:.\console.c   **** 	
1198:.\console.c   **** 	/* CMD 'VERSION' (alias V) */	
1199:.\console.c   **** 	if (((strcmp(actual_cmd.action, "v") == 0)
1200:.\console.c   **** 		|| (strcmp(actual_cmd.action, "version") == 0)))
1201:.\console.c   **** 	{
1202:.\console.c   **** 		if (strlen(actual_cmd.parameter) == 0)
1203:.\console.c   **** 		{
1204:.\console.c   **** 			printf(STR_FW_VERS);
1205:.\console.c   **** 			printf(STR_COPY);
1206:.\console.c   **** 			printf(STR_AUTHOR1);
1207:.\console.c   **** 			printf(STR_AUTHOR2);
1208:.\console.c   **** 			printf(STR_AUTHOR3);
1209:.\console.c   **** 			printf(STR_AUTHOR4);			
1210:.\console.c   **** 		}
1211:.\console.c   **** 		else
1212:.\console.c   **** 		{
1213:.\console.c   **** 			printf(STR_ERROR1);
1214:.\console.c   **** 		}
1215:.\console.c   **** 	goto exitpars;
1216:.\console.c   **** 	}
1217:.\console.c   **** 	/* END CMD VERSION */ 
1218:.\console.c   **** 
1219:.\console.c   **** 
1220:.\console.c   **** 	/* CMD 'PROMPT' */	
1221:.\console.c   **** 	if (strcmp(actual_cmd.action, "prompt") == 0)
1222:.\console.c   **** 	{
1223:.\console.c   **** 		if (strlen(actual_cmd.parameter) == 0)
1224:.\console.c   **** 		{
1225:.\console.c   **** 			printf(STR_PROMPT0);
1226:.\console.c   **** 			printf(STR_PROMPT1);
1227:.\console.c   **** 			printf(STR_PROMPT2);
1228:.\console.c   **** 			printf(STR_PROMPT3);
1229:.\console.c   **** 			printf(STR_PROMPT4);			
1230:.\console.c   **** 		}
1231:.\console.c   **** 		else
1232:.\console.c   **** 		{
1233:.\console.c   **** 			printf(STR_ERROR1);
1234:.\console.c   **** 		}
1235:.\console.c   **** 	goto exitpars;
ARM GAS  C:\Users\Graziano\AppData\Local\Temp\cccvomne.s 			page 31


1236:.\console.c   **** 	}
1237:.\console.c   **** 	/* END CMD PROMPT */ 
1238:.\console.c   **** 
1239:.\console.c   **** 		
1240:.\console.c   **** 	
1241:.\console.c   **** 		/* CMD 'HELP' (alias ?) */
1242:.\console.c   **** 		if ((strcmp(actual_cmd.action, "?") == 0)
1243:.\console.c   **** 			||(strcmp(actual_cmd.action, "h") == 0)
1244:.\console.c   **** 			||(strcmp(actual_cmd.action, "help") == 0))
1245:.\console.c   **** 		{
1246:.\console.c   **** 			if (strlen(actual_cmd.parameter) == 0)
1247:.\console.c   **** 			{
1248:.\console.c   **** 				// HELP "standard" command list
1249:.\console.c   **** 				printf(STR_HELP_PRES1);
1250:.\console.c   **** 				printf(STR_HELP_PRES4);
1251:.\console.c   **** 				printf(STR_HELP_SHOW1);
1252:.\console.c   **** 				printf(STR_HELP_SETT1);
1253:.\console.c   **** 				printf(STR_HELP_PROM1);
1254:.\console.c   **** 				printf(STR_HELP_BOOT1);				
1255:.\console.c   **** 				printf(STR_HELP_VERS1);				
1256:.\console.c   **** 				printf(STR_HELP_HELP1);						
1257:.\console.c   **** 				printf(STR_HELP_PRES2);
1258:.\console.c   **** 				printf("\r\n");		
1259:.\console.c   **** 				
1260:.\console.c   **** 				/* Motor Control Command List */
1261:.\console.c   **** 				printf(STR_HELP_PRES5);
1262:.\console.c   **** 				printf(STR_HELP_PRES6);
1263:.\console.c   **** 				printf(STR_HELP_ENERG);
1264:.\console.c   **** 				printf(STR_HELP_DEENE);				
1265:.\console.c   **** 				printf("\r\n");	
1266:.\console.c   **** 
1267:.\console.c   **** 				/* Mover Command List		 */
1268:.\console.c   **** 				printf(STR_HELP_MOV01);
1269:.\console.c   **** 				printf(STR_HELP_MOV02);
1270:.\console.c   **** 				printf(STR_HELP_MOV03);
1271:.\console.c   **** 				printf(STR_HELP_MOV04);
1272:.\console.c   **** 				printf(STR_HELP_MOV05);				
1273:.\console.c   **** 				printf("\r\n");					
1274:.\console.c   **** 				
1275:.\console.c   **** 				/* System Test Command List  */
1276:.\console.c   **** 				printf(STR_HELP_PRES7);
1277:.\console.c   **** 				printf(STR_HELP_PRES8);	
1278:.\console.c   **** 				printf(STR_HELP_TBUZZ);	
1279:.\console.c   **** 				printf(STR_HELP_TMOTP);	
1280:.\console.c   **** 				printf(STR_HELP_TMOTT);	                
1281:.\console.c   **** 				printf(STR_HELP_TINV);
1282:.\console.c   **** 				printf(STR_HELP_STSM);				
1283:.\console.c   **** 				printf("\r\n");	
1284:.\console.c   **** 				
1285:.\console.c   **** 				/* Mean Values & Statistics Measurments Command List */
1286:.\console.c   **** 				printf(STR_HELP_PRES9);
1287:.\console.c   **** 				printf(STR_HELP_PRESA);
1288:.\console.c   **** 				printf(STR_HELP_AGSTA);		
1289:.\console.c   **** 				printf(STR_HELP_AGSTO);
1290:.\console.c   **** 				printf(STR_HELP_DGSTA);		
1291:.\console.c   **** 				printf(STR_HELP_DGSTO);	
1292:.\console.c   **** 				printf(STR_HELP_DGZER);
ARM GAS  C:\Users\Graziano\AppData\Local\Temp\cccvomne.s 			page 32


1293:.\console.c   **** 				printf(STR_HELP_ANULL);
1294:.\console.c   **** 				printf("\r\n");				
1295:.\console.c   **** 				
1296:.\console.c   **** 				/* DAS Command List */
1297:.\console.c   **** 				printf(STR_HELP_DAS01);
1298:.\console.c   **** 				printf(STR_HELP_DAS02);
1299:.\console.c   **** 				printf(STR_HELP_DAS03);				
1300:.\console.c   **** 				printf(STR_HELP_DAS04);
1301:.\console.c   **** 				printf(STR_HELP_DAS05);
1302:.\console.c   **** 				printf(STR_HELP_DAS06);
1303:.\console.c   **** 				printf(STR_HELP_DAS07);
1304:.\console.c   **** 				printf(STR_HELP_DAS08);
1305:.\console.c   **** 				printf(STR_HELP_DAS09);
1306:.\console.c   **** 				printf(STR_HELP_DAS0A);				
1307:.\console.c   **** 			}
1308:.\console.c   **** 			else
1309:.\console.c   **** 			{
1310:.\console.c   **** 				// SET command details
1311:.\console.c   **** 				if (strcmp(actual_cmd.parameter, "set") == 0)
1312:.\console.c   **** 				{
1313:.\console.c   **** 					printf(STR_HELP_SETT1);
1314:.\console.c   **** 					printf(STR_HELP_SYNTX);			
1315:.\console.c   **** 					printf(STR_HELP_SETT2);
1316:.\console.c   **** 					printf(STR_HELP_SETT3);
1317:.\console.c   **** 					printf(STR_HELP_SETT4);
1318:.\console.c   **** 					printf(STR_HELP_SETT5);
1319:.\console.c   **** 					printf(STR_HELP_SETT6);
1320:.\console.c   **** 					//printf(STR_HELP_SETT61);					
1321:.\console.c   **** 					printf(STR_HELP_SETT7);
1322:.\console.c   **** 					printf(STR_HELP_SETT8);	
1323:.\console.c   **** 					printf(STR_HELP_SETT9);
1324:.\console.c   **** 					printf(STR_HELP_SETTA);
1325:.\console.c   **** 					printf(STR_HELP_SETTB);
1326:.\console.c   **** 					printf(STR_HELP_SETTC);					
1327:.\console.c   **** 					printf(STR_HELP_SETTD);
1328:.\console.c   **** 					printf(STR_HELP_SETTE);
1329:.\console.c   **** 					printf(STR_HELP_SETTF);
1330:.\console.c   **** 					printf(STR_HELP_SETTG);
1331:.\console.c   **** 					printf(STR_HELP_SETTH);
1332:.\console.c   **** 					printf(STR_HELP_SETTI);
1333:.\console.c   **** 					printf(STR_HELP_SETTJ);					
1334:.\console.c   **** 					
1335:.\console.c   **** 					printf("\r\n");		
1336:.\console.c   **** 					printf(STR_HELP_polar); 
1337:.\console.c   **** 					printf(STR_HELP_kpval);
1338:.\console.c   **** 					printf(STR_HELP_kdval);
1339:.\console.c   **** 					printf(STR_HELP_kival);					
1340:.\console.c   **** 					printf(STR_HELP_ksivl);
1341:.\console.c   **** 					printf(STR_HELP_dbval);					
1342:.\console.c   **** 					printf(STR_HELP_kofvl);	
1343:.\console.c   **** 					printf(STR_HELP_again);
1344:.\console.c   **** 					printf(STR_HELP_color);
1345:.\console.c   **** 					printf(STR_HELP_colo1);					
1346:.\console.c   **** 					printf(STR_HELP_fbkvl);
1347:.\console.c   **** 					printf(STR_HELP_avalu);
1348:.\console.c   **** 					printf(STR_HELP_sensy);
1349:.\console.c   **** 					printf(STR_HELP_agoff);					
ARM GAS  C:\Users\Graziano\AppData\Local\Temp\cccvomne.s 			page 33


1350:.\console.c   **** 					printf(STR_HELP_offst);					
1351:.\console.c   **** 					printf(STR_HELP_onoff);
1352:.\console.c   **** 					printf(STR_HELP_dir);					
1353:.\console.c   **** 					printf(STR_HELP_dir1);
1354:.\console.c   **** 					printf(STR_HELP_dir2);	
1355:.\console.c   **** 					
1356:.\console.c   **** 					goto exitpars;
1357:.\console.c   **** 				}
1358:.\console.c   **** 	
1359:.\console.c   **** 	
1360:.\console.c   **** 				// HELP SHOW command details
1361:.\console.c   **** 				if (strcmp(actual_cmd.parameter, "show") == 0)
1362:.\console.c   **** 				{
1363:.\console.c   **** 					printf(STR_HELP_SHOW1);
1364:.\console.c   **** 					printf(STR_HELP_SYNTX);
1365:.\console.c   **** 					printf(STR_HELP_SHOW2);
1366:.\console.c   **** 					printf(STR_HELP_SHOW3);
1367:.\console.c   **** 					printf(STR_HELP_SHOW4);
1368:.\console.c   **** 					printf(STR_HELP_SHOW5);						
1369:.\console.c   **** 					printf(STR_HELP_SHOW6);
1370:.\console.c   **** 					printf(STR_HELP_SHOW7);
1371:.\console.c   **** 					printf(STR_HELP_SHOW8);
1372:.\console.c   **** 					printf(STR_HELP_SHOW9);
1373:.\console.c   **** 					printf(STR_HELP_SHOWA);
1374:.\console.c   **** 					printf(STR_HELP_SHOWB);
1375:.\console.c   **** 					printf(STR_HELP_SHOWC);
1376:.\console.c   **** 					printf(STR_HELP_SHOWD);	
1377:.\console.c   **** 					printf(STR_HELP_SHOWE);
1378:.\console.c   **** 					printf(STR_HELP_SHOWF);					
1379:.\console.c   **** 					
1380:.\console.c   **** 					printf(STR_HELP_SHOWZ);
1381:.\console.c   **** 					goto exitpars;
1382:.\console.c   **** 				}
1383:.\console.c   **** 				
1384:.\console.c   **** 						
1385:.\console.c   **** 				// HELP TESTDAC command details
1386:.\console.c   **** 				if (strcmp(actual_cmd.parameter, "testdac") == 0)
1387:.\console.c   **** 				{
1388:.\console.c   **** 					printf(STR_HELP_TDAC1);
1389:.\console.c   **** 					printf(STR_HELP_SYNTX);
1390:.\console.c   **** 					printf(STR_HELP_TDAC2);
1391:.\console.c   **** 					goto exitpars;
1392:.\console.c   **** 				}			
1393:.\console.c   **** 
1394:.\console.c   **** 
1395:.\console.c   **** 				// HELP PROMPT command details
1396:.\console.c   **** 				if (strcmp(actual_cmd.parameter, "prompt") == 0)
1397:.\console.c   **** 				{
1398:.\console.c   **** 					printf(STR_HELP_PROM1);
1399:.\console.c   **** 					printf(STR_HELP_SYNTX);
1400:.\console.c   **** 					printf(STR_HELP_PROM2);
1401:.\console.c   **** 					goto exitpars;
1402:.\console.c   **** 				}			
1403:.\console.c   **** 				
1404:.\console.c   **** 				
1405:.\console.c   **** 				// HELP VERSION command details
1406:.\console.c   **** 				if ((strcmp(actual_cmd.parameter, "version") == 0)
ARM GAS  C:\Users\Graziano\AppData\Local\Temp\cccvomne.s 			page 34


1407:.\console.c   **** 				||(strcmp(actual_cmd.parameter, "v") == 0))
1408:.\console.c   **** 				{
1409:.\console.c   **** 					printf(STR_HELP_VERS1);
1410:.\console.c   **** 					printf(STR_HELP_SYNTX);
1411:.\console.c   **** 					printf(STR_HELP_VERS2);
1412:.\console.c   **** 					printf(STR_HELP_VERS3);				
1413:.\console.c   **** 					goto exitpars;
1414:.\console.c   **** 				}
1415:.\console.c   **** 				printf(STR_ERROR3);	/* Bad Parameter(s) */
1416:.\console.c   **** 				goto exitpars;
1417:.\console.c   **** 			}
1418:.\console.c   **** 		goto exitpars;		
1419:.\console.c   **** 		}
1420:.\console.c   **** 		/* END CMD HELP */
1421:.\console.c   **** 	
1422:.\console.c   **** 	
1423:.\console.c   **** 		/* CMD SHOW */
1424:.\console.c   **** 		if ((strcmp(actual_cmd.action, "show") == 0) ||
1425:.\console.c   **** 		   (strcmp(actual_cmd.action, "s") == 0))
1426:.\console.c   **** 		{
1427:.\console.c   **** 			// SHOW CONTROL
1428:.\console.c   **** 			if ((strcmp(actual_cmd.parameter, "control") == 0)	
1429:.\console.c   **** 			|| (strcmp(actual_cmd.parameter, "ctrl") == 0) 
1430:.\console.c   **** 			|| (strlen(actual_cmd.parameter) == 0))
1431:.\console.c   **** 			{
1432:.\console.c   **** 				printf("\x1B[2J");			/* Erase Screen (ESC=\x1B) 	*/
1433:.\console.c   **** 				while (AnyButtonPressed() == NO_PRESSED)
1434:.\console.c   **** 				{
1435:.\console.c   **** 					printf("\x1B[H");		/* Cursor Home (ESC=\x1B)	*/
1436:.\console.c   **** 					printf("------------------------\r\n");
1437:.\console.c   **** 					printf("--- GoBee RT CONTROL ---\r\n");
1438:.\console.c   **** 					printf("------------------------\r\n");
1439:.\console.c   **** 					printf("\r\n");
1440:.\console.c   **** 									
1441:.\console.c   **** 					printf("agyro rate=%1.4f", (float)agyro.rate);
1442:.\console.c   **** 					printf_spc(7);
1443:.\console.c   **** 					printf("  lpf(rate)=%1.4f [deg/s]", (float)agyro.rate_lowpass);
1444:.\console.c   **** 					printf_spc(7);
1445:.\console.c   **** 					printf("  angle=%1.4f [deg]", (float)agyro.angle);
1446:.\console.c   **** 					printf_spc(7);							
1447:.\console.c   **** 					printf("\r\n");	
1448:.\console.c   **** 					printf("\r\n");	
1449:.\console.c   **** 
1450:.\console.c   **** 					printf("fbk enc rate=%1.4f [deg/s]", (float)pan_feedback_encoder.angular_velocity);
1451:.\console.c   **** 					printf_spc(7);
1452:.\console.c   **** 					printf("  angle=%1.4f [deg]", (float)pan_feedback_encoder.angle);							
1453:.\console.c   **** 					printf("\r\n");	
1454:.\console.c   **** 					printf("\r\n");					
1455:.\console.c   **** 					
1456:.\console.c   **** 					printf("err(P)=%+1.4f", (float)pan_axis.mc.error);
1457:.\console.c   **** //					printf_spc(7);					
1458:.\console.c   **** //					printf("err(R)=%+1.4f", (float)roll_axis.mc.error);	//ROLL FUTURE EXPANSION
1459:.\console.c   **** 					printf("\r\n");	
1460:.\console.c   **** 					
1461:.\console.c   **** 					printf("derr(P)=%+1.4f", (float)pan_axis.mc.derror);
1462:.\console.c   **** //					printf_spc(6);
1463:.\console.c   **** //					printf("derr(R)=%+1.4f", (float)roll_axis.mc.derror);	//ROLL FUTURE EXPANSION
ARM GAS  C:\Users\Graziano\AppData\Local\Temp\cccvomne.s 			page 35


1464:.\console.c   **** 					printf("\r\n");	
1465:.\console.c   **** 
1466:.\console.c   **** 					printf("ierr(P)=%+1.4f", (float)pan_axis.mc.ierror);
1467:.\console.c   **** //					printf_spc(6);
1468:.\console.c   **** //					printf("ierr(R)=%+1.4f", (float)roll_axis.mc.ierror);	//ROLL FUTURE EXPANSION
1469:.\console.c   **** 					printf("\r\n");	
1470:.\console.c   **** 					
1471:.\console.c   **** 					printf("cv(P)=%+1.4f", (float)pan_axis.mc.ctrl_var);
1472:.\console.c   **** //					printf_spc(8);
1473:.\console.c   **** //					printf("cv(R)=%+1.4f", (float)roll_axis.mc.control_var); //ROLL FUTURE EXPANSION
1474:.\console.c   **** 					printf("\r\n");	
1475:.\console.c   **** 					
1476:.\console.c   **** 					printf("pwm_var(P)= %4i", (uint16)pan_axis.mc.pwm_var);
1477:.\console.c   **** //					printf_spc(5);
1478:.\console.c   **** //					printf("pwm_var(R)= %4i", (uint16)roll_axis.mc.dac_var); //ROLL FUTURE EXPANSION
1479:.\console.c   **** 					printf("\r\n");					
1480:.\console.c   **** 
1481:.\console.c   **** 					strcpy(slegenda,"PAN  TORQUE:"); 
1482:.\console.c   **** 					print_hystogram_border(50, &slegenda[0]);    
1483:.\console.c   **** 					print_abs_linear_hystogram((int16)pan_axis.mc.ctrl_var, MOTOR_PWM_PERIOD_HALF, 50, &slegenda[0
1484:.\console.c   **** 					print_hystogram_border(50, &slegenda[0]);					
1485:.\console.c   **** 					printf("\r\n");
1486:.\console.c   **** 					
1487:.\console.c   **** //					strcpy(slegenda,"ROLL TORQUE:"); 
1488:.\console.c   **** //					print_abs_linear_hystogram((int16)roll_axis.mc.control_var, 128, 50, &slegenda[0]);
1489:.\console.c   **** //					print_hystogram_border(50, &slegenda[0]); 				//ROLL FUTURE EXPANSION
1490:.\console.c   **** 					
1491:.\console.c   **** 					printf("\r\n");
1492:.\console.c   **** 					printf("MACHINE\r\n");
1493:.\console.c   **** 					printf("-------\r\n");					
1494:.\console.c   **** //					printf("Power Status =");
1495:.\console.c   **** //					if (MC_Power == GLOBAL_DEENERGIZED)
1496:.\console.c   **** //					{
1497:.\console.c   **** //						printf(" Global DEENERGIZED\r\n");	/* Motor Control Power Global Deenergized */				
1498:.\console.c   **** //					}		
1499:.\console.c   **** //					else if (MC_Power == GLOBAL_ENERGIZED)
1500:.\console.c   **** //					{
1501:.\console.c   **** //						printf(" Global ENERGIZED!\r\n");	/* Motor Control Power Global Energized */		
1502:.\console.c   **** //					}			
1503:.\console.c   **** //					else
1504:.\console.c   **** //					{
1505:.\console.c   **** //						printf(" DANGER!!! INTERNAL FIRMWARE FAULT\r\n");	/* Firmware Fault */		
1506:.\console.c   **** //					}	
1507:.\console.c   **** 					printf("ctrl isr counters START=%5i STOP=%5i  \r\n", (uint16)isr_START_check_counter,(uint16)i
1508:.\console.c   **** 	
1509:.\console.c   **** 					printf("\r\n");						
1510:.\console.c   **** 					CyDelay(50);
1511:.\console.c   **** 				}
1512:.\console.c   **** 				printf("\r\n");	
1513:.\console.c   **** 				goto exitpars;	
1514:.\console.c   **** 			}
1515:.\console.c   **** 			// SHOW CONTROL END
1516:.\console.c   **** 			
1517:.\console.c   **** 			
1518:.\console.c   **** 			// SHOW ANALOG INPUTS
1519:.\console.c   **** 			if ((strcmp(actual_cmd.parameter, "analogs") == 0)	
1520:.\console.c   **** 			|| (strcmp(actual_cmd.parameter, "ana") == 0))
ARM GAS  C:\Users\Graziano\AppData\Local\Temp\cccvomne.s 			page 36


1521:.\console.c   **** 			{
1522:.\console.c   **** 				while (AnyButtonPressed() == NO_PRESSED)
1523:.\console.c   **** 				{			
1524:.\console.c   **** 					printf("I_P=%5d",     (int16)AdcValue[SENSE_IPAN]);
1525:.\console.c   **** 					printf(" I_T=%5d", (int16)AdcValue[SENSE_ITILT]);					
1526:.\console.c   **** 					printf(" Vcc=%5d",    (int16)AdcValue[SENSE_VCC]);
1527:.\console.c   **** 					printf(" Ax=%5d",     (int16)AdcValue[ADXL_X]);
1528:.\console.c   **** 					printf(" Ay=%5d",     (int16)AdcValue[ADXL_Y]);
1529:.\console.c   **** 					printf(" Az=%5d",     (int16)AdcValue[ADXL_Z]);
1530:.\console.c   **** 					printf(" VS=%5d",     (int16)AdcValue[SENSE_VCC]);					
1531:.\console.c   **** 					printf("\r\n");	
1532:.\console.c   **** 					CyDelay(50);
1533:.\console.c   **** 				}
1534:.\console.c   **** 				goto exitpars;	
1535:.\console.c   **** 			}
1536:.\console.c   **** 			// END SHOW ANALOG INPUTS
1537:.\console.c   **** 
1538:.\console.c   **** 			
1539:.\console.c   **** 			// SHOW VCC
1540:.\console.c   **** 			if (strcmp(actual_cmd.parameter, "vcc") == 0)	
1541:.\console.c   **** 			{
1542:.\console.c   **** 				while (AnyButtonPressed() == NO_PRESSED)
1543:.\console.c   **** 				{
1544:.\console.c   **** 					// ADC_Count = VCC[V] * 5k/55k * (1+100/1000) * ADC_MAX_UNSGN/5  (14 bit resolution)
1545:.\console.c   **** 					// VCC[V] = ADC_Count * 50/ADC_MAX_UNSGN
1546:.\console.c   **** 					printf("VCC = %3.1f [V]\r\n", (float)AdcValue[SENSE_VCC]*5.0/ADC_MAX_COUNTS);
1547:.\console.c   **** 					CyDelay(100);
1548:.\console.c   **** 				}
1549:.\console.c   **** 				goto exitpars;	
1550:.\console.c   **** 			}
1551:.\console.c   **** 			// END SHOW VCC
1552:.\console.c   **** 			
1553:.\console.c   **** 			// SHOW CURRENT
1554:.\console.c   **** 			if ((strcmp(actual_cmd.parameter, "current") == 0) ||
1555:.\console.c   **** 				(strcmp(actual_cmd.parameter, "i") == 0))
1556:.\console.c   **** 			{
1557:.\console.c   **** 				while (AnyButtonPressed() == NO_PRESSED)
1558:.\console.c   **** 				{					
1559:.\console.c   **** 					// --> I[mA] = (1500[mA]/4096) * (ADC_Count + 2048)
1560:.\console.c   **** 					printf("I_PAN = %3.1f [mA]",
1561:.\console.c   **** 							(float)pan_axis.mc.current);
1562:.\console.c   **** 					CyDelay(100);
1563:.\console.c   **** 				}
1564:.\console.c   **** 				goto exitpars;	
1565:.\console.c   **** 			}
1566:.\console.c   **** 			// END SHOW CURRENT
1567:.\console.c   **** 
1568:.\console.c   **** 
1569:.\console.c   **** 			// SHOW ASTIM
1570:.\console.c   **** 			if (strcmp(actual_cmd.parameter, "astim") == 0)	
1571:.\console.c   **** 			{
1572:.\console.c   **** 				while (AnyButtonPressed() == NO_PRESSED)
1573:.\console.c   **** 				{					
1574:.\console.c   **** 					printf("ASTIM(ADC_INPUT) =%+5d [lsb]", (int16)AdcValue[CTRL_IN_ASTIM_1]);					
1575:.\console.c   **** 					printf("   ASTIM(PAN) =%+5.1f [step/sec]\r\n", (float)pan_axis.mc.Float_ASTIM);
1576:.\console.c   **** 					CyDelay(10);
1577:.\console.c   **** 				}
ARM GAS  C:\Users\Graziano\AppData\Local\Temp\cccvomne.s 			page 37


1578:.\console.c   **** 				goto exitpars;	
1579:.\console.c   **** 			}
1580:.\console.c   **** 			// END SHOW astim			
1581:.\console.c   **** 			
1582:.\console.c   **** 			
1583:.\console.c   **** //			// SHOW ANALOG GYRO
1584:.\console.c   **** //			if ((strcmp(actual_cmd.parameter, "analoggyro") == 0)	
1585:.\console.c   **** //			|| (strcmp(actual_cmd.parameter, "agyro") == 0))
1586:.\console.c   **** //			{
1587:.\console.c   **** //				while (AnyButtonPressed() == NO_PRESSED)
1588:.\console.c   **** //				{
1589:.\console.c   **** //					//printf(" ADC=%5i", (uint16)AdcValue[EXT_GYRO_RATE]);
1590:.\console.c   **** //					
1591:.\console.c   **** //					/* --- Prints Temperature in Celsius ---												*/
1592:.\console.c   **** //					/* Temperature Scale Factor = 10mV/K @ Vref=6V --> Scale Factor = 8.333mV/K @Vref=5V 	*/
1593:.\console.c   **** //					/* Temperature Sensor Voltage @ 25C = 8.333mV/K * 273.15K = 2.27625V					*/
1594:.\console.c   **** //					/* ADC Scale Factor (12bit) = 5V/4096 = 1.220703mV/lsb									*/
1595:.\console.c   **** //					printf("T=%1.1f[C]", (float) ((float)(((AdcValue[EXT_GYRO_TEMP] + 2048) * 1.220703)/8.333333
1596:.\console.c   **** //					printf(" rate=%+1.4f[deg/s]", (float) agyro.rate);
1597:.\console.c   **** //					printf(" mean=%+1.4f[deg/s]", (float) agyro.mean_rate);					
1598:.\console.c   **** //					printf(" lpf=%+1.4f[deg/s]", (float) agyro.rate_lowpass);					
1599:.\console.c   **** //					printf(" angle=%+1.4f[deg]", (float) agyro.angle);
1600:.\console.c   **** //
1601:.\console.c   **** //					printf("\r\n");	
1602:.\console.c   **** //					CyDelay(50);
1603:.\console.c   **** //				}
1604:.\console.c   **** //				goto exitpars;	
1605:.\console.c   **** //			}
1606:.\console.c   **** //			// SHOW ANALOG GYRO END
1607:.\console.c   **** 
1608:.\console.c   **** 
1609:.\console.c   **** 			// SHOW DIGITAL GYRO
1610:.\console.c   **** 			if ((strcmp(actual_cmd.parameter, "digitalgyro") == 0)	
1611:.\console.c   **** 			|| (strcmp(actual_cmd.parameter, "dgyro") == 0))
1612:.\console.c   **** 			{
1613:.\console.c   **** 				while (AnyButtonPressed() == NO_PRESSED)
1614:.\console.c   **** 				{
1615:.\console.c   **** 					//printf("ADXRS453");	
1616:.\console.c   **** 					//printf("dgyro_spi32=0x%04x%04x", (int16)(dgyro_spi32 >> 16), (int16)(0xFFFF & dgyro_spi32));
1617:.\console.c   **** 					printf(" dgyro=%+1.4f[d/s]", (float)dgyro_rate_float);
1618:.\console.c   **** 					printf(" mean(dgyro)=%+1.6f[d/s]", (float)dgyro_mean);	
1619:.\console.c   **** 					printf(" mean(dgy+of)=%+1.6f[d/s]", (float)dgyro_mean_of);						
1620:.\console.c   **** 					printf(" angl(dgy+of)=%+1.6f[deg]", (float)angle_estim_digital_gyro);
1621:.\console.c   **** //					printf(" angle(agyro+of_f)=%+1.4f[deg]", (float) angle_estim_analog_gyro);
1622:.\console.c   **** //					printf(" angle=%+1.4f", (float) angle);	
1623:.\console.c   **** 
1624:.\console.c   **** 					printf("\r\n");	
1625:.\console.c   **** 					CyDelay(50);
1626:.\console.c   **** 				}
1627:.\console.c   **** 				goto exitpars;	
1628:.\console.c   **** 			}
1629:.\console.c   **** 			// SHOW DIGITAL GYRO END
1630:.\console.c   **** 			
1631:.\console.c   **** #if ITG_3701_ENABLED			
1632:.\console.c   **** 			// SHOW ITG-3701 DIGITAL GYRO
1633:.\console.c   **** 			if ((strcmp(actual_cmd.parameter, "itg3701") == 0)	
1634:.\console.c   **** 			|| (strcmp(actual_cmd.parameter, "3701") == 0))
ARM GAS  C:\Users\Graziano\AppData\Local\Temp\cccvomne.s 			page 38


1635:.\console.c   **** 			{
1636:.\console.c   **** 				// Verify HW connection
1637:.\console.c   **** 				dummy = ITG3701_ReadByte(ITG3701_ADDRESS, ITG3701_WHO_AM_I);  // Read WHO_AM_I register for ITG
1638:.\console.c   **** 			  	printf("ITG3701 gyro; I AM 0x%02X (should be 0x68)\r\n",(uint16)dummy);
1639:.\console.c   **** 				CyDelay(1);
1640:.\console.c   **** 				
1641:.\console.c   **** //				// Initialize ITG-3701 gyro
1642:.\console.c   **** //				initITG3701();
1643:.\console.c   **** 
1644:.\console.c   **** //			    // Calibrate gyro loading biases in bias registers
1645:.\console.c   **** //			    gyrocalITG3701(gyroBias);
1646:.\console.c   **** 
1647:.\console.c   **** //				// get sensor resolutions, only need to do this once (calculates gRes)
1648:.\console.c   **** //			   	getGres();	
1649:.\console.c   **** 			   	printf("ITG3701 gyro sensitivity is %1.4f LSB/dps\r\n", (float)1.0/(gRes));	
1650:.\console.c   **** 				
1651:.\console.c   **** 				// verify and print sensor resolution HW register
1652:.\console.c   **** 				dummy = ITG3701_ReadByte(ITG3701_ADDRESS, ITG3701_GYRO_CONFIG); // Read ITG3701_GYRO_CONFIG reg
1653:.\console.c   **** 				printf("ITG3701_GYRO_CONFIG = 0x%02X\r\n\r\n",(uint16)dummy);
1654:.\console.c   **** 				
1655:.\console.c   **** 				while (AnyButtonPressed() == NO_PRESSED)
1656:.\console.c   **** 				{
1657:.\console.c   **** 					if (ITG3701_ReadByte(ITG3701_ADDRESS, ITG3701_INT_STATUS) & 0x01)  // check if new gyro data i
1658:.\console.c   **** 					{
1659:.\console.c   **** 						readGyroData(gyroCount);  // Read the x/y/z adc values
1660:.\console.c   **** 
1661:.\console.c   **** 					    // Calculate the gyro value into actual degrees per second
1662:.\console.c   **** 					    gx = (float)gyroCount[0]*gRes - gyroBias[0];  // get actual gyro value, this depends on sc
1663:.\console.c   **** 					    gy = (float)gyroCount[1]*gRes - gyroBias[1];  
1664:.\console.c   **** 					    gz = (float)gyroCount[2]*gRes - gyroBias[2]; 
1665:.\console.c   **** 					}
1666:.\console.c   **** 					printf("gx=%1.4f gy=%1.4f gz=%1.4f\r\n",(float)gx, (float)gy, (float)gz);
1667:.\console.c   **** 					CyDelay(50);
1668:.\console.c   **** 				}
1669:.\console.c   **** 				goto exitpars;	
1670:.\console.c   **** 			}
1671:.\console.c   **** 			// SHOW ITG-3701 DIGITAL GYRO END			
1672:.\console.c   **** #endif
1673:.\console.c   **** 			
1674:.\console.c   **** 			// SHOW GYROS
1675:.\console.c   **** 			if ((strcmp(actual_cmd.parameter, "gyros") == 0)	
1676:.\console.c   **** 			|| (strcmp(actual_cmd.parameter, "gy") == 0))
1677:.\console.c   **** 			{
1678:.\console.c   **** 				while (AnyButtonPressed() == NO_PRESSED)
1679:.\console.c   **** 				{
1680:.\console.c   **** 					printf(" agyro=%+1.4f[deg/s]", (float) gyro);
1681:.\console.c   **** 					printf(" dgyro=%+1.4f[deg/s]", (float)dgyro_rate_float);
1682:.\console.c   **** 					printf(" angle(agyro+of_f)=%+1.6f[deg]", (float)angle_estim_analog_gyro);					
1683:.\console.c   **** 					printf(" angle(dgyro+of_f)=%+1.6f[deg]", (float)angle_estim_digital_gyro);
1684:.\console.c   **** 					
1685:.\console.c   **** 					printf("\r\n");	
1686:.\console.c   **** 					CyDelay(50);
1687:.\console.c   **** 				}
1688:.\console.c   **** 				goto exitpars;	
1689:.\console.c   **** 			}
1690:.\console.c   **** 			// SHOW DIGITAL GYRO END			
1691:.\console.c   **** 
ARM GAS  C:\Users\Graziano\AppData\Local\Temp\cccvomne.s 			page 39


1692:.\console.c   **** 			
1693:.\console.c   **** 			// SHOW ANALOG 3D ACCELEROMETER
1694:.\console.c   **** 			if ((strcmp(actual_cmd.parameter, "analogacc") == 0)	
1695:.\console.c   **** 			|| (strcmp(actual_cmd.parameter, "aacc") == 0))
1696:.\console.c   **** 			{
1697:.\console.c   **** 				while (AnyButtonPressed() == NO_PRESSED)
1698:.\console.c   **** 				{
1699:.\console.c   **** 					printf("x=%+1.4f[g] (%5i)", (float) aacc.x_axis.acceleration, (int16)aacc.x_axis.ADC);
1700:.\console.c   **** 					printf(" y=%+1.4f[g] (%5i)", (float) aacc.y_axis.acceleration, (int16)aacc.y_axis.ADC);					
1701:.\console.c   **** 					printf(" z=%+1.4f[g] (%5i)", (float) aacc.z_axis.acceleration, (int16)aacc.z_axis.ADC);
1702:.\console.c   **** 					printf(" modulo=%+1.4f[g]", (float) aacc.modulo);					
1703:.\console.c   **** 					printf(" sdyn=%+1.4f[g^2]", (float) aacc.system_dynamic_scalar);
1704:.\console.c   **** 
1705:.\console.c   **** 					printf("\r\n");	
1706:.\console.c   **** 					CyDelay(50);
1707:.\console.c   **** 				}
1708:.\console.c   **** 				goto exitpars;	
1709:.\console.c   **** 			}
1710:.\console.c   **** 			// SHOW ANALOG 3D ACCELEROMETER END
1711:.\console.c   **** 
1712:.\console.c   **** 			
1713:.\console.c   **** 			// SHOW ESTIMATED ANGLES
1714:.\console.c   **** 			if ((strcmp(actual_cmd.parameter, "angles") == 0)	
1715:.\console.c   **** 			|| (strcmp(actual_cmd.parameter, "angle") == 0))
1716:.\console.c   **** 			{
1717:.\console.c   **** 				while (AnyButtonPressed() == NO_PRESSED)
1718:.\console.c   **** 				{
1719:.\console.c   **** 					printf("x=%+1.4f[g]", (float)aacc.x_axis.acceleration);
1720:.\console.c   **** 					printf(" y=%+1.4f[g]", (float)aacc.y_axis.acceleration);					
1721:.\console.c   **** 					printf(" z=%+1.4f[g]", (float)aacc.z_axis.acceleration);
1722:.\console.c   **** 					printf(" tilt=%+1.4f[deg]", (float)aacc.angle_estim_tilt);					
1723:.\console.c   **** 					printf(" roll=%+1.4f[deg]", (float)aacc.angle_estim_roll);
1724:.\console.c   **** 
1725:.\console.c   **** 					printf("\r\n");	
1726:.\console.c   **** 					CyDelay(50);
1727:.\console.c   **** 				}
1728:.\console.c   **** 				goto exitpars;	
1729:.\console.c   **** 			}
1730:.\console.c   **** 			// SHOW ESTIMATED ANGLES END			
1731:.\console.c   **** 
1732:.\console.c   **** 			
1733:.\console.c   **** 			// SHOW ESTIMATED EVENTS
1734:.\console.c   **** 			if ((strcmp(actual_cmd.parameter, "events") == 0)	
1735:.\console.c   **** 			|| (strcmp(actual_cmd.parameter, "event") == 0))
1736:.\console.c   **** 			{
1737:.\console.c   **** 				while (AnyButtonPressed() == NO_PRESSED)
1738:.\console.c   **** 				{
1739:.\console.c   **** 					//SimpleAngleEventsEstimator(aacc.angle_estim_tilt);
1740:.\console.c   **** 					printf("Events");
1741:.\console.c   **** 					printf(" on_origin_ticks=%ld", (uint32)events.timecode.on_origin_ticks);					
1742:.\console.c   **** 					printf(" angle_tilt=%2i", (uint16)events.inertial.tilt_angle);
1743:.\console.c   **** 					printf(" vibration=%2i", (uint16)events.inertial.vibration);	
1744:.\console.c   **** 					printf(" jump=%2i", (uint16)events.inertial.jump);						
1745:.\console.c   **** 					printf(" sm=%3i", (uint16)events.mapping_sm_status);
1746:.\console.c   **** 					printf("\r\n");	
1747:.\console.c   **** 					CyDelay(50);
1748:.\console.c   **** 				}
ARM GAS  C:\Users\Graziano\AppData\Local\Temp\cccvomne.s 			page 40


1749:.\console.c   **** 				goto exitpars;	
1750:.\console.c   **** 			}
1751:.\console.c   **** 			// SHOW ESTIMATED ANGLES END			
1752:.\console.c   **** 			
1753:.\console.c   **** 			// SHOW BUTTONS
1754:.\console.c   **** 			if ((strcmp(actual_cmd.parameter, "buttons") == 0)	
1755:.\console.c   **** 			|| (strcmp(actual_cmd.parameter, "but") == 0))
1756:.\console.c   **** 			{
1757:.\console.c   **** 				while (AnyButtonPressed() == NO_PRESSED)
1758:.\console.c   **** 				{
1759:.\console.c   **** 					printf("BUTTONS = %3i", (uint16)Status_Reg_BUTTON_Read());
1760:.\console.c   **** 					if (Status_Reg_BUTTON_Read() == PUSH_ON)
1761:.\console.c   **** 					{
1762:.\console.c   **** 						printf(" (ON)");
1763:.\console.c   **** 					}
1764:.\console.c   **** 					else
1765:.\console.c   **** 					if (Status_Reg_BUTTON_Read() == PUSH_CW)					
1766:.\console.c   **** 					{
1767:.\console.c   **** 						printf(" (CW)");
1768:.\console.c   **** 					}
1769:.\console.c   **** 					else
1770:.\console.c   **** 					if (Status_Reg_BUTTON_Read() == PUSH_CCW)					
1771:.\console.c   **** 					{
1772:.\console.c   **** 						printf(" (CCW)");
1773:.\console.c   **** 					}	
1774:.\console.c   **** 					printf("\r\n");	
1775:.\console.c   **** 					CyDelay(50);
1776:.\console.c   **** 				}
1777:.\console.c   **** 				goto exitpars;	
1778:.\console.c   **** 			}
1779:.\console.c   **** 			// SHOW BUTTONS END
1780:.\console.c   **** 
1781:.\console.c   **** 
1782:.\console.c   **** 			// SHOW SYSDYN (SYSTEM DYNAMIC ACCELERATION SCALAR)
1783:.\console.c   **** 			if ((strcmp(actual_cmd.parameter, "sysdyn") == 0)	
1784:.\console.c   **** 			|| (strcmp(actual_cmd.parameter, "sdyn") == 0))
1785:.\console.c   **** 			{
1786:.\console.c   **** 				while (AnyButtonPressed() == NO_PRESSED)
1787:.\console.c   **** 				{
1788:.\console.c   **** 					printf("System Dynamic Scalar=%1.8f  [xacc_ADC^2+yacc_ADC^2-(1g_ADC)^2]", (float)aacc.system_d
1789:.\console.c   **** 					printf("\r\n");	
1790:.\console.c   **** 					CyDelay(50);
1791:.\console.c   **** 				}
1792:.\console.c   **** 				goto exitpars;	
1793:.\console.c   **** 			}
1794:.\console.c   **** 			// END SHOW SYSDYN (SYSTEM DYNAMIC ACCELERATION SCALAR)
1795:.\console.c   **** 
1796:.\console.c   **** 			
1797:.\console.c   **** 			// SHOW FEEDBACK ENCODER
1798:.\console.c   **** 			if ((strcmp(actual_cmd.parameter, "encoder") == 0)	
1799:.\console.c   **** 			|| (strcmp(actual_cmd.parameter, "enc") == 0))
1800:.\console.c   **** 			{
1801:.\console.c   **** 				while (AnyButtonPressed() == NO_PRESSED)
1802:.\console.c   **** 				{
1803:.\console.c   **** 					printf("Fbk Encoder Pos=%+ld [step] ", (int32)pan_feedback_encoder.position);
1804:.\console.c   **** 					printf(" Vel=%+1.2f [step/s]", (float)pan_feedback_encoder.velocity);
1805:.\console.c   **** 					printf(" Vel=%+1.2f [rpm]", (float)(pan_feedback_encoder.velocity*60)/pan_feedback_encoder.par
ARM GAS  C:\Users\Graziano\AppData\Local\Temp\cccvomne.s 			page 41


1806:.\console.c   **** 					printf("\r\n");	
1807:.\console.c   **** 					CyDelay(50);
1808:.\console.c   **** 				}
1809:.\console.c   **** 				goto exitpars;	
1810:.\console.c   **** 			}
1811:.\console.c   **** 			// END SHOW FEEDBACK ENCODER
1812:.\console.c   **** 
1813:.\console.c   **** 			
1814:.\console.c   **** 			// SHOW MOTOR STATUS
1815:.\console.c   **** 			if ((strcmp(actual_cmd.parameter, "motorstatus") == 0)	
1816:.\console.c   **** 			|| (strcmp(actual_cmd.parameter, "mot") == 0))
1817:.\console.c   **** 			{
1818:.\console.c   **** 				while (AnyButtonPressed() == NO_PRESSED)
1819:.\console.c   **** 				{
1820:.\console.c   **** 					printf("Motor Status=%2u ", (int16)Status_Reg_MOTORS_Read());
1821:.\console.c   **** 					if ((Status_Reg_MOTORS_Read() & SR_PAN_MOT_FL) == 0)
1822:.\console.c   **** 					{
1823:.\console.c   **** 						printf("PAN CURRENT PEAK!) ");	
1824:.\console.c   **** 					}
1825:.\console.c   **** 					else
1826:.\console.c   **** 					{
1827:.\console.c   **** 						printf("(PAN CURRENT OK!)  ");						
1828:.\console.c   **** 					}
1829:.\console.c   **** 					
1830:.\console.c   **** 					if ((Status_Reg_MOTORS_Read() & SR_TILT_MOT_FL) == 0)
1831:.\console.c   **** 					{
1832:.\console.c   **** 						printf("(TILT CURRENT PEAK!)");	
1833:.\console.c   **** 					}
1834:.\console.c   **** 					else
1835:.\console.c   **** 					{
1836:.\console.c   **** 						printf("(TILT CURRENT OK!)");						
1837:.\console.c   **** 					}					
1838:.\console.c   **** 					
1839:.\console.c   **** 					printf("\r\n");	
1840:.\console.c   **** 					CyDelay(50);
1841:.\console.c   **** 				}
1842:.\console.c   **** 				goto exitpars;	
1843:.\console.c   **** 			}
1844:.\console.c   **** 			// END SHOW MOTOR STATUS			
1845:.\console.c   **** 
1846:.\console.c   **** 			
1847:.\console.c   **** 			// SHOW HOME SENSORS
1848:.\console.c   **** 			if ((strcmp(actual_cmd.parameter, "homesens") == 0)	
1849:.\console.c   **** 			|| (strcmp(actual_cmd.parameter, "hsens") == 0))
1850:.\console.c   **** 			{
1851:.\console.c   **** 				while (AnyButtonPressed() == NO_PRESSED)
1852:.\console.c   **** 				{
1853:.\console.c   **** 					//2 --> home pan (HOME_PAN = 4)
1854:.\console.c   **** 					//3 --> home tilt (HOME_TILT = 8)
1855:.\console.c   **** 					printf("R=%0x2; ", (int16)Status_Reg_MOTORS_Read());
1856:.\console.c   **** 					if ((Status_Reg_MOTORS_Read() & SR_HOME_PAN) == SR_HOME_PAN)
1857:.\console.c   **** 					{
1858:.\console.c   **** 						printf("HOME PAN=H; ");	
1859:.\console.c   **** 					}
1860:.\console.c   **** 					else
1861:.\console.c   **** 					{
1862:.\console.c   **** 						printf("HOME PAN=L; ");						
ARM GAS  C:\Users\Graziano\AppData\Local\Temp\cccvomne.s 			page 42


1863:.\console.c   **** 					}
1864:.\console.c   **** 
1865:.\console.c   **** 					if ((Status_Reg_MOTORS_Read() & SR_HOME_TILT) == SR_HOME_TILT)
1866:.\console.c   **** 					{
1867:.\console.c   **** 						printf("HOME TILT=H");	
1868:.\console.c   **** 					}
1869:.\console.c   **** 					else
1870:.\console.c   **** 					{
1871:.\console.c   **** 						printf("HOME TILT=L");						
1872:.\console.c   **** 					}
1873:.\console.c   **** 					
1874:.\console.c   **** 					printf("\r\n");	
1875:.\console.c   **** 					CyDelay(50);
1876:.\console.c   **** 				}
1877:.\console.c   **** 				goto exitpars;	
1878:.\console.c   **** 			}
1879:.\console.c   **** 			// END SHOW MOTOR STATUS			
1880:.\console.c   **** 			
1881:.\console.c   **** 			
1882:.\console.c   **** 			// SHOW PATH N
1883:.\console.c   **** 			if ((strcmp(actual_cmd.parameter, "path") == 0)	
1884:.\console.c   **** 			|| (strcmp(actual_cmd.parameter, "pa") == 0))
1885:.\console.c   **** 			{
1886:.\console.c   **** 				if (((path_n = atoi(actual_cmd.number1)) >= 0)
1887:.\console.c   **** 				&& (path_n = atoi(actual_cmd.number1)) <= 64)
1888:.\console.c   **** 				{
1889:.\console.c   **** 					for (idx=0; idx<path[path_n].param.Trapezoid_Number; idx++)
1890:.\console.c   **** 					{
1891:.\console.c   **** 						printf(" Trapezoid num =%3i\r\n", (int16)idx);	
1892:.\console.c   **** 						printf(" Acc           =%+1.2f [%%]\r\n", (float)path[path_n].trapezoid[idx].param.acc_pc.fnu
1893:.\console.c   **** 						printf(" Dec           =%+1.2f [%%]\r\n", (float)path[path_n].trapezoid[idx].param.dec_pc.fnu
1894:.\console.c   **** 						printf(" Time          =%+1.2f [sec]\r\n", (float)path[path_n].trapezoid[idx].param.time_sec.
1895:.\console.c   **** 						printf(" Steps         =%+1.2f [step]\r\n", (float)path[path_n].trapezoid[idx].param.steps);
1896:.\console.c   **** 						printf(" Last_flg      =%3i [1=last]\r\n", (int16)path[path_n].trapezoid[idx].param.last_flg)
1897:.\console.c   **** 						printf("----------------------------\r\n");
1898:.\console.c   **** 						printf(" Ticks Initial =%+ld [ticks]\r\n", (int32)path[path_n].trapezoid[idx].mover.ticks_ini
1899:.\console.c   **** 						printf(" Acc EndPoint  =%+ld [ticks]\r\n", (int32)path[path_n].trapezoid[idx].mover.acc_end_t
1900:.\console.c   **** 						printf(" Dec StartPoint=%+ld [ticks]\r\n", (int32)path[path_n].trapezoid[idx].mover.dec_start
1901:.\console.c   **** 						printf(" Dec EndPoint  =%+ld [ticks]\r\n", (int32)path[path_n].trapezoid[idx].mover.dec_end_t
1902:.\console.c   **** 						printf(" Ticks Final   =%+ld [ticks]\r\n", (int32)path[path_n].trapezoid[idx].mover.ticks_fin
1903:.\console.c   **** 						printf(" Acc Ticks     =%+1.2f [float ticks]\r\n", (float)path[path_n].trapezoid[idx].mover.a
1904:.\console.c   **** 						printf(" Vconst Ticks  =%+1.2f [float ticks]\r\n", (float)path[path_n].trapezoid[idx].mover.v
1905:.\console.c   **** 						printf(" Dec Ticks     =%+1.2f [float ticks]\r\n", (float)path[path_n].trapezoid[idx].mover.d
1906:.\console.c   **** 						printf(" V initial     =%+1.6f [step/ticks]\r\n", (float)path[path_n].trapezoid[idx].mover.v_
1907:.\console.c   **** 						printf(" Acc slope     =%+1.6f [step/ticks^2]\r\n", (float)path[path_n].trapezoid[idx].mover.
1908:.\console.c   **** 						printf(" V constant    =%+1.6f [step/ticks]\r\n", (float)path[path_n].trapezoid[idx].mover.v_
1909:.\console.c   **** 						printf(" Dec slope     =%+1.6f [step/ticks^2]\r\n", (float)path[path_n].trapezoid[idx].mover.
1910:.\console.c   **** 						printf(" V final       =%+1.6f [step/ticks]\r\n", (float)path[path_n].trapezoid[idx].mover.v_
1911:.\console.c   **** 						printf("\r\n");						
1912:.\console.c   **** 					}				
1913:.\console.c   **** 				}
1914:.\console.c   **** 				else
1915:.\console.c   **** 				{
1916:.\console.c   **** 					printf(STR_ERROR5);				/* ERROR5: Number not allowed */
1917:.\console.c   **** 				}
1918:.\console.c   **** 				goto exitpars;	
1919:.\console.c   **** 			}
ARM GAS  C:\Users\Graziano\AppData\Local\Temp\cccvomne.s 			page 43


1920:.\console.c   **** 			// END SHOW PATH N				
1921:.\console.c   **** 
1922:.\console.c   **** 			
1923:.\console.c   **** 			// SHOW MOVER N
1924:.\console.c   **** 			if ((strcmp(actual_cmd.parameter, "mover") == 0)	
1925:.\console.c   **** 			|| (strcmp(actual_cmd.parameter, "mov") == 0))
1926:.\console.c   **** 			{	
1927:.\console.c   **** 				if (((path_n = atoi(actual_cmd.number1)) >= 0)
1928:.\console.c   **** 				&& (path_n = atoi(actual_cmd.number1)) <= 64)
1929:.\console.c   **** 				{				
1930:.\console.c   **** 					int32 steps_loc;
1931:.\console.c   **** 					int32 steps_integral_loc=0;
1932:.\console.c   **** 					
1933:.\console.c   **** 					MoverInit();	/* Initialize the Mover */
1934:.\console.c   **** 					
1935:.\console.c   **** 					while ((mover.ticks <= path[path_n].path_ticks_MAX) &&
1936:.\console.c   **** 						  (AnyButtonPressed() == NO_PRESSED))
1937:.\console.c   **** 					{
1938:.\console.c   **** 						steps_loc = MoverGeneratedSteps(&path[path_n], mover.ticks);
1939:.\console.c   **** 						steps_integral_loc = steps_integral_loc + steps_loc;
1940:.\console.c   **** 						
1941:.\console.c   **** 						printf("Ticks=%+ld [ticks]", (int32)mover.ticks);
1942:.\console.c   **** 						printf("  Steps=%+ld [step]", (int32)steps_loc);	
1943:.\console.c   **** 						printf("  Int(Steps)=%+ld [step]", (int32)steps_integral_loc);
1944:.\console.c   **** 						printf("  Mover_status=%2i", (int16)mover.status);							
1945:.\console.c   **** 						printf("\r\n");
1946:.\console.c   **** 						
1947:.\console.c   **** 						mover.ticks++;
1948:.\console.c   **** 					}
1949:.\console.c   **** 				}
1950:.\console.c   **** 				else
1951:.\console.c   **** 				{
1952:.\console.c   **** 					printf(STR_ERROR5);				/* ERROR5: Number not allowed */
1953:.\console.c   **** 				}					
1954:.\console.c   **** 				goto exitpars;	
1955:.\console.c   **** 			}
1956:.\console.c   **** 			// END SHOW MOVER N			
1957:.\console.c   **** 			
1958:.\console.c   **** 
1959:.\console.c   **** //			// SHOW FAULTS
1960:.\console.c   **** //			if ((strcmp(actual_cmd.parameter, "faults") == 0)	
1961:.\console.c   **** //			|| (strcmp(actual_cmd.parameter, "fault") == 0))	
1962:.\console.c   **** //			{
1963:.\console.c   **** //				if (sysFaults.general == 0)
1964:.\console.c   **** //				{
1965:.\console.c   **** //					printf(STR_FULT0);   /* NONE: ALL OK! */
1966:.\console.c   **** //				}
1967:.\console.c   **** //				else
1968:.\console.c   **** //				{
1969:.\console.c   **** //					if ((sysFaults.general & GEN_FUSE_FAULT) == GEN_FUSE_FAULT)
1970:.\console.c   **** //					{
1971:.\console.c   **** //						printf(STR_FULT1);   /* @FAULT: FUSE OPEN! */
1972:.\console.c   **** //					}
1973:.\console.c   **** //					else
1974:.\console.c   **** //					{
1975:.\console.c   **** //						if ((sysFaults.general & GEN_LOWVCC_FAULT) == GEN_LOWVCC_FAULT)
1976:.\console.c   **** //						{
ARM GAS  C:\Users\Graziano\AppData\Local\Temp\cccvomne.s 			page 44


1977:.\console.c   **** //							printf(STR_FULT2);   /* @FAULT: LOW VCC! (VCC<11V) */
1978:.\console.c   **** //						}
1979:.\console.c   **** //					}
1980:.\console.c   **** //					
1981:.\console.c   **** //					if ((sysFaults.general & GEN_MOVTIME_FAULT) == GEN_MOVTIME_FAULT)
1982:.\console.c   **** //					{
1983:.\console.c   **** //						printf(STR_FULT3);   	/* @FAULT: TARGET NOT REACHED! */
1984:.\console.c   **** //					}
1985:.\console.c   **** //					
1986:.\console.c   **** //					if ((sysFaults.general & GEN_CURRENT_FAULT) == GEN_CURRENT_FAULT)
1987:.\console.c   **** //					{
1988:.\console.c   **** //						printf(STR_FULT4);   	/* @FAULT: MOTOR(S) OVERCURRENT! */
1989:.\console.c   **** //					}				
1990:.\console.c   **** //					
1991:.\console.c   **** //				}
1992:.\console.c   **** //				goto exitpars;
1993:.\console.c   **** //			}
1994:.\console.c   **** //			
1995:.\console.c   **** 			// SHOW PARAMS
1996:.\console.c   **** 			if (((strcmp(actual_cmd.parameter, "params") == 0))
1997:.\console.c   **** 			|| (strcmp(actual_cmd.parameter, "p") == 0))
1998:.\console.c   **** 			{
1999:.\console.c   **** 				printf("GoBee DIRECTOR\r\n");
2000:.\console.c   **** 				printf("==============\r\n");
2001:.\console.c   **** 				printf("Gobee Selected Director      =%2u: ", gobee_param.director);
2002:.\console.c   **** 				ShowParamsDirector();			
2003:.\console.c   **** 				printf("\r\n");		
2004:.\console.c   **** 				printf("\r\n");					
2005:.\console.c   **** 				
2006:.\console.c   **** 				printf("GoBee PARAMETER LIST\r\n");
2007:.\console.c   **** 				printf("====================\r\n");
2008:.\console.c   **** 					
2009:.\console.c   **** 				//pan motor main params
2010:.\console.c   **** 				printf("Pan Motor Polarity           = ");
2011:.\console.c   **** 				printf("%1u (0=true, 1=invert)",(int16)(pan_axis.param.polarity));
2012:.\console.c   **** 				printf("\r\n");
2013:.\console.c   **** 
2014:.\console.c   **** 				printf("Pan Motor Kp                 = ");
2015:.\console.c   **** 				printf("%8f",(float)(pan_axis.param.Kpf.fnum));
2016:.\console.c   **** 				printf("\r\n");
2017:.\console.c   **** 
2018:.\console.c   **** 				printf("Pan Motor Kd                 = ");
2019:.\console.c   **** 				printf("%8f",(float)(pan_axis.param.Kdf.fnum));
2020:.\console.c   **** 				printf("\r\n");
2021:.\console.c   **** 
2022:.\console.c   **** 				printf("Pan Motor Ki                 = ");
2023:.\console.c   **** 				ShowParamsKiPan();
2024:.\console.c   **** 				printf("\r\n");
2025:.\console.c   **** 				
2026:.\console.c   **** 				printf("Pan Motor Ksi                = ");
2027:.\console.c   **** 				printf("%8f (max AZI=%8f)",(float)(pan_axis.param.Ksif.fnum),
2028:.\console.c   **** 										   (float)(pan_axis.param.Ksif.fnum * pan_axis.param.Kif.fnum));
2029:.\console.c   **** 				printf("\r\n");					
2030:.\console.c   **** 	
2031:.\console.c   **** 				//tilt motor main params
2032:.\console.c   **** 				printf("Tilt Motor Polarity          = ");
2033:.\console.c   **** 				printf("%1u (0=true, 1=invert)",(int16)(tilt_axis.param.polarity));
ARM GAS  C:\Users\Graziano\AppData\Local\Temp\cccvomne.s 			page 45


2034:.\console.c   **** 				printf("\r\n");
2035:.\console.c   **** 
2036:.\console.c   **** 				printf("Tilt Motor Kp                = ");
2037:.\console.c   **** 				printf("%8f",(float)(tilt_axis.param.Kpf.fnum));
2038:.\console.c   **** 				printf("\r\n");
2039:.\console.c   **** 
2040:.\console.c   **** 				printf("Tilt Motor Kd                = ");
2041:.\console.c   **** 				printf("%8f",(float)(tilt_axis.param.Kdf.fnum));
2042:.\console.c   **** 				printf("\r\n");
2043:.\console.c   **** 
2044:.\console.c   **** 				printf("Tilt Motor Ki                = ");
2045:.\console.c   **** 				ShowParamsKiTilt();
2046:.\console.c   **** 				printf("\r\n");
2047:.\console.c   **** 				
2048:.\console.c   **** 				printf("Tilt Motor Ksi               = ");
2049:.\console.c   **** 				printf("%8f (max AZI=%8f)",(float)(tilt_axis.param.Ksif.fnum),
2050:.\console.c   **** 										   (float)(tilt_axis.param.Ksif.fnum * tilt_axis.param.Kif.fnum));
2051:.\console.c   **** 				printf("\r\n");					
2052:.\console.c   **** 				printf("\r\n");					
2053:.\console.c   **** 				
2054:.\console.c   **** 				printf("Pan Motor Kopf               = ");
2055:.\console.c   **** 				printf("%8f",(float)(pan_axis.param.Kopf.fnum));
2056:.\console.c   **** 				printf("   Astim=%1u",(int16)(pan_axis.vparam.astim_type));
2057:.\console.c   **** 				if (pan_axis.vparam.astim_type == NO_ASTIM)
2058:.\console.c   **** 				{
2059:.\console.c   **** 					printf(" (off)");
2060:.\console.c   **** 				}
2061:.\console.c   **** 				else if (pan_axis.vparam.astim_type == SINE_ASTIM)
2062:.\console.c   **** 				{
2063:.\console.c   **** 					printf(" (sine)");
2064:.\console.c   **** 				}				
2065:.\console.c   **** 				else if (pan_axis.vparam.astim_type == TRIANGLE_ASTIM)
2066:.\console.c   **** 				{
2067:.\console.c   **** 					printf(" (triangle)");
2068:.\console.c   **** 				}
2069:.\console.c   **** 				else if (pan_axis.vparam.astim_type == SQUARE_ASTIM)
2070:.\console.c   **** 				{
2071:.\console.c   **** 					printf(" (square)");
2072:.\console.c   **** 				}					
2073:.\console.c   **** 				else
2074:.\console.c   **** 				{
2075:.\console.c   **** 					printf(" (!internal error)");
2076:.\console.c   **** 				}				
2077:.\console.c   **** 				printf("\r\n");
2078:.\console.c   **** 				
2079:.\console.c   **** 				printf("Anaout GAIN (PAN)            = ");
2080:.\console.c   **** 				ShowParamsGainAnaoutPan();			
2081:.\console.c   **** 				
2082:.\console.c   **** 				printf("AnalogOut Signal (color)     = ");
2083:.\console.c   **** 				ShowParamsColorPan();						
2084:.\console.c   **** 				printf("\r\n");				
2085:.\console.c   **** 				printf("\r\n");
2086:.\console.c   **** 				
2087:.\console.c   **** 				printf("alpha (compensation filter)  = ");
2088:.\console.c   **** 				printf("%8f (tau=%6u [msec])\r\n",(float)(gobee_param.alpha.fnum), CFtau(gobee_param.alpha.fnum
2089:.\console.c   **** 				printf("\r\n");
2090:.\console.c   **** 
ARM GAS  C:\Users\Graziano\AppData\Local\Temp\cccvomne.s 			page 46


2091:.\console.c   **** 				printf("beta  (accelerometer LPF)    = ");
2092:.\console.c   **** 				printf("%8f (tau=%1.4f [msec])",(float)(gobee_param.beta.fnum), LPFtau(gobee_param.beta.fnum));
2093:.\console.c   **** 				printf(" (fc=%1.4f [Hz])\r\n", (float) (6283.185 / (float)LPFtau(gobee_param.beta.fnum)));				
2094:.\console.c   **** 				printf("\r\n");
2095:.\console.c   **** 
2096:.\console.c   **** 				printf("gamma  (analog gyro LPF)     = ");
2097:.\console.c   **** 				printf("%1.6f (tau=%1.3f [msec])",(float)(gobee_param.gamma.fnum), (float)(LPFtau(gobee_param.g
2098:.\console.c   **** 				printf(" (fc=%1.0f [Hz]) (HW BTWH = 230Hz)\r\n", (float) (LPFfreq(gobee_param.gamma.fnum)));			
2099:.\console.c   **** 				printf("\r\n");
2100:.\console.c   **** 
2101:.\console.c   **** 				printf("Analog Gyro Scale Sensivity  = ");
2102:.\console.c   **** 				printf("%1.6f",(double)(gobee_param.ana_gyro_scale_sensivity.fnum));
2103:.\console.c   **** 				printf("\r\n");	
2104:.\console.c   **** 				
2105:.\console.c   **** 				printf("Analog Gyro Null Offset Fine = ");
2106:.\console.c   **** 				printf("%1.6f [deg/sec]",(float)(gobee_param.gyro_offset_fine.fnum));
2107:.\console.c   **** 				printf("\r\n");	
2108:.\console.c   **** 
2109:.\console.c   **** //				printf("Digital Gyro Null Offset Fine= ");
2110:.\console.c   **** //				printf("%1.6f [deg/sec]",(float)(gobee_param.dgyro_offset_fine.fnum));
2111:.\console.c   **** //				printf("\r\n");	
2112:.\console.c   **** 
2113:.\console.c   **** 				printf("Analog Accel. X ADC Offset   = ");
2114:.\console.c   **** 				printf("%4d [lsb]",(int16)(gobee_param.x_acc_ADC_offset));
2115:.\console.c   **** 				printf("\r\n");	
2116:.\console.c   **** 				
2117:.\console.c   **** 				printf("Analog Accel. Y ADC Offset   = ");
2118:.\console.c   **** 				printf("%4d [lsb]",(int16)(gobee_param.y_acc_ADC_offset));
2119:.\console.c   **** 				printf("\r\n");
2120:.\console.c   **** 				
2121:.\console.c   **** 				printf("Analog Accel. Z ADC Offset   = ");
2122:.\console.c   **** 				printf("%4d [lsb]",(int16)(gobee_param.z_acc_ADC_offset));
2123:.\console.c   **** 				printf("\r\n");				
2124:.\console.c   **** 				printf("\r\n");	
2125:.\console.c   **** 				
2126:.\console.c   **** 				printf("Feedback Type                = ");
2127:.\console.c   **** 				printf("%4u ",(uint16)(gobee_param.feedback));
2128:.\console.c   **** 				
2129:.\console.c   **** 				if (gobee_param.feedback == FBK_ANALOG_GYRO_RATE)
2130:.\console.c   **** 				{
2131:.\console.c   **** 					printf("(analog gyro rate = velocity feedback)");
2132:.\console.c   **** 				}
2133:.\console.c   **** 				else if (gobee_param.feedback == FBK_ANALOG_GYRO_ANGLE)
2134:.\console.c   **** 				{
2135:.\console.c   **** 					printf("(analog gyro angle = position feedback)");
2136:.\console.c   **** 				}
2137:.\console.c   **** 				else if (gobee_param.feedback == FBK_ENCODER_POSITION)
2138:.\console.c   **** 				{
2139:.\console.c   **** 					printf("(encoder position = position feedback)");
2140:.\console.c   **** 				}
2141:.\console.c   **** 				else if (gobee_param.feedback == FBK_ENCODER_VELOCITY)
2142:.\console.c   **** 				{
2143:.\console.c   **** 					printf("(encoder velocity = velocity feedback)");
2144:.\console.c   **** 				}				
2145:.\console.c   **** 				else
2146:.\console.c   **** 				{
2147:.\console.c   **** 					printf("(open loop)");
ARM GAS  C:\Users\Graziano\AppData\Local\Temp\cccvomne.s 			page 47


2148:.\console.c   **** 				}
2149:.\console.c   **** 
2150:.\console.c   **** 				printf("\r\n");
2151:.\console.c   **** 				printf("\r\n");				
2152:.\console.c   **** 				printf("Events Parameters\r\n");
2153:.\console.c   **** 				printf("=================\r\n");				
2154:.\console.c   **** 				
2155:.\console.c   **** 				printf("Jump G Threshold             = ");
2156:.\console.c   **** 				printf("%8f [g]",(float)(gobee_param.jump_g_threshold.fnum));				
2157:.\console.c   **** 				
2158:.\console.c   **** 				printf("\r\n");
2159:.\console.c   **** 				printf("\r\n");
2160:.\console.c   **** 				
2161:.\console.c   **** 				goto exitpars;
2162:.\console.c   **** 			}
2163:.\console.c   **** 		goto exitpars;	
2164:.\console.c   **** 		}
2165:.\console.c   **** 		
2166:.\console.c   **** 		
2167:.\console.c   **** 		/* CMD MOVEPATH */
2168:.\console.c   **** 		if ((strcmp(actual_cmd.action, "movepath") == 0) ||
2169:.\console.c   **** 		   (strcmp(actual_cmd.action, "movep") == 0))
2170:.\console.c   **** 		{	
2171:.\console.c   **** 			if (((path_n = atoi(actual_cmd.parameter)) >= 0)
2172:.\console.c   **** 			&& (path_n = atoi(actual_cmd.parameter)) <= PATH_N_MAX-1)
2173:.\console.c   **** 			{
2174:.\console.c   **** 				if (machine_state == GOBEE_ENERGIZED)
2175:.\console.c   **** 				{
2176:.\console.c   **** 					printf("Path %2i Mover START!\r\n", (int16)path_n);				
2177:.\console.c   **** 					MoverStart(path_n);	/* Initialize & Start the Mover over path n		*/
2178:.\console.c   **** 					
2179:.\console.c   **** 					while (AnyButtonPressed() == NO_PRESSED)
2180:.\console.c   **** 					{
2181:.\console.c   **** 						//print . every 1 sec
2182:.\console.c   **** 						if (mover.ticks % MOVER_FREQ)
2183:.\console.c   **** 						printf(".");
2184:.\console.c   **** 						
2185:.\console.c   **** 						if (mover.status == MOVER_ENDED)
2186:.\console.c   **** 						{
2187:.\console.c   **** 							printf("\r\nPath %2i Mover END!\r\n", (int16)path_n);						
2188:.\console.c   **** 							goto exitpars;
2189:.\console.c   **** 						}
2190:.\console.c   **** 					}
2191:.\console.c   **** 				}
2192:.\console.c   **** 				else
2193:.\console.c   **** 				{
2194:.\console.c   **** 					printf("Mover Not Started: energize the Gobee before!\r\n");	
2195:.\console.c   **** 				}
2196:.\console.c   **** 			}
2197:.\console.c   **** 			else
2198:.\console.c   **** 			{
2199:.\console.c   **** 				printf(STR_ERROR5);				/* ERROR5: Number not allowed */
2200:.\console.c   **** 			}
2201:.\console.c   **** 			goto exitpars;	
2202:.\console.c   **** 		}	
2203:.\console.c   **** 
2204:.\console.c   **** 		
ARM GAS  C:\Users\Graziano\AppData\Local\Temp\cccvomne.s 			page 48


2205:.\console.c   **** 		/* CMD GOTOHOME */
2206:.\console.c   **** 		if ((strcmp(actual_cmd.action, "gotohome") == 0) ||
2207:.\console.c   **** 		   (strcmp(actual_cmd.action, "gotoh") == 0))
2208:.\console.c   **** 		{	
2209:.\console.c   **** 			if (machine_state == GOBEE_ENERGIZED)
2210:.\console.c   **** 			{
2211:.\console.c   **** 				printf("Goto Home Mover START!\r\n");	
2212:.\console.c   **** 				InitGotoHomePath();						/* initialize the Goto Home Path					*/
2213:.\console.c   **** 				CalculateGotoHomePath();				/* Calculate the Goto Home Path 					*/
2214:.\console.c   **** 				MoverStart(PATH_GOTOHOME_N);			/* Initialize & Start the Mover over path to Home	*/
2215:.\console.c   **** 				
2216:.\console.c   **** 				while (AnyButtonPressed() == NO_PRESSED)
2217:.\console.c   **** 				{
2218:.\console.c   **** 					//print . every 1 sec
2219:.\console.c   **** 					if (mover.ticks % MOVER_FREQ)
2220:.\console.c   **** 					printf(".");
2221:.\console.c   **** 					
2222:.\console.c   **** 					if (mover.status == MOVER_ENDED)
2223:.\console.c   **** 					{
2224:.\console.c   **** 						printf("\r\nGoto Home Mover END!\r\n");						
2225:.\console.c   **** 						goto exitpars;
2226:.\console.c   **** 					}
2227:.\console.c   **** 				}
2228:.\console.c   **** 			}
2229:.\console.c   **** 			else
2230:.\console.c   **** 			{
2231:.\console.c   **** 				printf("Goto Home Mover Not Started: energize the Gobee before!\r\n");	
2232:.\console.c   **** 			}
2233:.\console.c   **** 			goto exitpars;	
2234:.\console.c   **** 		}			
2235:.\console.c   **** 
2236:.\console.c   **** 		
2237:.\console.c   **** 		/* CMD CIAK */
2238:.\console.c   **** 		if (strcmp(actual_cmd.action, "ciak") == 0)
2239:.\console.c   **** 		{	
2240:.\console.c   **** 			if (machine_state == GOBEE_ENERGIZED)
2241:.\console.c   **** 			{
2242:.\console.c   **** 				int8 ciak_num = 2;	/* ciak path iterations */
2243:.\console.c   **** 				
2244:.\console.c   **** 				printf("CIAK Mover START!\r\n");	
2245:.\console.c   **** 				MoverStart(5);				/* Initialize & Start the Mover over path 5	*/
2246:.\console.c   **** 				
2247:.\console.c   **** 				while (AnyButtonPressed() == NO_PRESSED)
2248:.\console.c   **** 				{
2249:.\console.c   **** 					//print . every 1 sec
2250:.\console.c   **** 					if (mover.ticks % MOVER_FREQ)
2251:.\console.c   **** 					printf(".");
2252:.\console.c   **** 					
2253:.\console.c   **** 					if (mover.status == MOVER_ENDED)
2254:.\console.c   **** 					{
2255:.\console.c   **** 						ciak_num--;
2256:.\console.c   **** 						if (ciak_num>0)
2257:.\console.c   **** 						{
2258:.\console.c   **** 							MoverStart(5);				/* Redo CIAK */
2259:.\console.c   **** 						}
2260:.\console.c   **** 						else
2261:.\console.c   **** 						{
ARM GAS  C:\Users\Graziano\AppData\Local\Temp\cccvomne.s 			page 49


2262:.\console.c   **** 						printf("\r\nCIAK Mover END!\r\n");						
2263:.\console.c   **** 						goto exitpars;
2264:.\console.c   **** 						}
2265:.\console.c   **** 					}
2266:.\console.c   **** 				}
2267:.\console.c   **** 			}
2268:.\console.c   **** 			else
2269:.\console.c   **** 			{
2270:.\console.c   **** 				printf("CIAK Mover Not Started: energize the Gobee before!\r\n");	
2271:.\console.c   **** 			}
2272:.\console.c   **** 			goto exitpars;	
2273:.\console.c   **** 		}					
2274:.\console.c   **** 		
2275:.\console.c   **** 		
2276:.\console.c   **** 		/* CMD SET*/
2277:.\console.c   **** 		if (strcmp(actual_cmd.action, "set") == 0)
2278:.\console.c   **** 		{
2279:.\console.c   **** 			if (strlen(actual_cmd.parameter) == 0)
2280:.\console.c   **** 			{
2281:.\console.c   **** 				printf(STR_ERROR2);		/* ERROR2: more parameters needed! */
2282:.\console.c   **** 			}
2283:.\console.c   **** 			else
2284:.\console.c   **** 			{
2285:.\console.c   **** 				// SET DIRECTOR
2286:.\console.c   **** 				if ((strcmp(actual_cmd.parameter, "director") == 0) ||
2287:.\console.c   **** 					(strcmp(actual_cmd.parameter, "dir") == 0))
2288:.\console.c   **** 				{	
2289:.\console.c   **** 					if (((director = atoi(actual_cmd.number1)) >= AKIRA)
2290:.\console.c   **** 					&& (director = atoi(actual_cmd.number1)) <= JJ)
2291:.\console.c   **** 					{
2292:.\console.c   **** 						gobee_param.director = director;
2293:.\console.c   **** 						
2294:.\console.c   **** 						/* Writes Burst Period on EEPROM */
2295:.\console.c   **** 						dummy = WriteAllEEparams();
2296:.\console.c   **** 						printf(STR_REM_SEDR, (uint16)director);   /* REM: director setted to...*/
2297:.\console.c   **** 						ShowParamsDirector();
2298:.\console.c   **** 					}
2299:.\console.c   **** 					else
2300:.\console.c   **** 					{
2301:.\console.c   **** 						printf(STR_ERROR5);				/* ERROR5: Number not allowed */
2302:.\console.c   **** 					}
2303:.\console.c   **** 					goto exitpars;
2304:.\console.c   **** 				}	
2305:.\console.c   **** 				// END SET DIRECTOR
2306:.\console.c   **** 				
2307:.\console.c   **** 				
2308:.\console.c   **** 				// SET PAN MOTOR POLARITY
2309:.\console.c   **** 				if ((strcmp(actual_cmd.parameter, "polarityp") == 0) ||
2310:.\console.c   **** 					(strcmp(actual_cmd.parameter, "polp") == 0))
2311:.\console.c   **** 				{	
2312:.\console.c   **** 					if (((polarity = atoi(actual_cmd.number1)) >= 0)
2313:.\console.c   **** 					&& (polarity = atoi(actual_cmd.number1)) <= 1)
2314:.\console.c   **** 					{
2315:.\console.c   **** 						pan_axis.param.polarity = polarity;
2316:.\console.c   **** 						
2317:.\console.c   **** 						/* Writes Burst Period on EEPROM */
2318:.\console.c   **** 						dummy = WriteAllEEparams();
ARM GAS  C:\Users\Graziano\AppData\Local\Temp\cccvomne.s 			page 50


2319:.\console.c   **** 						printf(STR_REM_SETP, (uint16)polarity);   /* REM: pan axis polarity setted to...*/					
2320:.\console.c   **** 					}
2321:.\console.c   **** 					else
2322:.\console.c   **** 					{
2323:.\console.c   **** 						printf(STR_ERROR5);				/* ERROR5: Number not allowed */
2324:.\console.c   **** 					}
2325:.\console.c   **** 					goto exitpars;
2326:.\console.c   **** 				}	
2327:.\console.c   **** 				// END PAN MOTOR POLARITY
2328:.\console.c   **** 
2329:.\console.c   **** 				
2330:.\console.c   **** 				// SET TILT MOTOR POLARITY
2331:.\console.c   **** 				if ((strcmp(actual_cmd.parameter, "polarityt") == 0) ||
2332:.\console.c   **** 					(strcmp(actual_cmd.parameter, "polt") == 0))
2333:.\console.c   **** 				{	
2334:.\console.c   **** 					if (((polarity = atoi(actual_cmd.number1)) >= 0)
2335:.\console.c   **** 					&& (polarity = atoi(actual_cmd.number1)) <= 1)
2336:.\console.c   **** 					{
2337:.\console.c   **** 						tilt_axis.param.polarity = polarity;
2338:.\console.c   **** 						
2339:.\console.c   **** 						/* Writes Burst Period on EEPROM */
2340:.\console.c   **** 						dummy = WriteAllEEparams();
2341:.\console.c   **** 						printf(STR_REM_SETPT, (uint16)polarity);   /* REM: tilt axis polarity setted to...*/					
2342:.\console.c   **** 					}
2343:.\console.c   **** 					else
2344:.\console.c   **** 					{
2345:.\console.c   **** 						printf(STR_ERROR5);				/* ERROR5: Number not allowed */
2346:.\console.c   **** 					}
2347:.\console.c   **** 					goto exitpars;
2348:.\console.c   **** 				}	
2349:.\console.c   **** 				// END TILT MOTOR POLARITY
2350:.\console.c   **** 				
2351:.\console.c   **** 				
2352:.\console.c   **** 				// SET GOBEE FEEDBACK TYPE
2353:.\console.c   **** 				if ((strcmp(actual_cmd.parameter, "feedback") == 0) ||
2354:.\console.c   **** 					(strcmp(actual_cmd.parameter, "fbk") == 0))
2355:.\console.c   **** 				{	
2356:.\console.c   **** 					if (((feedback_type = atoi(actual_cmd.number1)) >= FBK_OPEN_LOOP)
2357:.\console.c   **** 					&& (feedback_type = atoi(actual_cmd.number1)) <= FBK_ENCODER_VELOCITY)
2358:.\console.c   **** 					{
2359:.\console.c   **** 						gobee_param.feedback = feedback_type;
2360:.\console.c   **** 						
2361:.\console.c   **** 						/* Writes parameter on EEPROM */
2362:.\console.c   **** 						dummy = WriteAllEEparams();
2363:.\console.c   **** 						printf(STR_REM_FBK, (uint16)gobee_param.feedback);   /* REM: Gobee Feedback Type setted to...
2364:.\console.c   **** 					}
2365:.\console.c   **** 					else
2366:.\console.c   **** 					{
2367:.\console.c   **** 						printf(STR_ERROR5);				/* ERROR5: Number not allowed */
2368:.\console.c   **** 					}
2369:.\console.c   **** 					goto exitpars;
2370:.\console.c   **** 				}	
2371:.\console.c   **** 				// END GOBEE FEEDBACK TYPE
2372:.\console.c   **** 				
2373:.\console.c   **** 				
2374:.\console.c   **** 				// SET PAN MOTOR Kp
2375:.\console.c   **** 				if (strcmp(actual_cmd.parameter, "kpp") == 0)
ARM GAS  C:\Users\Graziano\AppData\Local\Temp\cccvomne.s 			page 51


2376:.\console.c   **** 				{	
2377:.\console.c   **** 					if (((Kp = atof(actual_cmd.number1)) >= 0)
2378:.\console.c   **** 					&& (Kp = atof(actual_cmd.number1)) <= 100)
2379:.\console.c   **** 					{
2380:.\console.c   **** 						pan_axis.param.Kpf.fnum = Kp;
2381:.\console.c   **** 						
2382:.\console.c   **** 						/* Writes Kp on EEPROM */
2383:.\console.c   **** 						dummy = WriteAllEEparams();
2384:.\console.c   **** 						printf(STR_REM_PMKP, (float)pan_axis.param.Kpf.fnum);   /* REM: Pan Motor Kp setted to...*/		
2385:.\console.c   **** 					}
2386:.\console.c   **** 					else
2387:.\console.c   **** 					{
2388:.\console.c   **** 						printf(STR_ERROR5);				/* ERROR5: Number not allowed */
2389:.\console.c   **** 					}
2390:.\console.c   **** 					goto exitpars;
2391:.\console.c   **** 				}	
2392:.\console.c   **** 				// END SET PAN MOTOR Kp
2393:.\console.c   **** 
2394:.\console.c   **** 				
2395:.\console.c   **** 				// SET TILT MOTOR Kp
2396:.\console.c   **** 				if (strcmp(actual_cmd.parameter, "kpt") == 0)
2397:.\console.c   **** 				{	
2398:.\console.c   **** 					if (((Kp = atof(actual_cmd.number1)) >= 0)
2399:.\console.c   **** 					&& (Kp = atof(actual_cmd.number1)) <= 100)
2400:.\console.c   **** 					{
2401:.\console.c   **** 						tilt_axis.param.Kpf.fnum = Kp;
2402:.\console.c   **** 						
2403:.\console.c   **** 						/* Writes Kp on EEPROM */
2404:.\console.c   **** 						dummy = WriteAllEEparams();
2405:.\console.c   **** 						printf(STR_REM_TMKP, (float)tilt_axis.param.Kpf.fnum);   /* REM: Tilt Motor Kp setted to...*/
2406:.\console.c   **** 					}
2407:.\console.c   **** 					else
2408:.\console.c   **** 					{
2409:.\console.c   **** 						printf(STR_ERROR5);				/* ERROR5: Number not allowed */
2410:.\console.c   **** 					}
2411:.\console.c   **** 					goto exitpars;
2412:.\console.c   **** 				}	
2413:.\console.c   **** 				// END SET TILT MOTOR Kp				
2414:.\console.c   **** 				
2415:.\console.c   **** 				
2416:.\console.c   **** 				// SET PAN MOTOR Kd
2417:.\console.c   **** 				if (strcmp(actual_cmd.parameter, "kdp") == 0)
2418:.\console.c   **** 				{	
2419:.\console.c   **** 					if (((Kd = atof(actual_cmd.number1)) >= 0)
2420:.\console.c   **** 					&& (Kd = atof(actual_cmd.number1)) <= 1000)
2421:.\console.c   **** 					{
2422:.\console.c   **** 						pan_axis.param.Kdf.fnum = Kd;
2423:.\console.c   **** 						
2424:.\console.c   **** 						/* Writes Kp on EEPROM */
2425:.\console.c   **** 						dummy = WriteAllEEparams();
2426:.\console.c   **** 						printf(STR_REM_PMKD, (float)pan_axis.param.Kdf.fnum);   /* REM: Pan Motor Kd setted to...*/		
2427:.\console.c   **** 					}
2428:.\console.c   **** 					else
2429:.\console.c   **** 					{
2430:.\console.c   **** 						printf(STR_ERROR5);				/* ERROR5: Number not allowed */
2431:.\console.c   **** 					}
2432:.\console.c   **** 					goto exitpars;
ARM GAS  C:\Users\Graziano\AppData\Local\Temp\cccvomne.s 			page 52


2433:.\console.c   **** 				}	
2434:.\console.c   **** 				// END SET PAN MOTOR Kd
2435:.\console.c   **** 
2436:.\console.c   **** 				
2437:.\console.c   **** 				// SET TILT MOTOR Kd
2438:.\console.c   **** 				if (strcmp(actual_cmd.parameter, "kdt") == 0)
2439:.\console.c   **** 				{	
2440:.\console.c   **** 					if (((Kd = atof(actual_cmd.number1)) >= 0)
2441:.\console.c   **** 					&& (Kd = atof(actual_cmd.number1)) <= 1000)
2442:.\console.c   **** 					{
2443:.\console.c   **** 						tilt_axis.param.Kdf.fnum = Kd;
2444:.\console.c   **** 						
2445:.\console.c   **** 						/* Writes Kp on EEPROM */
2446:.\console.c   **** 						dummy = WriteAllEEparams();
2447:.\console.c   **** 						printf(STR_REM_TMKD, (float)tilt_axis.param.Kdf.fnum);   /* REM: Tilt Motor Kd setted to...*/
2448:.\console.c   **** 					}
2449:.\console.c   **** 					else
2450:.\console.c   **** 					{
2451:.\console.c   **** 						printf(STR_ERROR5);				/* ERROR5: Number not allowed */
2452:.\console.c   **** 					}
2453:.\console.c   **** 					goto exitpars;
2454:.\console.c   **** 				}	
2455:.\console.c   **** 				// END SET TILT MOTOR Kd				
2456:.\console.c   **** 				
2457:.\console.c   **** 				
2458:.\console.c   **** 				// SET PAN MOTOR Ki
2459:.\console.c   **** 				if (strcmp(actual_cmd.parameter, "kip") == 0)
2460:.\console.c   **** 				{	
2461:.\console.c   **** 					if (((Ki = atof(actual_cmd.number1)) >= 0)
2462:.\console.c   **** 					&& (Ki = atof(actual_cmd.number1)) <= 100)
2463:.\console.c   **** 					{
2464:.\console.c   **** 						pan_axis.param.Kif.fnum = Ki;
2465:.\console.c   **** 						
2466:.\console.c   **** 						/* Writes Ki on EEPROM */
2467:.\console.c   **** 						dummy = WriteAllEEparams();
2468:.\console.c   **** 						printf(STR_REM_PMKI, (float)pan_axis.param.Kif.fnum);   /* REM: Pan Motor Ki setted to...*/		
2469:.\console.c   **** 					}
2470:.\console.c   **** 					else
2471:.\console.c   **** 					{
2472:.\console.c   **** 						printf(STR_ERROR5);				/* ERROR5: Number not allowed */
2473:.\console.c   **** 					}
2474:.\console.c   **** 					goto exitpars;
2475:.\console.c   **** 				}	
2476:.\console.c   **** 				// END SET PAN MOTOR Ki
2477:.\console.c   **** 
2478:.\console.c   **** 				
2479:.\console.c   **** 				// SET TILT MOTOR Ki
2480:.\console.c   **** 				if (strcmp(actual_cmd.parameter, "kit") == 0)
2481:.\console.c   **** 				{	
2482:.\console.c   **** 					if (((Ki = atof(actual_cmd.number1)) >= 0)
2483:.\console.c   **** 					&& (Ki = atof(actual_cmd.number1)) <= 100)
2484:.\console.c   **** 					{
2485:.\console.c   **** 						tilt_axis.param.Kif.fnum = Ki;
2486:.\console.c   **** 						
2487:.\console.c   **** 						/* Writes Ki on EEPROM */
2488:.\console.c   **** 						dummy = WriteAllEEparams();
2489:.\console.c   **** 						printf(STR_REM_TMKI, (float)tilt_axis.param.Kif.fnum);   /* REM: Tilt Motor Ki setted to...*/
ARM GAS  C:\Users\Graziano\AppData\Local\Temp\cccvomne.s 			page 53


2490:.\console.c   **** 					}
2491:.\console.c   **** 					else
2492:.\console.c   **** 					{
2493:.\console.c   **** 						printf(STR_ERROR5);				/* ERROR5: Number not allowed */
2494:.\console.c   **** 					}
2495:.\console.c   **** 					goto exitpars;
2496:.\console.c   **** 				}	
2497:.\console.c   **** 				// END SET TILT MOTOR Ki				
2498:.\console.c   **** 				
2499:.\console.c   **** 				
2500:.\console.c   **** 				// SET PAN MOTOR Ksi
2501:.\console.c   **** 				if (strcmp(actual_cmd.parameter, "ksip") == 0)
2502:.\console.c   **** 				{	
2503:.\console.c   **** 					if (((Ksi = atof(actual_cmd.number1)) >= 0)
2504:.\console.c   **** 					&& (Ksi = atof(actual_cmd.number1)) <= 1000000)
2505:.\console.c   **** 					{
2506:.\console.c   **** 						pan_axis.param.Ksif.fnum = Ksi;
2507:.\console.c   **** 						
2508:.\console.c   **** 						/* Writes Ksi on EEPROM */
2509:.\console.c   **** 						dummy = WriteAllEEparams();
2510:.\console.c   **** 						printf(STR_REM_PMKS, (float)pan_axis.param.Ksif.fnum);   /* REM: Pan Motor Ksi setted to...*/
2511:.\console.c   **** 					}
2512:.\console.c   **** 					else
2513:.\console.c   **** 					{
2514:.\console.c   **** 						printf(STR_ERROR5);				/* ERROR5: Number not allowed */
2515:.\console.c   **** 					}
2516:.\console.c   **** 					goto exitpars;
2517:.\console.c   **** 				}	
2518:.\console.c   **** 				// END SET PAN MOTOR Ksi
2519:.\console.c   **** 
2520:.\console.c   **** 				
2521:.\console.c   **** 				// SET TILT MOTOR Ksi
2522:.\console.c   **** 				if (strcmp(actual_cmd.parameter, "ksit") == 0)
2523:.\console.c   **** 				{	
2524:.\console.c   **** 					if (((Ksi = atof(actual_cmd.number1)) >= 0)
2525:.\console.c   **** 					&& (Ksi = atof(actual_cmd.number1)) <= 1000000)
2526:.\console.c   **** 					{
2527:.\console.c   **** 						tilt_axis.param.Ksif.fnum = Ksi;
2528:.\console.c   **** 						
2529:.\console.c   **** 						/* Writes Ksi on EEPROM */
2530:.\console.c   **** 						dummy = WriteAllEEparams();
2531:.\console.c   **** 						printf(STR_REM_TMKS, (float)tilt_axis.param.Ksif.fnum);   /* REM: Tilt Motor Ksi setted to...
2532:.\console.c   **** 					}
2533:.\console.c   **** 					else
2534:.\console.c   **** 					{
2535:.\console.c   **** 						printf(STR_ERROR5);				/* ERROR5: Number not allowed */
2536:.\console.c   **** 					}
2537:.\console.c   **** 					goto exitpars;
2538:.\console.c   **** 				}	
2539:.\console.c   **** 				// END SET TILT MOTOR Ksi				
2540:.\console.c   **** 				
2541:.\console.c   **** 				
2542:.\console.c   **** 				// SET PAN MOTOR COLOR
2543:.\console.c   **** 				if (strcmp(actual_cmd.parameter, "color") == 0)
2544:.\console.c   **** 				{	
2545:.\console.c   **** 					if (((color = atoi(actual_cmd.number1)) >= GYRO_RATE)
2546:.\console.c   **** 					&& (color = atoi(actual_cmd.number1)) <= CTRL_CV)
ARM GAS  C:\Users\Graziano\AppData\Local\Temp\cccvomne.s 			page 54


2547:.\console.c   **** 					{
2548:.\console.c   **** 						pan_axis.param.color = color;
2549:.\console.c   **** 						
2550:.\console.c   **** 						/* Writes Burst Period on EEPROM */
2551:.\console.c   **** 						dummy = WriteAllEEparams();
2552:.\console.c   **** 						printf(STR_REM_SCOL, (uint16)color);   /* REM: pan axis color setted to...*/					
2553:.\console.c   **** 					}
2554:.\console.c   **** 					else
2555:.\console.c   **** 					{
2556:.\console.c   **** 						printf(STR_ERROR5);				/* ERROR5: Number not allowed */
2557:.\console.c   **** 					}
2558:.\console.c   **** 					goto exitpars;
2559:.\console.c   **** 				}	
2560:.\console.c   **** 				// END PAN MOTOR COLOR
2561:.\console.c   **** 				
2562:.\console.c   **** 				
2563:.\console.c   **** 				// SET PAN MOTOR Kopf
2564:.\console.c   **** 				if (strcmp(actual_cmd.parameter, "kopf") == 0)
2565:.\console.c   **** 				{	
2566:.\console.c   **** 					if (((Kopf = atof(actual_cmd.number1)) >= 0)
2567:.\console.c   **** 					&& (Kopf = atof(actual_cmd.number1)) <= 10)
2568:.\console.c   **** 					{
2569:.\console.c   **** 						pan_axis.param.Kopf.fnum = Kopf;
2570:.\console.c   **** 						
2571:.\console.c   **** 						/* Writes Ksi on EEPROM */
2572:.\console.c   **** 						dummy = WriteAllEEparams();
2573:.\console.c   **** 						printf(STR_REM_PKOF, (float)pan_axis.param.Kopf.fnum);   /* REM: Pan Motor Kopf setted to...*
2574:.\console.c   **** 					}
2575:.\console.c   **** 					else
2576:.\console.c   **** 					{
2577:.\console.c   **** 						printf(STR_ERROR5);				/* ERROR5: Number not allowed */
2578:.\console.c   **** 					}
2579:.\console.c   **** 					goto exitpars;
2580:.\console.c   **** 				}	
2581:.\console.c   **** 				// END SET PAN MOTOR Kopf				
2582:.\console.c   **** 
2583:.\console.c   **** 				
2584:.\console.c   **** 				// SET PAN MOTOR Again
2585:.\console.c   **** 				if (strcmp(actual_cmd.parameter, "again") == 0)
2586:.\console.c   **** 				{	
2587:.\console.c   **** 					if (((anaout_gain = atof(actual_cmd.number1)) >= -1000)
2588:.\console.c   **** 					&& (anaout_gain = atof(actual_cmd.number1)) <= 1000)
2589:.\console.c   **** 					{
2590:.\console.c   **** 						pan_axis.param.Gain_ANAOUT.fnum = anaout_gain;
2591:.\console.c   **** 						
2592:.\console.c   **** 						/* Writes Ksi on EEPROM */
2593:.\console.c   **** 						dummy = WriteAllEEparams();
2594:.\console.c   **** 						printf(STR_REM_PAGA, (float)pan_axis.param.Gain_ANAOUT.fnum);   /* REM: Pan Motor Anaout Gain
2595:.\console.c   **** 					}
2596:.\console.c   **** 					else
2597:.\console.c   **** 					{
2598:.\console.c   **** 						printf(STR_ERROR5);				/* ERROR5: Number not allowed */
2599:.\console.c   **** 					}
2600:.\console.c   **** 					goto exitpars;
2601:.\console.c   **** 				}	
2602:.\console.c   **** 				// END SET PAN MOTOR Again					
2603:.\console.c   **** 				
ARM GAS  C:\Users\Graziano\AppData\Local\Temp\cccvomne.s 			page 55


2604:.\console.c   **** 				
2605:.\console.c   **** 				// SET KPLOWPASS
2606:.\console.c   **** 				if ((strcmp(actual_cmd.parameter, "kplowpass") == 0) ||
2607:.\console.c   **** 					(strcmp(actual_cmd.parameter, "kpl") == 0))
2608:.\console.c   **** 				{	
2609:.\console.c   **** 					if (((kplowpass = atoi(actual_cmd.number1)) >= 0)
2610:.\console.c   **** 					&& (kplowpass = atoi(actual_cmd.number1)) <= 1)
2611:.\console.c   **** 					{
2612:.\console.c   **** 						gobee_param.kplowpass = kplowpass;
2613:.\console.c   **** 						
2614:.\console.c   **** 						/* Writes Kp Low Pass flag on EEPROM */
2615:.\console.c   **** 						dummy = WriteAllEEparams();
2616:.\console.c   **** 						printf(STR_REM_SEKL, (uint16)kplowpass);   /* REM: kp Low Pass setted to...*/					
2617:.\console.c   **** 					}
2618:.\console.c   **** 					else
2619:.\console.c   **** 					{
2620:.\console.c   **** 						printf(STR_ERROR5);				/* ERROR5: Number not allowed */
2621:.\console.c   **** 					}
2622:.\console.c   **** 					goto exitpars;
2623:.\console.c   **** 				}	
2624:.\console.c   **** 				// END SET KP LOWPASS
2625:.\console.c   **** 
2626:.\console.c   **** 
2627:.\console.c   **** 				// SET ACC X AXIS ADC OFFSET
2628:.\console.c   **** 				if ((strcmp(actual_cmd.parameter, "aacxoffset") == 0) ||
2629:.\console.c   **** 					(strcmp(actual_cmd.parameter, "aacxof") == 0))
2630:.\console.c   **** 				{	
2631:.\console.c   **** 					if (((offset = atoi(actual_cmd.number1)) >= -150)
2632:.\console.c   **** 					&& (offset = atoi(actual_cmd.number1)) <= 150)
2633:.\console.c   **** 					{
2634:.\console.c   **** 						gobee_param.x_acc_ADC_offset = (int16)offset;
2635:.\console.c   **** 						
2636:.\console.c   **** 						/* Writes STEER DAC OFFSET on EEPROM */
2637:.\console.c   **** 						dummy = WriteAllEEparams();
2638:.\console.c   **** 						printf(STR_REM_SEAX, (int16)offset);   /* REM: ACC AXIS X ADC offset setted to...*/					
2639:.\console.c   **** 					}
2640:.\console.c   **** 					else
2641:.\console.c   **** 					{
2642:.\console.c   **** 						printf(STR_ERROR5);				/* ERROR5: Number not allowed */
2643:.\console.c   **** 					}
2644:.\console.c   **** 					goto exitpars;
2645:.\console.c   **** 				}	
2646:.\console.c   **** 				// END SET ACC X AXIS ADC OFFSET
2647:.\console.c   **** 
2648:.\console.c   **** 
2649:.\console.c   **** 				// SET ACC Y AXIS ADC OFFSET
2650:.\console.c   **** 				if ((strcmp(actual_cmd.parameter, "aacyoffset") == 0) ||
2651:.\console.c   **** 					(strcmp(actual_cmd.parameter, "aacyof") == 0))
2652:.\console.c   **** 				{	
2653:.\console.c   **** 					if (((offset = atoi(actual_cmd.number1)) >= -150)
2654:.\console.c   **** 					&& (offset = atoi(actual_cmd.number1)) <= 150)
2655:.\console.c   **** 					{
2656:.\console.c   **** 						gobee_param.y_acc_ADC_offset = (int16)offset;
2657:.\console.c   **** 						
2658:.\console.c   **** 						/* Writes STEER DAC OFFSET on EEPROM */
2659:.\console.c   **** 						dummy = WriteAllEEparams();
2660:.\console.c   **** 						printf(STR_REM_SEAY, (int16)offset);   /* REM: ACC AXIS Y ADC offset setted to...*/					
ARM GAS  C:\Users\Graziano\AppData\Local\Temp\cccvomne.s 			page 56


2661:.\console.c   **** 					}
2662:.\console.c   **** 					else
2663:.\console.c   **** 					{
2664:.\console.c   **** 						printf(STR_ERROR5);				/* ERROR5: Number not allowed */
2665:.\console.c   **** 					}
2666:.\console.c   **** 					goto exitpars;
2667:.\console.c   **** 				}	
2668:.\console.c   **** 				// END SET ACC Y AXIS ADC OFFSET
2669:.\console.c   **** 
2670:.\console.c   **** 				
2671:.\console.c   **** 				// SET ACC Z AXIS ADC OFFSET
2672:.\console.c   **** 				if ((strcmp(actual_cmd.parameter, "aaczoffset") == 0) ||
2673:.\console.c   **** 					(strcmp(actual_cmd.parameter, "aaczof") == 0))
2674:.\console.c   **** 				{	
2675:.\console.c   **** 					if (((offset = atoi(actual_cmd.number1)) >= -150)
2676:.\console.c   **** 					&& (offset = atoi(actual_cmd.number1)) <= 150)
2677:.\console.c   **** 					{
2678:.\console.c   **** 						gobee_param.z_acc_ADC_offset = (int16)offset;
2679:.\console.c   **** 						
2680:.\console.c   **** 						/* Writes STEER DAC OFFSET on EEPROM */
2681:.\console.c   **** 						dummy = WriteAllEEparams();
2682:.\console.c   **** 						printf(STR_REM_SEAZ, (int16)offset);   /* REM: ACC AXIS Z ADC offset setted to...*/					
2683:.\console.c   **** 					}
2684:.\console.c   **** 					else
2685:.\console.c   **** 					{
2686:.\console.c   **** 						printf(STR_ERROR5);				/* ERROR5: Number not allowed */
2687:.\console.c   **** 					}
2688:.\console.c   **** 					goto exitpars;
2689:.\console.c   **** 				}	
2690:.\console.c   **** 				// END SET ACC Z AXIS ADC OFFSET				
2691:.\console.c   **** 		
2692:.\console.c   **** 				
2693:.\console.c   **** 				// SET Digital Gyro Offset FINE
2694:.\console.c   **** 				if (strcmp(actual_cmd.parameter, "dgfine") == 0)
2695:.\console.c   **** 				{	
2696:.\console.c   **** 					if (((offset_fine = atof(actual_cmd.number1)) >= -10)
2697:.\console.c   **** 					&& (offset_fine = atof(actual_cmd.number1)) <= +10)
2698:.\console.c   **** 					{
2699:.\console.c   **** 						gobee_param.dgyro_offset_fine.fnum = offset_fine;
2700:.\console.c   **** 						
2701:.\console.c   **** 						/* Writes Ki on EEPROM */
2702:.\console.c   **** 						dummy = WriteAllEEparams();
2703:.\console.c   **** 						printf(STR_REM_STDF, (float)offset_fine);   /* REM: Digital Gyro Offset Fine...*/					
2704:.\console.c   **** 					}
2705:.\console.c   **** 					else
2706:.\console.c   **** 					{
2707:.\console.c   **** 						printf(STR_ERROR5);				/* ERROR5: Number not allowed */
2708:.\console.c   **** 					}
2709:.\console.c   **** 					goto exitpars;
2710:.\console.c   **** 				}	
2711:.\console.c   **** 				// END SET Digital Gyro Offset FINE
2712:.\console.c   **** 
2713:.\console.c   **** 
2714:.\console.c   **** 				// SET Analog Gyro Offset FINE
2715:.\console.c   **** 				if (strcmp(actual_cmd.parameter, "agfine") == 0)
2716:.\console.c   **** 				{	
2717:.\console.c   **** 					if (((offset_fine = atof(actual_cmd.number1)) >= -10)
ARM GAS  C:\Users\Graziano\AppData\Local\Temp\cccvomne.s 			page 57


2718:.\console.c   **** 					&& (offset_fine = atof(actual_cmd.number1)) <= +10)
2719:.\console.c   **** 					{
2720:.\console.c   **** 						gobee_param.gyro_offset_fine.fnum = offset_fine;
2721:.\console.c   **** 						
2722:.\console.c   **** 						/* Writes Ki on EEPROM */
2723:.\console.c   **** 						dummy = WriteAllEEparams();
2724:.\console.c   **** 						printf(STR_REM_STOF, (float)offset_fine);   /* REM: Analog Gyro Offset Fine...*/					
2725:.\console.c   **** 					}
2726:.\console.c   **** 					else
2727:.\console.c   **** 					{
2728:.\console.c   **** 						printf(STR_ERROR5);				/* ERROR5: Number not allowed */
2729:.\console.c   **** 					}
2730:.\console.c   **** 					goto exitpars;
2731:.\console.c   **** 				}	
2732:.\console.c   **** 				// END SET Analog Gyro Offset FINE
2733:.\console.c   **** 
2734:.\console.c   **** 
2735:.\console.c   **** //				// SET Analog Gyro Scale Offset FINE
2736:.\console.c   **** //				if (strcmp(actual_cmd.parameter, "agsfine") == 0)
2737:.\console.c   **** //				{	
2738:.\console.c   **** //					if (((offset_fine = atof(actual_cmd.number1)) >= -0.1)
2739:.\console.c   **** //					&& (offset_fine = atof(actual_cmd.number1)) <= +0.1)
2740:.\console.c   **** //					{
2741:.\console.c   **** //						gobee_param.gyro_scale_offset_fine.fnum = offset_fine;
2742:.\console.c   **** //						
2743:.\console.c   **** //						/* Writes Ki on EEPROM */
2744:.\console.c   **** //						dummy = WriteAllEEparams();
2745:.\console.c   **** //						printf(STR_REM_STSF, (float)offset_fine);   /* REM: Analog Gyro Scale Offset Fine...*/					
2746:.\console.c   **** //					}
2747:.\console.c   **** //					else
2748:.\console.c   **** //					{
2749:.\console.c   **** //						printf(STR_ERROR5);				/* ERROR5: Number not allowed */
2750:.\console.c   **** //					}
2751:.\console.c   **** //					goto exitpars;
2752:.\console.c   **** //				}	
2753:.\console.c   **** //				// END SET Analog Gyro Scale Offset FINE
2754:.\console.c   **** 
2755:.\console.c   **** 
2756:.\console.c   **** 
2757:.\console.c   **** 			// SET alpha
2758:.\console.c   **** 				if (strcmp(actual_cmd.parameter, "alpha") == 0)
2759:.\console.c   **** 				{	
2760:.\console.c   **** 					if (((alpha = atof(actual_cmd.number1)) >= 0)
2761:.\console.c   **** 					&& (alpha = atof(actual_cmd.number1)) <= 1)
2762:.\console.c   **** 					{
2763:.\console.c   **** 						gobee_param.alpha.fnum = alpha;
2764:.\console.c   **** 						
2765:.\console.c   **** 						/* Writes alpha on EEPROM */
2766:.\console.c   **** 						dummy = WriteAllEEparams();
2767:.\console.c   **** 						printf(STR_REM_STAL, (float)gobee_param.alpha.fnum);   /* REM: alpha setted to...*/					
2768:.\console.c   **** 					}
2769:.\console.c   **** 					else
2770:.\console.c   **** 					{
2771:.\console.c   **** 						printf(STR_ERROR5);				/* ERROR5: Number not allowed */
2772:.\console.c   **** 					}
2773:.\console.c   **** 					goto exitpars;
2774:.\console.c   **** 				}	
ARM GAS  C:\Users\Graziano\AppData\Local\Temp\cccvomne.s 			page 58


2775:.\console.c   **** 				// END SET alpha
2776:.\console.c   **** 				
2777:.\console.c   **** 				
2778:.\console.c   **** 			// SET beta
2779:.\console.c   **** 				if (strcmp(actual_cmd.parameter, "beta") == 0)
2780:.\console.c   **** 				{	
2781:.\console.c   **** 					if (((beta = atof(actual_cmd.number1)) >= 0)
2782:.\console.c   **** 					&& (beta = atof(actual_cmd.number1)) <= 1)
2783:.\console.c   **** 					{
2784:.\console.c   **** 						gobee_param.beta.fnum = beta;
2785:.\console.c   **** 						
2786:.\console.c   **** 						/* Writes alpha on EEPROM */
2787:.\console.c   **** 						dummy = WriteAllEEparams();
2788:.\console.c   **** 						printf(STR_REM_STAL, (float)gobee_param.beta.fnum);   /* REM: beta setted to...*/					
2789:.\console.c   **** 					}
2790:.\console.c   **** 					else
2791:.\console.c   **** 					{
2792:.\console.c   **** 						printf(STR_ERROR5);				/* ERROR5: Number not allowed */
2793:.\console.c   **** 					}
2794:.\console.c   **** 					goto exitpars;
2795:.\console.c   **** 				}	
2796:.\console.c   **** 				// END SET beta				
2797:.\console.c   **** 
2798:.\console.c   **** 				
2799:.\console.c   **** 				// SET gamma
2800:.\console.c   **** 				if (strcmp(actual_cmd.parameter, "gamma") == 0)
2801:.\console.c   **** 				{	
2802:.\console.c   **** 					if (((gamma = atof(actual_cmd.number1)) >= 0)
2803:.\console.c   **** 					&& (gamma = atof(actual_cmd.number1)) <= 1)
2804:.\console.c   **** 					{
2805:.\console.c   **** 						gobee_param.gamma.fnum = gamma;
2806:.\console.c   **** 						
2807:.\console.c   **** 						/* Writes alpha on EEPROM */
2808:.\console.c   **** 						dummy = WriteAllEEparams();
2809:.\console.c   **** 						printf(STR_REM_STGM, (float)gobee_param.gamma.fnum);   /* REM: gamma setted to...*/					
2810:.\console.c   **** 					}
2811:.\console.c   **** 					else
2812:.\console.c   **** 					{
2813:.\console.c   **** 						printf(STR_ERROR5);				/* ERROR5: Number not allowed */
2814:.\console.c   **** 					}
2815:.\console.c   **** 					goto exitpars;
2816:.\console.c   **** 				}	
2817:.\console.c   **** 				// END SET gamma
2818:.\console.c   **** 
2819:.\console.c   **** 				
2820:.\console.c   **** 				// SET Jump G Threshold
2821:.\console.c   **** 				if (strcmp(actual_cmd.parameter, "jumpth") == 0)
2822:.\console.c   **** 				{	
2823:.\console.c   **** 					if (((jump_g_th = atof(actual_cmd.number1)) >= 0)
2824:.\console.c   **** 					&& (jump_g_th = atof(actual_cmd.number1)) <= 1)
2825:.\console.c   **** 					{
2826:.\console.c   **** 						gobee_param.jump_g_threshold.fnum = jump_g_th;
2827:.\console.c   **** 						
2828:.\console.c   **** 						/* Writes alpha on EEPROM */
2829:.\console.c   **** 						dummy = WriteAllEEparams();
2830:.\console.c   **** 						printf(STR_REM_STJG, (float)gobee_param.jump_g_threshold.fnum);   /* REM: jump g thr setted t
2831:.\console.c   **** 					}
ARM GAS  C:\Users\Graziano\AppData\Local\Temp\cccvomne.s 			page 59


2832:.\console.c   **** 					else
2833:.\console.c   **** 					{
2834:.\console.c   **** 						printf(STR_ERROR5);				/* ERROR5: Number not allowed */
2835:.\console.c   **** 					}
2836:.\console.c   **** 					goto exitpars;
2837:.\console.c   **** 				}	
2838:.\console.c   **** 				// END SET Jump G Threshold				
2839:.\console.c   **** 				
2840:.\console.c   **** 				
2841:.\console.c   **** 				// SET Analog Gyro Scale SENSIVITY (+-10%)
2842:.\console.c   **** 				if ((strcmp(actual_cmd.parameter, "agsensivity") == 0) ||
2843:.\console.c   **** 					(strcmp(actual_cmd.parameter, "agsens") == 0))
2844:.\console.c   **** 				{	
2845:.\console.c   **** 					if (((sensivity_fine = atof(actual_cmd.number1)) >= +0.9)
2846:.\console.c   **** 					&& (sensivity_fine = atof(actual_cmd.number1)) <= +1.1)
2847:.\console.c   **** 					{
2848:.\console.c   **** 						gobee_param.ana_gyro_scale_sensivity.fnum = sensivity_fine;
2849:.\console.c   **** 						
2850:.\console.c   **** 						/* Writes Ki on EEPROM */
2851:.\console.c   **** 						dummy = WriteAllEEparams();
2852:.\console.c   **** 						printf(STR_REM_STSF, (double)sensivity_fine);   /* REM: Analog Gyro Scale Sensivity Fine...*/
2853:.\console.c   **** 					}
2854:.\console.c   **** 					else
2855:.\console.c   **** 					{
2856:.\console.c   **** 						printf(STR_ERROR5);				/* ERROR5: Number not allowed */
2857:.\console.c   **** 					}
2858:.\console.c   **** 					goto exitpars;
2859:.\console.c   **** 				}	
2860:.\console.c   **** 				// END SET Analog Gyro Scale Offset FINE
2861:.\console.c   **** 	
2862:.\console.c   **** 				
2863:.\console.c   **** 				// SET ASTIM TYPE
2864:.\console.c   **** 				if ((strcmp(actual_cmd.parameter, "astim") == 0) ||
2865:.\console.c   **** 				   (strcmp(actual_cmd.parameter, "astimtype") == 0)) 
2866:.\console.c   **** 				{	
2867:.\console.c   **** 					if (((astim_type = atoi(actual_cmd.number1)) >= NO_ASTIM)
2868:.\console.c   **** 					&& (astim_type = atoi(actual_cmd.number1)) <= SQUARE_ASTIM)
2869:.\console.c   **** 					{		
2870:.\console.c   **** 			
2871:.\console.c   **** 						if (astim_type != 0)
2872:.\console.c   **** 						{
2873:.\console.c   **** 							printf(STR_ASTIMA);				/* DANGER!!! PROMPT					*/
2874:.\console.c   **** 							printf(STR_ASTIMB);				//
2875:.\console.c   **** 							
2876:.\console.c   **** 							if (ButtonYNChoice(ECHO_ON) == _NO)
2877:.\console.c   **** 							{
2878:.\console.c   **** 								goto exitpars;
2879:.\console.c   **** 							}
2880:.\console.c   **** 							printf("\r\n");
2881:.\console.c   **** 						}
2882:.\console.c   **** 						
2883:.\console.c   **** 						/* Update Global Volatile Parameter		*/
2884:.\console.c   **** 						pan_axis.vparam.astim_type = astim_type;
2885:.\console.c   **** 						
2886:.\console.c   **** 						printf(STR_REM_ASTP, (uint16)astim_type);   /* REM: PAN Astim Type Configured to...*/	
2887:.\console.c   **** 						//ShowAstimConfigVerbose(astim_type);	
2888:.\console.c   **** 						
ARM GAS  C:\Users\Graziano\AppData\Local\Temp\cccvomne.s 			page 60


2889:.\console.c   **** 						if (astim_type == SINE_ASTIM)
2890:.\console.c   **** 						{
2891:.\console.c   **** 							WaveDAC8_Wave1Setup(WaveDAC8_wave_sine, WaveDAC8_WAVE_SINE_LENGTH);	//SELECTS SINE						
2892:.\console.c   **** 							WaveDAC8_Start();					//Starts WaveDAC8
2893:.\console.c   **** 							printf("Sine Wave Astim Started!\r\n");							
2894:.\console.c   **** 						}
2895:.\console.c   **** 						else if (astim_type == TRIANGLE_ASTIM)
2896:.\console.c   **** 						{
2897:.\console.c   **** 							WaveDAC8_Wave1Setup(WaveDAC8_wave_triangle, WaveDAC8_WAVE_TRIANGLE_LENGTH);	//SELECTS TRIANG
2898:.\console.c   **** 							WaveDAC8_Start();					//Starts WaveDAC8
2899:.\console.c   **** 							printf("Triangle Wave Astim Started!\r\n");								
2900:.\console.c   **** 						}
2901:.\console.c   **** 						else if (astim_type == SQUARE_ASTIM)
2902:.\console.c   **** 						{
2903:.\console.c   **** 							WaveDAC8_Wave1Setup(WaveDAC8_wave_square, WaveDAC8_WAVE_SQUARE_LENGTH);	//SELECTS SQUARE
2904:.\console.c   **** 							WaveDAC8_Start();					//Starts WaveDAC8
2905:.\console.c   **** 							printf("Square Wave Astim Started!\r\n");								
2906:.\console.c   **** 						}						
2907:.\console.c   **** 						else if (astim_type == NO_ASTIM)
2908:.\console.c   **** 						{
2909:.\console.c   **** 							//Stops WaveDAC8
2910:.\console.c   **** 							WaveDAC8_Stop();
2911:.\console.c   **** 							printf("Wave Astim Stopped!\r\n");							
2912:.\console.c   **** 						}
2913:.\console.c   **** 						
2914:.\console.c   **** //						/* Autozero anapos offset when change Astim types				*/
2915:.\console.c   **** //						/* anapos_offset <-- correct value to zero oscilloscope output 	*/
2916:.\console.c   **** //						anapos_offset = GetAnaposOffsetZero();							
2917:.\console.c   **** 					}
2918:.\console.c   **** 					else
2919:.\console.c   **** 					{
2920:.\console.c   **** 						printf(STR_ERROR5);				/* ERROR5: Number not allowed */
2921:.\console.c   **** 					}
2922:.\console.c   **** 					goto exitpars;
2923:.\console.c   **** 				}	
2924:.\console.c   **** 				//END SET ASTIM
2925:.\console.c   **** 				
2926:.\console.c   **** 				
2927:.\console.c   **** //				// SET DEFAULT machine parameters
2928:.\console.c   **** //				if ((strcmp(actual_cmd.parameter, "default") == 0)
2929:.\console.c   **** //				|| (strcmp(actual_cmd.parameter, "defaults") == 0))
2930:.\console.c   **** //				{	
2931:.\console.c   **** //					if ((strlen(actual_cmd.number1)) == 0)
2932:.\console.c   **** //					{
2933:.\console.c   **** //						printf("Are you sure [Y/N]?");
2934:.\console.c   **** //						
2935:.\console.c   **** //						if (ButtonYNChoice(ECHO_ON) == _YES)
2936:.\console.c   **** //						{
2937:.\console.c   **** //							cys_param.nodeid = 1;					/* Default CAN/RS485 nodeid = 1 				*/
2938:.\console.c   **** //							cys_param.maxmotors = 8;				/* Default max motor number = 8 				*/
2939:.\console.c   **** //							cys_param.maxcurrent = 64; 				/* Default Medium Current 						*/
2940:.\console.c   **** //							cys_param.speed = VSTOP;				/* Default All Motor Stop 						*/
2941:.\console.c   **** //							cys_param.moveTimeoutms = 20000;		/* Default 20secs of moving before FAULT 		*/
2942:.\console.c   **** //							cys_param.currTimeoutms = 500;			/* Default 500msec before Current Fault     	*/
2943:.\console.c   **** //							cys_param.faultcurrent = 600;			/* Default faulcurrent=600*2,014362[mA]=1200[mA]*/	
2944:.\console.c   **** //				
2945:.\console.c   **** //							strcpy(cys_param.unicode, "12345678");	/* Deafult Unicode = "12345678"					*/									
ARM GAS  C:\Users\Graziano\AppData\Local\Temp\cccvomne.s 			page 61


2946:.\console.c   **** //							
2947:.\console.c   **** //							for (idx=0;idx<=7;idx++)
2948:.\console.c   **** //							{
2949:.\console.c   **** //								cys_param.targets1[idx] = DEFAULT_TARGET_STEPS;	/* Target Steps Scene 1 Default */
2950:.\console.c   **** //								cys_param.targets2[idx] = DEFAULT_TARGET_STEPS;	/* Target Steps Scene 2 Default */
2951:.\console.c   **** //								cys_param.targets3[idx] = DEFAULT_TARGET_STEPS;	/* Target Steps Scene 3 Default */
2952:.\console.c   **** //								cys_param.targets4[idx] = DEFAULT_TARGET_STEPS;	/* Target Steps Scene 4 Default */
2953:.\console.c   **** //							}
2954:.\console.c   **** //	
2955:.\console.c   **** //							/* Writes MAXCURRENT on DACS */
2956:.\console.c   **** //							VDAC_IREF_12_SetValue(cys_param.maxcurrent);
2957:.\console.c   **** //							VDAC_IREF_34_SetValue(cys_param.maxcurrent);
2958:.\console.c   **** //							VDAC_IREF_56_SetValue(cys_param.maxcurrent);
2959:.\console.c   **** //							VDAC_IREF_78_SetValue(cys_param.maxcurrent);	
2960:.\console.c   **** //	
2961:.\console.c   **** //							/* Writes DEFAULT parameters on EEPROM */
2962:.\console.c   **** //							dummy = WriteAllEEparams();						
2963:.\console.c   **** //							
2964:.\console.c   **** //							printf(STR_REM_DEFL);   /* REM: *All machine parameters setted to factory DEFAULT! */
2965:.\console.c   **** //						}
2966:.\console.c   **** //						else
2967:.\console.c   **** //						{
2968:.\console.c   **** //							printf(STR_REM_NODF);   /* REM: Machine parameters UNCHANGED! */
2969:.\console.c   **** //						}
2970:.\console.c   **** //					}
2971:.\console.c   **** //					else
2972:.\console.c   **** //					{
2973:.\console.c   **** //						printf(STR_ERROR1);		/* ERROR1: Too much parameters! */
2974:.\console.c   **** //					}
2975:.\console.c   **** //					goto exitpars;
2976:.\console.c   **** //				}					
2977:.\console.c   **** //				
2978:.\console.c   **** //				printf(STR_ERROR3);				/* ERROR3: Bad parameters */
2979:.\console.c   **** //				// altri casi di set
2980:.\console.c   **** //
2981:.\console.c   **** 			}
2982:.\console.c   **** 		goto exitpars;	
2983:.\console.c   **** 		}	
2984:.\console.c   **** 	printf(STR_ERROR4);
2985:.\console.c   **** 
2986:.\console.c   **** 	
2987:.\console.c   **** exitpars:	
2988:.\console.c   **** 	//printf("\r\n");	
2989:.\console.c   **** 	return 0;	// PARS_OK//
2990:.\console.c   **** }
2991:.\console.c   **** 
2992:.\console.c   **** 
2993:.\console.c   **** /* Verify Any CHAR pressed */
2994:.\console.c   **** uint8 AnyButtonPressed(void)
2995:.\console.c   **** {	
 471              		.loc 1 2995 0
 472              		.cfi_startproc
 473              		@ args = 0, pretend = 0, frame = 0
 474              		@ frame_needed = 0, uses_anonymous_args = 0
 475 0000 08B5     		push	{r3, lr}
 476              	.LCFI4:
 477              		.cfi_def_cfa_offset 8
ARM GAS  C:\Users\Graziano\AppData\Local\Temp\cccvomne.s 			page 62


 478              		.cfi_offset 3, -8
 479              		.cfi_offset 14, -4
2996:.\console.c   **** 	// case USB standard input
2997:.\console.c   **** 	if (UART_USB_GetChar() == 0)
 480              		.loc 1 2997 0
 481 0002 FFF7FEFF 		bl	UART_USB_GetChar
 482              	.LVL21:
2998:.\console.c   **** 	{
2999:.\console.c   **** 		return NO_PRESSED;
3000:.\console.c   **** 	}
3001:.\console.c   **** 	else
3002:.\console.c   **** 	{
3003:.\console.c   **** 		return PRESSED;
3004:.\console.c   **** 	}
3005:.\console.c   **** }
 483              		.loc 1 3005 0
 484 0006 0030     		adds	r0, r0, #0
 485 0008 18BF     		it	ne
 486 000a 0120     		movne	r0, #1
 487 000c 08BD     		pop	{r3, pc}
 488              		.cfi_endproc
 489              	.LFE64:
 490              		.size	AnyButtonPressed, .-AnyButtonPressed
 491              		.section	.text.ButtonYNChoice,"ax",%progbits
 492              		.align	1
 493              		.global	ButtonYNChoice
 494              		.thumb
 495              		.thumb_func
 496              		.type	ButtonYNChoice, %function
 497              	ButtonYNChoice:
 498              	.LFB65:
3006:.\console.c   **** 
3007:.\console.c   **** 
3008:.\console.c   **** 
3009:.\console.c   **** /* Verify [Y/N] choice */
3010:.\console.c   **** uint8 ButtonYNChoice(bit echo)
3011:.\console.c   **** {	
 499              		.loc 1 3011 0
 500              		.cfi_startproc
 501              		@ args = 0, pretend = 0, frame = 0
 502              		@ frame_needed = 0, uses_anonymous_args = 0
 503              	.LVL22:
 504 0000 38B5     		push	{r3, r4, r5, lr}
 505              	.LCFI5:
 506              		.cfi_def_cfa_offset 16
 507              		.cfi_offset 3, -16
 508              		.cfi_offset 4, -12
 509              		.cfi_offset 5, -8
 510              		.cfi_offset 14, -4
 511 0002 0546     		mov	r5, r0
 512              	.LVL23:
 513              	.L53:
3012:.\console.c   **** 	char charin;
3013:.\console.c   **** 	
3014:.\console.c   **** //	if (std_input == USB_STD_INPUT)
3015:.\console.c   **** //	{
3016:.\console.c   **** 		// case USB standard input
ARM GAS  C:\Users\Graziano\AppData\Local\Temp\cccvomne.s 			page 63


3017:.\console.c   **** 		while ((charin = UART_USB_GetChar()) == 0)
 514              		.loc 1 3017 0 discriminator 1
 515 0004 FFF7FEFF 		bl	UART_USB_GetChar
 516              	.LVL24:
 517 0008 0446     		mov	r4, r0
 518 000a 0028     		cmp	r0, #0
 519 000c FAD0     		beq	.L53
3018:.\console.c   **** 		{
3019:.\console.c   **** 		//wait for char
3020:.\console.c   **** 		}
3021:.\console.c   **** //	}
3022:.\console.c   **** //	else
3023:.\console.c   **** //	{
3024:.\console.c   **** //		// case BT standard input
3025:.\console.c   **** //		while ((charin = UART_BT_GetChar()) == 0)
3026:.\console.c   **** //		{
3027:.\console.c   **** //		//wait for char
3028:.\console.c   **** //		}
3029:.\console.c   **** //	}
3030:.\console.c   **** 	
3031:.\console.c   **** 	if (echo == 1)
 520              		.loc 1 3031 0
 521 000e 012D     		cmp	r5, #1
 522 0010 01D1     		bne	.L54
3032:.\console.c   **** 	{
3033:.\console.c   **** 		printf("%c", charin);
 523              		.loc 1 3033 0
 524 0012 FFF7FEFF 		bl	putchar
 525              	.LVL25:
 526              	.L54:
 527              	.LBB5:
3034:.\console.c   **** 	}
3035:.\console.c   **** 	
3036:.\console.c   **** 	if (tolower((int)charin) == 'y')
 528              		.loc 1 3036 0
 529 0016 074B     		ldr	r3, .L60
 530 0018 2046     		mov	r0, r4
 531              	.LVL26:
 532 001a 1968     		ldr	r1, [r3, #0]
 533 001c 0A19     		adds	r2, r1, r4
 534 001e 5378     		ldrb	r3, [r2, #1]	@ zero_extendqisi2
 535 0020 03F00301 		and	r1, r3, #3
 536 0024 0129     		cmp	r1, #1
 537 0026 08BF     		it	eq
 538 0028 2030     		addeq	r0, r0, #32
 539              	.LVL27:
 540              	.LBE5:
3037:.\console.c   **** 	{
3038:.\console.c   **** 		return _YES;
3039:.\console.c   **** 	}
3040:.\console.c   **** 	else
3041:.\console.c   **** 	{
3042:.\console.c   **** 		return _NO;
3043:.\console.c   **** 	}
3044:.\console.c   **** 
3045:.\console.c   **** }
 541              		.loc 1 3045 0
ARM GAS  C:\Users\Graziano\AppData\Local\Temp\cccvomne.s 			page 64


 542 002a B0F17902 		subs	r2, r0, #121
 543 002e 5042     		rsbs	r0, r2, #0
 544 0030 5041     		adcs	r0, r0, r2
 545 0032 38BD     		pop	{r3, r4, r5, pc}
 546              	.L61:
 547              		.align	2
 548              	.L60:
 549 0034 00000000 		.word	__ctype_ptr__
 550              		.cfi_endproc
 551              	.LFE65:
 552              		.size	ButtonYNChoice, .-ButtonYNChoice
 553              		.section	.text.clear_string,"ax",%progbits
 554              		.align	1
 555              		.global	clear_string
 556              		.thumb
 557              		.thumb_func
 558              		.type	clear_string, %function
 559              	clear_string:
 560              	.LFB66:
3046:.\console.c   **** 
3047:.\console.c   **** 
3048:.\console.c   **** 
3049:.\console.c   **** 
3050:.\console.c   **** /* Select the Console (std in & std out) */
3051:.\console.c   **** //void SelectConsole(void)
3052:.\console.c   **** //{
3053:.\console.c   **** //	/* Verify local USB Insertion */
3054:.\console.c   **** //	if (USB_Check() == USB_INSERTED)
3055:.\console.c   **** //	{
3056:.\console.c   **** //		std_input =  USB_STD_INPUT;	  /* Standard Input  <-- USB */ 
3057:.\console.c   **** //		std_output = USB_STD_OUTPUT;  /* Standard Output <-- USB */
3058:.\console.c   **** //		//network_status = NID_SELECTED;		
3059:.\console.c   **** //		//if (sleep_status != SLEEPING)
3060:.\console.c   **** //		//{
3061:.\console.c   **** //		//SET_ON(LED_DEBUG0);
3062:.\console.c   **** //		//}
3063:.\console.c   **** //		USB_Check_prev = USB_INSERTED; 			/* USB Check(t-1) <-- USB IN */
3064:.\console.c   **** //	}
3065:.\console.c   **** //	else
3066:.\console.c   **** //	{
3067:.\console.c   **** //		std_input =  BT_STD_INPUT;	  /* Standard Input  <-- PLC */ 
3068:.\console.c   **** //		std_output = BT_STD_OUTPUT;  /* Standard Output <-- PLC */		
3069:.\console.c   **** //		//UART_PLC_LoadRxConfig();	  /* Load the HALF DUPLEX UART receive configuration */
3070:.\console.c   **** //		//CyDelay(1);
3071:.\console.c   **** //		//USB_Check_prev = USB_NOT_INSERTED; 		/* USB Check(t-1) <-- USB OUT */
3072:.\console.c   **** //	}
3073:.\console.c   **** //	
3074:.\console.c   **** //	/* USB IN --> OUT Transition Detector */
3075:.\console.c   **** //	/* if USB transition from IN to OUT   */
3076:.\console.c   **** //	/* then Deselect me nodeid     		  */
3077:.\console.c   **** //	if ((USB_Check() == USB_NOT_INSERTED)
3078:.\console.c   **** //	&& (USB_Check_prev == USB_INSERTED))
3079:.\console.c   **** //	{
3080:.\console.c   **** //		USB_Check_prev = USB_NOT_INSERTED; 		/* USB Check(t-1) <-- USB OUT */
3081:.\console.c   **** //		//network_status = NID_NOT_SELECTED;		
3082:.\console.c   **** //		SET_OFF(LED_DEBUG0);	
3083:.\console.c   **** //	}
ARM GAS  C:\Users\Graziano\AppData\Local\Temp\cccvomne.s 			page 65


3084:.\console.c   **** //}
3085:.\console.c   **** 
3086:.\console.c   **** 
3087:.\console.c   **** void clear_string(char *str)
3088:.\console.c   **** {
 561              		.loc 1 3088 0
 562              		.cfi_startproc
 563              		@ args = 0, pretend = 0, frame = 0
 564              		@ frame_needed = 0, uses_anonymous_args = 0
 565              		@ link register save eliminated.
 566              	.LVL28:
3089:.\console.c   **** 	uint8 idx = 0;
3090:.\console.c   **** 	for (idx=0; idx <= sizeof(str); idx++)
3091:.\console.c   **** 	{
3092:.\console.c   **** 		*(str + idx) = '\0';
 567              		.loc 1 3092 0
 568 0000 0023     		movs	r3, #0
 569 0002 0370     		strb	r3, [r0, #0]
 570              	.LVL29:
 571 0004 4370     		strb	r3, [r0, #1]
 572              	.LVL30:
 573 0006 8370     		strb	r3, [r0, #2]
 574              	.LVL31:
 575 0008 C370     		strb	r3, [r0, #3]
 576              	.LVL32:
 577 000a 0371     		strb	r3, [r0, #4]
 578              	.LVL33:
 579 000c 7047     		bx	lr
 580              		.cfi_endproc
 581              	.LFE66:
 582              		.size	clear_string, .-clear_string
 583              		.section	.text.ReadUSBbuffer,"ax",%progbits
 584              		.align	1
 585              		.global	ReadUSBbuffer
 586              		.thumb
 587              		.thumb_func
 588              		.type	ReadUSBbuffer, %function
 589              	ReadUSBbuffer:
 590              	.LFB61:
 282:.\console.c   **** {
 591              		.loc 1 282 0
 592              		.cfi_startproc
 593              		@ args = 0, pretend = 0, frame = 0
 594              		@ frame_needed = 0, uses_anonymous_args = 0
 595              	.LVL34:
 596 0000 F8B5     		push	{r3, r4, r5, r6, r7, lr}
 597              	.LCFI6:
 598              		.cfi_def_cfa_offset 24
 599              		.cfi_offset 3, -24
 600              		.cfi_offset 4, -20
 601              		.cfi_offset 5, -16
 602              		.cfi_offset 6, -12
 603              		.cfi_offset 7, -8
 604              		.cfi_offset 14, -4
 282:.\console.c   **** {
 605              		.loc 1 282 0
 606 0002 0646     		mov	r6, r0
ARM GAS  C:\Users\Graziano\AppData\Local\Temp\cccvomne.s 			page 66


 287:.\console.c   **** 	clear_string(userInputBuffer);
 607              		.loc 1 287 0
 608 0004 1D48     		ldr	r0, .L83
 609              	.LVL35:
 282:.\console.c   **** {
 610              		.loc 1 282 0
 611 0006 0F46     		mov	r7, r1
 287:.\console.c   **** 	clear_string(userInputBuffer);
 612              		.loc 1 287 0
 613 0008 FFF7FEFF 		bl	clear_string
 614              	.LVL36:
 284:.\console.c   **** 	uint16 ticks = 0;
 615              		.loc 1 284 0
 616 000c 0024     		movs	r4, #0
 283:.\console.c   **** 	uint8 index = 0;
 617              		.loc 1 283 0
 618 000e 2546     		mov	r5, r4
 619              	.LVL37:
 620              	.L64:
 290:.\console.c   **** 			&& ((charin=UART_USB_GetChar()) != '\r')
 621              		.loc 1 290 0
 622 0010 FFF7FEFF 		bl	UART_USB_GetChar
 623              	.LVL38:
 624 0014 0D28     		cmp	r0, #13
 625 0016 22D0     		beq	.L68
 291:.\console.c   **** 			&& (ticks < TIMEOUT_TICKS) 
 626              		.loc 1 291 0
 627 0018 4CF24F33 		movw	r3, #49999
 628 001c 9C42     		cmp	r4, r3
 629 001e 1ED8     		bhi	.L68
 630              	.L69:
 294:.\console.c   **** 		if ((charin != 0) && (charin != '\n'))
 631              		.loc 1 294 0
 632 0020 A8B1     		cbz	r0, .L65
 294:.\console.c   **** 		if ((charin != 0) && (charin != '\n'))
 633              		.loc 1 294 0 is_stmt 0 discriminator 1
 634 0022 0A28     		cmp	r0, #10
 635 0024 13D0     		beq	.L65
 636              	.LVL39:
 637              	.LBB6:
 296:.\console.c   **** 			userInputBuffer[index] = tolower((int)charin);
 638              		.loc 1 296 0 is_stmt 1
 639 0026 1649     		ldr	r1, .L83+4
 640 0028 0A68     		ldr	r2, [r1, #0]
 641 002a 1318     		adds	r3, r2, r0
 642 002c 5C78     		ldrb	r4, [r3, #1]	@ zero_extendqisi2
 643              	.LBE6:
 644 002e 134A     		ldr	r2, .L83
 645              	.LBB7:
 646 0030 04F00301 		and	r1, r4, #3
 647 0034 0129     		cmp	r1, #1
 648 0036 0CBF     		ite	eq
 649 0038 00F12001 		addeq	r1, r0, #32
 650 003c 0146     		movne	r1, r0
 651              	.LBE7:
 652 003e 5155     		strb	r1, [r2, r5]
 297:.\console.c   **** 			index++;
ARM GAS  C:\Users\Graziano\AppData\Local\Temp\cccvomne.s 			page 67


 653              		.loc 1 297 0
 654 0040 0135     		adds	r5, r5, #1
 298:.\console.c   **** 			if (echo == 1)
 655              		.loc 1 298 0
 656 0042 012E     		cmp	r6, #1
 297:.\console.c   **** 			index++;
 657              		.loc 1 297 0
 658 0044 EDB2     		uxtb	r5, r5
 659              	.LVL40:
 298:.\console.c   **** 			if (echo == 1)
 660              		.loc 1 298 0
 661 0046 07D1     		bne	.L72
 300:.\console.c   **** 				printf("%c", charin);
 662              		.loc 1 300 0
 663 0048 FFF7FEFF 		bl	putchar
 664              	.LVL41:
 665 004c 04E0     		b	.L72
 666              	.LVL42:
 667              	.L65:
 306:.\console.c   **** 			if (timeout == 1)
 668              		.loc 1 306 0
 669 004e 012F     		cmp	r7, #1
 670 0050 03D1     		bne	.L67
 308:.\console.c   **** 				ticks++;
 671              		.loc 1 308 0
 672 0052 0134     		adds	r4, r4, #1
 673 0054 A4B2     		uxth	r4, r4
 674              	.LVL43:
 675 0056 00E0     		b	.L67
 676              	.LVL44:
 677              	.L72:
 302:.\console.c   **** 			ticks = 0;
 678              		.loc 1 302 0
 679 0058 0024     		movs	r4, #0
 680              	.LVL45:
 681              	.L67:
 289:.\console.c   **** 	while ((index < sizeof(userInputBuffer)-1)
 682              		.loc 1 289 0 discriminator 1
 683 005a 262D     		cmp	r5, #38
 684 005c D8D9     		bls	.L64
 685              	.LVL46:
 686              	.L68:
 312:.\console.c   **** 	userInputBuffer[index] = '\0';
 687              		.loc 1 312 0
 688 005e 074B     		ldr	r3, .L83
 689 0060 0020     		movs	r0, #0
 314:.\console.c   **** 	if (index >= sizeof(userInputBuffer)-1)
 690              		.loc 1 314 0
 691 0062 262D     		cmp	r5, #38
 312:.\console.c   **** 	userInputBuffer[index] = '\0';
 692              		.loc 1 312 0
 693 0064 5855     		strb	r0, [r3, r5]
 314:.\console.c   **** 	if (index >= sizeof(userInputBuffer)-1)
 694              		.loc 1 314 0
 695 0066 06D8     		bhi	.L73
 316:.\console.c   **** 		return READ_BUFF_OVERFLOW;
 696              		.loc 1 316 0
ARM GAS  C:\Users\Graziano\AppData\Local\Temp\cccvomne.s 			page 68


 697 0068 4CF24F30 		movw	r0, #49999
 698 006c 8442     		cmp	r4, r0
 699 006e 94BF     		ite	ls
 700 0070 0020     		movls	r0, #0
 701 0072 0120     		movhi	r0, #1
 702 0074 F8BD     		pop	{r3, r4, r5, r6, r7, pc}
 703              	.L73:
 704 0076 0220     		movs	r0, #2
 329:.\console.c   **** }	
 705              		.loc 1 329 0
 706 0078 F8BD     		pop	{r3, r4, r5, r6, r7, pc}
 707              	.L84:
 708 007a 00BF     		.align	2
 709              	.L83:
 710 007c 00000000 		.word	.LANCHOR0
 711 0080 00000000 		.word	__ctype_ptr__
 712              		.cfi_endproc
 713              	.LFE61:
 714              		.size	ReadUSBbuffer, .-ReadUSBbuffer
 715              		.section	.text.scanner2,"ax",%progbits
 716              		.align	1
 717              		.global	scanner2
 718              		.thumb
 719              		.thumb_func
 720              		.type	scanner2, %function
 721              	scanner2:
 722              	.LFB62:
 346:.\console.c   **** {
 723              		.loc 1 346 0
 724              		.cfi_startproc
 725              		@ args = 0, pretend = 0, frame = 40
 726              		@ frame_needed = 0, uses_anonymous_args = 0
 727              	.LVL47:
 728 0000 30B5     		push	{r4, r5, lr}
 729              	.LCFI7:
 730              		.cfi_def_cfa_offset 12
 731              		.cfi_offset 4, -12
 732              		.cfi_offset 5, -8
 733              		.cfi_offset 14, -4
 734 0002 0546     		mov	r5, r0
 735 0004 8BB0     		sub	sp, sp, #44
 736              	.LCFI8:
 737              		.cfi_def_cfa_offset 56
 352:.\console.c   **** 	clear_string(actual_cmd.action);
 738              		.loc 1 352 0
 739 0006 5548     		ldr	r0, .L117
 740              	.LVL48:
 741 0008 FFF7FEFF 		bl	clear_string
 742              	.LVL49:
 353:.\console.c   **** 	clear_string(actual_cmd.parameter);	
 743              		.loc 1 353 0
 744 000c 5448     		ldr	r0, .L117+4
 745 000e FFF7FEFF 		bl	clear_string
 746              	.LVL50:
 354:.\console.c   **** 	clear_string(actual_cmd.number1);	
 747              		.loc 1 354 0
 748 0012 5448     		ldr	r0, .L117+8
ARM GAS  C:\Users\Graziano\AppData\Local\Temp\cccvomne.s 			page 69


 749 0014 FFF7FEFF 		bl	clear_string
 750              	.LVL51:
 355:.\console.c   **** 	clear_string(actual_cmd.number2);	
 751              		.loc 1 355 0
 752 0018 5348     		ldr	r0, .L117+12
 753 001a FFF7FEFF 		bl	clear_string
 754              	.LVL52:
 358:.\console.c   **** 	rdstat=ReadUSBbuffer(ECHO_ON, TIMEOUT_OFF);
 755              		.loc 1 358 0
 756 001e 0120     		movs	r0, #1
 757 0020 0021     		movs	r1, #0
 758 0022 FFF7FEFF 		bl	ReadUSBbuffer
 759              	.LVL53:
 361:.\console.c   **** 	if (rdstat == READ_OK)
 760              		.loc 1 361 0
 761 0026 0446     		mov	r4, r0
 762 0028 0028     		cmp	r0, #0
 763 002a 5BD1     		bne	.L86
 363:.\console.c   **** 		clear_string(localBuffer);
 764              		.loc 1 363 0
 765 002c 6846     		mov	r0, sp
 766              	.LVL54:
 767 002e FFF7FEFF 		bl	clear_string
 768              	.LVL55:
 368:.\console.c   **** 		uidy = 0;									 			// reset local buffer pointer
 769              		.loc 1 368 0
 770 0032 2246     		mov	r2, r4
 367:.\console.c   **** 		uidx = 0;												// reset user  buffer pointer
 771              		.loc 1 367 0
 772 0034 2346     		mov	r3, r4
 773              	.LVL56:
 774              	.L87:
 369:.\console.c   **** 		while ((uidx<40) && (userInputBuffer[uidx] != '\0'))	// while there is string to copy
 775              		.loc 1 369 0 discriminator 2
 776 0036 4D49     		ldr	r1, .L117+16
 777 0038 C85C     		ldrb	r0, [r1, r3]	@ zero_extendqisi2
 778 003a B0B1     		cbz	r0, .L92
 779              	.L111:
 371:.\console.c   **** 			while ((uidx<40) && (userInputBuffer[uidx] == 8))	// 	while there is ASCII BACKSPACE   = 8 (\b, 
 780              		.loc 1 371 0 discriminator 2
 781 003c 4B4C     		ldr	r4, .L117+16
 782 003e E15C     		ldrb	r1, [r4, r3]	@ zero_extendqisi2
 783 0040 0829     		cmp	r1, #8
 784 0042 06D1     		bne	.L90
 785              	.L91:
 373:.\console.c   **** 				uidx = uidx + 1;								//		points to the next char
 786              		.loc 1 373 0
 787 0044 0133     		adds	r3, r3, #1
 788 0046 DBB2     		uxtb	r3, r3
 789              	.LVL57:
 375:.\console.c   **** 				if (uidy>0)										//		if there are characters to cancel
 790              		.loc 1 375 0
 791 0048 0AB1     		cbz	r2, .L88
 377:.\console.c   **** 					uidy = uidy - 1;							//			cancel the previous copied characters
 792              		.loc 1 377 0
 793 004a 013A     		subs	r2, r2, #1
 794 004c D2B2     		uxtb	r2, r2
ARM GAS  C:\Users\Graziano\AppData\Local\Temp\cccvomne.s 			page 70


 795              	.LVL58:
 796              	.L88:
 371:.\console.c   **** 			while ((uidx<40) && (userInputBuffer[uidx] == 8))	// 	while there is ASCII BACKSPACE   = 8 (\b, 
 797              		.loc 1 371 0 discriminator 1
 798 004e 272B     		cmp	r3, #39
 799 0050 F4D9     		bls	.L111
 800              	.LVL59:
 801              	.L90:
 380:.\console.c   **** 			localBuffer[uidy] = userInputBuffer[uidx];			//	copy one character from user to local buffer
 802              		.loc 1 380 0
 803 0052 4649     		ldr	r1, .L117+16
 804 0054 0AA8     		add	r0, sp, #40
 805 0056 8418     		adds	r4, r0, r2
 806 0058 C85C     		ldrb	r0, [r1, r3]	@ zero_extendqisi2
 381:.\console.c   **** 			uidx++;												//	increments user  buffer pointer
 807              		.loc 1 381 0
 808 005a 0133     		adds	r3, r3, #1
 809 005c DBB2     		uxtb	r3, r3
 810              	.LVL60:
 382:.\console.c   **** 			uidy++;												//	increments local buffer pointer
 811              		.loc 1 382 0
 812 005e 0132     		adds	r2, r2, #1
 369:.\console.c   **** 		while ((uidx<40) && (userInputBuffer[uidx] != '\0'))	// while there is string to copy
 813              		.loc 1 369 0
 814 0060 272B     		cmp	r3, #39
 380:.\console.c   **** 			localBuffer[uidy] = userInputBuffer[uidx];			//	copy one character from user to local buffer
 815              		.loc 1 380 0
 816 0062 04F8280C 		strb	r0, [r4, #-40]
 382:.\console.c   **** 			uidy++;												//	increments local buffer pointer
 817              		.loc 1 382 0
 818 0066 D2B2     		uxtb	r2, r2
 819              	.LVL61:
 369:.\console.c   **** 		while ((uidx<40) && (userInputBuffer[uidx] != '\0'))	// while there is string to copy
 820              		.loc 1 369 0
 821 0068 E5D9     		bls	.L87
 822              	.LVL62:
 823              	.L92:
 384:.\console.c   **** 		localBuffer[uidy] = '\0';								//terminate the local buffer string
 824              		.loc 1 384 0
 825 006a 0AAC     		add	r4, sp, #40
 826 006c A118     		adds	r1, r4, r2
 827 006e 0024     		movs	r4, #0
 828 0070 01F8284C 		strb	r4, [r1, #-40]
 387:.\console.c   **** 		p = strtok(localBuffer, " ");
 829              		.loc 1 387 0
 830 0074 6846     		mov	r0, sp
 831 0076 3E49     		ldr	r1, .L117+20
 832 0078 FFF7FEFF 		bl	strtok
 833              	.LVL63:
 389:.\console.c   **** 		if (p != NULL)
 834              		.loc 1 389 0
 835 007c 0146     		mov	r1, r0
 391:.\console.c   **** 			strcpy(actual_cmd.action, p);	
 836              		.loc 1 391 0
 837 007e 3748     		ldr	r0, .L117
 838              	.LVL64:
 389:.\console.c   **** 		if (p != NULL)
ARM GAS  C:\Users\Graziano\AppData\Local\Temp\cccvomne.s 			page 71


 839              		.loc 1 389 0
 840 0080 41B1     		cbz	r1, .L94
 391:.\console.c   **** 			strcpy(actual_cmd.action, p);	
 841              		.loc 1 391 0
 842 0082 FFF7FEFF 		bl	strcpy
 843              	.LVL65:
 392:.\console.c   **** 			p = strtok(NULL, " ");
 844              		.loc 1 392 0
 845 0086 3A49     		ldr	r1, .L117+20
 846 0088 2046     		mov	r0, r4
 847 008a FFF7FEFF 		bl	strtok
 848              	.LVL66:
 399:.\console.c   **** 		if (p != NULL)
 849              		.loc 1 399 0
 850 008e 0146     		mov	r1, r0
 851 0090 18B9     		cbnz	r0, .L95
 852 0092 0CE0     		b	.L96
 853              	.LVL67:
 854              	.L94:
 396:.\console.c   **** 			clear_string(actual_cmd.action);
 855              		.loc 1 396 0
 856 0094 FFF7FEFF 		bl	clear_string
 857              	.LVL68:
 858 0098 09E0     		b	.L96
 859              	.LVL69:
 860              	.L95:
 401:.\console.c   **** 			strcpy(actual_cmd.parameter, p);	
 861              		.loc 1 401 0
 862 009a 3148     		ldr	r0, .L117+4
 863              	.LVL70:
 864 009c FFF7FEFF 		bl	strcpy
 865              	.LVL71:
 402:.\console.c   **** 			p = strtok(NULL, " ");
 866              		.loc 1 402 0
 867 00a0 3349     		ldr	r1, .L117+20
 868 00a2 2046     		mov	r0, r4
 869 00a4 FFF7FEFF 		bl	strtok
 870              	.LVL72:
 409:.\console.c   **** 		if (p != NULL)
 871              		.loc 1 409 0
 872 00a8 0146     		mov	r1, r0
 873 00aa 20B9     		cbnz	r0, .L97
 874 00ac 14E0     		b	.L98
 875              	.LVL73:
 876              	.L96:
 406:.\console.c   **** 			clear_string(actual_cmd.parameter);
 877              		.loc 1 406 0
 878 00ae 2C48     		ldr	r0, .L117+4
 879 00b0 FFF7FEFF 		bl	clear_string
 880              	.LVL74:
 881 00b4 10E0     		b	.L98
 882              	.LVL75:
 883              	.L97:
 411:.\console.c   **** 			strcpy(actual_cmd.number1, p);	
 884              		.loc 1 411 0
 885 00b6 2B48     		ldr	r0, .L117+8
 886              	.LVL76:
ARM GAS  C:\Users\Graziano\AppData\Local\Temp\cccvomne.s 			page 72


 887 00b8 FFF7FEFF 		bl	strcpy
 888              	.LVL77:
 412:.\console.c   **** 			p = strtok(NULL, " ");
 889              		.loc 1 412 0
 890 00bc 2C49     		ldr	r1, .L117+20
 891 00be 2046     		mov	r0, r4
 892 00c0 FFF7FEFF 		bl	strtok
 893              	.LVL78:
 419:.\console.c   **** 		if (p != NULL)
 894              		.loc 1 419 0
 895 00c4 0146     		mov	r1, r0
 896 00c6 50B1     		cbz	r0, .L100
 897              	.L99:
 421:.\console.c   **** 			strcpy(actual_cmd.number2, p);	
 898              		.loc 1 421 0
 899 00c8 2748     		ldr	r0, .L117+12
 900              	.LVL79:
 901 00ca FFF7FEFF 		bl	strcpy
 902              	.LVL80:
 422:.\console.c   **** 			p = strtok(NULL, " ");
 903              		.loc 1 422 0
 904 00ce 2046     		mov	r0, r4
 905 00d0 2749     		ldr	r1, .L117+20
 906 00d2 FFF7FEFF 		bl	strtok
 907              	.LVL81:
 908 00d6 05E0     		b	.L86
 909              	.L98:
 416:.\console.c   **** 			clear_string(actual_cmd.number1);
 910              		.loc 1 416 0
 911 00d8 2248     		ldr	r0, .L117+8
 912 00da FFF7FEFF 		bl	clear_string
 913              	.LVL82:
 914              	.L100:
 426:.\console.c   **** 			clear_string(actual_cmd.number2);
 915              		.loc 1 426 0
 916 00de 2248     		ldr	r0, .L117+12
 917 00e0 FFF7FEFF 		bl	clear_string
 918              	.LVL83:
 919              	.L86:
 431:.\console.c   **** 	if (verbose == VERBOSE_ON)
 920              		.loc 1 431 0
 921 00e4 012D     		cmp	r5, #1
 433:.\console.c   **** 		printf("\r\n");
 922              		.loc 1 433 0
 923 00e6 2348     		ldr	r0, .L117+24
 431:.\console.c   **** 	if (verbose == VERBOSE_ON)
 924              		.loc 1 431 0
 925 00e8 30D1     		bne	.L101
 433:.\console.c   **** 		printf("\r\n");
 926              		.loc 1 433 0
 927 00ea FFF7FEFF 		bl	puts
 928              	.LVL84:
 434:.\console.c   **** 		printf("buff=");
 929              		.loc 1 434 0
 930 00ee 2248     		ldr	r0, .L117+28
 931 00f0 FFF7FEFF 		bl	printf
 932              	.LVL85:
ARM GAS  C:\Users\Graziano\AppData\Local\Temp\cccvomne.s 			page 73


 933 00f4 0024     		movs	r4, #0
 934              	.LVL86:
 935              	.L102:
 437:.\console.c   **** 		while ((uidx<40) && (userInputBuffer[uidx] != '\0'))
 936              		.loc 1 437 0 discriminator 2
 937 00f6 1D48     		ldr	r0, .L117+16
 938 00f8 205C     		ldrb	r0, [r4, r0]	@ zero_extendqisi2
 939 00fa 70B1     		cbz	r0, .L108
 940              	.L107:
 439:.\console.c   **** 			if (userInputBuffer[uidx] == 8)			// ASCII BACKSPACE   = 8 (\b, ^H)
 941              		.loc 1 439 0
 942 00fc 0828     		cmp	r0, #8
 943 00fe 01D1     		bne	.L103
 441:.\console.c   **** 				printf("[b]");
 944              		.loc 1 441 0
 945 0100 1E48     		ldr	r0, .L117+32
 946 0102 02E0     		b	.L115
 947              	.L103:
 443:.\console.c   **** 			else if (userInputBuffer[uidx] == 127)	// ASCII DELETE7CANC = 127 (^?)
 948              		.loc 1 443 0
 949 0104 7F28     		cmp	r0, #127
 950 0106 03D1     		bne	.L105
 445:.\console.c   **** 				printf("[d]");
 951              		.loc 1 445 0
 952 0108 1D48     		ldr	r0, .L117+36
 953              	.L115:
 954 010a FFF7FEFF 		bl	printf
 955              	.LVL87:
 956 010e 01E0     		b	.L104
 957              	.L105:
 449:.\console.c   **** 				printf ("%c", userInputBuffer[uidx]);
 958              		.loc 1 449 0
 959 0110 FFF7FEFF 		bl	putchar
 960              	.LVL88:
 961              	.L104:
 962 0114 0134     		adds	r4, r4, #1
 437:.\console.c   **** 		while ((uidx<40) && (userInputBuffer[uidx] != '\0'))
 963              		.loc 1 437 0
 964 0116 282C     		cmp	r4, #40
 965 0118 EDD1     		bne	.L102
 966              	.L108:
 455:.\console.c   **** 		printf(" tk1=");
 967              		.loc 1 455 0
 968 011a 1A48     		ldr	r0, .L117+40
 969 011c FFF7FEFF 		bl	printf
 970              	.LVL89:
 456:.\console.c   **** 		printf(actual_cmd.action);
 971              		.loc 1 456 0
 972 0120 0E48     		ldr	r0, .L117
 973 0122 FFF7FEFF 		bl	printf
 974              	.LVL90:
 457:.\console.c   **** 		printf(" tk2=");
 975              		.loc 1 457 0
 976 0126 1848     		ldr	r0, .L117+44
 977 0128 FFF7FEFF 		bl	printf
 978              	.LVL91:
 458:.\console.c   **** 		printf(actual_cmd.parameter);
ARM GAS  C:\Users\Graziano\AppData\Local\Temp\cccvomne.s 			page 74


 979              		.loc 1 458 0
 980 012c 0C48     		ldr	r0, .L117+4
 981 012e FFF7FEFF 		bl	printf
 982              	.LVL92:
 459:.\console.c   **** 		printf(" tk3=");
 983              		.loc 1 459 0
 984 0132 1648     		ldr	r0, .L117+48
 985 0134 FFF7FEFF 		bl	printf
 986              	.LVL93:
 460:.\console.c   **** 		printf(actual_cmd.number1);
 987              		.loc 1 460 0
 988 0138 0A48     		ldr	r0, .L117+8
 989 013a FFF7FEFF 		bl	printf
 990              	.LVL94:
 461:.\console.c   **** 		printf(" tk4=");		
 991              		.loc 1 461 0
 992 013e 1448     		ldr	r0, .L117+52
 993 0140 FFF7FEFF 		bl	printf
 994              	.LVL95:
 462:.\console.c   **** 		printf(actual_cmd.number2);
 995              		.loc 1 462 0
 996 0144 0848     		ldr	r0, .L117+12
 997 0146 FFF7FEFF 		bl	printf
 998              	.LVL96:
 999 014a 01E0     		b	.L116
 1000              	.L101:
 467:.\console.c   **** 		printf("\r\n");	
 1001              		.loc 1 467 0
 1002 014c FFF7FEFF 		bl	puts
 1003              	.LVL97:
 1004              	.L116:
 468:.\console.c   **** 		printf("\r\n");
 1005              		.loc 1 468 0
 1006 0150 0848     		ldr	r0, .L117+24
 1007 0152 FFF7FEFF 		bl	puts
 1008              	.LVL98:
 472:.\console.c   **** }
 1009              		.loc 1 472 0
 1010 0156 0020     		movs	r0, #0
 1011 0158 0BB0     		add	sp, sp, #44
 1012 015a 30BD     		pop	{r4, r5, pc}
 1013              	.L118:
 1014              		.align	2
 1015              	.L117:
 1016 015c 00000000 		.word	actual_cmd
 1017 0160 0F000000 		.word	actual_cmd+15
 1018 0164 1E000000 		.word	actual_cmd+30
 1019 0168 28000000 		.word	actual_cmd+40
 1020 016c 00000000 		.word	.LANCHOR0
 1021 0170 12020000 		.word	.LC33
 1022 0174 14020000 		.word	.LC34
 1023 0178 16020000 		.word	.LC35
 1024 017c 1C020000 		.word	.LC36
 1025 0180 20020000 		.word	.LC37
 1026 0184 24020000 		.word	.LC38
 1027 0188 2A020000 		.word	.LC39
 1028 018c 30020000 		.word	.LC40
ARM GAS  C:\Users\Graziano\AppData\Local\Temp\cccvomne.s 			page 75


 1029 0190 36020000 		.word	.LC41
 1030              		.cfi_endproc
 1031              	.LFE62:
 1032              		.size	scanner2, .-scanner2
 1033              		.global	__aeabi_fmul
 1034              		.global	__aeabi_i2f
 1035              		.global	__aeabi_f2iz
 1036              		.global	__aeabi_dmul
 1037              		.global	__aeabi_fcmpge
 1038              		.global	__aeabi_fcmple
 1039              		.global	__aeabi_dcmpge
 1040              		.global	__aeabi_dcmple
 1041              		.section	.text.parser,"ax",%progbits
 1042              		.align	1
 1043              		.global	parser
 1044              		.thumb
 1045              		.thumb_func
 1046              		.type	parser, %function
 1047              	parser:
 1048              	.LFB63:
 481:.\console.c   **** {
 1049              		.loc 1 481 0
 1050              		.cfi_startproc
 1051              		@ args = 0, pretend = 0, frame = 0
 1052              		@ frame_needed = 0, uses_anonymous_args = 0
 1053              	.LVL99:
 1054 0000 2DE9F347 		push	{r0, r1, r4, r5, r6, r7, r8, r9, sl, lr}
 1055              	.LCFI9:
 1056              		.cfi_def_cfa_offset 40
 1057              		.cfi_offset 0, -40
 1058              		.cfi_offset 1, -36
 1059              		.cfi_offset 4, -32
 1060              		.cfi_offset 5, -28
 1061              		.cfi_offset 6, -24
 1062              		.cfi_offset 7, -20
 1063              		.cfi_offset 8, -16
 1064              		.cfi_offset 9, -12
 1065              		.cfi_offset 10, -8
 1066              		.cfi_offset 14, -4
 530:.\console.c   **** 	if (strcmp(actual_cmd.action, "boot") == 0)
 1067              		.loc 1 530 0
 1068 0004 B54C     		ldr	r4, .L647
 522:.\console.c   **** 	scanstat = scanner2(VERBOSE_OFF);
 1069              		.loc 1 522 0
 1070 0006 0020     		movs	r0, #0
 1071 0008 FFF7FEFF 		bl	scanner2
 1072              	.LVL100:
 530:.\console.c   **** 	if (strcmp(actual_cmd.action, "boot") == 0)
 1073              		.loc 1 530 0
 1074 000c 2046     		mov	r0, r4
 1075 000e B449     		ldr	r1, .L647+4
 1076 0010 FFF7FEFF 		bl	strcmp
 1077              	.LVL101:
 1078 0014 D8B9     		cbnz	r0, .L120
 532:.\console.c   **** 		if (strlen(actual_cmd.parameter) == 0)
 1079              		.loc 1 532 0
 1080 0016 E47B     		ldrb	r4, [r4, #15]	@ zero_extendqisi2
ARM GAS  C:\Users\Graziano\AppData\Local\Temp\cccvomne.s 			page 76


 1081 0018 A4B9     		cbnz	r4, .L121
 534:.\console.c   **** 			printf("\r\nAre you sure to start Bootload [Y/N]?");		
 1082              		.loc 1 534 0
 1083 001a B248     		ldr	r0, .L647+8
 1084 001c FFF7FEFF 		bl	printf
 1085              	.LVL102:
 535:.\console.c   **** 			if (ButtonYNChoice(ECHO_OFF) == _YES)
 1086              		.loc 1 535 0
 1087 0020 2046     		mov	r0, r4
 1088 0022 FFF7FEFF 		bl	ButtonYNChoice
 1089              	.LVL103:
 1090 0026 0128     		cmp	r0, #1
 1091 0028 07D1     		bne	.L122
 537:.\console.c   **** 				printf("\r\n!!!Wait for Bootloading (power off to stop bootloading process)\r\n");
 1092              		.loc 1 537 0
 1093 002a AF48     		ldr	r0, .L647+12
 1094 002c FFF7FEFF 		bl	puts
 1095              	.LVL104:
 538:.\console.c   **** 				CyDelay(100);
 1096              		.loc 1 538 0
 1097 0030 6420     		movs	r0, #100
 1098 0032 FFF7FEFF 		bl	CyDelay
 1099              	.LVL105:
 1100 0036 02F014BD 		b	.L123
 1101              	.L122:
 545:.\console.c   **** 				printf("\r\nBootloading aborted!");
 1102              		.loc 1 545 0
 1103 003a AC48     		ldr	r0, .L647+16
 1104 003c FFF7FEFF 		bl	printf
 1105              	.LVL106:
 1106 0040 02F00FBD 		b	.L123
 1107              	.L121:
 550:.\console.c   **** 			printf(STR_ERROR1);
 1108              		.loc 1 550 0
 1109 0044 AA48     		ldr	r0, .L647+20
 1110 0046 FFF7FEFF 		bl	printf
 1111              	.LVL107:
 1112 004a 02F00ABD 		b	.L123
 1113              	.L120:
 558:.\console.c   **** 	if (strcmp(actual_cmd.action, "$das") == 0)
 1114              		.loc 1 558 0
 1115 004e 2046     		mov	r0, r4
 1116 0050 A849     		ldr	r1, .L647+24
 1117 0052 FFF7FEFF 		bl	strcmp
 1118              	.LVL108:
 1119 0056 A0B9     		cbnz	r0, .L124
 560:.\console.c   **** 		if (strlen(actual_cmd.parameter) == 0)
 1120              		.loc 1 560 0
 1121 0058 E27B     		ldrb	r2, [r4, #15]	@ zero_extendqisi2
 1122 005a 002A     		cmp	r2, #0
 1123 005c 40F0CA80 		bne	.L125
 562:.\console.c   **** 			printf("DAS Vers.0.01 Gamma Starting!\r\n");
 1124              		.loc 1 562 0
 1125 0060 A548     		ldr	r0, .L647+28
 1126 0062 FFF7FEFF 		bl	puts
 1127              	.LVL109:
 563:.\console.c   **** 			printf("Reference Sawtooth Output!\r\n");
ARM GAS  C:\Users\Graziano\AppData\Local\Temp\cccvomne.s 			page 77


 1128              		.loc 1 563 0
 1129 0066 A548     		ldr	r0, .L647+32
 1130 0068 FFF7FEFF 		bl	puts
 1131              	.LVL110:
 564:.\console.c   **** 			CyDelay(300);	/* 300msec delay */
 1132              		.loc 1 564 0
 1133 006c 4FF49670 		mov	r0, #300
 1134 0070 FFF7FEFF 		bl	CyDelay
 1135              	.LVL111:
 566:.\console.c   **** 			das.control = DAS_SAWS_ENABLED;	
 1136              		.loc 1 566 0
 1137 0074 A249     		ldr	r1, .L647+36
 1138 0076 0120     		movs	r0, #1
 1139 0078 0871     		strb	r0, [r1, #4]
 568:.\console.c   **** 			isr_DAS_Start();				/* Start DAS ISR	*/
 1140              		.loc 1 568 0
 1141 007a FFF7FEFF 		bl	isr_DAS_Start
 1142              	.LVL112:
 1143 007e 02F0F0BC 		b	.L123
 1144              	.L124:
 580:.\console.c   **** 	if (strcmp(actual_cmd.action, "$dasc") == 0)
 1145              		.loc 1 580 0
 1146 0082 2046     		mov	r0, r4
 1147 0084 9F49     		ldr	r1, .L647+40
 1148 0086 FFF7FEFF 		bl	strcmp
 1149              	.LVL113:
 1150 008a 0028     		cmp	r0, #0
 1151 008c 00F0B780 		beq	.L621
 1152              	.L126:
 602:.\console.c   **** 	if (strcmp(actual_cmd.action, "$dasi") == 0)
 1153              		.loc 1 602 0
 1154 0090 2046     		mov	r0, r4
 1155 0092 9D49     		ldr	r1, .L647+44
 1156 0094 FFF7FEFF 		bl	strcmp
 1157              	.LVL114:
 1158 0098 0028     		cmp	r0, #0
 1159 009a 00F0C480 		beq	.L622
 1160              	.L127:
 624:.\console.c   **** 	if ((strcmp(actual_cmd.action, "$dasbuf1") == 0) ||
 1161              		.loc 1 624 0
 1162 009e 2046     		mov	r0, r4
 1163 00a0 9A49     		ldr	r1, .L647+48
 1164 00a2 FFF7FEFF 		bl	strcmp
 1165              	.LVL115:
 1166 00a6 0028     		cmp	r0, #0
 1167 00a8 00F0D180 		beq	.L128
 625:.\console.c   **** 		(strcmp(actual_cmd.action, "$b1") == 0)) 
 1168              		.loc 1 625 0 discriminator 1
 1169 00ac 2046     		mov	r0, r4
 1170 00ae 9849     		ldr	r1, .L647+52
 1171 00b0 FFF7FEFF 		bl	strcmp
 1172              	.LVL116:
 624:.\console.c   **** 	if ((strcmp(actual_cmd.action, "$dasbuf1") == 0) ||
 1173              		.loc 1 624 0 discriminator 1
 1174 00b4 0028     		cmp	r0, #0
 1175 00b6 00F0CA80 		beq	.L128
 1176              	.L129:
ARM GAS  C:\Users\Graziano\AppData\Local\Temp\cccvomne.s 			page 78


 650:.\console.c   **** 	if ((strcmp(actual_cmd.action, "$dasbuf2") == 0) ||
 1177              		.loc 1 650 0
 1178 00ba 2046     		mov	r0, r4
 1179 00bc 9549     		ldr	r1, .L647+56
 1180 00be FFF7FEFF 		bl	strcmp
 1181              	.LVL117:
 1182 00c2 0028     		cmp	r0, #0
 1183 00c4 00F0DC80 		beq	.L130
 651:.\console.c   **** 		(strcmp(actual_cmd.action, "$b2") == 0)) 
 1184              		.loc 1 651 0 discriminator 1
 1185 00c8 2046     		mov	r0, r4
 1186 00ca 9349     		ldr	r1, .L647+60
 1187 00cc FFF7FEFF 		bl	strcmp
 1188              	.LVL118:
 650:.\console.c   **** 	if ((strcmp(actual_cmd.action, "$dasbuf2") == 0) ||
 1189              		.loc 1 650 0 discriminator 1
 1190 00d0 0028     		cmp	r0, #0
 1191 00d2 00F0D580 		beq	.L130
 1192              	.L131:
 676:.\console.c   **** 	if ((strcmp(actual_cmd.action, "$dasdbuf1") == 0) ||
 1193              		.loc 1 676 0
 1194 00d6 2046     		mov	r0, r4
 1195 00d8 9049     		ldr	r1, .L647+64
 1196 00da FFF7FEFF 		bl	strcmp
 1197              	.LVL119:
 1198 00de 0028     		cmp	r0, #0
 1199 00e0 00F0E780 		beq	.L132
 677:.\console.c   **** 		(strcmp(actual_cmd.action, "$d1") == 0)) 
 1200              		.loc 1 677 0 discriminator 1
 1201 00e4 2046     		mov	r0, r4
 1202 00e6 8E49     		ldr	r1, .L647+68
 1203 00e8 FFF7FEFF 		bl	strcmp
 1204              	.LVL120:
 676:.\console.c   **** 	if ((strcmp(actual_cmd.action, "$dasdbuf1") == 0) ||
 1205              		.loc 1 676 0 discriminator 1
 1206 00ec 0028     		cmp	r0, #0
 1207 00ee 00F0E080 		beq	.L132
 1208              	.L133:
 701:.\console.c   **** 	if ((strcmp(actual_cmd.action, "$dasdbuf2") == 0) ||
 1209              		.loc 1 701 0
 1210 00f2 7A4C     		ldr	r4, .L647
 1211 00f4 8B49     		ldr	r1, .L647+72
 1212 00f6 2046     		mov	r0, r4
 1213 00f8 FFF7FEFF 		bl	strcmp
 1214              	.LVL121:
 1215 00fc 0028     		cmp	r0, #0
 1216 00fe 00F04381 		beq	.L134
 702:.\console.c   **** 		(strcmp(actual_cmd.action, "$d2") == 0)) 
 1217              		.loc 1 702 0 discriminator 1
 1218 0102 2046     		mov	r0, r4
 1219 0104 8849     		ldr	r1, .L647+76
 1220 0106 FFF7FEFF 		bl	strcmp
 1221              	.LVL122:
 701:.\console.c   **** 	if ((strcmp(actual_cmd.action, "$dasdbuf2") == 0) ||
 1222              		.loc 1 701 0 discriminator 1
 1223 010a 0028     		cmp	r0, #0
 1224 010c 00F03C81 		beq	.L134
ARM GAS  C:\Users\Graziano\AppData\Local\Temp\cccvomne.s 			page 79


 1225              	.L135:
 726:.\console.c   **** 	if ((strcmp(actual_cmd.action, "$dko") == 0) ||
 1226              		.loc 1 726 0
 1227 0110 2046     		mov	r0, r4
 1228 0112 8649     		ldr	r1, .L647+80
 1229 0114 FFF7FEFF 		bl	strcmp
 1230              	.LVL123:
 1231 0118 0028     		cmp	r0, #0
 1232 011a 00F04C81 		beq	.L136
 727:.\console.c   **** 		(strcmp(actual_cmd.action, "$$") == 0))
 1233              		.loc 1 727 0 discriminator 1
 1234 011e 2046     		mov	r0, r4
 1235 0120 8349     		ldr	r1, .L647+84
 1236 0122 FFF7FEFF 		bl	strcmp
 1237              	.LVL124:
 726:.\console.c   **** 	if ((strcmp(actual_cmd.action, "$dko") == 0) ||
 1238              		.loc 1 726 0 discriminator 1
 1239 0126 0028     		cmp	r0, #0
 1240 0128 00F04581 		beq	.L136
 1241              	.L137:
 753:.\console.c   **** 	if (strcmp(actual_cmd.action, "tbuz") == 0)
 1242              		.loc 1 753 0
 1243 012c 2046     		mov	r0, r4
 1244 012e 8149     		ldr	r1, .L647+88
 1245 0130 FFF7FEFF 		bl	strcmp
 1246              	.LVL125:
 1247 0134 0028     		cmp	r0, #0
 1248 0136 00F05581 		beq	.L623
 1249              	.L138:
 776:.\console.c   **** 	if (strcmp(actual_cmd.action, "clre") == 0)
 1250              		.loc 1 776 0
 1251 013a 2046     		mov	r0, r4
 1252 013c 7E49     		ldr	r1, .L647+92
 1253 013e FFF7FEFF 		bl	strcmp
 1254              	.LVL126:
 1255 0142 0028     		cmp	r0, #0
 1256 0144 00F06881 		beq	.L624
 1257              	.L140:
 793:.\console.c   **** 	if ((strcmp(actual_cmd.action, "titg3701") == 0) ||
 1258              		.loc 1 793 0
 1259 0148 2046     		mov	r0, r4
 1260 014a 7C49     		ldr	r1, .L647+96
 1261 014c FFF7FEFF 		bl	strcmp
 1262              	.LVL127:
 1263 0150 0028     		cmp	r0, #0
 1264 0152 00F06D81 		beq	.L141
 794:.\console.c   **** 	   (strcmp(actual_cmd.action, "t3701") == 0))
 1265              		.loc 1 794 0 discriminator 1
 1266 0156 2046     		mov	r0, r4
 1267 0158 7949     		ldr	r1, .L647+100
 1268 015a FFF7FEFF 		bl	strcmp
 1269              	.LVL128:
 793:.\console.c   **** 	if ((strcmp(actual_cmd.action, "titg3701") == 0) ||
 1270              		.loc 1 793 0 discriminator 1
 1271 015e 0028     		cmp	r0, #0
 1272 0160 00F06681 		beq	.L141
 1273              	.L142:
ARM GAS  C:\Users\Graziano\AppData\Local\Temp\cccvomne.s 			page 80


 811:.\console.c   **** 	if ((strcmp(actual_cmd.action, "stopmapsm") == 0) ||
 1274              		.loc 1 811 0
 1275 0164 2046     		mov	r0, r4
 1276 0166 7749     		ldr	r1, .L647+104
 1277 0168 FFF7FEFF 		bl	strcmp
 1278              	.LVL129:
 1279 016c 0028     		cmp	r0, #0
 1280 016e 00F06B81 		beq	.L143
 812:.\console.c   **** 	   (strcmp(actual_cmd.action, "stopsm") == 0))
 1281              		.loc 1 812 0 discriminator 1
 1282 0172 2046     		mov	r0, r4
 1283 0174 7449     		ldr	r1, .L647+108
 1284 0176 FFF7FEFF 		bl	strcmp
 1285              	.LVL130:
 811:.\console.c   **** 	if ((strcmp(actual_cmd.action, "stopmapsm") == 0) ||
 1286              		.loc 1 811 0 discriminator 1
 1287 017a 0028     		cmp	r0, #0
 1288 017c 00F06481 		beq	.L143
 1289              	.L144:
 831:.\console.c   **** 	if ((strcmp(actual_cmd.action, "deenergize") == 0) ||
 1290              		.loc 1 831 0
 1291 0180 564C     		ldr	r4, .L647
 1292 0182 7249     		ldr	r1, .L647+112
 1293 0184 2046     		mov	r0, r4
 1294 0186 FFF7FEFF 		bl	strcmp
 1295              	.LVL131:
 1296 018a 0028     		cmp	r0, #0
 1297 018c 00F06781 		beq	.L145
 832:.\console.c   **** 	   (strcmp(actual_cmd.action, "deen") == 0))
 1298              		.loc 1 832 0 discriminator 1
 1299 0190 2046     		mov	r0, r4
 1300 0192 6F49     		ldr	r1, .L647+116
 1301 0194 FFF7FEFF 		bl	strcmp
 1302              	.LVL132:
 831:.\console.c   **** 	if ((strcmp(actual_cmd.action, "deenergize") == 0) ||
 1303              		.loc 1 831 0 discriminator 1
 1304 0198 0028     		cmp	r0, #0
 1305 019a 00F06081 		beq	.L145
 1306              	.L146:
 854:.\console.c   **** 	if ((strcmp(actual_cmd.action, "energize") == 0) ||
 1307              		.loc 1 854 0
 1308 019e 2046     		mov	r0, r4
 1309 01a0 6C49     		ldr	r1, .L647+120
 1310 01a2 FFF7FEFF 		bl	strcmp
 1311              	.LVL133:
 1312 01a6 0028     		cmp	r0, #0
 1313 01a8 00F06B81 		beq	.L147
 855:.\console.c   **** 	   (strcmp(actual_cmd.action, "en") == 0))
 1314              		.loc 1 855 0 discriminator 1
 1315 01ac 2046     		mov	r0, r4
 1316 01ae 6A49     		ldr	r1, .L647+124
 1317 01b0 FFF7FEFF 		bl	strcmp
 1318              	.LVL134:
 854:.\console.c   **** 	if ((strcmp(actual_cmd.action, "energize") == 0) ||
 1319              		.loc 1 854 0 discriminator 1
 1320 01b4 0028     		cmp	r0, #0
 1321 01b6 00F06481 		beq	.L147
ARM GAS  C:\Users\Graziano\AppData\Local\Temp\cccvomne.s 			page 81


 1322              	.L148:
 907:.\console.c   **** 	if (strcmp(actual_cmd.action, "tmotp") == 0)
 1323              		.loc 1 907 0
 1324 01ba 2046     		mov	r0, r4
 1325 01bc 6749     		ldr	r1, .L647+128
 1326 01be FFF7FEFF 		bl	strcmp
 1327              	.LVL135:
 1328 01c2 0028     		cmp	r0, #0
 1329 01c4 00F07481 		beq	.L625
 1330              	.L149:
 950:.\console.c   **** 	if (strcmp(actual_cmd.action, "tmott") == 0)
 1331              		.loc 1 950 0
 1332 01c8 2046     		mov	r0, r4
 1333 01ca 6549     		ldr	r1, .L647+132
 1334 01cc FFF7FEFF 		bl	strcmp
 1335              	.LVL136:
 1336 01d0 0028     		cmp	r0, #0
 1337 01d2 00F0E781 		beq	.L626
 1338              	.L154:
 994:.\console.c   **** 	if ((strcmp(actual_cmd.action, "dmastert") == 0) ||
 1339              		.loc 1 994 0
 1340 01d6 2046     		mov	r0, r4
 1341 01d8 6249     		ldr	r1, .L647+136
 1342 01da FFF7FEFF 		bl	strcmp
 1343              	.LVL137:
 1344 01de 0028     		cmp	r0, #0
 1345 01e0 40F09782 		bne	.L627
 1346              	.L158:
 997:.\console.c   **** 		if (((deltam_loc = atoi(actual_cmd.parameter)) >= -500)
 1347              		.loc 1 997 0
 1348 01e4 6048     		ldr	r0, .L647+140
 1349 01e6 FFF7FEFF 		bl	atoi
 1350              	.LVL138:
 1351 01ea 03B2     		sxth	r3, r0
 1352 01ec 13F5FA7F 		cmn	r3, #500
 1353 01f0 80F29582 		bge	.L628
 1354              	.LVL139:
 1355              	.L125:
 572:.\console.c   **** 			printf ("*err\n");
 1356              		.loc 1 572 0
 1357 01f4 5D48     		ldr	r0, .L647+144
 1358 01f6 FFF7FEFF 		bl	puts
 1359              	.LVL140:
 1360 01fa 02F032BC 		b	.L123
 1361              	.L621:
 582:.\console.c   **** 		if (strlen(actual_cmd.parameter) == 0)
 1362              		.loc 1 582 0
 1363 01fe E07B     		ldrb	r0, [r4, #15]	@ zero_extendqisi2
 1364 0200 0028     		cmp	r0, #0
 1365 0202 F7D1     		bne	.L125
 584:.\console.c   **** 			printf("DAS Vers.0.01 Gamma Starting!\r\n");
 1366              		.loc 1 584 0
 1367 0204 3C48     		ldr	r0, .L647+28
 1368 0206 FFF7FEFF 		bl	puts
 1369              	.LVL141:
 585:.\console.c   **** 			printf("Gobee Control System Output!\r\n");
 1370              		.loc 1 585 0
ARM GAS  C:\Users\Graziano\AppData\Local\Temp\cccvomne.s 			page 82


 1371 020a 5948     		ldr	r0, .L647+148
 1372 020c FFF7FEFF 		bl	puts
 1373              	.LVL142:
 586:.\console.c   **** 			CyDelay(300);	/* 300msec delay */
 1374              		.loc 1 586 0
 1375 0210 4FF49670 		mov	r0, #300
 1376 0214 FFF7FEFF 		bl	CyDelay
 1377              	.LVL143:
 588:.\console.c   **** 			das.control = DAS_GOBEE_CONTROL_VARS_ENABLED;	
 1378              		.loc 1 588 0
 1379 0218 394B     		ldr	r3, .L647+36
 1380 021a 0221     		movs	r1, #2
 1381 021c 1971     		strb	r1, [r3, #4]
 590:.\console.c   **** 			isr_DAS_Start();				/* Start DAS ISR	*/
 1382              		.loc 1 590 0
 1383 021e FFF7FEFF 		bl	isr_DAS_Start
 1384              	.LVL144:
 1385 0222 02F01EBC 		b	.L123
 1386              	.L622:
 604:.\console.c   **** 		if (strlen(actual_cmd.parameter) == 0)
 1387              		.loc 1 604 0
 1388 0226 E37B     		ldrb	r3, [r4, #15]	@ zero_extendqisi2
 1389 0228 002B     		cmp	r3, #0
 1390 022a E3D1     		bne	.L125
 606:.\console.c   **** 			printf("DAS Vers.0.01 Gamma Starting!\r\n");
 1391              		.loc 1 606 0
 1392 022c 3248     		ldr	r0, .L647+28
 1393 022e FFF7FEFF 		bl	puts
 1394              	.LVL145:
 607:.\console.c   **** 			printf("Gobee Inertial Vars Output!\r\n");
 1395              		.loc 1 607 0
 1396 0232 5048     		ldr	r0, .L647+152
 1397 0234 FFF7FEFF 		bl	puts
 1398              	.LVL146:
 608:.\console.c   **** 			CyDelay(300);	/* 300msec delay */
 1399              		.loc 1 608 0
 1400 0238 4FF49670 		mov	r0, #300
 1401 023c FFF7FEFF 		bl	CyDelay
 1402              	.LVL147:
 610:.\console.c   **** 			das.control = DAS_GOBEE_INERTIAL_VARS_ENABLED;	
 1403              		.loc 1 610 0
 1404 0240 2F4A     		ldr	r2, .L647+36
 1405 0242 0321     		movs	r1, #3
 1406 0244 1171     		strb	r1, [r2, #4]
 612:.\console.c   **** 			isr_DAS_Start();				/* Start DAS ISR	*/
 1407              		.loc 1 612 0
 1408 0246 FFF7FEFF 		bl	isr_DAS_Start
 1409              	.LVL148:
 1410 024a 02F00ABC 		b	.L123
 1411              	.L128:
 627:.\console.c   **** 		if (strlen(actual_cmd.parameter) == 0)
 1412              		.loc 1 627 0
 1413 024e 234B     		ldr	r3, .L647
 1414 0250 D97B     		ldrb	r1, [r3, #15]	@ zero_extendqisi2
 1415 0252 0029     		cmp	r1, #0
 1416 0254 CED1     		bne	.L125
 629:.\console.c   **** 			printf("DAS Vers.0.02A Alpha Starting!\r\n");
ARM GAS  C:\Users\Graziano\AppData\Local\Temp\cccvomne.s 			page 83


 1417              		.loc 1 629 0
 1418 0256 4848     		ldr	r0, .L647+156
 1419 0258 FFF7FEFF 		bl	puts
 1420              	.LVL149:
 630:.\console.c   **** 			printf("Gobee Control Vars Buffering!\r\n");
 1421              		.loc 1 630 0
 1422 025c 4748     		ldr	r0, .L647+160
 1423 025e FFF7FEFF 		bl	puts
 1424              	.LVL150:
 631:.\console.c   **** 			CyDelay(300);	/* 300msec delay */
 1425              		.loc 1 631 0
 1426 0262 4FF49670 		mov	r0, #300
 1427 0266 FFF7FEFF 		bl	CyDelay
 1428              	.LVL151:
 633:.\console.c   **** 			DASbufferingInit();			/* DAS Buffering Init  */
 1429              		.loc 1 633 0
 1430 026a FFF7FEFF 		bl	DASbufferingInit
 1431              	.LVL152:
 634:.\console.c   **** 			DASbufferingStart();		/* DAS Buffering Start */
 1432              		.loc 1 634 0
 1433 026e FFF7FEFF 		bl	DASbufferingStart
 1434              	.LVL153:
 636:.\console.c   **** 			das.control = DAS_BUFFERING_GOBEE_CVs_ENABLED;	
 1435              		.loc 1 636 0
 1436 0272 2348     		ldr	r0, .L647+36
 1437 0274 0A22     		movs	r2, #10
 1438 0276 0271     		strb	r2, [r0, #4]
 638:.\console.c   **** 			isr_DAS_Start();				/* Start DAS ISR	*/			
 1439              		.loc 1 638 0
 1440 0278 FFF7FEFF 		bl	isr_DAS_Start
 1441              	.LVL154:
 1442 027c 02F0F1BB 		b	.L123
 1443              	.L130:
 653:.\console.c   **** 		if (strlen(actual_cmd.parameter) == 0)
 1444              		.loc 1 653 0
 1445 0280 164B     		ldr	r3, .L647
 1446 0282 D97B     		ldrb	r1, [r3, #15]	@ zero_extendqisi2
 1447 0284 0029     		cmp	r1, #0
 1448 0286 B5D1     		bne	.L125
 655:.\console.c   **** 			printf("DAS Vers.0.02A Alpha Starting!\r\n");
 1449              		.loc 1 655 0
 1450 0288 3B48     		ldr	r0, .L647+156
 1451 028a FFF7FEFF 		bl	puts
 1452              	.LVL155:
 656:.\console.c   **** 			printf("Gobee Inertial Vars Buffering!\r\n");
 1453              		.loc 1 656 0
 1454 028e 3C48     		ldr	r0, .L647+164
 1455 0290 FFF7FEFF 		bl	puts
 1456              	.LVL156:
 657:.\console.c   **** 			CyDelay(300);	/* 300msec delay */
 1457              		.loc 1 657 0
 1458 0294 4FF49670 		mov	r0, #300
 1459 0298 FFF7FEFF 		bl	CyDelay
 1460              	.LVL157:
 659:.\console.c   **** 			DASbufferingInit();			/* DAS Buffering Init  */
 1461              		.loc 1 659 0
 1462 029c FFF7FEFF 		bl	DASbufferingInit
ARM GAS  C:\Users\Graziano\AppData\Local\Temp\cccvomne.s 			page 84


 1463              	.LVL158:
 660:.\console.c   **** 			DASbufferingStart();		/* DAS Buffering Start */
 1464              		.loc 1 660 0
 1465 02a0 FFF7FEFF 		bl	DASbufferingStart
 1466              	.LVL159:
 662:.\console.c   **** 			das.control = DAS_BUFFERING_GOBEE_IVs_ENABLED;	
 1467              		.loc 1 662 0
 1468 02a4 1648     		ldr	r0, .L647+36
 1469 02a6 0B22     		movs	r2, #11
 1470 02a8 0271     		strb	r2, [r0, #4]
 664:.\console.c   **** 			isr_DAS_Start();				/* Start DAS ISR	*/			
 1471              		.loc 1 664 0
 1472 02aa FFF7FEFF 		bl	isr_DAS_Start
 1473              	.LVL160:
 1474 02ae 02F0D8BB 		b	.L123
 1475              	.L132:
 679:.\console.c   **** 		if (strlen(actual_cmd.parameter) == 0)
 1476              		.loc 1 679 0
 1477 02b2 E17B     		ldrb	r1, [r4, #15]	@ zero_extendqisi2
 1478 02b4 0029     		cmp	r1, #0
 1479 02b6 9DD1     		bne	.L125
 681:.\console.c   **** 			printf("Gobee Control Vars DE-Buffering!\r\n");
 1480              		.loc 1 681 0
 1481 02b8 3248     		ldr	r0, .L647+168
 1482 02ba FFF7FEFF 		bl	puts
 1483              	.LVL161:
 682:.\console.c   **** 			CyDelay(300);	/* 300msec delay */
 1484              		.loc 1 682 0
 1485 02be 4FF49670 		mov	r0, #300
 1486 02c2 FFF7FEFF 		bl	CyDelay
 1487              	.LVL162:
 684:.\console.c   **** 			DASdebufferingInit();		/* DAS DeBuffering Init  			*/
 1488              		.loc 1 684 0
 1489 02c6 FFF7FEFF 		bl	DASdebufferingInit
 1490              	.LVL163:
 685:.\console.c   **** 			DASdebufferingStart();		/* DAS DeBuffering Buffer Start 	*/
 1491              		.loc 1 685 0
 1492 02ca FFF7FEFF 		bl	DASdebufferingStart
 1493              	.LVL164:
 687:.\console.c   **** 			das.control = DAS_DEBUFFERING_GOBEE_CVs_ENABLED;	
 1494              		.loc 1 687 0
 1495 02ce 0C48     		ldr	r0, .L647+36
 1496 02d0 1422     		movs	r2, #20
 1497 02d2 0271     		strb	r2, [r0, #4]
 689:.\console.c   **** 			isr_DAS_Start();				/* Start DAS ISR	*/
 1498              		.loc 1 689 0
 1499 02d4 FFF7FEFF 		bl	isr_DAS_Start
 1500              	.LVL165:
 1501 02d8 02F0C3BB 		b	.L123
 1502              	.L648:
 1503              		.align	2
 1504              	.L647:
 1505 02dc 00000000 		.word	actual_cmd
 1506 02e0 3C020000 		.word	.LC42
 1507 02e4 41020000 		.word	.LC43
 1508 02e8 69020000 		.word	.LC44
 1509 02ec AC020000 		.word	.LC45
ARM GAS  C:\Users\Graziano\AppData\Local\Temp\cccvomne.s 			page 85


 1510 02f0 C3020000 		.word	.LC46
 1511 02f4 E1020000 		.word	.LC47
 1512 02f8 E6020000 		.word	.LC48
 1513 02fc 05030000 		.word	.LC49
 1514 0300 00000000 		.word	das
 1515 0304 26030000 		.word	.LC51
 1516 0308 4A030000 		.word	.LC53
 1517 030c 6D030000 		.word	.LC55
 1518 0310 76030000 		.word	.LC56
 1519 0314 B9030000 		.word	.LC59
 1520 0318 C2030000 		.word	.LC60
 1521 031c E6030000 		.word	.LC62
 1522 0320 F0030000 		.word	.LC63
 1523 0324 16040000 		.word	.LC65
 1524 0328 20040000 		.word	.LC66
 1525 032c 47040000 		.word	.LC68
 1526 0330 4C040000 		.word	.LC69
 1527 0334 5D040000 		.word	.LC71
 1528 0338 73040000 		.word	.LC73
 1529 033c 8D040000 		.word	.LC75
 1530 0340 96040000 		.word	.LC76
 1531 0344 BA040000 		.word	.LC78
 1532 0348 C4040000 		.word	.LC79
 1533 034c EB040000 		.word	.LC81
 1534 0350 F6040000 		.word	.LC82
 1535 0354 24050000 		.word	.LC84
 1536 0358 2D050000 		.word	.LC85
 1537 035c 46050000 		.word	.LC87
 1538 0360 FA050000 		.word	.LC95
 1539 0364 61060000 		.word	.LC98
 1540 0368 0F000000 		.word	actual_cmd+15
 1541 036c 21030000 		.word	.LC50
 1542 0370 2C030000 		.word	.LC52
 1543 0374 50030000 		.word	.LC54
 1544 0378 7A030000 		.word	.LC57
 1545 037c 9A030000 		.word	.LC58
 1546 0380 C6030000 		.word	.LC61
 1547 0384 F4030000 		.word	.LC64
 1548              	.L134:
 704:.\console.c   **** 		if (strlen(actual_cmd.parameter) == 0)
 1549              		.loc 1 704 0
 1550 0388 8D49     		ldr	r1, .L649
 1551 038a CA7B     		ldrb	r2, [r1, #15]	@ zero_extendqisi2
 1552 038c 002A     		cmp	r2, #0
 1553 038e 7FF431AF 		bne	.L125
 706:.\console.c   **** 			printf("Gobee Inertial Vars DE-Buffering!\r\n");
 1554              		.loc 1 706 0
 1555 0392 8C48     		ldr	r0, .L649+4
 1556 0394 FFF7FEFF 		bl	puts
 1557              	.LVL166:
 707:.\console.c   **** 			CyDelay(300);	/* 300msec delay */			
 1558              		.loc 1 707 0
 1559 0398 4FF49670 		mov	r0, #300
 1560 039c FFF7FEFF 		bl	CyDelay
 1561              	.LVL167:
 709:.\console.c   **** 			DASdebufferingInit();		/* DAS DeBuffering Init  			*/
 1562              		.loc 1 709 0
ARM GAS  C:\Users\Graziano\AppData\Local\Temp\cccvomne.s 			page 86


 1563 03a0 FFF7FEFF 		bl	DASdebufferingInit
 1564              	.LVL168:
 710:.\console.c   **** 			DASdebufferingStart();		/* DAS DeBuffering Buffer Start 	*/
 1565              		.loc 1 710 0
 1566 03a4 FFF7FEFF 		bl	DASdebufferingStart
 1567              	.LVL169:
 712:.\console.c   **** 			das.control = DAS_DEBUFFERING_GOBEE_IVs_ENABLED;	
 1568              		.loc 1 712 0
 1569 03a8 874B     		ldr	r3, .L649+8
 1570 03aa 1520     		movs	r0, #21
 1571 03ac 1871     		strb	r0, [r3, #4]
 714:.\console.c   **** 			isr_DAS_Start();				/* Start DAS ISR	*/
 1572              		.loc 1 714 0
 1573 03ae FFF7FEFF 		bl	isr_DAS_Start
 1574              	.LVL170:
 1575 03b2 02F056BB 		b	.L123
 1576              	.L136:
 729:.\console.c   **** 		if (strlen(actual_cmd.parameter) == 0)
 1577              		.loc 1 729 0
 1578 03b6 824A     		ldr	r2, .L649
 1579 03b8 D37B     		ldrb	r3, [r2, #15]	@ zero_extendqisi2
 1580 03ba 002B     		cmp	r3, #0
 1581 03bc 7FF41AAF 		bne	.L125
 731:.\console.c   **** 			das.control = DAS_DISABLED;		
 1582              		.loc 1 731 0
 1583 03c0 8148     		ldr	r0, .L649+8
 1584 03c2 0371     		strb	r3, [r0, #4]
 733:.\console.c   **** 			DASbufferingStop();			/* DAS Buffering Stop */
 1585              		.loc 1 733 0
 1586 03c4 FFF7FEFF 		bl	DASbufferingStop
 1587              	.LVL171:
 735:.\console.c   **** 			isr_DAS_Stop();				/* Stop DAS ISR		  */
 1588              		.loc 1 735 0
 1589 03c8 FFF7FEFF 		bl	isr_DAS_Stop
 1590              	.LVL172:
 737:.\console.c   **** 			CyDelay(300);	/* 300msec delay */	
 1591              		.loc 1 737 0
 1592 03cc 4FF49670 		mov	r0, #300
 1593 03d0 FFF7FEFF 		bl	CyDelay
 1594              	.LVL173:
 738:.\console.c   **** 			printf("\r\n");
 1595              		.loc 1 738 0
 1596 03d4 7D48     		ldr	r0, .L649+12
 1597 03d6 FFF7FEFF 		bl	puts
 1598              	.LVL174:
 739:.\console.c   **** 			printf("DAS Stopped!\r\n");
 1599              		.loc 1 739 0
 1600 03da 7D48     		ldr	r0, .L649+16
 1601 03dc FFF7FEFF 		bl	puts
 1602              	.LVL175:
 1603 03e0 02F03FBB 		b	.L123
 1604              	.L623:
 755:.\console.c   **** 		if (strlen(actual_cmd.parameter) == 0)
 1605              		.loc 1 755 0
 1606 03e4 E17B     		ldrb	r1, [r4, #15]	@ zero_extendqisi2
 1607 03e6 0029     		cmp	r1, #0
 1608 03e8 7FF404AF 		bne	.L125
ARM GAS  C:\Users\Graziano\AppData\Local\Temp\cccvomne.s 			page 87


 757:.\console.c   **** 			printf("Buzzer testing!\r\n");
 1609              		.loc 1 757 0
 1610 03ec 7948     		ldr	r0, .L649+20
 1611 03ee FFF7FEFF 		bl	puts
 1612              	.LVL176:
 1613 03f2 0324     		movs	r4, #3
 1614              	.LVL177:
 1615              	.L139:
 760:.\console.c   **** 				Control_Reg_BUZ_Write(BUZZER_ON);	/* buzzer on			*/
 1616              		.loc 1 760 0 discriminator 2
 1617 03f4 0120     		movs	r0, #1
 1618 03f6 FFF7FEFF 		bl	Control_Reg_BUZ_Write
 1619              	.LVL178:
 761:.\console.c   **** 				CyDelay(250);						/* 250msec sec delay	*/
 1620              		.loc 1 761 0 discriminator 2
 1621 03fa FA20     		movs	r0, #250
 1622 03fc FFF7FEFF 		bl	CyDelay
 1623              	.LVL179:
 762:.\console.c   **** 				Control_Reg_BUZ_Write(BUZZER_OFF);	/* buzzer off			*/
 1624              		.loc 1 762 0 discriminator 2
 1625 0400 0020     		movs	r0, #0
 1626 0402 FFF7FEFF 		bl	Control_Reg_BUZ_Write
 1627              	.LVL180:
 1628 0406 013C     		subs	r4, r4, #1
 763:.\console.c   **** 				CyDelay(125);						/* 125msec sec delay	*/			
 1629              		.loc 1 763 0 discriminator 2
 1630 0408 7D20     		movs	r0, #125
 1631 040a FFF7FEFF 		bl	CyDelay
 1632              	.LVL181:
 758:.\console.c   ****      		for (idx = 0; idx < 3; idx++)
 1633              		.loc 1 758 0 discriminator 2
 1634 040e 14F0FF04 		ands	r4, r4, #255
 1635 0412 EFD1     		bne	.L139
 1636 0414 02F025BB 		b	.L123
 1637              	.LVL182:
 1638              	.L624:
 778:.\console.c   **** 		if (strlen(actual_cmd.parameter) == 0)
 1639              		.loc 1 778 0
 1640 0418 E47B     		ldrb	r4, [r4, #15]	@ zero_extendqisi2
 1641 041a 002C     		cmp	r4, #0
 1642 041c 7FF4EAAE 		bne	.L125
 780:.\console.c   **** 			printf ("*pan encoder cleared\n");
 1643              		.loc 1 780 0
 1644 0420 6D48     		ldr	r0, .L649+24
 1645 0422 FFF7FEFF 		bl	puts
 1646              	.LVL183:
 781:.\console.c   **** 			QuadDec_PAN_SetCounter(0);
 1647              		.loc 1 781 0
 1648 0426 2046     		mov	r0, r4
 1649 0428 FFF7FEFF 		bl	QuadDec_PAN_SetCounter
 1650              	.LVL184:
 1651 042c 02F019BB 		b	.L123
 1652              	.L141:
 796:.\console.c   **** 		if (strlen(actual_cmd.parameter) == 0)
 1653              		.loc 1 796 0
 1654 0430 634B     		ldr	r3, .L649
 1655 0432 D87B     		ldrb	r0, [r3, #15]	@ zero_extendqisi2
ARM GAS  C:\Users\Graziano\AppData\Local\Temp\cccvomne.s 			page 88


 1656 0434 0028     		cmp	r0, #0
 1657 0436 7FF4DDAE 		bne	.L125
 798:.\console.c   **** 			printf("Invensense ITG-3701 testing!\r\n");
 1658              		.loc 1 798 0
 1659 043a 6848     		ldr	r0, .L649+28
 1660 043c FFF7FEFF 		bl	puts
 1661              	.LVL185:
 799:.\console.c   **** 			ITG3701_test();
 1662              		.loc 1 799 0
 1663 0440 FFF7FEFF 		bl	ITG3701_test
 1664              	.LVL186:
 1665 0444 02F00DBB 		b	.L123
 1666              	.L143:
 814:.\console.c   **** 		if (strlen(actual_cmd.parameter) == 0)
 1667              		.loc 1 814 0
 1668 0448 E27B     		ldrb	r2, [r4, #15]	@ zero_extendqisi2
 1669 044a 002A     		cmp	r2, #0
 1670 044c 7FF4D2AE 		bne	.L125
 816:.\console.c   **** 			printf("MAPPING STATE MACHINE Stopped!\r\n");
 1671              		.loc 1 816 0
 1672 0450 6348     		ldr	r0, .L649+32
 1673 0452 FFF7FEFF 		bl	puts
 1674              	.LVL187:
 819:.\console.c   **** 			MappingStateMachineInit();
 1675              		.loc 1 819 0
 1676 0456 FFF7FEFF 		bl	MappingStateMachineInit
 1677              	.LVL188:
 1678 045a 02F002BB 		b	.L123
 1679              	.L145:
 834:.\console.c   **** 		if (strlen(actual_cmd.parameter) == 0)
 1680              		.loc 1 834 0
 1681 045e 584A     		ldr	r2, .L649
 1682 0460 D37B     		ldrb	r3, [r2, #15]	@ zero_extendqisi2
 1683 0462 002B     		cmp	r3, #0
 1684 0464 7FF4C6AE 		bne	.L125
 836:.\console.c   **** 			printf("PAN Motor DEENERGIZED & Driver Sleeped!\r\n");
 1685              		.loc 1 836 0
 1686 0468 5E48     		ldr	r0, .L649+36
 1687 046a FFF7FEFF 		bl	puts
 1688              	.LVL189:
 837:.\console.c   **** 			machine_state = GOBEE_DEENERGIZED;
 1689              		.loc 1 837 0
 1690 046e 5E49     		ldr	r1, .L649+40
 1691 0470 0620     		movs	r0, #6
 1692 0472 0870     		strb	r0, [r1, #0]
 840:.\console.c   **** 			MappingStateMachineInit();
 1693              		.loc 1 840 0
 1694 0474 FFF7FEFF 		bl	MappingStateMachineInit
 1695              	.LVL190:
 842:.\console.c   **** 			mototor_sleep(&pan_axis);
 1696              		.loc 1 842 0
 1697 0478 5C48     		ldr	r0, .L649+44
 1698 047a FFF7FEFF 		bl	mototor_sleep
 1699              	.LVL191:
 1700 047e 02F0F0BA 		b	.L123
 1701              	.L147:
 857:.\console.c   **** 		if (strlen(actual_cmd.parameter) == 0)
ARM GAS  C:\Users\Graziano\AppData\Local\Temp\cccvomne.s 			page 89


 1702              		.loc 1 857 0
 1703 0482 4F4A     		ldr	r2, .L649
 1704 0484 D47B     		ldrb	r4, [r2, #15]	@ zero_extendqisi2
 1705 0486 002C     		cmp	r4, #0
 1706 0488 7FF4B4AE 		bne	.L125
 859:.\console.c   **** 			printf("PAN Motor ENERGIZED!\r\n");
 1707              		.loc 1 859 0
 1708 048c 5848     		ldr	r0, .L649+48
 1709 048e FFF7FEFF 		bl	puts
 1710              	.LVL192:
 860:.\console.c   **** 			QuadDec_PAN_Start();						/* Reset PAN Feedback Encoder Counter	*/
 1711              		.loc 1 860 0
 1712 0492 FFF7FEFF 		bl	QuadDec_PAN_Start
 1713              	.LVL193:
 862:.\console.c   **** 			events.mapping_sm_status = SM_ON_ORIGIN;	/* Mapping State Machine Initialization */
 1714              		.loc 1 862 0
 1715 0496 574B     		ldr	r3, .L649+52
 864:.\console.c   **** 			CyDelay(100);
 1716              		.loc 1 864 0
 1717 0498 6420     		movs	r0, #100
 862:.\console.c   **** 			events.mapping_sm_status = SM_ON_ORIGIN;	/* Mapping State Machine Initialization */
 1718              		.loc 1 862 0
 1719 049a 1C70     		strb	r4, [r3, #0]
 864:.\console.c   **** 			CyDelay(100);
 1720              		.loc 1 864 0
 1721 049c FFF7FEFF 		bl	CyDelay
 1722              	.LVL194:
 865:.\console.c   **** 			machine_state = GOBEE_ENERGIZED;			
 1723              		.loc 1 865 0
 1724 04a0 5149     		ldr	r1, .L649+40
 1725 04a2 0520     		movs	r0, #5
 1726 04a4 0870     		strb	r0, [r1, #0]
 866:.\console.c   **** 			mototor_energize(&pan_axis);
 1727              		.loc 1 866 0
 1728 04a6 5148     		ldr	r0, .L649+44
 1729 04a8 FFF7FEFF 		bl	mototor_energize
 1730              	.LVL195:
 1731 04ac 02F0D9BA 		b	.L123
 1732              	.L625:
 909:.\console.c   **** 		if (((speed_loc = atoi(actual_cmd.parameter)) >= -MOTOR_PWM_PERIOD_HALF)
 1733              		.loc 1 909 0
 1734 04b0 04F10F00 		add	r0, r4, #15
 1735 04b4 FFF7FEFF 		bl	atoi
 1736              	.LVL196:
 1737 04b8 01B2     		sxth	r1, r0
 1738 04ba 11F5806F 		cmn	r1, #1024
 1739 04be 79DB     		blt	.L241
 910:.\console.c   **** 		&& (speed_loc = atoi(actual_cmd.parameter)) <= MOTOR_PWM_PERIOD_HALF)
 1740              		.loc 1 910 0
 1741 04c0 04F10F00 		add	r0, r4, #15
 1742              	.LVL197:
 1743 04c4 FFF7FEFF 		bl	atoi
 1744              	.LVL198:
 1745 04c8 02B2     		sxth	r2, r0
 1746 04ca B2F5806F 		cmp	r2, #1024
 1747 04ce 71DC     		bgt	.L241
 914:.\console.c   **** 			machine_state_backup = machine_state;								/* push machine state 				*/
ARM GAS  C:\Users\Graziano\AppData\Local\Temp\cccvomne.s 			page 90


 1748              		.loc 1 914 0
 1749 04d0 454A     		ldr	r2, .L649+40
 912:.\console.c   **** 			pan_axis.mc.pwm_test_var = MOTOR_PWM_PERIOD_HALF + speed_loc;		/* set pan pwm test value 			*/
 1750              		.loc 1 912 0
 1751 04d2 464C     		ldr	r4, .L649+44
 913:.\console.c   ****  			tilt_axis.mc.pwm_test_var = MOTOR_PWM_PERIOD_HALF;		            /* set tilt pwm to 50% 		    	*
 1752              		.loc 1 913 0
 1753 04d4 4849     		ldr	r1, .L649+56
 912:.\console.c   **** 			pan_axis.mc.pwm_test_var = MOTOR_PWM_PERIOD_HALF + speed_loc;		/* set pan pwm test value 			*/
 1754              		.loc 1 912 0
 1755 04d6 00F58063 		add	r3, r0, #1024
 913:.\console.c   ****  			tilt_axis.mc.pwm_test_var = MOTOR_PWM_PERIOD_HALF;		            /* set tilt pwm to 50% 		    	*
 1756              		.loc 1 913 0
 1757 04da 4FF48060 		mov	r0, #1024
 1758              	.LVL199:
 1759 04de A1F84A00 		strh	r0, [r1, #74]	@ movhi
 912:.\console.c   **** 			pan_axis.mc.pwm_test_var = MOTOR_PWM_PERIOD_HALF + speed_loc;		/* set pan pwm test value 			*/
 1760              		.loc 1 912 0
 1761 04e2 A4F84A30 		strh	r3, [r4, #74]	@ movhi
 914:.\console.c   **** 			machine_state_backup = machine_state;								/* push machine state 				*/
 1762              		.loc 1 914 0
 1763 04e6 4548     		ldr	r0, .L649+60
 1764 04e8 1378     		ldrb	r3, [r2, #0]	@ zero_extendqisi2
 1765              	.LVL200:
 915:.\console.c   **** 			machine_state = GOBEE_TEST;											/* signaling to control TEST MODE 	*/
 1766              		.loc 1 915 0
 1767 04ea 0221     		movs	r1, #2
 914:.\console.c   **** 			machine_state_backup = machine_state;								/* push machine state 				*/
 1768              		.loc 1 914 0
 1769 04ec 0370     		strb	r3, [r0, #0]
 916:.\console.c   **** 			mototor_energize(&pan_axis);										/* energize the pan axis			*/
 1770              		.loc 1 916 0
 1771 04ee 2046     		mov	r0, r4
 915:.\console.c   **** 			machine_state = GOBEE_TEST;											/* signaling to control TEST MODE 	*/
 1772              		.loc 1 915 0
 1773 04f0 1170     		strb	r1, [r2, #0]
 916:.\console.c   **** 			mototor_energize(&pan_axis);										/* energize the pan axis			*/
 1774              		.loc 1 916 0
 1775 04f2 FFF7FEFF 		bl	mototor_energize
 1776              	.LVL201:
 918:.\console.c   **** 			printf("PAN Motor Energized & Running: any key to exit test!\r\n");	
 1777              		.loc 1 918 0
 1778 04f6 4248     		ldr	r0, .L649+64
 1779 04f8 FFF7FEFF 		bl	puts
 1780              	.LVL202:
 1781              	.L151:
 919:.\console.c   **** 			while (AnyButtonPressed() == NO_PRESSED)
 1782              		.loc 1 919 0 discriminator 1
 1783 04fc FFF7FEFF 		bl	AnyButtonPressed
 1784              	.LVL203:
 1785 0500 0028     		cmp	r0, #0
 1786 0502 3ED1     		bne	.L629
 1787              	.L153:
 921:.\console.c   **** 				printf("Fbk Encoder Pos=%+ld [step] ", (int32)pan_feedback_encoder.position);
 1788              		.loc 1 921 0
 1789 0504 3F4C     		ldr	r4, .L649+68
 1790 0506 4048     		ldr	r0, .L649+72
ARM GAS  C:\Users\Graziano\AppData\Local\Temp\cccvomne.s 			page 91


 1791 0508 2168     		ldr	r1, [r4, #0]
 1792 050a FFF7FEFF 		bl	printf
 1793              	.LVL204:
 922:.\console.c   **** 				printf(" Vel=%+1.2f [step/s]", (float)pan_feedback_encoder.velocity);
 1794              		.loc 1 922 0
 1795 050e 6068     		ldr	r0, [r4, #4]	@ float
 1796 0510 FFF7FEFF 		bl	__aeabi_f2d
 1797              	.LVL205:
 1798 0514 0246     		mov	r2, r0
 1799 0516 0B46     		mov	r3, r1
 1800 0518 3C48     		ldr	r0, .L649+76
 1801 051a FFF7FEFF 		bl	printf
 1802              	.LVL206:
 923:.\console.c   **** 				printf(" Vel=%+1.2f [rpm]", (float)(pan_feedback_encoder.velocity*60)/(float)pan_feedback_encod
 1803              		.loc 1 923 0
 1804 051e 3C49     		ldr	r1, .L649+80
 1805 0520 6068     		ldr	r0, [r4, #4]	@ float
 1806 0522 FFF7FEFF 		bl	__aeabi_fmul
 1807              	.LVL207:
 1808 0526 0546     		mov	r5, r0
 1809 0528 2069     		ldr	r0, [r4, #16]
 1810 052a FFF7FEFF 		bl	__aeabi_i2f
 1811              	.LVL208:
 1812 052e 0146     		mov	r1, r0
 1813 0530 2846     		mov	r0, r5
 1814 0532 FFF7FEFF 		bl	__aeabi_fdiv
 1815              	.LVL209:
 1816 0536 FFF7FEFF 		bl	__aeabi_f2d
 1817              	.LVL210:
 1818 053a 0246     		mov	r2, r0
 1819 053c 0B46     		mov	r3, r1
 1820 053e 3548     		ldr	r0, .L649+84
 1821 0540 FFF7FEFF 		bl	printf
 1822              	.LVL211:
 924:.\console.c   **** 				printf(" F=%+1.2f [Hz]", (float)(pan_feedback_encoder.velocity/((float)pan_feedback_encoder.par
 1823              		.loc 1 924 0
 1824 0544 2069     		ldr	r0, [r4, #16]
 1825 0546 FFF7FEFF 		bl	__aeabi_i2f
 1826              	.LVL212:
 1827 054a 3349     		ldr	r1, .L649+88
 1828 054c FFF7FEFF 		bl	__aeabi_fmul
 1829              	.LVL213:
 1830 0550 0146     		mov	r1, r0
 1831 0552 6068     		ldr	r0, [r4, #4]	@ float
 1832 0554 FFF7FEFF 		bl	__aeabi_fdiv
 1833              	.LVL214:
 1834 0558 FFF7FEFF 		bl	__aeabi_f2d
 1835              	.LVL215:
 1836 055c 0246     		mov	r2, r0
 1837 055e 0B46     		mov	r3, r1
 1838 0560 2E48     		ldr	r0, .L649+92
 1839 0562 FFF7FEFF 		bl	printf
 1840              	.LVL216:
 925:.\console.c   **** 				if ((Status_Reg_MOTORS_Read() & SR_PAN_MOT_FL) == 0)
 1841              		.loc 1 925 0
 1842 0566 FFF7FEFF 		bl	Status_Reg_MOTORS_Read
 1843              	.LVL217:
ARM GAS  C:\Users\Graziano\AppData\Local\Temp\cccvomne.s 			page 92


 1844 056a C107     		lsls	r1, r0, #31
 1845 056c 02D4     		bmi	.L152
 927:.\console.c   **** 					printf(" (IPK!)");	
 1846              		.loc 1 927 0
 1847 056e 2C48     		ldr	r0, .L649+96
