ARM GAS  C:\Users\Graziano\AppData\Local\Temp\ccMyfgze.s 			page 1


   1              		.syntax unified
   2              		.cpu cortex-m3
   3              		.fpu softvfp
   4              		.eabi_attribute 20, 1
   5              		.eabi_attribute 21, 1
   6              		.eabi_attribute 23, 3
   7              		.eabi_attribute 24, 1
   8              		.eabi_attribute 25, 1
   9              		.eabi_attribute 26, 1
  10              		.eabi_attribute 30, 4
  11              		.eabi_attribute 34, 1
  12              		.eabi_attribute 18, 4
  13              		.thumb
  14              		.file	"Counter_LED.c"
  15              		.text
  16              	.Ltext0:
  17              		.cfi_sections	.debug_frame
  18              		.section	.text.Counter_LED_Enable,"ax",%progbits
  19              		.align	1
  20              		.global	Counter_LED_Enable
  21              		.thumb
  22              		.thumb_func
  23              		.type	Counter_LED_Enable, %function
  24              	Counter_LED_Enable:
  25              	.LFB1:
  26              		.file 1 ".\\Generated_Source\\PSoC5\\Counter_LED.c"
   1:.\Generated_Source\PSoC5/Counter_LED.c **** /*******************************************************************************
   2:.\Generated_Source\PSoC5/Counter_LED.c **** * File Name: Counter_LED.c  
   3:.\Generated_Source\PSoC5/Counter_LED.c **** * Version 2.40
   4:.\Generated_Source\PSoC5/Counter_LED.c **** *
   5:.\Generated_Source\PSoC5/Counter_LED.c **** *  Description:
   6:.\Generated_Source\PSoC5/Counter_LED.c **** *     The Counter component consists of a 8, 16, 24 or 32-bit counter with
   7:.\Generated_Source\PSoC5/Counter_LED.c **** *     a selectable period between 2 and 2^Width - 1.  
   8:.\Generated_Source\PSoC5/Counter_LED.c **** *
   9:.\Generated_Source\PSoC5/Counter_LED.c **** *   Note:
  10:.\Generated_Source\PSoC5/Counter_LED.c **** *     None
  11:.\Generated_Source\PSoC5/Counter_LED.c **** *
  12:.\Generated_Source\PSoC5/Counter_LED.c **** *******************************************************************************
  13:.\Generated_Source\PSoC5/Counter_LED.c **** * Copyright 2008-2012, Cypress Semiconductor Corporation.  All rights reserved.
  14:.\Generated_Source\PSoC5/Counter_LED.c **** * You may use this file only in accordance with the license, terms, conditions, 
  15:.\Generated_Source\PSoC5/Counter_LED.c **** * disclaimers, and limitations in the end user license agreement accompanying 
  16:.\Generated_Source\PSoC5/Counter_LED.c **** * the software package with which this file was provided.
  17:.\Generated_Source\PSoC5/Counter_LED.c **** ********************************************************************************/
  18:.\Generated_Source\PSoC5/Counter_LED.c **** 
  19:.\Generated_Source\PSoC5/Counter_LED.c **** #include "Counter_LED.h"
  20:.\Generated_Source\PSoC5/Counter_LED.c **** 
  21:.\Generated_Source\PSoC5/Counter_LED.c **** uint8 Counter_LED_initVar = 0u;
  22:.\Generated_Source\PSoC5/Counter_LED.c **** 
  23:.\Generated_Source\PSoC5/Counter_LED.c **** 
  24:.\Generated_Source\PSoC5/Counter_LED.c **** /*******************************************************************************
  25:.\Generated_Source\PSoC5/Counter_LED.c **** * Function Name: Counter_LED_Init
  26:.\Generated_Source\PSoC5/Counter_LED.c **** ********************************************************************************
  27:.\Generated_Source\PSoC5/Counter_LED.c **** * Summary:
  28:.\Generated_Source\PSoC5/Counter_LED.c **** *     Initialize to the schematic state
  29:.\Generated_Source\PSoC5/Counter_LED.c **** * 
  30:.\Generated_Source\PSoC5/Counter_LED.c **** * Parameters:  
  31:.\Generated_Source\PSoC5/Counter_LED.c **** *  void  
ARM GAS  C:\Users\Graziano\AppData\Local\Temp\ccMyfgze.s 			page 2


  32:.\Generated_Source\PSoC5/Counter_LED.c **** *
  33:.\Generated_Source\PSoC5/Counter_LED.c **** * Return: 
  34:.\Generated_Source\PSoC5/Counter_LED.c **** *  void
  35:.\Generated_Source\PSoC5/Counter_LED.c **** *
  36:.\Generated_Source\PSoC5/Counter_LED.c **** *******************************************************************************/
  37:.\Generated_Source\PSoC5/Counter_LED.c **** void Counter_LED_Init(void) 
  38:.\Generated_Source\PSoC5/Counter_LED.c **** {
  39:.\Generated_Source\PSoC5/Counter_LED.c ****         #if (!Counter_LED_UsingFixedFunction && !Counter_LED_ControlRegRemoved)
  40:.\Generated_Source\PSoC5/Counter_LED.c ****             uint8 ctrl;
  41:.\Generated_Source\PSoC5/Counter_LED.c ****         #endif /* (!Counter_LED_UsingFixedFunction && !Counter_LED_ControlRegRemoved) */
  42:.\Generated_Source\PSoC5/Counter_LED.c ****         
  43:.\Generated_Source\PSoC5/Counter_LED.c ****         #if(!Counter_LED_UsingFixedFunction) 
  44:.\Generated_Source\PSoC5/Counter_LED.c ****             /* Interrupt State Backup for Critical Region*/
  45:.\Generated_Source\PSoC5/Counter_LED.c ****             uint8 Counter_LED_interruptState;
  46:.\Generated_Source\PSoC5/Counter_LED.c ****         #endif /* (!Counter_LED_UsingFixedFunction) */
  47:.\Generated_Source\PSoC5/Counter_LED.c ****         
  48:.\Generated_Source\PSoC5/Counter_LED.c ****         #if (Counter_LED_UsingFixedFunction)
  49:.\Generated_Source\PSoC5/Counter_LED.c ****             /* Clear all bits but the enable bit (if it's already set for Timer operation */
  50:.\Generated_Source\PSoC5/Counter_LED.c ****             Counter_LED_CONTROL &= Counter_LED_CTRL_ENABLE;
  51:.\Generated_Source\PSoC5/Counter_LED.c ****             
  52:.\Generated_Source\PSoC5/Counter_LED.c ****             /* Clear the mode bits for continuous run mode */
  53:.\Generated_Source\PSoC5/Counter_LED.c ****             #if (CY_PSOC5A)
  54:.\Generated_Source\PSoC5/Counter_LED.c ****                 Counter_LED_CONTROL2 &= ((uint8)(~Counter_LED_CTRL_MODE_MASK));
  55:.\Generated_Source\PSoC5/Counter_LED.c ****             #endif /* (CY_PSOC5A) */
  56:.\Generated_Source\PSoC5/Counter_LED.c ****             #if (CY_PSOC3 || CY_PSOC5LP)
  57:.\Generated_Source\PSoC5/Counter_LED.c ****                 Counter_LED_CONTROL3 &= ((uint8)(~Counter_LED_CTRL_MODE_MASK));                
  58:.\Generated_Source\PSoC5/Counter_LED.c ****             #endif /* (CY_PSOC3 || CY_PSOC5LP) */
  59:.\Generated_Source\PSoC5/Counter_LED.c ****             /* Check if One Shot mode is enabled i.e. RunMode !=0*/
  60:.\Generated_Source\PSoC5/Counter_LED.c ****             #if (Counter_LED_RunModeUsed != 0x0u)
  61:.\Generated_Source\PSoC5/Counter_LED.c ****                 /* Set 3rd bit of Control register to enable one shot mode */
  62:.\Generated_Source\PSoC5/Counter_LED.c ****                 Counter_LED_CONTROL |= Counter_LED_ONESHOT;
  63:.\Generated_Source\PSoC5/Counter_LED.c ****             #endif /* (Counter_LED_RunModeUsed != 0x0u) */
  64:.\Generated_Source\PSoC5/Counter_LED.c ****             
  65:.\Generated_Source\PSoC5/Counter_LED.c ****             /* Set the IRQ to use the status register interrupts */
  66:.\Generated_Source\PSoC5/Counter_LED.c ****             Counter_LED_CONTROL2 |= Counter_LED_CTRL2_IRQ_SEL;
  67:.\Generated_Source\PSoC5/Counter_LED.c ****             
  68:.\Generated_Source\PSoC5/Counter_LED.c ****             /* Clear and Set SYNCTC and SYNCCMP bits of RT1 register */
  69:.\Generated_Source\PSoC5/Counter_LED.c ****             Counter_LED_RT1 &= ((uint8)(~Counter_LED_RT1_MASK));
  70:.\Generated_Source\PSoC5/Counter_LED.c ****             Counter_LED_RT1 |= Counter_LED_SYNC;     
  71:.\Generated_Source\PSoC5/Counter_LED.c ****                     
  72:.\Generated_Source\PSoC5/Counter_LED.c ****             /*Enable DSI Sync all all inputs of the Timer*/
  73:.\Generated_Source\PSoC5/Counter_LED.c ****             Counter_LED_RT1 &= ((uint8)(~Counter_LED_SYNCDSI_MASK));
  74:.\Generated_Source\PSoC5/Counter_LED.c ****             Counter_LED_RT1 |= Counter_LED_SYNCDSI_EN;
  75:.\Generated_Source\PSoC5/Counter_LED.c **** 
  76:.\Generated_Source\PSoC5/Counter_LED.c ****         #else
  77:.\Generated_Source\PSoC5/Counter_LED.c ****             #if(!Counter_LED_ControlRegRemoved)
  78:.\Generated_Source\PSoC5/Counter_LED.c ****             /* Set the default compare mode defined in the parameter */
  79:.\Generated_Source\PSoC5/Counter_LED.c ****             ctrl = Counter_LED_CONTROL & ((uint8)(~Counter_LED_CTRL_CMPMODE_MASK));
  80:.\Generated_Source\PSoC5/Counter_LED.c ****             Counter_LED_CONTROL = ctrl | Counter_LED_DEFAULT_COMPARE_MODE;
  81:.\Generated_Source\PSoC5/Counter_LED.c ****             
  82:.\Generated_Source\PSoC5/Counter_LED.c ****             /* Set the default capture mode defined in the parameter */
  83:.\Generated_Source\PSoC5/Counter_LED.c ****             ctrl = Counter_LED_CONTROL & ((uint8)(~Counter_LED_CTRL_CAPMODE_MASK));
  84:.\Generated_Source\PSoC5/Counter_LED.c ****             
  85:.\Generated_Source\PSoC5/Counter_LED.c ****             #if( 0 != Counter_LED_CAPTURE_MODE_CONF)
  86:.\Generated_Source\PSoC5/Counter_LED.c ****                 Counter_LED_CONTROL = ctrl | Counter_LED_DEFAULT_CAPTURE_MODE;
  87:.\Generated_Source\PSoC5/Counter_LED.c ****             #else
  88:.\Generated_Source\PSoC5/Counter_LED.c ****                 Counter_LED_CONTROL = ctrl;
ARM GAS  C:\Users\Graziano\AppData\Local\Temp\ccMyfgze.s 			page 3


  89:.\Generated_Source\PSoC5/Counter_LED.c ****             #endif /* 0 != Counter_LED_CAPTURE_MODE */ 
  90:.\Generated_Source\PSoC5/Counter_LED.c ****             
  91:.\Generated_Source\PSoC5/Counter_LED.c ****             #endif /* (!Counter_LED_ControlRegRemoved) */
  92:.\Generated_Source\PSoC5/Counter_LED.c ****         #endif /* (Counter_LED_UsingFixedFunction) */
  93:.\Generated_Source\PSoC5/Counter_LED.c ****         
  94:.\Generated_Source\PSoC5/Counter_LED.c ****         /* Clear all data in the FIFO's */
  95:.\Generated_Source\PSoC5/Counter_LED.c ****         #if (!Counter_LED_UsingFixedFunction)
  96:.\Generated_Source\PSoC5/Counter_LED.c ****             Counter_LED_ClearFIFO();
  97:.\Generated_Source\PSoC5/Counter_LED.c ****         #endif /* (!Counter_LED_UsingFixedFunction) */
  98:.\Generated_Source\PSoC5/Counter_LED.c ****         
  99:.\Generated_Source\PSoC5/Counter_LED.c ****         /* Set Initial values from Configuration */
 100:.\Generated_Source\PSoC5/Counter_LED.c ****         Counter_LED_WritePeriod(Counter_LED_INIT_PERIOD_VALUE);
 101:.\Generated_Source\PSoC5/Counter_LED.c ****         #if (!(Counter_LED_UsingFixedFunction && (CY_PSOC5A)))
 102:.\Generated_Source\PSoC5/Counter_LED.c ****             Counter_LED_WriteCounter(Counter_LED_INIT_COUNTER_VALUE);
 103:.\Generated_Source\PSoC5/Counter_LED.c ****         #endif /* (!(Counter_LED_UsingFixedFunction && (CY_PSOC5A))) */
 104:.\Generated_Source\PSoC5/Counter_LED.c ****         Counter_LED_SetInterruptMode(Counter_LED_INIT_INTERRUPTS_MASK);
 105:.\Generated_Source\PSoC5/Counter_LED.c ****         
 106:.\Generated_Source\PSoC5/Counter_LED.c ****         #if (!Counter_LED_UsingFixedFunction)
 107:.\Generated_Source\PSoC5/Counter_LED.c ****             /* Read the status register to clear the unwanted interrupts */
 108:.\Generated_Source\PSoC5/Counter_LED.c ****             (void)Counter_LED_ReadStatusRegister();
 109:.\Generated_Source\PSoC5/Counter_LED.c ****             /* Set the compare value (only available to non-fixed function implementation */
 110:.\Generated_Source\PSoC5/Counter_LED.c ****             Counter_LED_WriteCompare(Counter_LED_INIT_COMPARE_VALUE);
 111:.\Generated_Source\PSoC5/Counter_LED.c ****             /* Use the interrupt output of the status register for IRQ output */
 112:.\Generated_Source\PSoC5/Counter_LED.c ****             
 113:.\Generated_Source\PSoC5/Counter_LED.c ****             /* CyEnterCriticalRegion and CyExitCriticalRegion are used to mark following region cri
 114:.\Generated_Source\PSoC5/Counter_LED.c ****             /* Enter Critical Region*/
 115:.\Generated_Source\PSoC5/Counter_LED.c ****             Counter_LED_interruptState = CyEnterCriticalSection();
 116:.\Generated_Source\PSoC5/Counter_LED.c ****             
 117:.\Generated_Source\PSoC5/Counter_LED.c ****             Counter_LED_STATUS_AUX_CTRL |= Counter_LED_STATUS_ACTL_INT_EN_MASK;
 118:.\Generated_Source\PSoC5/Counter_LED.c ****             
 119:.\Generated_Source\PSoC5/Counter_LED.c ****             /* Exit Critical Region*/
 120:.\Generated_Source\PSoC5/Counter_LED.c ****             CyExitCriticalSection(Counter_LED_interruptState);
 121:.\Generated_Source\PSoC5/Counter_LED.c ****             
 122:.\Generated_Source\PSoC5/Counter_LED.c ****         #endif /* (!Counter_LED_UsingFixedFunction) */
 123:.\Generated_Source\PSoC5/Counter_LED.c **** }
 124:.\Generated_Source\PSoC5/Counter_LED.c **** 
 125:.\Generated_Source\PSoC5/Counter_LED.c **** 
 126:.\Generated_Source\PSoC5/Counter_LED.c **** /*******************************************************************************
 127:.\Generated_Source\PSoC5/Counter_LED.c **** * Function Name: Counter_LED_Enable
 128:.\Generated_Source\PSoC5/Counter_LED.c **** ********************************************************************************
 129:.\Generated_Source\PSoC5/Counter_LED.c **** * Summary:
 130:.\Generated_Source\PSoC5/Counter_LED.c **** *     Enable the Counter
 131:.\Generated_Source\PSoC5/Counter_LED.c **** * 
 132:.\Generated_Source\PSoC5/Counter_LED.c **** * Parameters:  
 133:.\Generated_Source\PSoC5/Counter_LED.c **** *  void  
 134:.\Generated_Source\PSoC5/Counter_LED.c **** *
 135:.\Generated_Source\PSoC5/Counter_LED.c **** * Return: 
 136:.\Generated_Source\PSoC5/Counter_LED.c **** *  void
 137:.\Generated_Source\PSoC5/Counter_LED.c **** *
 138:.\Generated_Source\PSoC5/Counter_LED.c **** * Side Effects: 
 139:.\Generated_Source\PSoC5/Counter_LED.c **** *   If the Enable mode is set to Hardware only then this function has no effect 
 140:.\Generated_Source\PSoC5/Counter_LED.c **** *   on the operation of the counter.
 141:.\Generated_Source\PSoC5/Counter_LED.c **** *
 142:.\Generated_Source\PSoC5/Counter_LED.c **** *******************************************************************************/
 143:.\Generated_Source\PSoC5/Counter_LED.c **** void Counter_LED_Enable(void) 
 144:.\Generated_Source\PSoC5/Counter_LED.c **** {
  27              		.loc 1 144 0
ARM GAS  C:\Users\Graziano\AppData\Local\Temp\ccMyfgze.s 			page 4


  28              		.cfi_startproc
  29              		@ args = 0, pretend = 0, frame = 0
  30              		@ frame_needed = 0, uses_anonymous_args = 0
  31              		@ link register save eliminated.
 145:.\Generated_Source\PSoC5/Counter_LED.c ****     /* Globally Enable the Fixed Function Block chosen */
 146:.\Generated_Source\PSoC5/Counter_LED.c ****     #if (Counter_LED_UsingFixedFunction)
 147:.\Generated_Source\PSoC5/Counter_LED.c ****         Counter_LED_GLOBAL_ENABLE |= Counter_LED_BLOCK_EN_MASK;
  32              		.loc 1 147 0
  33 0000 074B     		ldr	r3, .L2
  34 0002 1A78     		ldrb	r2, [r3, #0]	@ zero_extendqisi2
  35 0004 42F00100 		orr	r0, r2, #1
  36 0008 1870     		strb	r0, [r3, #0]
 148:.\Generated_Source\PSoC5/Counter_LED.c ****         Counter_LED_GLOBAL_STBY_ENABLE |= Counter_LED_BLOCK_STBY_EN_MASK;
  37              		.loc 1 148 0
  38 000a 197C     		ldrb	r1, [r3, #16]	@ zero_extendqisi2
  39 000c 41F00102 		orr	r2, r1, #1
  40 0010 1A74     		strb	r2, [r3, #16]
 149:.\Generated_Source\PSoC5/Counter_LED.c ****     #endif /* (Counter_LED_UsingFixedFunction) */  
 150:.\Generated_Source\PSoC5/Counter_LED.c ****         
 151:.\Generated_Source\PSoC5/Counter_LED.c ****     /* Enable the counter from the control register  */
 152:.\Generated_Source\PSoC5/Counter_LED.c ****     /* If Fixed Function then make sure Mode is set correctly */
 153:.\Generated_Source\PSoC5/Counter_LED.c ****     /* else make sure reset is clear */
 154:.\Generated_Source\PSoC5/Counter_LED.c ****     #if(!Counter_LED_ControlRegRemoved || Counter_LED_UsingFixedFunction)
 155:.\Generated_Source\PSoC5/Counter_LED.c ****         Counter_LED_CONTROL |= Counter_LED_CTRL_ENABLE;                
  41              		.loc 1 155 0
  42 0012 044B     		ldr	r3, .L2+4
  43 0014 1878     		ldrb	r0, [r3, #0]	@ zero_extendqisi2
  44 0016 40F00101 		orr	r1, r0, #1
  45 001a 1970     		strb	r1, [r3, #0]
  46 001c 7047     		bx	lr
  47              	.L3:
  48 001e 00BF     		.align	2
  49              	.L2:
  50 0020 A3430040 		.word	1073759139
  51 0024 004F0040 		.word	1073762048
  52              		.cfi_endproc
  53              	.LFE1:
  54              		.size	Counter_LED_Enable, .-Counter_LED_Enable
  55              		.section	.text.Counter_LED_Stop,"ax",%progbits
  56              		.align	1
  57              		.global	Counter_LED_Stop
  58              		.thumb
  59              		.thumb_func
  60              		.type	Counter_LED_Stop, %function
  61              	Counter_LED_Stop:
  62              	.LFB3:
 156:.\Generated_Source\PSoC5/Counter_LED.c ****     #endif /* (!Counter_LED_ControlRegRemoved || Counter_LED_UsingFixedFunction) */
 157:.\Generated_Source\PSoC5/Counter_LED.c ****     
 158:.\Generated_Source\PSoC5/Counter_LED.c **** }
 159:.\Generated_Source\PSoC5/Counter_LED.c **** 
 160:.\Generated_Source\PSoC5/Counter_LED.c **** 
 161:.\Generated_Source\PSoC5/Counter_LED.c **** /*******************************************************************************
 162:.\Generated_Source\PSoC5/Counter_LED.c **** * Function Name: Counter_LED_Start
 163:.\Generated_Source\PSoC5/Counter_LED.c **** ********************************************************************************
 164:.\Generated_Source\PSoC5/Counter_LED.c **** * Summary:
 165:.\Generated_Source\PSoC5/Counter_LED.c **** *  Enables the counter for operation 
 166:.\Generated_Source\PSoC5/Counter_LED.c **** *
ARM GAS  C:\Users\Graziano\AppData\Local\Temp\ccMyfgze.s 			page 5


 167:.\Generated_Source\PSoC5/Counter_LED.c **** * Parameters:  
 168:.\Generated_Source\PSoC5/Counter_LED.c **** *  void  
 169:.\Generated_Source\PSoC5/Counter_LED.c **** *
 170:.\Generated_Source\PSoC5/Counter_LED.c **** * Return: 
 171:.\Generated_Source\PSoC5/Counter_LED.c **** *  void
 172:.\Generated_Source\PSoC5/Counter_LED.c **** *
 173:.\Generated_Source\PSoC5/Counter_LED.c **** * Global variables:
 174:.\Generated_Source\PSoC5/Counter_LED.c **** *  Counter_LED_initVar: Is modified when this function is called for the  
 175:.\Generated_Source\PSoC5/Counter_LED.c **** *   first time. Is used to ensure that initialization happens only once.
 176:.\Generated_Source\PSoC5/Counter_LED.c **** *
 177:.\Generated_Source\PSoC5/Counter_LED.c **** *******************************************************************************/
 178:.\Generated_Source\PSoC5/Counter_LED.c **** void Counter_LED_Start(void) 
 179:.\Generated_Source\PSoC5/Counter_LED.c **** {
 180:.\Generated_Source\PSoC5/Counter_LED.c ****     if(Counter_LED_initVar == 0u)
 181:.\Generated_Source\PSoC5/Counter_LED.c ****     {
 182:.\Generated_Source\PSoC5/Counter_LED.c ****         Counter_LED_Init();
 183:.\Generated_Source\PSoC5/Counter_LED.c ****         
 184:.\Generated_Source\PSoC5/Counter_LED.c ****         Counter_LED_initVar = 1u; /* Clear this bit for Initialization */        
 185:.\Generated_Source\PSoC5/Counter_LED.c ****     }
 186:.\Generated_Source\PSoC5/Counter_LED.c ****     
 187:.\Generated_Source\PSoC5/Counter_LED.c ****     /* Enable the Counter */
 188:.\Generated_Source\PSoC5/Counter_LED.c ****     Counter_LED_Enable();        
 189:.\Generated_Source\PSoC5/Counter_LED.c **** }
 190:.\Generated_Source\PSoC5/Counter_LED.c **** 
 191:.\Generated_Source\PSoC5/Counter_LED.c **** 
 192:.\Generated_Source\PSoC5/Counter_LED.c **** /*******************************************************************************
 193:.\Generated_Source\PSoC5/Counter_LED.c **** * Function Name: Counter_LED_Stop
 194:.\Generated_Source\PSoC5/Counter_LED.c **** ********************************************************************************
 195:.\Generated_Source\PSoC5/Counter_LED.c **** * Summary:
 196:.\Generated_Source\PSoC5/Counter_LED.c **** * Halts the counter, but does not change any modes or disable interrupts.
 197:.\Generated_Source\PSoC5/Counter_LED.c **** *
 198:.\Generated_Source\PSoC5/Counter_LED.c **** * Parameters:  
 199:.\Generated_Source\PSoC5/Counter_LED.c **** *  void  
 200:.\Generated_Source\PSoC5/Counter_LED.c **** *
 201:.\Generated_Source\PSoC5/Counter_LED.c **** * Return: 
 202:.\Generated_Source\PSoC5/Counter_LED.c **** *  void
 203:.\Generated_Source\PSoC5/Counter_LED.c **** *
 204:.\Generated_Source\PSoC5/Counter_LED.c **** * Side Effects: If the Enable mode is set to Hardware only then this function
 205:.\Generated_Source\PSoC5/Counter_LED.c **** *               has no effect on the operation of the counter.
 206:.\Generated_Source\PSoC5/Counter_LED.c **** *
 207:.\Generated_Source\PSoC5/Counter_LED.c **** *******************************************************************************/
 208:.\Generated_Source\PSoC5/Counter_LED.c **** void Counter_LED_Stop(void) 
 209:.\Generated_Source\PSoC5/Counter_LED.c **** {
  63              		.loc 1 209 0
  64              		.cfi_startproc
  65              		@ args = 0, pretend = 0, frame = 0
  66              		@ frame_needed = 0, uses_anonymous_args = 0
  67              		@ link register save eliminated.
 210:.\Generated_Source\PSoC5/Counter_LED.c ****     /* Disable Counter */
 211:.\Generated_Source\PSoC5/Counter_LED.c ****     #if(!Counter_LED_ControlRegRemoved || Counter_LED_UsingFixedFunction)
 212:.\Generated_Source\PSoC5/Counter_LED.c ****         Counter_LED_CONTROL &= ((uint8)(~Counter_LED_CTRL_ENABLE));        
  68              		.loc 1 212 0
  69 0000 074B     		ldr	r3, .L5
 213:.\Generated_Source\PSoC5/Counter_LED.c ****     #endif /* (!Counter_LED_ControlRegRemoved || Counter_LED_UsingFixedFunction) */
 214:.\Generated_Source\PSoC5/Counter_LED.c ****     
 215:.\Generated_Source\PSoC5/Counter_LED.c ****     /* Globally disable the Fixed Function Block chosen */
 216:.\Generated_Source\PSoC5/Counter_LED.c ****     #if (Counter_LED_UsingFixedFunction)
ARM GAS  C:\Users\Graziano\AppData\Local\Temp\ccMyfgze.s 			page 6


 217:.\Generated_Source\PSoC5/Counter_LED.c ****         Counter_LED_GLOBAL_ENABLE &= ((uint8)(~Counter_LED_BLOCK_EN_MASK));
  70              		.loc 1 217 0
  71 0002 0849     		ldr	r1, .L5+4
 212:.\Generated_Source\PSoC5/Counter_LED.c ****         Counter_LED_CONTROL &= ((uint8)(~Counter_LED_CTRL_ENABLE));        
  72              		.loc 1 212 0
  73 0004 1A78     		ldrb	r2, [r3, #0]	@ zero_extendqisi2
  74 0006 02F0FE00 		and	r0, r2, #254
  75 000a 1870     		strb	r0, [r3, #0]
  76              		.loc 1 217 0
  77 000c 0B78     		ldrb	r3, [r1, #0]	@ zero_extendqisi2
  78 000e 03F0FE02 		and	r2, r3, #254
  79 0012 0A70     		strb	r2, [r1, #0]
 218:.\Generated_Source\PSoC5/Counter_LED.c ****         Counter_LED_GLOBAL_STBY_ENABLE &= ((uint8)(~Counter_LED_BLOCK_STBY_EN_MASK));
  80              		.loc 1 218 0
  81 0014 087C     		ldrb	r0, [r1, #16]	@ zero_extendqisi2
  82 0016 00F0FE03 		and	r3, r0, #254
  83 001a 0B74     		strb	r3, [r1, #16]
  84 001c 7047     		bx	lr
  85              	.L6:
  86 001e 00BF     		.align	2
  87              	.L5:
  88 0020 004F0040 		.word	1073762048
  89 0024 A3430040 		.word	1073759139
  90              		.cfi_endproc
  91              	.LFE3:
  92              		.size	Counter_LED_Stop, .-Counter_LED_Stop
  93              		.section	.text.Counter_LED_SetInterruptMode,"ax",%progbits
  94              		.align	1
  95              		.global	Counter_LED_SetInterruptMode
  96              		.thumb
  97              		.thumb_func
  98              		.type	Counter_LED_SetInterruptMode, %function
  99              	Counter_LED_SetInterruptMode:
 100              	.LFB4:
 219:.\Generated_Source\PSoC5/Counter_LED.c ****     #endif /* (Counter_LED_UsingFixedFunction) */
 220:.\Generated_Source\PSoC5/Counter_LED.c **** }
 221:.\Generated_Source\PSoC5/Counter_LED.c **** 
 222:.\Generated_Source\PSoC5/Counter_LED.c **** 
 223:.\Generated_Source\PSoC5/Counter_LED.c **** /*******************************************************************************
 224:.\Generated_Source\PSoC5/Counter_LED.c **** * Function Name: Counter_LED_SetInterruptMode
 225:.\Generated_Source\PSoC5/Counter_LED.c **** ********************************************************************************
 226:.\Generated_Source\PSoC5/Counter_LED.c **** * Summary:
 227:.\Generated_Source\PSoC5/Counter_LED.c **** * Configures which interrupt sources are enabled to generate the final interrupt
 228:.\Generated_Source\PSoC5/Counter_LED.c **** *
 229:.\Generated_Source\PSoC5/Counter_LED.c **** * Parameters:  
 230:.\Generated_Source\PSoC5/Counter_LED.c **** *  InterruptsMask: This parameter is an or'd collection of the status bits
 231:.\Generated_Source\PSoC5/Counter_LED.c **** *                   which will be allowed to generate the counters interrupt.   
 232:.\Generated_Source\PSoC5/Counter_LED.c **** *
 233:.\Generated_Source\PSoC5/Counter_LED.c **** * Return: 
 234:.\Generated_Source\PSoC5/Counter_LED.c **** *  void
 235:.\Generated_Source\PSoC5/Counter_LED.c **** *
 236:.\Generated_Source\PSoC5/Counter_LED.c **** *******************************************************************************/
 237:.\Generated_Source\PSoC5/Counter_LED.c **** void Counter_LED_SetInterruptMode(uint8 interruptsMask) 
 238:.\Generated_Source\PSoC5/Counter_LED.c **** {
 101              		.loc 1 238 0
 102              		.cfi_startproc
 103              		@ args = 0, pretend = 0, frame = 0
ARM GAS  C:\Users\Graziano\AppData\Local\Temp\ccMyfgze.s 			page 7


 104              		@ frame_needed = 0, uses_anonymous_args = 0
 105              		@ link register save eliminated.
 106              	.LVL0:
 239:.\Generated_Source\PSoC5/Counter_LED.c ****     Counter_LED_STATUS_MASK = interruptsMask;
 107              		.loc 1 239 0
 108 0000 014B     		ldr	r3, .L8
 109 0002 1870     		strb	r0, [r3, #0]
 110 0004 7047     		bx	lr
 111              	.L9:
 112 0006 00BF     		.align	2
 113              	.L8:
 114 0008 034F0040 		.word	1073762051
 115              		.cfi_endproc
 116              	.LFE4:
 117              		.size	Counter_LED_SetInterruptMode, .-Counter_LED_SetInterruptMode
 118              		.section	.text.Counter_LED_ReadStatusRegister,"ax",%progbits
 119              		.align	1
 120              		.global	Counter_LED_ReadStatusRegister
 121              		.thumb
 122              		.thumb_func
 123              		.type	Counter_LED_ReadStatusRegister, %function
 124              	Counter_LED_ReadStatusRegister:
 125              	.LFB5:
 240:.\Generated_Source\PSoC5/Counter_LED.c **** }
 241:.\Generated_Source\PSoC5/Counter_LED.c **** 
 242:.\Generated_Source\PSoC5/Counter_LED.c **** 
 243:.\Generated_Source\PSoC5/Counter_LED.c **** /*******************************************************************************
 244:.\Generated_Source\PSoC5/Counter_LED.c **** * Function Name: Counter_LED_ReadStatusRegister
 245:.\Generated_Source\PSoC5/Counter_LED.c **** ********************************************************************************
 246:.\Generated_Source\PSoC5/Counter_LED.c **** * Summary:
 247:.\Generated_Source\PSoC5/Counter_LED.c **** *   Reads the status register and returns it's state. This function should use
 248:.\Generated_Source\PSoC5/Counter_LED.c **** *       defined types for the bit-field information as the bits in this
 249:.\Generated_Source\PSoC5/Counter_LED.c **** *       register may be permuteable.
 250:.\Generated_Source\PSoC5/Counter_LED.c **** *
 251:.\Generated_Source\PSoC5/Counter_LED.c **** * Parameters:  
 252:.\Generated_Source\PSoC5/Counter_LED.c **** *  void
 253:.\Generated_Source\PSoC5/Counter_LED.c **** *
 254:.\Generated_Source\PSoC5/Counter_LED.c **** * Return: 
 255:.\Generated_Source\PSoC5/Counter_LED.c **** *  (uint8) The contents of the status register
 256:.\Generated_Source\PSoC5/Counter_LED.c **** *
 257:.\Generated_Source\PSoC5/Counter_LED.c **** * Side Effects:
 258:.\Generated_Source\PSoC5/Counter_LED.c **** *   Status register bits may be clear on read. 
 259:.\Generated_Source\PSoC5/Counter_LED.c **** *
 260:.\Generated_Source\PSoC5/Counter_LED.c **** *******************************************************************************/
 261:.\Generated_Source\PSoC5/Counter_LED.c **** uint8   Counter_LED_ReadStatusRegister(void) 
 262:.\Generated_Source\PSoC5/Counter_LED.c **** {
 126              		.loc 1 262 0
 127              		.cfi_startproc
 128              		@ args = 0, pretend = 0, frame = 0
 129              		@ frame_needed = 0, uses_anonymous_args = 0
 130              		@ link register save eliminated.
 263:.\Generated_Source\PSoC5/Counter_LED.c ****     return Counter_LED_STATUS;
 131              		.loc 1 263 0
 132 0000 014B     		ldr	r3, .L11
 133 0002 1878     		ldrb	r0, [r3, #0]	@ zero_extendqisi2
 264:.\Generated_Source\PSoC5/Counter_LED.c **** }
 134              		.loc 1 264 0
ARM GAS  C:\Users\Graziano\AppData\Local\Temp\ccMyfgze.s 			page 8


 135 0004 7047     		bx	lr
 136              	.L12:
 137 0006 00BF     		.align	2
 138              	.L11:
 139 0008 034F0040 		.word	1073762051
 140              		.cfi_endproc
 141              	.LFE5:
 142              		.size	Counter_LED_ReadStatusRegister, .-Counter_LED_ReadStatusRegister
 143              		.section	.text.Counter_LED_ReadControlRegister,"ax",%progbits
 144              		.align	1
 145              		.global	Counter_LED_ReadControlRegister
 146              		.thumb
 147              		.thumb_func
 148              		.type	Counter_LED_ReadControlRegister, %function
 149              	Counter_LED_ReadControlRegister:
 150              	.LFB6:
 265:.\Generated_Source\PSoC5/Counter_LED.c **** 
 266:.\Generated_Source\PSoC5/Counter_LED.c **** 
 267:.\Generated_Source\PSoC5/Counter_LED.c **** #if(!Counter_LED_ControlRegRemoved)
 268:.\Generated_Source\PSoC5/Counter_LED.c **** /*******************************************************************************
 269:.\Generated_Source\PSoC5/Counter_LED.c **** * Function Name: Counter_LED_ReadControlRegister
 270:.\Generated_Source\PSoC5/Counter_LED.c **** ********************************************************************************
 271:.\Generated_Source\PSoC5/Counter_LED.c **** * Summary:
 272:.\Generated_Source\PSoC5/Counter_LED.c **** *   Reads the control register and returns it's state. This function should use
 273:.\Generated_Source\PSoC5/Counter_LED.c **** *       defined types for the bit-field information as the bits in this
 274:.\Generated_Source\PSoC5/Counter_LED.c **** *       register may be permuteable.
 275:.\Generated_Source\PSoC5/Counter_LED.c **** *
 276:.\Generated_Source\PSoC5/Counter_LED.c **** * Parameters:  
 277:.\Generated_Source\PSoC5/Counter_LED.c **** *  void
 278:.\Generated_Source\PSoC5/Counter_LED.c **** *
 279:.\Generated_Source\PSoC5/Counter_LED.c **** * Return: 
 280:.\Generated_Source\PSoC5/Counter_LED.c **** *  (uint8) The contents of the control register
 281:.\Generated_Source\PSoC5/Counter_LED.c **** *
 282:.\Generated_Source\PSoC5/Counter_LED.c **** *******************************************************************************/
 283:.\Generated_Source\PSoC5/Counter_LED.c **** uint8   Counter_LED_ReadControlRegister(void) 
 284:.\Generated_Source\PSoC5/Counter_LED.c **** {
 151              		.loc 1 284 0
 152              		.cfi_startproc
 153              		@ args = 0, pretend = 0, frame = 0
 154              		@ frame_needed = 0, uses_anonymous_args = 0
 155              		@ link register save eliminated.
 285:.\Generated_Source\PSoC5/Counter_LED.c ****     return Counter_LED_CONTROL;
 156              		.loc 1 285 0
 157 0000 014B     		ldr	r3, .L14
 158 0002 1878     		ldrb	r0, [r3, #0]	@ zero_extendqisi2
 286:.\Generated_Source\PSoC5/Counter_LED.c **** }
 159              		.loc 1 286 0
 160 0004 7047     		bx	lr
 161              	.L15:
 162 0006 00BF     		.align	2
 163              	.L14:
 164 0008 004F0040 		.word	1073762048
 165              		.cfi_endproc
 166              	.LFE6:
 167              		.size	Counter_LED_ReadControlRegister, .-Counter_LED_ReadControlRegister
 168              		.section	.text.Counter_LED_WriteControlRegister,"ax",%progbits
 169              		.align	1
ARM GAS  C:\Users\Graziano\AppData\Local\Temp\ccMyfgze.s 			page 9


 170              		.global	Counter_LED_WriteControlRegister
 171              		.thumb
 172              		.thumb_func
 173              		.type	Counter_LED_WriteControlRegister, %function
 174              	Counter_LED_WriteControlRegister:
 175              	.LFB7:
 287:.\Generated_Source\PSoC5/Counter_LED.c **** 
 288:.\Generated_Source\PSoC5/Counter_LED.c **** 
 289:.\Generated_Source\PSoC5/Counter_LED.c **** /*******************************************************************************
 290:.\Generated_Source\PSoC5/Counter_LED.c **** * Function Name: Counter_LED_WriteControlRegister
 291:.\Generated_Source\PSoC5/Counter_LED.c **** ********************************************************************************
 292:.\Generated_Source\PSoC5/Counter_LED.c **** * Summary:
 293:.\Generated_Source\PSoC5/Counter_LED.c **** *   Sets the bit-field of the control register.  This function should use
 294:.\Generated_Source\PSoC5/Counter_LED.c **** *       defined types for the bit-field information as the bits in this
 295:.\Generated_Source\PSoC5/Counter_LED.c **** *       register may be permuteable.
 296:.\Generated_Source\PSoC5/Counter_LED.c **** *
 297:.\Generated_Source\PSoC5/Counter_LED.c **** * Parameters:  
 298:.\Generated_Source\PSoC5/Counter_LED.c **** *  void
 299:.\Generated_Source\PSoC5/Counter_LED.c **** *
 300:.\Generated_Source\PSoC5/Counter_LED.c **** * Return: 
 301:.\Generated_Source\PSoC5/Counter_LED.c **** *  (uint8) The contents of the control register
 302:.\Generated_Source\PSoC5/Counter_LED.c **** *
 303:.\Generated_Source\PSoC5/Counter_LED.c **** *******************************************************************************/
 304:.\Generated_Source\PSoC5/Counter_LED.c **** void    Counter_LED_WriteControlRegister(uint8 control) 
 305:.\Generated_Source\PSoC5/Counter_LED.c **** {
 176              		.loc 1 305 0
 177              		.cfi_startproc
 178              		@ args = 0, pretend = 0, frame = 0
 179              		@ frame_needed = 0, uses_anonymous_args = 0
 180              		@ link register save eliminated.
 181              	.LVL1:
 306:.\Generated_Source\PSoC5/Counter_LED.c ****     Counter_LED_CONTROL = control;
 182              		.loc 1 306 0
 183 0000 014B     		ldr	r3, .L17
 184 0002 1870     		strb	r0, [r3, #0]
 185 0004 7047     		bx	lr
 186              	.L18:
 187 0006 00BF     		.align	2
 188              	.L17:
 189 0008 004F0040 		.word	1073762048
 190              		.cfi_endproc
 191              	.LFE7:
 192              		.size	Counter_LED_WriteControlRegister, .-Counter_LED_WriteControlRegister
 193              		.section	.text.Counter_LED_WriteCounter,"ax",%progbits
 194              		.align	1
 195              		.global	Counter_LED_WriteCounter
 196              		.thumb
 197              		.thumb_func
 198              		.type	Counter_LED_WriteCounter, %function
 199              	Counter_LED_WriteCounter:
 200              	.LFB8:
 307:.\Generated_Source\PSoC5/Counter_LED.c **** }
 308:.\Generated_Source\PSoC5/Counter_LED.c **** 
 309:.\Generated_Source\PSoC5/Counter_LED.c **** #endif  /* (!Counter_LED_ControlRegRemoved) */
 310:.\Generated_Source\PSoC5/Counter_LED.c **** 
 311:.\Generated_Source\PSoC5/Counter_LED.c **** 
 312:.\Generated_Source\PSoC5/Counter_LED.c **** #if (!(Counter_LED_UsingFixedFunction && (CY_PSOC5A)))
ARM GAS  C:\Users\Graziano\AppData\Local\Temp\ccMyfgze.s 			page 10


 313:.\Generated_Source\PSoC5/Counter_LED.c **** /*******************************************************************************
 314:.\Generated_Source\PSoC5/Counter_LED.c **** * Function Name: Counter_LED_WriteCounter
 315:.\Generated_Source\PSoC5/Counter_LED.c **** ********************************************************************************
 316:.\Generated_Source\PSoC5/Counter_LED.c **** * Summary:
 317:.\Generated_Source\PSoC5/Counter_LED.c **** *   This funtion is used to set the counter to a specific value
 318:.\Generated_Source\PSoC5/Counter_LED.c **** *
 319:.\Generated_Source\PSoC5/Counter_LED.c **** * Parameters:  
 320:.\Generated_Source\PSoC5/Counter_LED.c **** *  counter:  New counter value. 
 321:.\Generated_Source\PSoC5/Counter_LED.c **** *
 322:.\Generated_Source\PSoC5/Counter_LED.c **** * Return: 
 323:.\Generated_Source\PSoC5/Counter_LED.c **** *  void 
 324:.\Generated_Source\PSoC5/Counter_LED.c **** *
 325:.\Generated_Source\PSoC5/Counter_LED.c **** *******************************************************************************/
 326:.\Generated_Source\PSoC5/Counter_LED.c **** void Counter_LED_WriteCounter(uint8 counter) \
 327:.\Generated_Source\PSoC5/Counter_LED.c ****                                    
 328:.\Generated_Source\PSoC5/Counter_LED.c **** {
 201              		.loc 1 328 0
 202              		.cfi_startproc
 203              		@ args = 0, pretend = 0, frame = 0
 204              		@ frame_needed = 0, uses_anonymous_args = 0
 205              		@ link register save eliminated.
 206              	.LVL2:
 329:.\Generated_Source\PSoC5/Counter_LED.c ****     #if(Counter_LED_UsingFixedFunction)
 330:.\Generated_Source\PSoC5/Counter_LED.c ****         /* assert if block is already enabled */
 331:.\Generated_Source\PSoC5/Counter_LED.c ****         CYASSERT (0u == (Counter_LED_GLOBAL_ENABLE & Counter_LED_BLOCK_EN_MASK));
 332:.\Generated_Source\PSoC5/Counter_LED.c ****         /* If block is disabled, enable it and then write the counter */
 333:.\Generated_Source\PSoC5/Counter_LED.c ****         Counter_LED_GLOBAL_ENABLE |= Counter_LED_BLOCK_EN_MASK;
 207              		.loc 1 333 0
 208 0000 054B     		ldr	r3, .L20
 209 0002 1A78     		ldrb	r2, [r3, #0]	@ zero_extendqisi2
 210 0004 42F00101 		orr	r1, r2, #1
 334:.\Generated_Source\PSoC5/Counter_LED.c ****         CY_SET_REG16(Counter_LED_COUNTER_LSB_PTR, (uint16)counter);
 211              		.loc 1 334 0
 212 0008 044A     		ldr	r2, .L20+4
 333:.\Generated_Source\PSoC5/Counter_LED.c ****         Counter_LED_GLOBAL_ENABLE |= Counter_LED_BLOCK_EN_MASK;
 213              		.loc 1 333 0
 214 000a 1970     		strb	r1, [r3, #0]
 215              		.loc 1 334 0
 216 000c 1080     		strh	r0, [r2, #0]	@ movhi
 335:.\Generated_Source\PSoC5/Counter_LED.c ****         Counter_LED_GLOBAL_ENABLE &= ((uint8)(~Counter_LED_BLOCK_EN_MASK));
 217              		.loc 1 335 0
 218 000e 1878     		ldrb	r0, [r3, #0]	@ zero_extendqisi2
 219              	.LVL3:
 220 0010 00F0FE01 		and	r1, r0, #254
 221 0014 1970     		strb	r1, [r3, #0]
 222 0016 7047     		bx	lr
 223              	.L21:
 224              		.align	2
 225              	.L20:
 226 0018 A3430040 		.word	1073759139
 227 001c 064F0040 		.word	1073762054
 228              		.cfi_endproc
 229              	.LFE8:
 230              		.size	Counter_LED_WriteCounter, .-Counter_LED_WriteCounter
 231              		.section	.text.Counter_LED_Init,"ax",%progbits
 232              		.align	1
 233              		.global	Counter_LED_Init
ARM GAS  C:\Users\Graziano\AppData\Local\Temp\ccMyfgze.s 			page 11


 234              		.thumb
 235              		.thumb_func
 236              		.type	Counter_LED_Init, %function
 237              	Counter_LED_Init:
 238              	.LFB0:
  38:.\Generated_Source\PSoC5/Counter_LED.c **** {
 239              		.loc 1 38 0
 240              		.cfi_startproc
 241              		@ args = 0, pretend = 0, frame = 0
 242              		@ frame_needed = 0, uses_anonymous_args = 0
 243 0000 08B5     		push	{r3, lr}
 244              	.LCFI0:
 245              		.cfi_def_cfa_offset 8
 246              		.cfi_offset 3, -8
 247              		.cfi_offset 14, -4
  50:.\Generated_Source\PSoC5/Counter_LED.c ****             Counter_LED_CONTROL &= Counter_LED_CTRL_ENABLE;
 248              		.loc 1 50 0
 249 0002 124B     		ldr	r3, .L23
 250 0004 1A78     		ldrb	r2, [r3, #0]	@ zero_extendqisi2
 251 0006 02F00100 		and	r0, r2, #1
 252 000a 1870     		strb	r0, [r3, #0]
  57:.\Generated_Source\PSoC5/Counter_LED.c ****                 Counter_LED_CONTROL3 &= ((uint8)(~Counter_LED_CTRL_MODE_MASK));                
 253              		.loc 1 57 0
 254 000c 9978     		ldrb	r1, [r3, #2]	@ zero_extendqisi2
 255 000e 01F0FC02 		and	r2, r1, #252
 256 0012 9A70     		strb	r2, [r3, #2]
  66:.\Generated_Source\PSoC5/Counter_LED.c ****             Counter_LED_CONTROL2 |= Counter_LED_CTRL2_IRQ_SEL;
 257              		.loc 1 66 0
 258 0014 5878     		ldrb	r0, [r3, #1]	@ zero_extendqisi2
 259 0016 40F00101 		orr	r1, r0, #1
 260 001a 5970     		strb	r1, [r3, #1]
  69:.\Generated_Source\PSoC5/Counter_LED.c ****             Counter_LED_RT1 &= ((uint8)(~Counter_LED_RT1_MASK));
 261              		.loc 1 69 0
 262 001c DA7A     		ldrb	r2, [r3, #11]	@ zero_extendqisi2
 263 001e 02F0CF00 		and	r0, r2, #207
 264 0022 D872     		strb	r0, [r3, #11]
  70:.\Generated_Source\PSoC5/Counter_LED.c ****             Counter_LED_RT1 |= Counter_LED_SYNC;     
 265              		.loc 1 70 0
 266 0024 D97A     		ldrb	r1, [r3, #11]	@ zero_extendqisi2
 267 0026 41F03002 		orr	r2, r1, #48
 268 002a DA72     		strb	r2, [r3, #11]
  73:.\Generated_Source\PSoC5/Counter_LED.c ****             Counter_LED_RT1 &= ((uint8)(~Counter_LED_SYNCDSI_MASK));
 269              		.loc 1 73 0
 270 002c D87A     		ldrb	r0, [r3, #11]	@ zero_extendqisi2
 271 002e 00F0F001 		and	r1, r0, #240
 272 0032 D972     		strb	r1, [r3, #11]
  74:.\Generated_Source\PSoC5/Counter_LED.c ****             Counter_LED_RT1 |= Counter_LED_SYNCDSI_EN;
 273              		.loc 1 74 0
 274 0034 DA7A     		ldrb	r2, [r3, #11]	@ zero_extendqisi2
 275 0036 42F00F00 		orr	r0, r2, #15
 276 003a D872     		strb	r0, [r3, #11]
 277              	.LVL4:
 278              	.LBB6:
 279              	.LBB7:
 336:.\Generated_Source\PSoC5/Counter_LED.c ****     #else
 337:.\Generated_Source\PSoC5/Counter_LED.c ****         CY_SET_REG8(Counter_LED_COUNTER_LSB_PTR, counter);
 338:.\Generated_Source\PSoC5/Counter_LED.c ****     #endif /* (Counter_LED_UsingFixedFunction) */
ARM GAS  C:\Users\Graziano\AppData\Local\Temp\ccMyfgze.s 			page 12


 339:.\Generated_Source\PSoC5/Counter_LED.c **** }
 340:.\Generated_Source\PSoC5/Counter_LED.c **** #endif /* (!(Counter_LED_UsingFixedFunction && (CY_PSOC5A))) */
 341:.\Generated_Source\PSoC5/Counter_LED.c **** 
 342:.\Generated_Source\PSoC5/Counter_LED.c **** 
 343:.\Generated_Source\PSoC5/Counter_LED.c **** /*******************************************************************************
 344:.\Generated_Source\PSoC5/Counter_LED.c **** * Function Name: Counter_LED_ReadCounter
 345:.\Generated_Source\PSoC5/Counter_LED.c **** ********************************************************************************
 346:.\Generated_Source\PSoC5/Counter_LED.c **** * Summary:
 347:.\Generated_Source\PSoC5/Counter_LED.c **** * Returns the current value of the counter.  It doesn't matter
 348:.\Generated_Source\PSoC5/Counter_LED.c **** * if the counter is enabled or running.
 349:.\Generated_Source\PSoC5/Counter_LED.c **** *
 350:.\Generated_Source\PSoC5/Counter_LED.c **** * Parameters:  
 351:.\Generated_Source\PSoC5/Counter_LED.c **** *  void:  
 352:.\Generated_Source\PSoC5/Counter_LED.c **** *
 353:.\Generated_Source\PSoC5/Counter_LED.c **** * Return: 
 354:.\Generated_Source\PSoC5/Counter_LED.c **** *  (uint8) The present value of the counter.
 355:.\Generated_Source\PSoC5/Counter_LED.c **** *
 356:.\Generated_Source\PSoC5/Counter_LED.c **** *******************************************************************************/
 357:.\Generated_Source\PSoC5/Counter_LED.c **** uint8 Counter_LED_ReadCounter(void) 
 358:.\Generated_Source\PSoC5/Counter_LED.c **** {
 359:.\Generated_Source\PSoC5/Counter_LED.c ****     /* Force capture by reading Accumulator */
 360:.\Generated_Source\PSoC5/Counter_LED.c ****     /* Must first do a software capture to be able to read the counter */
 361:.\Generated_Source\PSoC5/Counter_LED.c ****     /* It is up to the user code to make sure there isn't already captured data in the FIFO */
 362:.\Generated_Source\PSoC5/Counter_LED.c ****     #if(Counter_LED_UsingFixedFunction)
 363:.\Generated_Source\PSoC5/Counter_LED.c **** 		(void)CY_GET_REG16(Counter_LED_COUNTER_LSB_PTR);
 364:.\Generated_Source\PSoC5/Counter_LED.c **** 	#else
 365:.\Generated_Source\PSoC5/Counter_LED.c **** 		(void)CY_GET_REG8(Counter_LED_COUNTER_LSB_PTR_8BIT);
 366:.\Generated_Source\PSoC5/Counter_LED.c **** 	#endif/* (Counter_LED_UsingFixedFunction) */
 367:.\Generated_Source\PSoC5/Counter_LED.c ****     
 368:.\Generated_Source\PSoC5/Counter_LED.c ****     /* Read the data from the FIFO (or capture register for Fixed Function)*/
 369:.\Generated_Source\PSoC5/Counter_LED.c ****     #if(Counter_LED_UsingFixedFunction)
 370:.\Generated_Source\PSoC5/Counter_LED.c ****         return ((uint8)CY_GET_REG16(Counter_LED_STATICCOUNT_LSB_PTR));
 371:.\Generated_Source\PSoC5/Counter_LED.c ****     #else
 372:.\Generated_Source\PSoC5/Counter_LED.c ****         return (CY_GET_REG8(Counter_LED_STATICCOUNT_LSB_PTR));
 373:.\Generated_Source\PSoC5/Counter_LED.c ****     #endif /* (Counter_LED_UsingFixedFunction) */
 374:.\Generated_Source\PSoC5/Counter_LED.c **** }
 375:.\Generated_Source\PSoC5/Counter_LED.c **** 
 376:.\Generated_Source\PSoC5/Counter_LED.c **** 
 377:.\Generated_Source\PSoC5/Counter_LED.c **** /*******************************************************************************
 378:.\Generated_Source\PSoC5/Counter_LED.c **** * Function Name: Counter_LED_ReadCapture
 379:.\Generated_Source\PSoC5/Counter_LED.c **** ********************************************************************************
 380:.\Generated_Source\PSoC5/Counter_LED.c **** * Summary:
 381:.\Generated_Source\PSoC5/Counter_LED.c **** *   This function returns the last value captured.
 382:.\Generated_Source\PSoC5/Counter_LED.c **** *
 383:.\Generated_Source\PSoC5/Counter_LED.c **** * Parameters:  
 384:.\Generated_Source\PSoC5/Counter_LED.c **** *  void
 385:.\Generated_Source\PSoC5/Counter_LED.c **** *
 386:.\Generated_Source\PSoC5/Counter_LED.c **** * Return: 
 387:.\Generated_Source\PSoC5/Counter_LED.c **** *  (uint8) Present Capture value.
 388:.\Generated_Source\PSoC5/Counter_LED.c **** *
 389:.\Generated_Source\PSoC5/Counter_LED.c **** *******************************************************************************/
 390:.\Generated_Source\PSoC5/Counter_LED.c **** uint8 Counter_LED_ReadCapture(void) 
 391:.\Generated_Source\PSoC5/Counter_LED.c **** {
 392:.\Generated_Source\PSoC5/Counter_LED.c ****     #if(Counter_LED_UsingFixedFunction)
 393:.\Generated_Source\PSoC5/Counter_LED.c ****         return ((uint8)CY_GET_REG16(Counter_LED_STATICCOUNT_LSB_PTR));
 394:.\Generated_Source\PSoC5/Counter_LED.c ****     #else
 395:.\Generated_Source\PSoC5/Counter_LED.c ****         return (CY_GET_REG8(Counter_LED_STATICCOUNT_LSB_PTR));
ARM GAS  C:\Users\Graziano\AppData\Local\Temp\ccMyfgze.s 			page 13


 396:.\Generated_Source\PSoC5/Counter_LED.c ****     #endif /* (Counter_LED_UsingFixedFunction) */
 397:.\Generated_Source\PSoC5/Counter_LED.c **** }
 398:.\Generated_Source\PSoC5/Counter_LED.c **** 
 399:.\Generated_Source\PSoC5/Counter_LED.c **** 
 400:.\Generated_Source\PSoC5/Counter_LED.c **** /*******************************************************************************
 401:.\Generated_Source\PSoC5/Counter_LED.c **** * Function Name: Counter_LED_WritePeriod
 402:.\Generated_Source\PSoC5/Counter_LED.c **** ********************************************************************************
 403:.\Generated_Source\PSoC5/Counter_LED.c **** * Summary:
 404:.\Generated_Source\PSoC5/Counter_LED.c **** * Changes the period of the counter.  The new period 
 405:.\Generated_Source\PSoC5/Counter_LED.c **** * will be loaded the next time terminal count is detected.
 406:.\Generated_Source\PSoC5/Counter_LED.c **** *
 407:.\Generated_Source\PSoC5/Counter_LED.c **** * Parameters:  
 408:.\Generated_Source\PSoC5/Counter_LED.c **** *  period: (uint8) A value of 0 will result in
 409:.\Generated_Source\PSoC5/Counter_LED.c **** *         the counter remaining at zero.  
 410:.\Generated_Source\PSoC5/Counter_LED.c **** *
 411:.\Generated_Source\PSoC5/Counter_LED.c **** * Return: 
 412:.\Generated_Source\PSoC5/Counter_LED.c **** *  void
 413:.\Generated_Source\PSoC5/Counter_LED.c **** *
 414:.\Generated_Source\PSoC5/Counter_LED.c **** *******************************************************************************/
 415:.\Generated_Source\PSoC5/Counter_LED.c **** void Counter_LED_WritePeriod(uint8 period) 
 416:.\Generated_Source\PSoC5/Counter_LED.c **** {
 417:.\Generated_Source\PSoC5/Counter_LED.c ****     #if(Counter_LED_UsingFixedFunction)
 418:.\Generated_Source\PSoC5/Counter_LED.c ****         CY_SET_REG16(Counter_LED_PERIOD_LSB_PTR,(uint16)period);
 280              		.loc 1 418 0
 281 003c 1420     		movs	r0, #20
 282 003e 9880     		strh	r0, [r3, #4]	@ movhi
 283              	.LBE7:
 284              	.LBE6:
 102:.\Generated_Source\PSoC5/Counter_LED.c ****             Counter_LED_WriteCounter(Counter_LED_INIT_COUNTER_VALUE);
 285              		.loc 1 102 0
 286 0040 FFF7FEFF 		bl	Counter_LED_WriteCounter
 287              	.LVL5:
 288              	.LBB8:
 289              	.LBB9:
 239:.\Generated_Source\PSoC5/Counter_LED.c ****     Counter_LED_STATUS_MASK = interruptsMask;
 290              		.loc 1 239 0
 291 0044 024B     		ldr	r3, .L23+4
 292 0046 0021     		movs	r1, #0
 293 0048 1970     		strb	r1, [r3, #0]
 294 004a 08BD     		pop	{r3, pc}
 295              	.L24:
 296              		.align	2
 297              	.L23:
 298 004c 004F0040 		.word	1073762048
 299 0050 034F0040 		.word	1073762051
 300              	.LBE9:
 301              	.LBE8:
 302              		.cfi_endproc
 303              	.LFE0:
 304              		.size	Counter_LED_Init, .-Counter_LED_Init
 305              		.section	.text.Counter_LED_Start,"ax",%progbits
 306              		.align	1
 307              		.global	Counter_LED_Start
 308              		.thumb
 309              		.thumb_func
 310              		.type	Counter_LED_Start, %function
 311              	Counter_LED_Start:
ARM GAS  C:\Users\Graziano\AppData\Local\Temp\ccMyfgze.s 			page 14


 312              	.LFB2:
 179:.\Generated_Source\PSoC5/Counter_LED.c **** {
 313              		.loc 1 179 0
 314              		.cfi_startproc
 315              		@ args = 0, pretend = 0, frame = 0
 316              		@ frame_needed = 0, uses_anonymous_args = 0
 317 0000 10B5     		push	{r4, lr}
 318              	.LCFI1:
 319              		.cfi_def_cfa_offset 8
 320              		.cfi_offset 4, -8
 321              		.cfi_offset 14, -4
 180:.\Generated_Source\PSoC5/Counter_LED.c ****     if(Counter_LED_initVar == 0u)
 322              		.loc 1 180 0
 323 0002 054C     		ldr	r4, .L28
 324 0004 2378     		ldrb	r3, [r4, #0]	@ zero_extendqisi2
 325 0006 1BB9     		cbnz	r3, .L26
 182:.\Generated_Source\PSoC5/Counter_LED.c ****         Counter_LED_Init();
 326              		.loc 1 182 0
 327 0008 FFF7FEFF 		bl	Counter_LED_Init
 328              	.LVL6:
 184:.\Generated_Source\PSoC5/Counter_LED.c ****         Counter_LED_initVar = 1u; /* Clear this bit for Initialization */        
 329              		.loc 1 184 0
 330 000c 0120     		movs	r0, #1
 331 000e 2070     		strb	r0, [r4, #0]
 332              	.L26:
 189:.\Generated_Source\PSoC5/Counter_LED.c **** }
 333              		.loc 1 189 0
 334 0010 BDE81040 		pop	{r4, lr}
 188:.\Generated_Source\PSoC5/Counter_LED.c ****     Counter_LED_Enable();        
 335              		.loc 1 188 0
 336 0014 FFF7FEBF 		b	Counter_LED_Enable
 337              	.LVL7:
 338              	.L29:
 339              		.align	2
 340              	.L28:
 341 0018 00000000 		.word	.LANCHOR0
 342              		.cfi_endproc
 343              	.LFE2:
 344              		.size	Counter_LED_Start, .-Counter_LED_Start
 345              		.section	.text.Counter_LED_ReadCounter,"ax",%progbits
 346              		.align	1
 347              		.global	Counter_LED_ReadCounter
 348              		.thumb
 349              		.thumb_func
 350              		.type	Counter_LED_ReadCounter, %function
 351              	Counter_LED_ReadCounter:
 352              	.LFB9:
 358:.\Generated_Source\PSoC5/Counter_LED.c **** {
 353              		.loc 1 358 0
 354              		.cfi_startproc
 355              		@ args = 0, pretend = 0, frame = 0
 356              		@ frame_needed = 0, uses_anonymous_args = 0
 357              		@ link register save eliminated.
 370:.\Generated_Source\PSoC5/Counter_LED.c ****         return ((uint8)CY_GET_REG16(Counter_LED_STATICCOUNT_LSB_PTR));
 358              		.loc 1 370 0
 359 0000 0248     		ldr	r0, .L31
 363:.\Generated_Source\PSoC5/Counter_LED.c **** 		(void)CY_GET_REG16(Counter_LED_COUNTER_LSB_PTR);
ARM GAS  C:\Users\Graziano\AppData\Local\Temp\ccMyfgze.s 			page 15


 360              		.loc 1 363 0
 361 0002 034B     		ldr	r3, .L31+4
 362 0004 1B88     		ldrh	r3, [r3, #0]
 370:.\Generated_Source\PSoC5/Counter_LED.c ****         return ((uint8)CY_GET_REG16(Counter_LED_STATICCOUNT_LSB_PTR));
 363              		.loc 1 370 0
 364 0006 0188     		ldrh	r1, [r0, #0]
 374:.\Generated_Source\PSoC5/Counter_LED.c **** }
 365              		.loc 1 374 0
 366 0008 C8B2     		uxtb	r0, r1
 367 000a 7047     		bx	lr
 368              	.L32:
 369              		.align	2
 370              	.L31:
 371 000c 084F0040 		.word	1073762056
 372 0010 064F0040 		.word	1073762054
 373              		.cfi_endproc
 374              	.LFE9:
 375              		.size	Counter_LED_ReadCounter, .-Counter_LED_ReadCounter
 376              		.section	.text.Counter_LED_ReadCapture,"ax",%progbits
 377              		.align	1
 378              		.global	Counter_LED_ReadCapture
 379              		.thumb
 380              		.thumb_func
 381              		.type	Counter_LED_ReadCapture, %function
 382              	Counter_LED_ReadCapture:
 383              	.LFB10:
 391:.\Generated_Source\PSoC5/Counter_LED.c **** {
 384              		.loc 1 391 0
 385              		.cfi_startproc
 386              		@ args = 0, pretend = 0, frame = 0
 387              		@ frame_needed = 0, uses_anonymous_args = 0
 388              		@ link register save eliminated.
 393:.\Generated_Source\PSoC5/Counter_LED.c ****         return ((uint8)CY_GET_REG16(Counter_LED_STATICCOUNT_LSB_PTR));
 389              		.loc 1 393 0
 390 0000 014B     		ldr	r3, .L34
 391 0002 1888     		ldrh	r0, [r3, #0]
 397:.\Generated_Source\PSoC5/Counter_LED.c **** }
 392              		.loc 1 397 0
 393 0004 C0B2     		uxtb	r0, r0
 394 0006 7047     		bx	lr
 395              	.L35:
 396              		.align	2
 397              	.L34:
 398 0008 084F0040 		.word	1073762056
 399              		.cfi_endproc
 400              	.LFE10:
 401              		.size	Counter_LED_ReadCapture, .-Counter_LED_ReadCapture
 402              		.section	.text.Counter_LED_WritePeriod,"ax",%progbits
 403              		.align	1
 404              		.global	Counter_LED_WritePeriod
 405              		.thumb
 406              		.thumb_func
 407              		.type	Counter_LED_WritePeriod, %function
 408              	Counter_LED_WritePeriod:
 409              	.LFB11:
 416:.\Generated_Source\PSoC5/Counter_LED.c **** {
 410              		.loc 1 416 0
ARM GAS  C:\Users\Graziano\AppData\Local\Temp\ccMyfgze.s 			page 16


 411              		.cfi_startproc
 412              		@ args = 0, pretend = 0, frame = 0
 413              		@ frame_needed = 0, uses_anonymous_args = 0
 414              		@ link register save eliminated.
 415              	.LVL8:
 416              		.loc 1 418 0
 417 0000 014B     		ldr	r3, .L37
 418 0002 1880     		strh	r0, [r3, #0]	@ movhi
 419 0004 7047     		bx	lr
 420              	.L38:
 421 0006 00BF     		.align	2
 422              	.L37:
 423 0008 044F0040 		.word	1073762052
 424              		.cfi_endproc
 425              	.LFE11:
 426              		.size	Counter_LED_WritePeriod, .-Counter_LED_WritePeriod
 427              		.section	.text.Counter_LED_ReadPeriod,"ax",%progbits
 428              		.align	1
 429              		.global	Counter_LED_ReadPeriod
 430              		.thumb
 431              		.thumb_func
 432              		.type	Counter_LED_ReadPeriod, %function
 433              	Counter_LED_ReadPeriod:
 434              	.LFB12:
 419:.\Generated_Source\PSoC5/Counter_LED.c ****     #else
 420:.\Generated_Source\PSoC5/Counter_LED.c ****         CY_SET_REG8(Counter_LED_PERIOD_LSB_PTR, period);
 421:.\Generated_Source\PSoC5/Counter_LED.c ****     #endif /* (Counter_LED_UsingFixedFunction) */
 422:.\Generated_Source\PSoC5/Counter_LED.c **** }
 423:.\Generated_Source\PSoC5/Counter_LED.c **** 
 424:.\Generated_Source\PSoC5/Counter_LED.c **** 
 425:.\Generated_Source\PSoC5/Counter_LED.c **** /*******************************************************************************
 426:.\Generated_Source\PSoC5/Counter_LED.c **** * Function Name: Counter_LED_ReadPeriod
 427:.\Generated_Source\PSoC5/Counter_LED.c **** ********************************************************************************
 428:.\Generated_Source\PSoC5/Counter_LED.c **** * Summary:
 429:.\Generated_Source\PSoC5/Counter_LED.c **** * Reads the current period value without affecting counter operation.
 430:.\Generated_Source\PSoC5/Counter_LED.c **** *
 431:.\Generated_Source\PSoC5/Counter_LED.c **** * Parameters:  
 432:.\Generated_Source\PSoC5/Counter_LED.c **** *  void:  
 433:.\Generated_Source\PSoC5/Counter_LED.c **** *
 434:.\Generated_Source\PSoC5/Counter_LED.c **** * Return: 
 435:.\Generated_Source\PSoC5/Counter_LED.c **** *  (uint8) Present period value.
 436:.\Generated_Source\PSoC5/Counter_LED.c **** *
 437:.\Generated_Source\PSoC5/Counter_LED.c **** *******************************************************************************/
 438:.\Generated_Source\PSoC5/Counter_LED.c **** uint8 Counter_LED_ReadPeriod(void) 
 439:.\Generated_Source\PSoC5/Counter_LED.c **** {
 435              		.loc 1 439 0
 436              		.cfi_startproc
 437              		@ args = 0, pretend = 0, frame = 0
 438              		@ frame_needed = 0, uses_anonymous_args = 0
 439              		@ link register save eliminated.
 440:.\Generated_Source\PSoC5/Counter_LED.c ****     #if(Counter_LED_UsingFixedFunction)
 441:.\Generated_Source\PSoC5/Counter_LED.c ****         return ((uint8)CY_GET_REG16(Counter_LED_PERIOD_LSB_PTR));
 440              		.loc 1 441 0
 441 0000 014B     		ldr	r3, .L40
 442 0002 1888     		ldrh	r0, [r3, #0]
 442:.\Generated_Source\PSoC5/Counter_LED.c ****     #else
 443:.\Generated_Source\PSoC5/Counter_LED.c ****         return (CY_GET_REG8(Counter_LED_PERIOD_LSB_PTR));
ARM GAS  C:\Users\Graziano\AppData\Local\Temp\ccMyfgze.s 			page 17


 444:.\Generated_Source\PSoC5/Counter_LED.c ****     #endif /* (Counter_LED_UsingFixedFunction) */
 445:.\Generated_Source\PSoC5/Counter_LED.c **** }
 443              		.loc 1 445 0
 444 0004 C0B2     		uxtb	r0, r0
 445 0006 7047     		bx	lr
 446              	.L41:
 447              		.align	2
 448              	.L40:
 449 0008 044F0040 		.word	1073762052
 450              		.cfi_endproc
 451              	.LFE12:
 452              		.size	Counter_LED_ReadPeriod, .-Counter_LED_ReadPeriod
 453              		.global	Counter_LED_initVar
 454              		.bss
 455              		.set	.LANCHOR0,. + 0
 456              		.type	Counter_LED_initVar, %object
 457              		.size	Counter_LED_initVar, 1
 458              	Counter_LED_initVar:
 459 0000 00       		.space	1
 460              		.text
 461              	.Letext0:
 462              		.file 2 ".\\Generated_Source\\PSoC5\\cytypes.h"