ARM GAS  C:\Users\Graziano\AppData\Local\Temp\ccH8y0FY.s 			page 1


   1              		.syntax unified
   2              		.cpu cortex-m3
   3              		.fpu softvfp
   4              		.eabi_attribute 20, 1
   5              		.eabi_attribute 21, 1
   6              		.eabi_attribute 23, 3
   7              		.eabi_attribute 24, 1
   8              		.eabi_attribute 25, 1
   9              		.eabi_attribute 26, 1
  10              		.eabi_attribute 30, 4
  11              		.eabi_attribute 34, 1
  12              		.eabi_attribute 18, 4
  13              		.thumb
  14              		.file	"gobeelib.c"
  15              		.text
  16              	.Ltext0:
  17              		.cfi_sections	.debug_frame
  18              		.global	__aeabi_fmul
  19              		.global	__aeabi_fsub
  20              		.global	__aeabi_fdiv
  21              		.global	__aeabi_f2uiz
  22              		.section	.text.CFtau,"ax",%progbits
  23              		.align	1
  24              		.global	CFtau
  25              		.thumb
  26              		.thumb_func
  27              		.type	CFtau, %function
  28              	CFtau:
  29              	.LFB56:
  30              		.file 1 ".\\gobeelib.c"
   1:.\gobeelib.c  **** /* ==============================================
   2:.\gobeelib.c  ****  *                                              *
   3:.\gobeelib.c  ****  * Gyrosens Utility Library functions	        *
   4:.\gobeelib.c  ****  *												*
   5:.\gobeelib.c  ****  * Copyright 2012-2013 Logic brainstorm         *
   6:.\gobeelib.c  ****  * Author : Graziano G. Ravizza                 *
   7:.\gobeelib.c  ****  * All Rights Reserved							*
   8:.\gobeelib.c  ****  * UNPUBLISHED, LICENSED SOFTWARE.				*
   9:.\gobeelib.c  ****  *												*
  10:.\gobeelib.c  ****  * CONFIDENTIAL AND PROPRIETARY INFORMATION		*
  11:.\gobeelib.c  ****  * WHICH  IS THE PROPERTY OF Logic brainstorm	*
  12:.\gobeelib.c  ****  * ==============================================
  13:.\gobeelib.c  **** */
  14:.\gobeelib.c  **** 
  15:.\gobeelib.c  **** /* Include files */
  16:.\gobeelib.c  **** #include <device.h>
  17:.\gobeelib.c  **** #include <stdio.h>
  18:.\gobeelib.c  **** #include <gobee.h>
  19:.\gobeelib.c  **** #include <gobeelib.h>
  20:.\gobeelib.c  **** #include <console.h>
  21:.\gobeelib.c  **** #include <systrings.h>
  22:.\gobeelib.c  **** 
  23:.\gobeelib.c  **** /* External Global Wars */
  24:.\gobeelib.c  **** extern uint8 ledmask;
  25:.\gobeelib.c  **** extern uint8 signalmask;
  26:.\gobeelib.c  **** extern uint8 sleep_status;
  27:.\gobeelib.c  **** extern uint8 std_input;				/* Standard Communication Input  */
ARM GAS  C:\Users\Graziano\AppData\Local\Temp\ccH8y0FY.s 			page 2


  28:.\gobeelib.c  **** extern uint8 std_output;			/* Standard Communication Output */
  29:.\gobeelib.c  **** 
  30:.\gobeelib.c  **** extern struct GOBEE_PARAMS gobee_param;
  31:.\gobeelib.c  **** 
  32:.\gobeelib.c  **** /* External Motor Axis 		 */
  33:.\gobeelib.c  **** extern struct MOTOR_AXIS pan_axis; 			/* PAN Motor Axis Parameters & RT Datas	*/
  34:.\gobeelib.c  **** 
  35:.\gobeelib.c  **** extern uint8 EEreadBuffer[18];
  36:.\gobeelib.c  **** extern uint8 EEwriteBuffer[18];
  37:.\gobeelib.c  **** 
  38:.\gobeelib.c  **** 
  39:.\gobeelib.c  **** // ****************************
  40:.\gobeelib.c  **** // *** Funzioni Matematiche ***
  41:.\gobeelib.c  **** // ****************************
  42:.\gobeelib.c  **** 
  43:.\gobeelib.c  **** /* Compensation Filter: Tau calculus										*/
  44:.\gobeelib.c  **** /*																			*/
  45:.\gobeelib.c  **** /* 0 <= alpha <= 1															*/
  46:.\gobeelib.c  **** /* REM: Tau is expressed in msec											*/
  47:.\gobeelib.c  **** uint16 CFtau(float alpha)
  48:.\gobeelib.c  **** {
  31              		.loc 1 48 0
  32              		.cfi_startproc
  33              		@ args = 0, pretend = 0, frame = 0
  34              		@ frame_needed = 0, uses_anonymous_args = 0
  35              	.LVL0:
  36 0000 38B5     		push	{r3, r4, r5, lr}
  37              	.LCFI0:
  38              		.cfi_def_cfa_offset 16
  39              		.cfi_offset 3, -16
  40              		.cfi_offset 4, -12
  41              		.cfi_offset 5, -8
  42              		.cfi_offset 14, -4
  49:.\gobeelib.c  **** 	float deltaT;
  50:.\gobeelib.c  **** 	
  51:.\gobeelib.c  **** 	deltaT = DeltaT_const;
  52:.\gobeelib.c  **** 	deltaT = deltaT * 1000;
  53:.\gobeelib.c  **** 	return (uint16)(deltaT * alpha / (1-alpha));
  43              		.loc 1 53 0
  44 0002 0949     		ldr	r1, .L2
  48:.\gobeelib.c  **** {
  45              		.loc 1 48 0
  46 0004 0546     		mov	r5, r0
  47              		.loc 1 53 0
  48 0006 FFF7FEFF 		bl	__aeabi_fmul
  49              	.LVL1:
  50 000a 2946     		mov	r1, r5
  51 000c 0446     		mov	r4, r0
  52 000e 4FF07E50 		mov	r0, #1065353216
  53 0012 FFF7FEFF 		bl	__aeabi_fsub
  54              	.LVL2:
  55 0016 0146     		mov	r1, r0
  56 0018 2046     		mov	r0, r4
  57 001a FFF7FEFF 		bl	__aeabi_fdiv
  58              	.LVL3:
  59 001e FFF7FEFF 		bl	__aeabi_f2uiz
  60              	.LVL4:
ARM GAS  C:\Users\Graziano\AppData\Local\Temp\ccH8y0FY.s 			page 3


  54:.\gobeelib.c  **** }
  61              		.loc 1 54 0
  62 0022 80B2     		uxth	r0, r0
  63 0024 38BD     		pop	{r3, r4, r5, pc}
  64              	.L3:
  65 0026 00BF     		.align	2
  66              	.L2:
  67 0028 A0AAAA3E 		.word	1051372192
  68              		.cfi_endproc
  69              	.LFE56:
  70              		.size	CFtau, .-CFtau
  71              		.section	.text.LPFtau,"ax",%progbits
  72              		.align	1
  73              		.global	LPFtau
  74              		.thumb
  75              		.thumb_func
  76              		.type	LPFtau, %function
  77              	LPFtau:
  78              	.LFB57:
  55:.\gobeelib.c  **** 
  56:.\gobeelib.c  **** 
  57:.\gobeelib.c  **** /* Low Pass Filter: Tau calculus											*/
  58:.\gobeelib.c  **** /*																			*/
  59:.\gobeelib.c  **** /* 0 <= beta <= 1															*/
  60:.\gobeelib.c  **** /* REM: Tau is expressed in msec											*/
  61:.\gobeelib.c  **** float LPFtau(float beta)
  62:.\gobeelib.c  **** {
  79              		.loc 1 62 0
  80              		.cfi_startproc
  81              		@ args = 0, pretend = 0, frame = 0
  82              		@ frame_needed = 0, uses_anonymous_args = 0
  83              	.LVL5:
  84 0000 10B5     		push	{r4, lr}
  85              	.LCFI1:
  86              		.cfi_def_cfa_offset 8
  87              		.cfi_offset 4, -8
  88              		.cfi_offset 14, -4
  89              		.loc 1 62 0
  90 0002 0446     		mov	r4, r0
  63:.\gobeelib.c  **** 	float deltaT;
  64:.\gobeelib.c  **** 	
  65:.\gobeelib.c  **** 	deltaT = DeltaT_const;
  66:.\gobeelib.c  **** 	deltaT = deltaT * 1000;
  67:.\gobeelib.c  **** 	return (deltaT * (1-beta) / beta);
  91              		.loc 1 67 0
  92 0004 2146     		mov	r1, r4
  93 0006 4FF07E50 		mov	r0, #1065353216
  94              	.LVL6:
  95 000a FFF7FEFF 		bl	__aeabi_fsub
  96              	.LVL7:
  97 000e 0349     		ldr	r1, .L5
  98 0010 FFF7FEFF 		bl	__aeabi_fmul
  99              	.LVL8:
 100 0014 2146     		mov	r1, r4
 101 0016 FFF7FEFF 		bl	__aeabi_fdiv
 102              	.LVL9:
  68:.\gobeelib.c  **** }
ARM GAS  C:\Users\Graziano\AppData\Local\Temp\ccH8y0FY.s 			page 4


 103              		.loc 1 68 0
 104 001a 10BD     		pop	{r4, pc}
 105              	.L6:
 106              		.align	2
 107              	.L5:
 108 001c A0AAAA3E 		.word	1051372192
 109              		.cfi_endproc
 110              	.LFE57:
 111              		.size	LPFtau, .-LPFtau
 112              		.global	__aeabi_f2d
 113              		.global	__aeabi_dmul
 114              		.global	__aeabi_ddiv
 115              		.global	__aeabi_d2f
 116              		.section	.text.LPFfreq,"ax",%progbits
 117              		.align	1
 118              		.global	LPFfreq
 119              		.thumb
 120              		.thumb_func
 121              		.type	LPFfreq, %function
 122              	LPFfreq:
 123              	.LFB58:
  69:.\gobeelib.c  **** 
  70:.\gobeelib.c  **** /* Exponential error smoothing function: Freq calculus						*/
  71:.\gobeelib.c  **** /* (exactly like RC first order low pass filter) 							*/
  72:.\gobeelib.c  **** /* http://en.wikipedia.org/wiki/Low-pass_filter#Discrete-time_realization	*/
  73:.\gobeelib.c  **** /* http://en.wikipedia.org/wiki/Exponential_smoothing						*/
  74:.\gobeelib.c  **** /*																			*/
  75:.\gobeelib.c  **** /* REM: freq is expressed in Hz												*/
  76:.\gobeelib.c  **** float LPFfreq(float alpha)
  77:.\gobeelib.c  **** {
 124              		.loc 1 77 0
 125              		.cfi_startproc
 126              		@ args = 0, pretend = 0, frame = 0
 127              		@ frame_needed = 0, uses_anonymous_args = 0
 128              	.LVL10:
 129 0000 10B5     		push	{r4, lr}
 130              	.LCFI2:
 131              		.cfi_def_cfa_offset 8
 132              		.cfi_offset 4, -8
 133              		.cfi_offset 14, -4
 134              		.loc 1 77 0
 135 0002 0446     		mov	r4, r0
 136              	.LVL11:
 137              	.LBB136:
 138              	.LBB137:
  67:.\gobeelib.c  **** 	return (deltaT * (1-beta) / beta);
 139              		.loc 1 67 0
 140 0004 2146     		mov	r1, r4
 141 0006 4FF07E50 		mov	r0, #1065353216
 142              	.LVL12:
 143 000a FFF7FEFF 		bl	__aeabi_fsub
 144              	.LVL13:
 145 000e 0E49     		ldr	r1, .L8+8
 146 0010 FFF7FEFF 		bl	__aeabi_fmul
 147              	.LVL14:
 148 0014 2146     		mov	r1, r4
 149 0016 FFF7FEFF 		bl	__aeabi_fdiv
ARM GAS  C:\Users\Graziano\AppData\Local\Temp\ccH8y0FY.s 			page 5


 150              	.LVL15:
 151              	.LBE137:
 152              	.LBE136:
  78:.\gobeelib.c  **** 	float freq;
  79:.\gobeelib.c  **** 	
  80:.\gobeelib.c  **** 	freq = 1000/(6.2831 * LPFtau(alpha));
 153              		.loc 1 80 0
 154 001a FFF7FEFF 		bl	__aeabi_f2d
 155              	.LVL16:
 156 001e 08A3     		adr	r3, .L8
 157 0020 D3E90023 		ldrd	r2, [r3]
 158 0024 FFF7FEFF 		bl	__aeabi_dmul
 159              	.LVL17:
 160 0028 0246     		mov	r2, r0
 161 002a 0B46     		mov	r3, r1
 162 002c 0020     		movs	r0, #0
 163 002e 0749     		ldr	r1, .L8+12
 164 0030 FFF7FEFF 		bl	__aeabi_ddiv
 165              	.LVL18:
 166 0034 FFF7FEFF 		bl	__aeabi_d2f
 167              	.LVL19:
  81:.\gobeelib.c  **** 	return (freq);
  82:.\gobeelib.c  **** }
 168              		.loc 1 82 0
 169 0038 10BD     		pop	{r4, pc}
 170              	.L9:
 171 003a 00BFAFF3 		.align	3
 171      0080
 172              	.L8:
 173 0040 8BFD65F7 		.word	-144310901
 174 0044 E4211940 		.word	1075388900
 175 0048 A0AAAA3E 		.word	1051372192
 176 004c 00408F40 		.word	1083129856
 177              		.cfi_endproc
 178              	.LFE58:
 179              		.size	LPFfreq, .-LPFfreq
 180              		.section	.text.squaref,"ax",%progbits
 181              		.align	1
 182              		.global	squaref
 183              		.thumb
 184              		.thumb_func
 185              		.type	squaref, %function
 186              	squaref:
 187              	.LFB59:
  83:.\gobeelib.c  **** 
  84:.\gobeelib.c  **** 
  85:.\gobeelib.c  **** /* Floating point square function	*/
  86:.\gobeelib.c  **** float squaref(float x)
  87:.\gobeelib.c  **** {
 188              		.loc 1 87 0
 189              		.cfi_startproc
 190              		@ args = 0, pretend = 0, frame = 0
 191              		@ frame_needed = 0, uses_anonymous_args = 0
 192              	.LVL20:
 193 0000 08B5     		push	{r3, lr}
 194              	.LCFI3:
 195              		.cfi_def_cfa_offset 8
ARM GAS  C:\Users\Graziano\AppData\Local\Temp\ccH8y0FY.s 			page 6


 196              		.cfi_offset 3, -8
 197              		.cfi_offset 14, -4
  88:.\gobeelib.c  ****     return(x*x);
 198              		.loc 1 88 0
 199 0002 0146     		mov	r1, r0
 200 0004 FFF7FEFF 		bl	__aeabi_fmul
 201              	.LVL21:
  89:.\gobeelib.c  **** }
 202              		.loc 1 89 0
 203 0008 08BD     		pop	{r3, pc}
 204              		.cfi_endproc
 205              	.LFE59:
 206              		.size	squaref, .-squaref
 207              		.section	.text.WriteAllEEparams,"ax",%progbits
 208              		.align	1
 209              		.global	WriteAllEEparams
 210              		.thumb
 211              		.thumb_func
 212              		.type	WriteAllEEparams, %function
 213              	WriteAllEEparams:
 214              	.LFB60:
  90:.\gobeelib.c  **** 
  91:.\gobeelib.c  **** 
  92:.\gobeelib.c  **** /* Floating point signum         */
  93:.\gobeelib.c  **** /* returns +1.0 if fvalue >= 0.0 */
  94:.\gobeelib.c  **** /* returns -1.0 if fvalue <  0.0 */
  95:.\gobeelib.c  **** //float fsgn(float fvalue)
  96:.\gobeelib.c  **** //{
  97:.\gobeelib.c  **** //if (fvalue >= 0.0) return +1.0;
  98:.\gobeelib.c  **** //if (fvalue <  0.0) return -1.0;
  99:.\gobeelib.c  **** //}
 100:.\gobeelib.c  **** 
 101:.\gobeelib.c  **** 
 102:.\gobeelib.c  **** /* Integer signum                */
 103:.\gobeelib.c  **** /* returns +1 if ivalue >= 0     */
 104:.\gobeelib.c  **** /* returns -1 if ivalue < 0      */
 105:.\gobeelib.c  **** //int   isgn(int ivalue)
 106:.\gobeelib.c  **** //{
 107:.\gobeelib.c  **** //if (ivalue >= 0) return +1;
 108:.\gobeelib.c  **** //if (ivalue <  0) return -1;
 109:.\gobeelib.c  **** //}
 110:.\gobeelib.c  **** 
 111:.\gobeelib.c  **** 
 112:.\gobeelib.c  **** // *********************************************************
 113:.\gobeelib.c  **** // *** Funzioni salvataggio parametri macchina in EEPROM ***
 114:.\gobeelib.c  **** // *********************************************************
 115:.\gobeelib.c  **** 
 116:.\gobeelib.c  **** uint8 WriteAllEEparams(void)
 117:.\gobeelib.c  **** {
 215              		.loc 1 117 0
 216              		.cfi_startproc
 217              		@ args = 0, pretend = 0, frame = 0
 218              		@ frame_needed = 0, uses_anonymous_args = 0
 219              	.LVL22:
 220 0000 F8B5     		push	{r3, r4, r5, r6, r7, lr}
 221              	.LCFI4:
 222              		.cfi_def_cfa_offset 24
ARM GAS  C:\Users\Graziano\AppData\Local\Temp\ccH8y0FY.s 			page 7


 223              		.cfi_offset 3, -24
 224              		.cfi_offset 4, -20
 225              		.cfi_offset 5, -16
 226              		.cfi_offset 6, -12
 227              		.cfi_offset 7, -8
 228              		.cfi_offset 14, -4
 229              		.loc 1 117 0
 230 0002 0023     		movs	r3, #0
 231              	.LVL23:
 232              	.L12:
 118:.\gobeelib.c  **** 	uint8 idx;
 119:.\gobeelib.c  **** 	uint8 dummy __attribute__ ((unused));
 120:.\gobeelib.c  **** 	// Aggiungere controllo con codice di uscita!
 121:.\gobeelib.c  **** 
 122:.\gobeelib.c  **** 	// Clears EEPROM Write Buffer
 123:.\gobeelib.c  **** 	for (idx=0; idx<=16; idx++)
 124:.\gobeelib.c  **** 	{
 125:.\gobeelib.c  **** 		EEwriteBuffer[idx]=0;
 233              		.loc 1 125 0 discriminator 2
 234 0004 5B4C     		ldr	r4, .L15
 235 0006 0027     		movs	r7, #0
 236 0008 1F55     		strb	r7, [r3, r4]
 237 000a 0133     		adds	r3, r3, #1
 123:.\gobeelib.c  **** 	for (idx=0; idx<=16; idx++)
 238              		.loc 1 123 0 discriminator 2
 239 000c 112B     		cmp	r3, #17
 240 000e F9D1     		bne	.L12
 126:.\gobeelib.c  **** 	}
 127:.\gobeelib.c  **** 	
 128:.\gobeelib.c  **** 	// Writes main parameters on EEPROM Row 0 - [EEPROM Add=0..15]
 129:.\gobeelib.c  **** 	EEwriteBuffer[0] = gobee_param.angle_estimation;
 241              		.loc 1 129 0
 242 0010 594D     		ldr	r5, .L15+4
 130:.\gobeelib.c  **** 	EEwriteBuffer[1] = pan_axis.param.polarity;
 243              		.loc 1 130 0
 244 0012 5A4E     		ldr	r6, .L15+8
 129:.\gobeelib.c  **** 	EEwriteBuffer[0] = gobee_param.angle_estimation;
 245              		.loc 1 129 0
 246 0014 95F82900 		ldrb	r0, [r5, #41]	@ zero_extendqisi2
 247              		.loc 1 130 0
 248 0018 317A     		ldrb	r1, [r6, #8]	@ zero_extendqisi2
 131:.\gobeelib.c  **** 	EEwriteBuffer[2] = gobee_param.x_acc_ADC_offset;	
 132:.\gobeelib.c  **** 	EEwriteBuffer[3] = gobee_param.y_acc_ADC_offset;
 249              		.loc 1 132 0
 250 001a 2B7E     		ldrb	r3, [r5, #24]	@ zero_extendqisi2
 131:.\gobeelib.c  **** 	EEwriteBuffer[2] = gobee_param.x_acc_ADC_offset;	
 251              		.loc 1 131 0
 252 001c EA8A     		ldrh	r2, [r5, #22]
 129:.\gobeelib.c  **** 	EEwriteBuffer[0] = gobee_param.angle_estimation;
 253              		.loc 1 129 0
 254 001e 2070     		strb	r0, [r4, #0]
 130:.\gobeelib.c  **** 	EEwriteBuffer[1] = pan_axis.param.polarity;
 255              		.loc 1 130 0
 256 0020 6170     		strb	r1, [r4, #1]
 133:.\gobeelib.c  **** 	EEwriteBuffer[4] = gobee_param.y_acc_ADC_offset;	
 134:.\gobeelib.c  **** 	EEwriteBuffer[5] = gobee_param.director;
 257              		.loc 1 134 0
ARM GAS  C:\Users\Graziano\AppData\Local\Temp\ccH8y0FY.s 			page 8


 258 0022 2878     		ldrb	r0, [r5, #0]	@ zero_extendqisi2
 135:.\gobeelib.c  **** 	EEwriteBuffer[6] = gobee_param.link_type;	
 259              		.loc 1 135 0
 260 0024 6978     		ldrb	r1, [r5, #1]	@ zero_extendqisi2
 131:.\gobeelib.c  **** 	EEwriteBuffer[2] = gobee_param.x_acc_ADC_offset;	
 261              		.loc 1 131 0
 262 0026 A270     		strb	r2, [r4, #2]
 132:.\gobeelib.c  **** 	EEwriteBuffer[3] = gobee_param.y_acc_ADC_offset;
 263              		.loc 1 132 0
 264 0028 E370     		strb	r3, [r4, #3]
 136:.\gobeelib.c  **** 	
 137:.\gobeelib.c  **** 	EEwriteBuffer[7]  = gobee_param.jump_g_threshold.fbyte[0];		//
 265              		.loc 1 137 0
 266 002a 95F83020 		ldrb	r2, [r5, #48]	@ zero_extendqisi2
 133:.\gobeelib.c  **** 	EEwriteBuffer[4] = gobee_param.y_acc_ADC_offset;	
 267              		.loc 1 133 0
 268 002e 2371     		strb	r3, [r4, #4]
 138:.\gobeelib.c  **** 	EEwriteBuffer[8]  = gobee_param.jump_g_threshold.fbyte[1];		//
 269              		.loc 1 138 0
 270 0030 95F83130 		ldrb	r3, [r5, #49]	@ zero_extendqisi2
 134:.\gobeelib.c  **** 	EEwriteBuffer[5] = gobee_param.director;
 271              		.loc 1 134 0
 272 0034 6071     		strb	r0, [r4, #5]
 135:.\gobeelib.c  **** 	EEwriteBuffer[6] = gobee_param.link_type;	
 273              		.loc 1 135 0
 274 0036 A171     		strb	r1, [r4, #6]
 139:.\gobeelib.c  **** 	EEwriteBuffer[9]  = gobee_param.jump_g_threshold.fbyte[2];		//
 275              		.loc 1 139 0
 276 0038 95F83200 		ldrb	r0, [r5, #50]	@ zero_extendqisi2
 140:.\gobeelib.c  **** 	EEwriteBuffer[10] = gobee_param.jump_g_threshold.fbyte[3];		//float number saving
 277              		.loc 1 140 0
 278 003c 95F83310 		ldrb	r1, [r5, #51]	@ zero_extendqisi2
 137:.\gobeelib.c  **** 	EEwriteBuffer[7]  = gobee_param.jump_g_threshold.fbyte[0];		//
 279              		.loc 1 137 0
 280 0040 E271     		strb	r2, [r4, #7]
 138:.\gobeelib.c  **** 	EEwriteBuffer[8]  = gobee_param.jump_g_threshold.fbyte[1];		//
 281              		.loc 1 138 0
 282 0042 2372     		strb	r3, [r4, #8]
 141:.\gobeelib.c  **** 	
 142:.\gobeelib.c  **** //	EEwriteBuffer[11] = BYTELOW(gobee_param.KdO);	
 143:.\gobeelib.c  **** 	EEwriteBuffer[12] = gobee_param.feedback;
 283              		.loc 1 143 0
 284 0044 95F82820 		ldrb	r2, [r5, #40]	@ zero_extendqisi2
 144:.\gobeelib.c  **** //	EEwriteBuffer[13] = BYTEHIGH(gobee_param.Vthreshold);	
 145:.\gobeelib.c  **** //	EEwriteBuffer[14] = BYTELOW(gobee_param.Vthreshold);	
 146:.\gobeelib.c  **** 	EEwriteBuffer[15] = gobee_param.agyro_ADC_offset;
 285              		.loc 1 146 0
 286 0048 2B7D     		ldrb	r3, [r5, #20]	@ zero_extendqisi2
 139:.\gobeelib.c  **** 	EEwriteBuffer[9]  = gobee_param.jump_g_threshold.fbyte[2];		//
 287              		.loc 1 139 0
 288 004a 6072     		strb	r0, [r4, #9]
 140:.\gobeelib.c  **** 	EEwriteBuffer[10] = gobee_param.jump_g_threshold.fbyte[3];		//float number saving
 289              		.loc 1 140 0
 290 004c A172     		strb	r1, [r4, #10]
 147:.\gobeelib.c  **** 
 148:.\gobeelib.c  **** 	dummy = EEPROM_Write(&EEwriteBuffer[0], 0);	
 291              		.loc 1 148 0
ARM GAS  C:\Users\Graziano\AppData\Local\Temp\ccH8y0FY.s 			page 9


 292 004e 2046     		mov	r0, r4
 293 0050 3946     		mov	r1, r7
 143:.\gobeelib.c  **** 	EEwriteBuffer[12] = gobee_param.feedback;
 294              		.loc 1 143 0
 295 0052 2273     		strb	r2, [r4, #12]
 146:.\gobeelib.c  **** 	EEwriteBuffer[15] = gobee_param.agyro_ADC_offset;
 296              		.loc 1 146 0
 297 0054 E373     		strb	r3, [r4, #15]
 298              		.loc 1 148 0
 299 0056 FFF7FEFF 		bl	EEPROM_Write
 300              	.LVL24:
 149:.\gobeelib.c  **** 
 150:.\gobeelib.c  **** 	
 151:.\gobeelib.c  **** 	// Writes main parameters on EEPROM Row 1 - [EEPROM Add=16..31]	
 152:.\gobeelib.c  **** 
 153:.\gobeelib.c  **** 	EEwriteBuffer[0] = gobee_param.gyro_offset_fine.fbyte[0];		//
 301              		.loc 1 153 0
 302 005a 287F     		ldrb	r0, [r5, #28]	@ zero_extendqisi2
 154:.\gobeelib.c  **** 	EEwriteBuffer[1] = gobee_param.gyro_offset_fine.fbyte[1];		//
 303              		.loc 1 154 0
 304 005c 697F     		ldrb	r1, [r5, #29]	@ zero_extendqisi2
 155:.\gobeelib.c  **** 	EEwriteBuffer[2] = gobee_param.gyro_offset_fine.fbyte[2];		//
 305              		.loc 1 155 0
 306 005e AA7F     		ldrb	r2, [r5, #30]	@ zero_extendqisi2
 156:.\gobeelib.c  **** 	EEwriteBuffer[3] = gobee_param.gyro_offset_fine.fbyte[3];		//float number saving
 307              		.loc 1 156 0
 308 0060 EB7F     		ldrb	r3, [r5, #31]	@ zero_extendqisi2
 153:.\gobeelib.c  **** 	EEwriteBuffer[0] = gobee_param.gyro_offset_fine.fbyte[0];		//
 309              		.loc 1 153 0
 310 0062 2070     		strb	r0, [r4, #0]
 154:.\gobeelib.c  **** 	EEwriteBuffer[1] = gobee_param.gyro_offset_fine.fbyte[1];		//
 311              		.loc 1 154 0
 312 0064 6170     		strb	r1, [r4, #1]
 157:.\gobeelib.c  **** 	
 158:.\gobeelib.c  **** 	EEwriteBuffer[4] = gobee_param.gyro_scale_offset_fine.fbyte[0];		//
 313              		.loc 1 158 0
 314 0066 95F82400 		ldrb	r0, [r5, #36]	@ zero_extendqisi2
 159:.\gobeelib.c  **** 	EEwriteBuffer[5] = gobee_param.gyro_scale_offset_fine.fbyte[1];		//
 315              		.loc 1 159 0
 316 006a 95F82510 		ldrb	r1, [r5, #37]	@ zero_extendqisi2
 155:.\gobeelib.c  **** 	EEwriteBuffer[2] = gobee_param.gyro_offset_fine.fbyte[2];		//
 317              		.loc 1 155 0
 318 006e A270     		strb	r2, [r4, #2]
 156:.\gobeelib.c  **** 	EEwriteBuffer[3] = gobee_param.gyro_offset_fine.fbyte[3];		//float number saving
 319              		.loc 1 156 0
 320 0070 E370     		strb	r3, [r4, #3]
 160:.\gobeelib.c  **** 	EEwriteBuffer[6] = gobee_param.gyro_scale_offset_fine.fbyte[2];		//
 321              		.loc 1 160 0
 322 0072 95F82620 		ldrb	r2, [r5, #38]	@ zero_extendqisi2
 161:.\gobeelib.c  **** 	EEwriteBuffer[7] = gobee_param.gyro_scale_offset_fine.fbyte[3];		//float number saving
 323              		.loc 1 161 0
 324 0076 95F82730 		ldrb	r3, [r5, #39]	@ zero_extendqisi2
 158:.\gobeelib.c  **** 	EEwriteBuffer[4] = gobee_param.gyro_scale_offset_fine.fbyte[0];		//
 325              		.loc 1 158 0
 326 007a 2071     		strb	r0, [r4, #4]
 159:.\gobeelib.c  **** 	EEwriteBuffer[5] = gobee_param.gyro_scale_offset_fine.fbyte[1];		//
 327              		.loc 1 159 0
ARM GAS  C:\Users\Graziano\AppData\Local\Temp\ccH8y0FY.s 			page 10


 328 007c 6171     		strb	r1, [r4, #5]
 162:.\gobeelib.c  **** 
 163:.\gobeelib.c  **** 	EEwriteBuffer[8] = gobee_param.alpha.fbyte[0];	//
 329              		.loc 1 163 0
 330 007e 2879     		ldrb	r0, [r5, #4]	@ zero_extendqisi2
 164:.\gobeelib.c  **** 	EEwriteBuffer[9] = gobee_param.alpha.fbyte[1];	//
 331              		.loc 1 164 0
 332 0080 6979     		ldrb	r1, [r5, #5]	@ zero_extendqisi2
 160:.\gobeelib.c  **** 	EEwriteBuffer[6] = gobee_param.gyro_scale_offset_fine.fbyte[2];		//
 333              		.loc 1 160 0
 334 0082 A271     		strb	r2, [r4, #6]
 161:.\gobeelib.c  **** 	EEwriteBuffer[7] = gobee_param.gyro_scale_offset_fine.fbyte[3];		//float number saving
 335              		.loc 1 161 0
 336 0084 E371     		strb	r3, [r4, #7]
 165:.\gobeelib.c  **** 	EEwriteBuffer[10] = gobee_param.alpha.fbyte[2];	//
 337              		.loc 1 165 0
 338 0086 AA79     		ldrb	r2, [r5, #6]	@ zero_extendqisi2
 166:.\gobeelib.c  **** 	EEwriteBuffer[11] = gobee_param.alpha.fbyte[3];	//float number saving
 339              		.loc 1 166 0
 340 0088 EB79     		ldrb	r3, [r5, #7]	@ zero_extendqisi2
 163:.\gobeelib.c  **** 	EEwriteBuffer[8] = gobee_param.alpha.fbyte[0];	//
 341              		.loc 1 163 0
 342 008a 2072     		strb	r0, [r4, #8]
 164:.\gobeelib.c  **** 	EEwriteBuffer[9] = gobee_param.alpha.fbyte[1];	//
 343              		.loc 1 164 0
 344 008c 6172     		strb	r1, [r4, #9]
 167:.\gobeelib.c  **** 	
 168:.\gobeelib.c  **** 	EEwriteBuffer[12] = gobee_param.beta.fbyte[0];	//
 345              		.loc 1 168 0
 346 008e 287A     		ldrb	r0, [r5, #8]	@ zero_extendqisi2
 169:.\gobeelib.c  **** 	EEwriteBuffer[13] = gobee_param.beta.fbyte[1];	//
 347              		.loc 1 169 0
 348 0090 697A     		ldrb	r1, [r5, #9]	@ zero_extendqisi2
 165:.\gobeelib.c  **** 	EEwriteBuffer[10] = gobee_param.alpha.fbyte[2];	//
 349              		.loc 1 165 0
 350 0092 A272     		strb	r2, [r4, #10]
 166:.\gobeelib.c  **** 	EEwriteBuffer[11] = gobee_param.alpha.fbyte[3];	//float number saving
 351              		.loc 1 166 0
 352 0094 E372     		strb	r3, [r4, #11]
 170:.\gobeelib.c  **** 	EEwriteBuffer[14] = gobee_param.beta.fbyte[2];	//
 353              		.loc 1 170 0
 354 0096 AA7A     		ldrb	r2, [r5, #10]	@ zero_extendqisi2
 171:.\gobeelib.c  **** 	EEwriteBuffer[15] = gobee_param.beta.fbyte[3];	//float number saving	
 355              		.loc 1 171 0
 356 0098 EB7A     		ldrb	r3, [r5, #11]	@ zero_extendqisi2
 168:.\gobeelib.c  **** 	EEwriteBuffer[12] = gobee_param.beta.fbyte[0];	//
 357              		.loc 1 168 0
 358 009a 2073     		strb	r0, [r4, #12]
 169:.\gobeelib.c  **** 	EEwriteBuffer[13] = gobee_param.beta.fbyte[1];	//
 359              		.loc 1 169 0
 360 009c 6173     		strb	r1, [r4, #13]
 172:.\gobeelib.c  **** 	
 173:.\gobeelib.c  **** 	dummy = EEPROM_Write(&EEwriteBuffer[0], 1);
 361              		.loc 1 173 0
 362 009e 2046     		mov	r0, r4
 363 00a0 0121     		movs	r1, #1
 170:.\gobeelib.c  **** 	EEwriteBuffer[14] = gobee_param.beta.fbyte[2];	//
ARM GAS  C:\Users\Graziano\AppData\Local\Temp\ccH8y0FY.s 			page 11


 364              		.loc 1 170 0
 365 00a2 A273     		strb	r2, [r4, #14]
 171:.\gobeelib.c  **** 	EEwriteBuffer[15] = gobee_param.beta.fbyte[3];	//float number saving	
 366              		.loc 1 171 0
 367 00a4 E373     		strb	r3, [r4, #15]
 368              		.loc 1 173 0
 369 00a6 FFF7FEFF 		bl	EEPROM_Write
 370              	.LVL25:
 174:.\gobeelib.c  **** 
 175:.\gobeelib.c  **** 	
 176:.\gobeelib.c  **** 	// Writes parameters on EEPROM Row 2 - [EEPROM Add=32..47]
 177:.\gobeelib.c  **** 	
 178:.\gobeelib.c  **** 	EEwriteBuffer[0] = gobee_param.dgyro_offset_fine.fbyte[0];		//
 371              		.loc 1 178 0
 372 00aa 95F82000 		ldrb	r0, [r5, #32]	@ zero_extendqisi2
 179:.\gobeelib.c  **** 	EEwriteBuffer[1] = gobee_param.dgyro_offset_fine.fbyte[1];		//
 373              		.loc 1 179 0
 374 00ae 95F82110 		ldrb	r1, [r5, #33]	@ zero_extendqisi2
 180:.\gobeelib.c  **** 	EEwriteBuffer[2] = gobee_param.dgyro_offset_fine.fbyte[2];		//
 375              		.loc 1 180 0
 376 00b2 95F82220 		ldrb	r2, [r5, #34]	@ zero_extendqisi2
 181:.\gobeelib.c  **** 	EEwriteBuffer[3] = gobee_param.dgyro_offset_fine.fbyte[3];		//float number saving
 377              		.loc 1 181 0
 378 00b6 95F82330 		ldrb	r3, [r5, #35]	@ zero_extendqisi2
 178:.\gobeelib.c  **** 	EEwriteBuffer[0] = gobee_param.dgyro_offset_fine.fbyte[0];		//
 379              		.loc 1 178 0
 380 00ba 2070     		strb	r0, [r4, #0]
 179:.\gobeelib.c  **** 	EEwriteBuffer[1] = gobee_param.dgyro_offset_fine.fbyte[1];		//
 381              		.loc 1 179 0
 382 00bc 6170     		strb	r1, [r4, #1]
 182:.\gobeelib.c  **** 
 183:.\gobeelib.c  **** 	EEwriteBuffer[4] = gobee_param.gamma.fbyte[0];	//
 383              		.loc 1 183 0
 384 00be 287B     		ldrb	r0, [r5, #12]	@ zero_extendqisi2
 184:.\gobeelib.c  **** 	EEwriteBuffer[5] = gobee_param.gamma.fbyte[1];	//
 385              		.loc 1 184 0
 386 00c0 697B     		ldrb	r1, [r5, #13]	@ zero_extendqisi2
 180:.\gobeelib.c  **** 	EEwriteBuffer[2] = gobee_param.dgyro_offset_fine.fbyte[2];		//
 387              		.loc 1 180 0
 388 00c2 A270     		strb	r2, [r4, #2]
 181:.\gobeelib.c  **** 	EEwriteBuffer[3] = gobee_param.dgyro_offset_fine.fbyte[3];		//float number saving
 389              		.loc 1 181 0
 390 00c4 E370     		strb	r3, [r4, #3]
 185:.\gobeelib.c  **** 	EEwriteBuffer[6] = gobee_param.gamma.fbyte[2];	//
 391              		.loc 1 185 0
 392 00c6 AA7B     		ldrb	r2, [r5, #14]	@ zero_extendqisi2
 186:.\gobeelib.c  **** 	EEwriteBuffer[7] = gobee_param.gamma.fbyte[3];	//float number saving
 393              		.loc 1 186 0
 394 00c8 EB7B     		ldrb	r3, [r5, #15]	@ zero_extendqisi2
 183:.\gobeelib.c  **** 	EEwriteBuffer[4] = gobee_param.gamma.fbyte[0];	//
 395              		.loc 1 183 0
 396 00ca 2071     		strb	r0, [r4, #4]
 184:.\gobeelib.c  **** 	EEwriteBuffer[5] = gobee_param.gamma.fbyte[1];	//
 397              		.loc 1 184 0
 398 00cc 6171     		strb	r1, [r4, #5]
 187:.\gobeelib.c  **** 
 188:.\gobeelib.c  **** 	EEwriteBuffer[8] = gobee_param.ana_gyro_scale_sensivity.fbyte[0];	//
ARM GAS  C:\Users\Graziano\AppData\Local\Temp\ccH8y0FY.s 			page 12


 399              		.loc 1 188 0
 400 00ce 287C     		ldrb	r0, [r5, #16]	@ zero_extendqisi2
 189:.\gobeelib.c  **** 	EEwriteBuffer[9] = gobee_param.ana_gyro_scale_sensivity.fbyte[1];	//
 401              		.loc 1 189 0
 402 00d0 697C     		ldrb	r1, [r5, #17]	@ zero_extendqisi2
 185:.\gobeelib.c  **** 	EEwriteBuffer[6] = gobee_param.gamma.fbyte[2];	//
 403              		.loc 1 185 0
 404 00d2 A271     		strb	r2, [r4, #6]
 186:.\gobeelib.c  **** 	EEwriteBuffer[7] = gobee_param.gamma.fbyte[3];	//float number saving
 405              		.loc 1 186 0
 406 00d4 E371     		strb	r3, [r4, #7]
 190:.\gobeelib.c  **** 	EEwriteBuffer[10] = gobee_param.ana_gyro_scale_sensivity.fbyte[2];	//
 407              		.loc 1 190 0
 408 00d6 AA7C     		ldrb	r2, [r5, #18]	@ zero_extendqisi2
 191:.\gobeelib.c  **** 	EEwriteBuffer[11] = gobee_param.ana_gyro_scale_sensivity.fbyte[3];	//float number saving
 409              		.loc 1 191 0
 410 00d8 EB7C     		ldrb	r3, [r5, #19]	@ zero_extendqisi2
 188:.\gobeelib.c  **** 	EEwriteBuffer[8] = gobee_param.ana_gyro_scale_sensivity.fbyte[0];	//
 411              		.loc 1 188 0
 412 00da 2072     		strb	r0, [r4, #8]
 189:.\gobeelib.c  **** 	EEwriteBuffer[9] = gobee_param.ana_gyro_scale_sensivity.fbyte[1];	//
 413              		.loc 1 189 0
 414 00dc 6172     		strb	r1, [r4, #9]
 192:.\gobeelib.c  **** 	
 193:.\gobeelib.c  **** 	dummy = EEPROM_Write(&EEwriteBuffer[0], 2);	
 415              		.loc 1 193 0
 416 00de 2046     		mov	r0, r4
 417 00e0 0221     		movs	r1, #2
 190:.\gobeelib.c  **** 	EEwriteBuffer[10] = gobee_param.ana_gyro_scale_sensivity.fbyte[2];	//
 418              		.loc 1 190 0
 419 00e2 A272     		strb	r2, [r4, #10]
 191:.\gobeelib.c  **** 	EEwriteBuffer[11] = gobee_param.ana_gyro_scale_sensivity.fbyte[3];	//float number saving
 420              		.loc 1 191 0
 421 00e4 E372     		strb	r3, [r4, #11]
 422              		.loc 1 193 0
 423 00e6 FFF7FEFF 		bl	EEPROM_Write
 424              	.LVL26:
 194:.\gobeelib.c  **** 
 195:.\gobeelib.c  **** 	
 196:.\gobeelib.c  **** 	// Writes parameters on EEPROM Row 3 - [EEPROM Add=48..63]
 197:.\gobeelib.c  **** 
 198:.\gobeelib.c  **** 	EEwriteBuffer[0] = pan_axis.param.Kpf.fbyte[0];		//
 425              		.loc 1 198 0
 426 00ea 307B     		ldrb	r0, [r6, #12]	@ zero_extendqisi2
 199:.\gobeelib.c  **** 	EEwriteBuffer[1] = pan_axis.param.Kpf.fbyte[1];		//
 427              		.loc 1 199 0
 428 00ec 717B     		ldrb	r1, [r6, #13]	@ zero_extendqisi2
 200:.\gobeelib.c  **** 	EEwriteBuffer[2] = pan_axis.param.Kpf.fbyte[2];		//
 429              		.loc 1 200 0
 430 00ee B27B     		ldrb	r2, [r6, #14]	@ zero_extendqisi2
 201:.\gobeelib.c  **** 	EEwriteBuffer[3] = pan_axis.param.Kpf.fbyte[3];		//float number saving
 431              		.loc 1 201 0
 432 00f0 F37B     		ldrb	r3, [r6, #15]	@ zero_extendqisi2
 198:.\gobeelib.c  **** 	EEwriteBuffer[0] = pan_axis.param.Kpf.fbyte[0];		//
 433              		.loc 1 198 0
 434 00f2 2070     		strb	r0, [r4, #0]
 199:.\gobeelib.c  **** 	EEwriteBuffer[1] = pan_axis.param.Kpf.fbyte[1];		//
ARM GAS  C:\Users\Graziano\AppData\Local\Temp\ccH8y0FY.s 			page 13


 435              		.loc 1 199 0
 436 00f4 6170     		strb	r1, [r4, #1]
 202:.\gobeelib.c  **** 
 203:.\gobeelib.c  **** 	EEwriteBuffer[4] = pan_axis.param.Kdf.fbyte[0];		//
 437              		.loc 1 203 0
 438 00f6 307C     		ldrb	r0, [r6, #16]	@ zero_extendqisi2
 204:.\gobeelib.c  **** 	EEwriteBuffer[5] = pan_axis.param.Kdf.fbyte[1];		//
 439              		.loc 1 204 0
 440 00f8 717C     		ldrb	r1, [r6, #17]	@ zero_extendqisi2
 200:.\gobeelib.c  **** 	EEwriteBuffer[2] = pan_axis.param.Kpf.fbyte[2];		//
 441              		.loc 1 200 0
 442 00fa A270     		strb	r2, [r4, #2]
 201:.\gobeelib.c  **** 	EEwriteBuffer[3] = pan_axis.param.Kpf.fbyte[3];		//float number saving
 443              		.loc 1 201 0
 444 00fc E370     		strb	r3, [r4, #3]
 205:.\gobeelib.c  **** 	EEwriteBuffer[6] = pan_axis.param.Kdf.fbyte[2];		//
 445              		.loc 1 205 0
 446 00fe B27C     		ldrb	r2, [r6, #18]	@ zero_extendqisi2
 206:.\gobeelib.c  **** 	EEwriteBuffer[7] = pan_axis.param.Kdf.fbyte[3];		//float number saving
 447              		.loc 1 206 0
 448 0100 F37C     		ldrb	r3, [r6, #19]	@ zero_extendqisi2
 203:.\gobeelib.c  **** 	EEwriteBuffer[4] = pan_axis.param.Kdf.fbyte[0];		//
 449              		.loc 1 203 0
 450 0102 2071     		strb	r0, [r4, #4]
 204:.\gobeelib.c  **** 	EEwriteBuffer[5] = pan_axis.param.Kdf.fbyte[1];		//
 451              		.loc 1 204 0
 452 0104 6171     		strb	r1, [r4, #5]
 207:.\gobeelib.c  **** 
 208:.\gobeelib.c  **** 	EEwriteBuffer[8]  = pan_axis.param.Kif.fbyte[0];	//
 453              		.loc 1 208 0
 454 0106 307D     		ldrb	r0, [r6, #20]	@ zero_extendqisi2
 209:.\gobeelib.c  **** 	EEwriteBuffer[9]  = pan_axis.param.Kif.fbyte[1];	//
 455              		.loc 1 209 0
 456 0108 717D     		ldrb	r1, [r6, #21]	@ zero_extendqisi2
 205:.\gobeelib.c  **** 	EEwriteBuffer[6] = pan_axis.param.Kdf.fbyte[2];		//
 457              		.loc 1 205 0
 458 010a A271     		strb	r2, [r4, #6]
 206:.\gobeelib.c  **** 	EEwriteBuffer[7] = pan_axis.param.Kdf.fbyte[3];		//float number saving
 459              		.loc 1 206 0
 460 010c E371     		strb	r3, [r4, #7]
 210:.\gobeelib.c  **** 	EEwriteBuffer[10] = pan_axis.param.Kif.fbyte[2];	//
 461              		.loc 1 210 0
 462 010e B27D     		ldrb	r2, [r6, #22]	@ zero_extendqisi2
 211:.\gobeelib.c  **** 	EEwriteBuffer[11] = pan_axis.param.Kif.fbyte[3];	//float number saving
 463              		.loc 1 211 0
 464 0110 F37D     		ldrb	r3, [r6, #23]	@ zero_extendqisi2
 208:.\gobeelib.c  **** 	EEwriteBuffer[8]  = pan_axis.param.Kif.fbyte[0];	//
 465              		.loc 1 208 0
 466 0112 2072     		strb	r0, [r4, #8]
 209:.\gobeelib.c  **** 	EEwriteBuffer[9]  = pan_axis.param.Kif.fbyte[1];	//
 467              		.loc 1 209 0
 468 0114 6172     		strb	r1, [r4, #9]
 212:.\gobeelib.c  **** 	
 213:.\gobeelib.c  **** 	EEwriteBuffer[12] = pan_axis.param.Ksif.fbyte[0];	//
 469              		.loc 1 213 0
 470 0116 307E     		ldrb	r0, [r6, #24]	@ zero_extendqisi2
 214:.\gobeelib.c  **** 	EEwriteBuffer[13] = pan_axis.param.Ksif.fbyte[1];	//
ARM GAS  C:\Users\Graziano\AppData\Local\Temp\ccH8y0FY.s 			page 14


 471              		.loc 1 214 0
 472 0118 717E     		ldrb	r1, [r6, #25]	@ zero_extendqisi2
 210:.\gobeelib.c  **** 	EEwriteBuffer[10] = pan_axis.param.Kif.fbyte[2];	//
 473              		.loc 1 210 0
 474 011a A272     		strb	r2, [r4, #10]
 211:.\gobeelib.c  **** 	EEwriteBuffer[11] = pan_axis.param.Kif.fbyte[3];	//float number saving
 475              		.loc 1 211 0
 476 011c E372     		strb	r3, [r4, #11]
 215:.\gobeelib.c  **** 	EEwriteBuffer[14] = pan_axis.param.Ksif.fbyte[2];	//
 477              		.loc 1 215 0
 478 011e B27E     		ldrb	r2, [r6, #26]	@ zero_extendqisi2
 216:.\gobeelib.c  **** 	EEwriteBuffer[15] = pan_axis.param.Ksif.fbyte[3];	//float number saving	
 479              		.loc 1 216 0
 480 0120 F37E     		ldrb	r3, [r6, #27]	@ zero_extendqisi2
 213:.\gobeelib.c  **** 	EEwriteBuffer[12] = pan_axis.param.Ksif.fbyte[0];	//
 481              		.loc 1 213 0
 482 0122 2073     		strb	r0, [r4, #12]
 214:.\gobeelib.c  **** 	EEwriteBuffer[13] = pan_axis.param.Ksif.fbyte[1];	//
 483              		.loc 1 214 0
 484 0124 6173     		strb	r1, [r4, #13]
 217:.\gobeelib.c  **** 	
 218:.\gobeelib.c  **** 	dummy = EEPROM_Write(&EEwriteBuffer[0], 3);
 485              		.loc 1 218 0
 486 0126 2046     		mov	r0, r4
 487 0128 0321     		movs	r1, #3
 215:.\gobeelib.c  **** 	EEwriteBuffer[14] = pan_axis.param.Ksif.fbyte[2];	//
 488              		.loc 1 215 0
 489 012a A273     		strb	r2, [r4, #14]
 216:.\gobeelib.c  **** 	EEwriteBuffer[15] = pan_axis.param.Ksif.fbyte[3];	//float number saving	
 490              		.loc 1 216 0
 491 012c E373     		strb	r3, [r4, #15]
 492              		.loc 1 218 0
 493 012e FFF7FEFF 		bl	EEPROM_Write
 494              	.LVL27:
 219:.\gobeelib.c  **** 
 220:.\gobeelib.c  **** 	// Writes parameters on EEPROM Row 4 - [EEPROM Add=64..79]
 221:.\gobeelib.c  **** 	
 222:.\gobeelib.c  **** 	EEwriteBuffer[0] = pan_axis.param.Kopf.fbyte[0];		//
 495              		.loc 1 222 0
 496 0132 307F     		ldrb	r0, [r6, #28]	@ zero_extendqisi2
 223:.\gobeelib.c  **** 	EEwriteBuffer[1] = pan_axis.param.Kopf.fbyte[1];		//
 497              		.loc 1 223 0
 498 0134 717F     		ldrb	r1, [r6, #29]	@ zero_extendqisi2
 222:.\gobeelib.c  **** 	EEwriteBuffer[0] = pan_axis.param.Kopf.fbyte[0];		//
 499              		.loc 1 222 0
 500 0136 2070     		strb	r0, [r4, #0]
 224:.\gobeelib.c  **** 	EEwriteBuffer[2] = pan_axis.param.Kopf.fbyte[2];		//
 225:.\gobeelib.c  **** 	EEwriteBuffer[3] = pan_axis.param.Kopf.fbyte[3];		//float number saving
 226:.\gobeelib.c  **** 
 227:.\gobeelib.c  **** 	EEwriteBuffer[4] = pan_axis.param.Gain_ANAOUT.fbyte[0];		//
 501              		.loc 1 227 0
 502 0138 96F82000 		ldrb	r0, [r6, #32]	@ zero_extendqisi2
 224:.\gobeelib.c  **** 	EEwriteBuffer[2] = pan_axis.param.Kopf.fbyte[2];		//
 503              		.loc 1 224 0
 504 013c B27F     		ldrb	r2, [r6, #30]	@ zero_extendqisi2
 225:.\gobeelib.c  **** 	EEwriteBuffer[3] = pan_axis.param.Kopf.fbyte[3];		//float number saving
 505              		.loc 1 225 0
ARM GAS  C:\Users\Graziano\AppData\Local\Temp\ccH8y0FY.s 			page 15


 506 013e F37F     		ldrb	r3, [r6, #31]	@ zero_extendqisi2
 223:.\gobeelib.c  **** 	EEwriteBuffer[1] = pan_axis.param.Kopf.fbyte[1];		//
 507              		.loc 1 223 0
 508 0140 6170     		strb	r1, [r4, #1]
 509              		.loc 1 227 0
 510 0142 2071     		strb	r0, [r4, #4]
 228:.\gobeelib.c  **** 	EEwriteBuffer[5] = pan_axis.param.Gain_ANAOUT.fbyte[1];		//
 511              		.loc 1 228 0
 512 0144 96F82110 		ldrb	r1, [r6, #33]	@ zero_extendqisi2
 229:.\gobeelib.c  **** 	EEwriteBuffer[6] = pan_axis.param.Gain_ANAOUT.fbyte[2];		//
 230:.\gobeelib.c  **** 	EEwriteBuffer[7] = pan_axis.param.Gain_ANAOUT.fbyte[3];		//float number saving	
 231:.\gobeelib.c  **** 
 232:.\gobeelib.c  **** 	EEwriteBuffer[8] = pan_axis.param.color;
 513              		.loc 1 232 0
 514 0148 96F82400 		ldrb	r0, [r6, #36]	@ zero_extendqisi2
 224:.\gobeelib.c  **** 	EEwriteBuffer[2] = pan_axis.param.Kopf.fbyte[2];		//
 515              		.loc 1 224 0
 516 014c A270     		strb	r2, [r4, #2]
 225:.\gobeelib.c  **** 	EEwriteBuffer[3] = pan_axis.param.Kopf.fbyte[3];		//float number saving
 517              		.loc 1 225 0
 518 014e E370     		strb	r3, [r4, #3]
 229:.\gobeelib.c  **** 	EEwriteBuffer[6] = pan_axis.param.Gain_ANAOUT.fbyte[2];		//
 519              		.loc 1 229 0
 520 0150 96F82220 		ldrb	r2, [r6, #34]	@ zero_extendqisi2
 230:.\gobeelib.c  **** 	EEwriteBuffer[7] = pan_axis.param.Gain_ANAOUT.fbyte[3];		//float number saving	
 521              		.loc 1 230 0
 522 0154 96F82330 		ldrb	r3, [r6, #35]	@ zero_extendqisi2
 228:.\gobeelib.c  **** 	EEwriteBuffer[5] = pan_axis.param.Gain_ANAOUT.fbyte[1];		//
 523              		.loc 1 228 0
 524 0158 6171     		strb	r1, [r4, #5]
 525              		.loc 1 232 0
 526 015a 2072     		strb	r0, [r4, #8]
 233:.\gobeelib.c  **** 	//EEwriteBuffer[9]
 234:.\gobeelib.c  **** 	//EEwriteBuffer[10]
 235:.\gobeelib.c  **** 	//EEwriteBuffer[11]
 236:.\gobeelib.c  **** 	
 237:.\gobeelib.c  **** 	EEwriteBuffer[12] = 0;	//
 238:.\gobeelib.c  **** 	EEwriteBuffer[13] = 0;	//
 239:.\gobeelib.c  **** 	EEwriteBuffer[14] = 0;	//
 240:.\gobeelib.c  **** 	EEwriteBuffer[15] = 0;	//float number saving	
 241:.\gobeelib.c  **** 	
 242:.\gobeelib.c  **** 	
 243:.\gobeelib.c  **** 	dummy = EEPROM_Write(&EEwriteBuffer[0], 4);	
 527              		.loc 1 243 0
 528 015c 0421     		movs	r1, #4
 529 015e 2046     		mov	r0, r4
 229:.\gobeelib.c  **** 	EEwriteBuffer[6] = pan_axis.param.Gain_ANAOUT.fbyte[2];		//
 530              		.loc 1 229 0
 531 0160 A271     		strb	r2, [r4, #6]
 230:.\gobeelib.c  **** 	EEwriteBuffer[7] = pan_axis.param.Gain_ANAOUT.fbyte[3];		//float number saving	
 532              		.loc 1 230 0
 533 0162 E371     		strb	r3, [r4, #7]
 237:.\gobeelib.c  **** 	EEwriteBuffer[12] = 0;	//
 534              		.loc 1 237 0
 535 0164 2773     		strb	r7, [r4, #12]
 238:.\gobeelib.c  **** 	EEwriteBuffer[13] = 0;	//
 536              		.loc 1 238 0
ARM GAS  C:\Users\Graziano\AppData\Local\Temp\ccH8y0FY.s 			page 16


 537 0166 6773     		strb	r7, [r4, #13]
 239:.\gobeelib.c  **** 	EEwriteBuffer[14] = 0;	//
 538              		.loc 1 239 0
 539 0168 A773     		strb	r7, [r4, #14]
 240:.\gobeelib.c  **** 	EEwriteBuffer[15] = 0;	//float number saving	
 540              		.loc 1 240 0
 541 016a E773     		strb	r7, [r4, #15]
 542              		.loc 1 243 0
 543 016c FFF7FEFF 		bl	EEPROM_Write
 544              	.LVL28:
 244:.\gobeelib.c  **** 	
 245:.\gobeelib.c  **** //	// Writes the TARGETS (SCENE4) on EEPROM Row 5 - [EEPROM Add=80..95]
 246:.\gobeelib.c  **** //	for (idx=0; idx<=15; idx+=2)
 247:.\gobeelib.c  **** //	{
 248:.\gobeelib.c  **** //		EEwriteBuffer[idx]=BYTEHIGH(cys_param.targets4[idx/2]);
 249:.\gobeelib.c  **** //		EEwriteBuffer[idx+1]=BYTELOW(cys_param.targets4[idx/2]);	
 250:.\gobeelib.c  **** //	}
 251:.\gobeelib.c  **** //	dummy = EEPROM_Write(&EEwriteBuffer, 5);
 252:.\gobeelib.c  **** 	
 253:.\gobeelib.c  **** 	return(CYRET_SUCCESS);
 254:.\gobeelib.c  **** }
 545              		.loc 1 254 0
 546 0170 3846     		mov	r0, r7
 547 0172 F8BD     		pop	{r3, r4, r5, r6, r7, pc}
 548              	.L16:
 549              		.align	2
 550              	.L15:
 551 0174 00000000 		.word	EEwriteBuffer
 552 0178 00000000 		.word	gobee_param
 553 017c 00000000 		.word	pan_axis
 554              		.cfi_endproc
 555              	.LFE60:
 556              		.size	WriteAllEEparams, .-WriteAllEEparams
 557              		.section	.text.ReadAllEEparams,"ax",%progbits
 558              		.align	1
 559              		.global	ReadAllEEparams
 560              		.thumb
 561              		.thumb_func
 562              		.type	ReadAllEEparams, %function
 563              	ReadAllEEparams:
 564              	.LFB61:
 255:.\gobeelib.c  **** 
 256:.\gobeelib.c  **** 
 257:.\gobeelib.c  **** void ReadAllEEparams(void)
 258:.\gobeelib.c  **** {
 565              		.loc 1 258 0
 566              		.cfi_startproc
 567              		@ args = 0, pretend = 0, frame = 0
 568              		@ frame_needed = 0, uses_anonymous_args = 0
 569              		@ link register save eliminated.
 570              	.LVL29:
 571              		.loc 1 258 0
 572 0000 0023     		movs	r3, #0
 573              	.LVL30:
 574              	.L18:
 259:.\gobeelib.c  **** 	uint8 idx;
 260:.\gobeelib.c  **** 	
ARM GAS  C:\Users\Graziano\AppData\Local\Temp\ccH8y0FY.s 			page 17


 261:.\gobeelib.c  **** 	// Clear EEPROM Read Buffer
 262:.\gobeelib.c  **** 	for (idx=0; idx<=16; idx++)
 263:.\gobeelib.c  **** 	{
 264:.\gobeelib.c  **** 		EEreadBuffer[idx]=0;
 575              		.loc 1 264 0 discriminator 2
 576 0002 714A     		ldr	r2, .L20
 577 0004 0021     		movs	r1, #0
 578 0006 9954     		strb	r1, [r3, r2]
 579 0008 0133     		adds	r3, r3, #1
 262:.\gobeelib.c  **** 	for (idx=0; idx<=16; idx++)
 580              		.loc 1 262 0 discriminator 2
 581 000a 112B     		cmp	r3, #17
 582 000c F9D1     		bne	.L18
 583              	.LVL31:
 584              	.LBB138:
 585              	.LBB139:
 265:.\gobeelib.c  **** 	}
 266:.\gobeelib.c  **** 	
 267:.\gobeelib.c  **** 	// Reads main parameters from EEPROM Row 0 - [EEPROM Add=0..15]
 268:.\gobeelib.c  **** 	gobee_param.angle_estimation = EEPROM_ReadByte(0);
 269:.\gobeelib.c  **** 	pan_axis.param.polarity = EEPROM_ReadByte(1);	
 270:.\gobeelib.c  **** 	gobee_param.x_acc_ADC_offset = EEPROM_ReadByte(2);
 271:.\gobeelib.c  **** 	gobee_param.y_acc_ADC_offset  = EEPROM_ReadByte(3);
 272:.\gobeelib.c  **** 	gobee_param.z_acc_ADC_offset  = EEPROM_ReadByte(4);
 273:.\gobeelib.c  **** 	gobee_param.director      = EEPROM_ReadByte(5);
 274:.\gobeelib.c  **** 	gobee_param.link_type     = EEPROM_ReadByte(6);
 275:.\gobeelib.c  **** 	
 276:.\gobeelib.c  **** 	gobee_param.jump_g_threshold.fbyte[0] = EEPROM_ReadByte(7);		//
 277:.\gobeelib.c  **** 	gobee_param.jump_g_threshold.fbyte[1] = EEPROM_ReadByte(8);		//
 278:.\gobeelib.c  **** 	gobee_param.jump_g_threshold.fbyte[2] = EEPROM_ReadByte(9);		//
 279:.\gobeelib.c  **** 	gobee_param.jump_g_threshold.fbyte[3] = EEPROM_ReadByte(10);	//float number loading
 280:.\gobeelib.c  **** 	
 281:.\gobeelib.c  **** //	BYTELOW(gobee_param.KdO)  = EEPROM_ReadByte(11);	
 282:.\gobeelib.c  **** 	gobee_param.feedback = EEPROM_ReadByte(12);		
 283:.\gobeelib.c  **** //	BYTEHIGH(gobee_param.Vthreshold) = EEPROM_ReadByte(13);
 284:.\gobeelib.c  **** //	BYTELOW(gobee_param.Vthreshold)  = EEPROM_ReadByte(14);
 285:.\gobeelib.c  **** 	gobee_param.agyro_ADC_offset = EEPROM_ReadByte(15);	
 286:.\gobeelib.c  **** 	
 287:.\gobeelib.c  **** 	// Reads main parameters from EEPROM Row 1 - [EEPROM Add=16..31]
 288:.\gobeelib.c  **** 
 289:.\gobeelib.c  **** 	gobee_param.gyro_offset_fine.fbyte[0] = EEPROM_ReadByte(16);		//
 290:.\gobeelib.c  **** 	gobee_param.gyro_offset_fine.fbyte[1] = EEPROM_ReadByte(17);		//
 291:.\gobeelib.c  **** 	gobee_param.gyro_offset_fine.fbyte[2] = EEPROM_ReadByte(18);		//
 292:.\gobeelib.c  **** 	gobee_param.gyro_offset_fine.fbyte[3] = EEPROM_ReadByte(19);		//float number loading
 293:.\gobeelib.c  **** 	
 294:.\gobeelib.c  **** 	gobee_param.gyro_scale_offset_fine.fbyte[0] = EEPROM_ReadByte(20);		//
 295:.\gobeelib.c  **** 	gobee_param.gyro_scale_offset_fine.fbyte[1] = EEPROM_ReadByte(21);		//
 296:.\gobeelib.c  **** 	gobee_param.gyro_scale_offset_fine.fbyte[2] = EEPROM_ReadByte(22);		//
 297:.\gobeelib.c  **** 	gobee_param.gyro_scale_offset_fine.fbyte[3] = EEPROM_ReadByte(23);		//float number loading
 298:.\gobeelib.c  **** 
 299:.\gobeelib.c  **** 	gobee_param.alpha.fbyte[0] = EEPROM_ReadByte(24);	//
 300:.\gobeelib.c  **** 	gobee_param.alpha.fbyte[1] = EEPROM_ReadByte(25);	//
 301:.\gobeelib.c  **** 	gobee_param.alpha.fbyte[2] = EEPROM_ReadByte(26);	//
 302:.\gobeelib.c  **** 	gobee_param.alpha.fbyte[3] = EEPROM_ReadByte(27);	//float number loading
 303:.\gobeelib.c  **** 
 304:.\gobeelib.c  **** 	gobee_param.beta.fbyte[0] = EEPROM_ReadByte(28);	//
 305:.\gobeelib.c  **** 	gobee_param.beta.fbyte[1] = EEPROM_ReadByte(29);	//
ARM GAS  C:\Users\Graziano\AppData\Local\Temp\ccH8y0FY.s 			page 18


 306:.\gobeelib.c  **** 	gobee_param.beta.fbyte[2] = EEPROM_ReadByte(30);	//
 307:.\gobeelib.c  **** 	gobee_param.beta.fbyte[3] = EEPROM_ReadByte(31);	//float number loading
 308:.\gobeelib.c  **** 	
 309:.\gobeelib.c  **** 	
 310:.\gobeelib.c  **** 
 311:.\gobeelib.c  **** 	// Reads Parameters from EEPROM Row 2 - [EEPROM Add=32-47]
 312:.\gobeelib.c  **** 
 313:.\gobeelib.c  **** 	gobee_param.dgyro_offset_fine.fbyte[0] = EEPROM_ReadByte(32);		//
 314:.\gobeelib.c  **** 	gobee_param.dgyro_offset_fine.fbyte[1] = EEPROM_ReadByte(33);		//
 315:.\gobeelib.c  **** 	gobee_param.dgyro_offset_fine.fbyte[2] = EEPROM_ReadByte(34);		//
 316:.\gobeelib.c  **** 	gobee_param.dgyro_offset_fine.fbyte[3] = EEPROM_ReadByte(35);		//float number loading
 317:.\gobeelib.c  **** 
 318:.\gobeelib.c  **** 	gobee_param.gamma.fbyte[0] = EEPROM_ReadByte(36);	//
 319:.\gobeelib.c  **** 	gobee_param.gamma.fbyte[1] = EEPROM_ReadByte(37);	//
 320:.\gobeelib.c  **** 	gobee_param.gamma.fbyte[2] = EEPROM_ReadByte(38);	//
 321:.\gobeelib.c  **** 	gobee_param.gamma.fbyte[3] = EEPROM_ReadByte(39);	//float number loading
 322:.\gobeelib.c  **** 	
 323:.\gobeelib.c  **** 	gobee_param.ana_gyro_scale_sensivity.fbyte[0] = EEPROM_ReadByte(40);	//
 324:.\gobeelib.c  **** 	gobee_param.ana_gyro_scale_sensivity.fbyte[1] = EEPROM_ReadByte(41);	//
 325:.\gobeelib.c  **** 	gobee_param.ana_gyro_scale_sensivity.fbyte[2] = EEPROM_ReadByte(42);	//
 326:.\gobeelib.c  **** 	gobee_param.ana_gyro_scale_sensivity.fbyte[3] = EEPROM_ReadByte(43);	//float number loading	
 327:.\gobeelib.c  **** 	
 328:.\gobeelib.c  **** 	
 329:.\gobeelib.c  **** 	// Reads Parameters from EEPROM Row 3 - [EEPROM Add=48-63]
 330:.\gobeelib.c  **** 
 331:.\gobeelib.c  **** 	pan_axis.param.Kpf.fbyte[0] = EEPROM_ReadByte(48);	//
 332:.\gobeelib.c  **** 	pan_axis.param.Kpf.fbyte[1] = EEPROM_ReadByte(49);	//
 333:.\gobeelib.c  **** 	pan_axis.param.Kpf.fbyte[2] = EEPROM_ReadByte(50);	//
 334:.\gobeelib.c  **** 	pan_axis.param.Kpf.fbyte[3] = EEPROM_ReadByte(51);	//float number loading		
 335:.\gobeelib.c  **** 
 336:.\gobeelib.c  **** 	pan_axis.param.Kdf.fbyte[0] = EEPROM_ReadByte(52);	//
 337:.\gobeelib.c  **** 	pan_axis.param.Kdf.fbyte[1] = EEPROM_ReadByte(53);	//
 338:.\gobeelib.c  **** 	pan_axis.param.Kdf.fbyte[2] = EEPROM_ReadByte(54);	//
 339:.\gobeelib.c  **** 	pan_axis.param.Kdf.fbyte[3] = EEPROM_ReadByte(55);	//float number loading	
 340:.\gobeelib.c  **** 
 341:.\gobeelib.c  **** 	pan_axis.param.Kif.fbyte[0] = EEPROM_ReadByte(56);	//
 342:.\gobeelib.c  **** 	pan_axis.param.Kif.fbyte[1] = EEPROM_ReadByte(57);	//
 343:.\gobeelib.c  **** 	pan_axis.param.Kif.fbyte[2] = EEPROM_ReadByte(58);	//
 344:.\gobeelib.c  **** 	pan_axis.param.Kif.fbyte[3] = EEPROM_ReadByte(59);	//float number loading	
 345:.\gobeelib.c  **** 
 346:.\gobeelib.c  **** 	pan_axis.param.Ksif.fbyte[0] = EEPROM_ReadByte(60);	//
 347:.\gobeelib.c  **** 	pan_axis.param.Ksif.fbyte[1] = EEPROM_ReadByte(61);	//
 348:.\gobeelib.c  **** 	pan_axis.param.Ksif.fbyte[2] = EEPROM_ReadByte(62);	//
 349:.\gobeelib.c  **** 	pan_axis.param.Ksif.fbyte[3] = EEPROM_ReadByte(63);	//float number loading	
 350:.\gobeelib.c  **** 	
 351:.\gobeelib.c  **** 	
 352:.\gobeelib.c  **** 	// Reads Parameters from EEPROM Row 4 - [EEPROM Add=64-79]
 353:.\gobeelib.c  **** 	
 354:.\gobeelib.c  **** 	pan_axis.param.Kopf.fbyte[0] = EEPROM_ReadByte(64);	//
 355:.\gobeelib.c  **** 	pan_axis.param.Kopf.fbyte[1] = EEPROM_ReadByte(65);	//
 356:.\gobeelib.c  **** 	pan_axis.param.Kopf.fbyte[2] = EEPROM_ReadByte(66);	//
 357:.\gobeelib.c  **** 	pan_axis.param.Kopf.fbyte[3] = EEPROM_ReadByte(67);	//float number loading	
 358:.\gobeelib.c  **** 	
 359:.\gobeelib.c  **** 	pan_axis.param.Gain_ANAOUT.fbyte[0] = EEPROM_ReadByte(68);	//
 360:.\gobeelib.c  **** 	pan_axis.param.Gain_ANAOUT.fbyte[1] = EEPROM_ReadByte(69);	//
 361:.\gobeelib.c  **** 	pan_axis.param.Gain_ANAOUT.fbyte[2] = EEPROM_ReadByte(70);	//
 362:.\gobeelib.c  **** 	pan_axis.param.Gain_ANAOUT.fbyte[3] = EEPROM_ReadByte(71);	//float number loading	
ARM GAS  C:\Users\Graziano\AppData\Local\Temp\ccH8y0FY.s 			page 19


 363:.\gobeelib.c  **** 	
 364:.\gobeelib.c  **** 	pan_axis.param.color = EEPROM_ReadByte(72);	
 365:.\gobeelib.c  **** 	//73
 366:.\gobeelib.c  **** 	//74
 367:.\gobeelib.c  **** 	//75
 368:.\gobeelib.c  **** 	//76
 369:.\gobeelib.c  **** 	//77
 370:.\gobeelib.c  **** 	//78
 371:.\gobeelib.c  **** 	//79
 372:.\gobeelib.c  **** 	
 373:.\gobeelib.c  **** 	
 374:.\gobeelib.c  **** 	
 375:.\gobeelib.c  **** //	// Reads the TARGETS (SCENE4) from EEPROM Row 5 - [EEPROM Add=80-95]
 376:.\gobeelib.c  **** //	for (idx=0; idx<=15; idx+=2)
 377:.\gobeelib.c  **** //	{
 378:.\gobeelib.c  **** //		BYTEHIGH(cys_param.targets4[idx/2])=EEPROM_ReadByte((uint16)(idx+80));
 379:.\gobeelib.c  **** //		BYTELOW(cys_param.targets4[idx/2])=EEPROM_ReadByte((uint16)(idx+81));	
 380:.\gobeelib.c  **** //	}	
 381:.\gobeelib.c  **** 	
 382:.\gobeelib.c  **** 	
 383:.\gobeelib.c  **** 	//return(CYRET_SUCCESS);
 384:.\gobeelib.c  **** }
 385:.\gobeelib.c  **** 
 386:.\gobeelib.c  **** 
 387:.\gobeelib.c  **** // **********************************************
 388:.\gobeelib.c  **** // *** Funzioni accesso EEPROM  basso livello ***
 389:.\gobeelib.c  **** // **********************************************
 390:.\gobeelib.c  ****   
 391:.\gobeelib.c  ****   // Reads 1 byte from EEPROM			   //
 392:.\gobeelib.c  ****   // 0 <= EEPROMAddress <= 2047 (2kbyte)   //
 393:.\gobeelib.c  ****   //									   //
 394:.\gobeelib.c  ****   // CYDEV_EE_BASE <-- EEPROM base pointer //
 395:.\gobeelib.c  ****   // CYDEV_EE_SIZE <-- EEPROM Size 		   //
 396:.\gobeelib.c  ****   uint8 EEPROM_ReadByte(uint16 EEPROMAddress)
 397:.\gobeelib.c  ****   {
 398:.\gobeelib.c  ****   	uint8 EEPROMData;
 399:.\gobeelib.c  **** 	
 400:.\gobeelib.c  ****   	EEPROMData= CY_GET_REG8(CYDEV_EE_BASE + EEPROMAddress);
 586              		.loc 1 400 0
 587 000e 6F48     		ldr	r0, .L20+4
 588              	.LBE139:
 589              	.LBE138:
 268:.\gobeelib.c  **** 	gobee_param.angle_estimation = EEPROM_ReadByte(0);
 590              		.loc 1 268 0
 591 0010 6F4B     		ldr	r3, .L20+8
 592              	.LBB141:
 593              	.LBB140:
 594              		.loc 1 400 0
 595 0012 0178     		ldrb	r1, [r0, #0]	@ zero_extendqisi2
 596              	.LVL32:
 597              	.LBE140:
 598              	.LBE141:
 599              	.LBB142:
 600              	.LBB143:
 601 0014 6F4A     		ldr	r2, .L20+12
 602              	.LBE143:
 603              	.LBE142:
ARM GAS  C:\Users\Graziano\AppData\Local\Temp\ccH8y0FY.s 			page 20


 268:.\gobeelib.c  **** 	gobee_param.angle_estimation = EEPROM_ReadByte(0);
 604              		.loc 1 268 0
 605 0016 83F82910 		strb	r1, [r3, #41]
 606              	.LVL33:
 607              	.LBB145:
 608              	.LBB144:
 609              		.loc 1 400 0
 610 001a 1078     		ldrb	r0, [r2, #0]	@ zero_extendqisi2
 611              	.LVL34:
 612              	.LBE144:
 613              	.LBE145:
 269:.\gobeelib.c  **** 	pan_axis.param.polarity = EEPROM_ReadByte(1);	
 614              		.loc 1 269 0
 615 001c 6E4A     		ldr	r2, .L20+16
 616              	.LBB146:
 617              	.LBB147:
 618              		.loc 1 400 0
 619 001e 6F49     		ldr	r1, .L20+20
 620              	.LVL35:
 621              	.LBE147:
 622              	.LBE146:
 269:.\gobeelib.c  **** 	pan_axis.param.polarity = EEPROM_ReadByte(1);	
 623              		.loc 1 269 0
 624 0020 1072     		strb	r0, [r2, #8]
 625              	.LVL36:
 626              	.LBB149:
 627              	.LBB148:
 628              		.loc 1 400 0
 629 0022 0878     		ldrb	r0, [r1, #0]	@ zero_extendqisi2
 630              	.LVL37:
 631              	.LBE148:
 632              	.LBE149:
 633              	.LBB150:
 634              	.LBB151:
 635 0024 6E49     		ldr	r1, .L20+24
 636              	.LBE151:
 637              	.LBE150:
 270:.\gobeelib.c  **** 	gobee_param.x_acc_ADC_offset = EEPROM_ReadByte(2);
 638              		.loc 1 270 0
 639 0026 D882     		strh	r0, [r3, #22]	@ movhi
 640              	.LVL38:
 641              	.LBB153:
 642              	.LBB152:
 643              		.loc 1 400 0
 644 0028 0878     		ldrb	r0, [r1, #0]	@ zero_extendqisi2
 645              	.LVL39:
 646              	.LBE152:
 647              	.LBE153:
 648              	.LBB154:
 649              	.LBB155:
 650 002a 6E49     		ldr	r1, .L20+28
 651              	.LBE155:
 652              	.LBE154:
 271:.\gobeelib.c  **** 	gobee_param.y_acc_ADC_offset  = EEPROM_ReadByte(3);
 653              		.loc 1 271 0
 654 002c 1883     		strh	r0, [r3, #24]	@ movhi
 655              	.LVL40:
ARM GAS  C:\Users\Graziano\AppData\Local\Temp\ccH8y0FY.s 			page 21


 656              	.LBB157:
 657              	.LBB156:
 658              		.loc 1 400 0
 659 002e 0878     		ldrb	r0, [r1, #0]	@ zero_extendqisi2
 660              	.LVL41:
 661              	.LBE156:
 662              	.LBE157:
 663              	.LBB158:
 664              	.LBB159:
 665 0030 6D49     		ldr	r1, .L20+32
 666              	.LBE159:
 667              	.LBE158:
 272:.\gobeelib.c  **** 	gobee_param.z_acc_ADC_offset  = EEPROM_ReadByte(4);
 668              		.loc 1 272 0
 669 0032 5883     		strh	r0, [r3, #26]	@ movhi
 670              	.LVL42:
 671              	.LBB161:
 672              	.LBB160:
 673              		.loc 1 400 0
 674 0034 0878     		ldrb	r0, [r1, #0]	@ zero_extendqisi2
 675              	.LVL43:
 676              	.LBE160:
 677              	.LBE161:
 678              	.LBB162:
 679              	.LBB163:
 680 0036 6D49     		ldr	r1, .L20+36
 681              	.LBE163:
 682              	.LBE162:
 273:.\gobeelib.c  **** 	gobee_param.director      = EEPROM_ReadByte(5);
 683              		.loc 1 273 0
 684 0038 1870     		strb	r0, [r3, #0]
 685              	.LVL44:
 686              	.LBB165:
 687              	.LBB164:
 688              		.loc 1 400 0
 689 003a 0878     		ldrb	r0, [r1, #0]	@ zero_extendqisi2
 690              	.LVL45:
 691              	.LBE164:
 692              	.LBE165:
 693              	.LBB166:
 694              	.LBB167:
 695 003c 6C49     		ldr	r1, .L20+40
 696              	.LBE167:
 697              	.LBE166:
 274:.\gobeelib.c  **** 	gobee_param.link_type     = EEPROM_ReadByte(6);
 698              		.loc 1 274 0
 699 003e 5870     		strb	r0, [r3, #1]
 700              	.LVL46:
 701              	.LBB169:
 702              	.LBB168:
 703              		.loc 1 400 0
 704 0040 0878     		ldrb	r0, [r1, #0]	@ zero_extendqisi2
 705              	.LVL47:
 706              	.LBE168:
 707              	.LBE169:
 708              	.LBB170:
 709              	.LBB171:
ARM GAS  C:\Users\Graziano\AppData\Local\Temp\ccH8y0FY.s 			page 22


 710 0042 6C49     		ldr	r1, .L20+44
 711              	.LBE171:
 712              	.LBE170:
 276:.\gobeelib.c  **** 	gobee_param.jump_g_threshold.fbyte[0] = EEPROM_ReadByte(7);		//
 713              		.loc 1 276 0
 714 0044 83F83000 		strb	r0, [r3, #48]
 715              	.LVL48:
 716              	.LBB173:
 717              	.LBB172:
 718              		.loc 1 400 0
 719 0048 0878     		ldrb	r0, [r1, #0]	@ zero_extendqisi2
 720              	.LVL49:
 721              	.LBE172:
 722              	.LBE173:
 723              	.LBB174:
 724              	.LBB175:
 725 004a 6B49     		ldr	r1, .L20+48
 726              	.LBE175:
 727              	.LBE174:
 277:.\gobeelib.c  **** 	gobee_param.jump_g_threshold.fbyte[1] = EEPROM_ReadByte(8);		//
 728              		.loc 1 277 0
 729 004c 83F83100 		strb	r0, [r3, #49]
 730              	.LVL50:
 731              	.LBB177:
 732              	.LBB176:
 733              		.loc 1 400 0
 734 0050 0878     		ldrb	r0, [r1, #0]	@ zero_extendqisi2
 735              	.LVL51:
 736              	.LBE176:
 737              	.LBE177:
 738              	.LBB178:
 739              	.LBB179:
 740 0052 6A49     		ldr	r1, .L20+52
 741              	.LBE179:
 742              	.LBE178:
 278:.\gobeelib.c  **** 	gobee_param.jump_g_threshold.fbyte[2] = EEPROM_ReadByte(9);		//
 743              		.loc 1 278 0
 744 0054 83F83200 		strb	r0, [r3, #50]
 745              	.LVL52:
 746              	.LBB181:
 747              	.LBB180:
 748              		.loc 1 400 0
 749 0058 0878     		ldrb	r0, [r1, #0]	@ zero_extendqisi2
 750              	.LVL53:
 751              	.LBE180:
 752              	.LBE181:
 753              	.LBB182:
 754              	.LBB183:
 755 005a 6949     		ldr	r1, .L20+56
 756              	.LBE183:
 757              	.LBE182:
 279:.\gobeelib.c  **** 	gobee_param.jump_g_threshold.fbyte[3] = EEPROM_ReadByte(10);	//float number loading
 758              		.loc 1 279 0
 759 005c 83F83300 		strb	r0, [r3, #51]
 760              	.LVL54:
 761              	.LBB185:
 762              	.LBB184:
ARM GAS  C:\Users\Graziano\AppData\Local\Temp\ccH8y0FY.s 			page 23


 763              		.loc 1 400 0
 764 0060 0878     		ldrb	r0, [r1, #0]	@ zero_extendqisi2
 765              	.LVL55:
 766              	.LBE184:
 767              	.LBE185:
 768              	.LBB186:
 769              	.LBB187:
 770 0062 6849     		ldr	r1, .L20+60
 771              	.LBE187:
 772              	.LBE186:
 282:.\gobeelib.c  **** 	gobee_param.feedback = EEPROM_ReadByte(12);		
 773              		.loc 1 282 0
 774 0064 83F82800 		strb	r0, [r3, #40]
 775              	.LVL56:
 776              	.LBB189:
 777              	.LBB188:
 778              		.loc 1 400 0
 779 0068 0878     		ldrb	r0, [r1, #0]	@ zero_extendqisi2
 780              	.LVL57:
 781              	.LBE188:
 782              	.LBE189:
 783              	.LBB190:
 784              	.LBB191:
 785 006a 6749     		ldr	r1, .L20+64
 786              	.LBE191:
 787              	.LBE190:
 285:.\gobeelib.c  **** 	gobee_param.agyro_ADC_offset = EEPROM_ReadByte(15);	
 788              		.loc 1 285 0
 789 006c 1875     		strb	r0, [r3, #20]
 790              	.LVL58:
 791              	.LBB193:
 792              	.LBB192:
 793              		.loc 1 400 0
 794 006e 0878     		ldrb	r0, [r1, #0]	@ zero_extendqisi2
 795              	.LVL59:
 796              	.LBE192:
 797              	.LBE193:
 798              	.LBB194:
 799              	.LBB195:
 800 0070 6649     		ldr	r1, .L20+68
 801              	.LBE195:
 802              	.LBE194:
 289:.\gobeelib.c  **** 	gobee_param.gyro_offset_fine.fbyte[0] = EEPROM_ReadByte(16);		//
 803              		.loc 1 289 0
 804 0072 1877     		strb	r0, [r3, #28]
 805              	.LVL60:
 806              	.LBB197:
 807              	.LBB196:
 808              		.loc 1 400 0
 809 0074 0878     		ldrb	r0, [r1, #0]	@ zero_extendqisi2
 810              	.LVL61:
 811              	.LBE196:
 812              	.LBE197:
 813              	.LBB198:
 814              	.LBB199:
 815 0076 6649     		ldr	r1, .L20+72
 816              	.LBE199:
ARM GAS  C:\Users\Graziano\AppData\Local\Temp\ccH8y0FY.s 			page 24


 817              	.LBE198:
 290:.\gobeelib.c  **** 	gobee_param.gyro_offset_fine.fbyte[1] = EEPROM_ReadByte(17);		//
 818              		.loc 1 290 0
 819 0078 5877     		strb	r0, [r3, #29]
 820              	.LVL62:
 821              	.LBB201:
 822              	.LBB200:
 823              		.loc 1 400 0
 824 007a 0878     		ldrb	r0, [r1, #0]	@ zero_extendqisi2
 825              	.LVL63:
 826              	.LBE200:
 827              	.LBE201:
 828              	.LBB202:
 829              	.LBB203:
 830 007c 6549     		ldr	r1, .L20+76
 831              	.LBE203:
 832              	.LBE202:
 291:.\gobeelib.c  **** 	gobee_param.gyro_offset_fine.fbyte[2] = EEPROM_ReadByte(18);		//
 833              		.loc 1 291 0
 834 007e 9877     		strb	r0, [r3, #30]
 835              	.LVL64:
 836              	.LBB205:
 837              	.LBB204:
 838              		.loc 1 400 0
 839 0080 0878     		ldrb	r0, [r1, #0]	@ zero_extendqisi2
 840              	.LVL65:
 841              	.LBE204:
 842              	.LBE205:
 843              	.LBB206:
 844              	.LBB207:
 845 0082 6549     		ldr	r1, .L20+80
 846              	.LBE207:
 847              	.LBE206:
 292:.\gobeelib.c  **** 	gobee_param.gyro_offset_fine.fbyte[3] = EEPROM_ReadByte(19);		//float number loading
 848              		.loc 1 292 0
 849 0084 D877     		strb	r0, [r3, #31]
 850              	.LVL66:
 851              	.LBB209:
 852              	.LBB208:
 853              		.loc 1 400 0
 854 0086 0878     		ldrb	r0, [r1, #0]	@ zero_extendqisi2
 855              	.LVL67:
 856              	.LBE208:
 857              	.LBE209:
 858              	.LBB210:
 859              	.LBB211:
 860 0088 6449     		ldr	r1, .L20+84
 861              	.LBE211:
 862              	.LBE210:
 294:.\gobeelib.c  **** 	gobee_param.gyro_scale_offset_fine.fbyte[0] = EEPROM_ReadByte(20);		//
 863              		.loc 1 294 0
 864 008a 83F82400 		strb	r0, [r3, #36]
 865              	.LVL68:
 866              	.LBB213:
 867              	.LBB212:
 868              		.loc 1 400 0
 869 008e 0878     		ldrb	r0, [r1, #0]	@ zero_extendqisi2
ARM GAS  C:\Users\Graziano\AppData\Local\Temp\ccH8y0FY.s 			page 25


 870              	.LVL69:
 871              	.LBE212:
 872              	.LBE213:
 873              	.LBB214:
 874              	.LBB215:
 875 0090 6349     		ldr	r1, .L20+88
 876              	.LBE215:
 877              	.LBE214:
 295:.\gobeelib.c  **** 	gobee_param.gyro_scale_offset_fine.fbyte[1] = EEPROM_ReadByte(21);		//
 878              		.loc 1 295 0
 879 0092 83F82500 		strb	r0, [r3, #37]
 880              	.LVL70:
 881              	.LBB217:
 882              	.LBB216:
 883              		.loc 1 400 0
 884 0096 0878     		ldrb	r0, [r1, #0]	@ zero_extendqisi2
 885              	.LVL71:
 886              	.LBE216:
 887              	.LBE217:
 888              	.LBB218:
 889              	.LBB219:
 890 0098 6249     		ldr	r1, .L20+92
 891              	.LBE219:
 892              	.LBE218:
 296:.\gobeelib.c  **** 	gobee_param.gyro_scale_offset_fine.fbyte[2] = EEPROM_ReadByte(22);		//
 893              		.loc 1 296 0
 894 009a 83F82600 		strb	r0, [r3, #38]
 895              	.LVL72:
 896              	.LBB221:
 897              	.LBB220:
 898              		.loc 1 400 0
 899 009e 0878     		ldrb	r0, [r1, #0]	@ zero_extendqisi2
 900              	.LVL73:
 901              	.LBE220:
 902              	.LBE221:
 903              	.LBB222:
 904              	.LBB223:
 905 00a0 6149     		ldr	r1, .L20+96
 906              	.LBE223:
 907              	.LBE222:
 297:.\gobeelib.c  **** 	gobee_param.gyro_scale_offset_fine.fbyte[3] = EEPROM_ReadByte(23);		//float number loading
 908              		.loc 1 297 0
 909 00a2 83F82700 		strb	r0, [r3, #39]
 910              	.LVL74:
 911              	.LBB225:
 912              	.LBB224:
 913              		.loc 1 400 0
 914 00a6 0878     		ldrb	r0, [r1, #0]	@ zero_extendqisi2
 915              	.LVL75:
 916              	.LBE224:
 917              	.LBE225:
 918              	.LBB226:
 919              	.LBB227:
 920 00a8 6049     		ldr	r1, .L20+100
 921              	.LBE227:
 922              	.LBE226:
 299:.\gobeelib.c  **** 	gobee_param.alpha.fbyte[0] = EEPROM_ReadByte(24);	//
ARM GAS  C:\Users\Graziano\AppData\Local\Temp\ccH8y0FY.s 			page 26


 923              		.loc 1 299 0
 924 00aa 1871     		strb	r0, [r3, #4]
 925              	.LVL76:
 926              	.LBB229:
 927              	.LBB228:
 928              		.loc 1 400 0
 929 00ac 0878     		ldrb	r0, [r1, #0]	@ zero_extendqisi2
 930              	.LVL77:
 931              	.LBE228:
 932              	.LBE229:
 933              	.LBB230:
 934              	.LBB231:
 935 00ae 6049     		ldr	r1, .L20+104
 936              	.LBE231:
 937              	.LBE230:
 300:.\gobeelib.c  **** 	gobee_param.alpha.fbyte[1] = EEPROM_ReadByte(25);	//
 938              		.loc 1 300 0
 939 00b0 5871     		strb	r0, [r3, #5]
 940              	.LVL78:
 941              	.LBB233:
 942              	.LBB232:
 943              		.loc 1 400 0
 944 00b2 0878     		ldrb	r0, [r1, #0]	@ zero_extendqisi2
 945              	.LVL79:
 946              	.LBE232:
 947              	.LBE233:
 948              	.LBB234:
 949              	.LBB235:
 950 00b4 5F49     		ldr	r1, .L20+108
 951              	.LBE235:
 952              	.LBE234:
 301:.\gobeelib.c  **** 	gobee_param.alpha.fbyte[2] = EEPROM_ReadByte(26);	//
 953              		.loc 1 301 0
 954 00b6 9871     		strb	r0, [r3, #6]
 955              	.LVL80:
 956              	.LBB237:
 957              	.LBB236:
 958              		.loc 1 400 0
 959 00b8 0878     		ldrb	r0, [r1, #0]	@ zero_extendqisi2
 960              	.LVL81:
 961              	.LBE236:
 962              	.LBE237:
 963              	.LBB238:
 964              	.LBB239:
 965 00ba 5F49     		ldr	r1, .L20+112
 966              	.LBE239:
 967              	.LBE238:
 302:.\gobeelib.c  **** 	gobee_param.alpha.fbyte[3] = EEPROM_ReadByte(27);	//float number loading
 968              		.loc 1 302 0
 969 00bc D871     		strb	r0, [r3, #7]
 970              	.LVL82:
 971              	.LBB241:
 972              	.LBB240:
 973              		.loc 1 400 0
 974 00be 0878     		ldrb	r0, [r1, #0]	@ zero_extendqisi2
 975              	.LVL83:
 976              	.LBE240:
ARM GAS  C:\Users\Graziano\AppData\Local\Temp\ccH8y0FY.s 			page 27


 977              	.LBE241:
 978              	.LBB242:
 979              	.LBB243:
 980 00c0 5E49     		ldr	r1, .L20+116
 981              	.LBE243:
 982              	.LBE242:
 304:.\gobeelib.c  **** 	gobee_param.beta.fbyte[0] = EEPROM_ReadByte(28);	//
 983              		.loc 1 304 0
 984 00c2 1872     		strb	r0, [r3, #8]
 985              	.LVL84:
 986              	.LBB245:
 987              	.LBB244:
 988              		.loc 1 400 0
 989 00c4 0878     		ldrb	r0, [r1, #0]	@ zero_extendqisi2
 990              	.LVL85:
 991              	.LBE244:
 992              	.LBE245:
 993              	.LBB246:
 994              	.LBB247:
 995 00c6 5E49     		ldr	r1, .L20+120
 996              	.LBE247:
 997              	.LBE246:
 305:.\gobeelib.c  **** 	gobee_param.beta.fbyte[1] = EEPROM_ReadByte(29);	//
 998              		.loc 1 305 0
 999 00c8 5872     		strb	r0, [r3, #9]
 1000              	.LVL86:
 1001              	.LBB249:
 1002              	.LBB248:
 1003              		.loc 1 400 0
 1004 00ca 0878     		ldrb	r0, [r1, #0]	@ zero_extendqisi2
 1005              	.LVL87:
 1006              	.LBE248:
 1007              	.LBE249:
 1008              	.LBB250:
 1009              	.LBB251:
 1010 00cc 5D49     		ldr	r1, .L20+124
 1011              	.LBE251:
 1012              	.LBE250:
 306:.\gobeelib.c  **** 	gobee_param.beta.fbyte[2] = EEPROM_ReadByte(30);	//
 1013              		.loc 1 306 0
 1014 00ce 9872     		strb	r0, [r3, #10]
 1015              	.LVL88:
 1016              	.LBB253:
 1017              	.LBB252:
 1018              		.loc 1 400 0
 1019 00d0 0878     		ldrb	r0, [r1, #0]	@ zero_extendqisi2
 1020              	.LVL89:
 1021              	.LBE252:
 1022              	.LBE253:
 1023              	.LBB254:
 1024              	.LBB255:
 1025 00d2 5D49     		ldr	r1, .L20+128
 1026              	.LBE255:
 1027              	.LBE254:
 307:.\gobeelib.c  **** 	gobee_param.beta.fbyte[3] = EEPROM_ReadByte(31);	//float number loading
 1028              		.loc 1 307 0
 1029 00d4 D872     		strb	r0, [r3, #11]
ARM GAS  C:\Users\Graziano\AppData\Local\Temp\ccH8y0FY.s 			page 28


 1030              	.LVL90:
 1031              	.LBB257:
 1032              	.LBB256:
 1033              		.loc 1 400 0
 1034 00d6 0878     		ldrb	r0, [r1, #0]	@ zero_extendqisi2
 1035              	.LVL91:
 1036              	.LBE256:
 1037              	.LBE257:
 1038              	.LBB258:
 1039              	.LBB259:
 1040 00d8 5C49     		ldr	r1, .L20+132
 1041              	.LBE259:
 1042              	.LBE258:
 313:.\gobeelib.c  **** 	gobee_param.dgyro_offset_fine.fbyte[0] = EEPROM_ReadByte(32);		//
 1043              		.loc 1 313 0
 1044 00da 83F82000 		strb	r0, [r3, #32]
 1045              	.LVL92:
 1046              	.LBB261:
 1047              	.LBB260:
 1048              		.loc 1 400 0
 1049 00de 0878     		ldrb	r0, [r1, #0]	@ zero_extendqisi2
 1050              	.LVL93:
 1051              	.LBE260:
 1052              	.LBE261:
 1053              	.LBB262:
 1054              	.LBB263:
 1055 00e0 5B49     		ldr	r1, .L20+136
 1056              	.LBE263:
 1057              	.LBE262:
 314:.\gobeelib.c  **** 	gobee_param.dgyro_offset_fine.fbyte[1] = EEPROM_ReadByte(33);		//
 1058              		.loc 1 314 0
 1059 00e2 83F82100 		strb	r0, [r3, #33]
 1060              	.LVL94:
 1061              	.LBB265:
 1062              	.LBB264:
 1063              		.loc 1 400 0
 1064 00e6 0878     		ldrb	r0, [r1, #0]	@ zero_extendqisi2
 1065              	.LVL95:
 1066              	.LBE264:
 1067              	.LBE265:
 1068              	.LBB266:
 1069              	.LBB267:
 1070 00e8 5A49     		ldr	r1, .L20+140
 1071              	.LBE267:
 1072              	.LBE266:
 315:.\gobeelib.c  **** 	gobee_param.dgyro_offset_fine.fbyte[2] = EEPROM_ReadByte(34);		//
 1073              		.loc 1 315 0
 1074 00ea 83F82200 		strb	r0, [r3, #34]
 1075              	.LVL96:
 1076              	.LBB269:
 1077              	.LBB268:
 1078              		.loc 1 400 0
 1079 00ee 0878     		ldrb	r0, [r1, #0]	@ zero_extendqisi2
 1080              	.LVL97:
 1081              	.LBE268:
 1082              	.LBE269:
 1083              	.LBB270:
ARM GAS  C:\Users\Graziano\AppData\Local\Temp\ccH8y0FY.s 			page 29


 1084              	.LBB271:
 1085 00f0 5949     		ldr	r1, .L20+144
 1086              	.LBE271:
 1087              	.LBE270:
 316:.\gobeelib.c  **** 	gobee_param.dgyro_offset_fine.fbyte[3] = EEPROM_ReadByte(35);		//float number loading
 1088              		.loc 1 316 0
 1089 00f2 83F82300 		strb	r0, [r3, #35]
 1090              	.LVL98:
 1091              	.LBB273:
 1092              	.LBB272:
 1093              		.loc 1 400 0
 1094 00f6 0878     		ldrb	r0, [r1, #0]	@ zero_extendqisi2
 1095              	.LVL99:
 1096              	.LBE272:
 1097              	.LBE273:
 1098              	.LBB274:
 1099              	.LBB275:
 1100 00f8 5849     		ldr	r1, .L20+148
 1101              	.LBE275:
 1102              	.LBE274:
 318:.\gobeelib.c  **** 	gobee_param.gamma.fbyte[0] = EEPROM_ReadByte(36);	//
 1103              		.loc 1 318 0
 1104 00fa 1873     		strb	r0, [r3, #12]
 1105              	.LVL100:
 1106              	.LBB277:
 1107              	.LBB276:
 1108              		.loc 1 400 0
 1109 00fc 0878     		ldrb	r0, [r1, #0]	@ zero_extendqisi2
 1110              	.LVL101:
 1111              	.LBE276:
 1112              	.LBE277:
 1113              	.LBB278:
 1114              	.LBB279:
 1115 00fe 5849     		ldr	r1, .L20+152
 1116              	.LBE279:
 1117              	.LBE278:
 319:.\gobeelib.c  **** 	gobee_param.gamma.fbyte[1] = EEPROM_ReadByte(37);	//
 1118              		.loc 1 319 0
 1119 0100 5873     		strb	r0, [r3, #13]
 1120              	.LVL102:
 1121              	.LBB281:
 1122              	.LBB280:
 1123              		.loc 1 400 0
 1124 0102 0878     		ldrb	r0, [r1, #0]	@ zero_extendqisi2
 1125              	.LVL103:
 1126              	.LBE280:
 1127              	.LBE281:
 1128              	.LBB282:
 1129              	.LBB283:
 1130 0104 5749     		ldr	r1, .L20+156
 1131              	.LBE283:
 1132              	.LBE282:
 320:.\gobeelib.c  **** 	gobee_param.gamma.fbyte[2] = EEPROM_ReadByte(38);	//
 1133              		.loc 1 320 0
 1134 0106 9873     		strb	r0, [r3, #14]
 1135              	.LVL104:
 1136              	.LBB285:
ARM GAS  C:\Users\Graziano\AppData\Local\Temp\ccH8y0FY.s 			page 30


 1137              	.LBB284:
 1138              		.loc 1 400 0
 1139 0108 0878     		ldrb	r0, [r1, #0]	@ zero_extendqisi2
 1140              	.LVL105:
 1141              	.LBE284:
 1142              	.LBE285:
 1143              	.LBB286:
 1144              	.LBB287:
 1145 010a 5749     		ldr	r1, .L20+160
 1146              	.LBE287:
 1147              	.LBE286:
 321:.\gobeelib.c  **** 	gobee_param.gamma.fbyte[3] = EEPROM_ReadByte(39);	//float number loading
 1148              		.loc 1 321 0
 1149 010c D873     		strb	r0, [r3, #15]
 1150              	.LVL106:
 1151              	.LBB289:
 1152              	.LBB288:
 1153              		.loc 1 400 0
 1154 010e 0878     		ldrb	r0, [r1, #0]	@ zero_extendqisi2
 1155              	.LVL107:
 1156              	.LBE288:
 1157              	.LBE289:
 1158              	.LBB290:
 1159              	.LBB291:
 1160 0110 5649     		ldr	r1, .L20+164
 1161              	.LBE291:
 1162              	.LBE290:
 323:.\gobeelib.c  **** 	gobee_param.ana_gyro_scale_sensivity.fbyte[0] = EEPROM_ReadByte(40);	//
 1163              		.loc 1 323 0
 1164 0112 1874     		strb	r0, [r3, #16]
 1165              	.LVL108:
 1166              	.LBB293:
 1167              	.LBB292:
 1168              		.loc 1 400 0
 1169 0114 0878     		ldrb	r0, [r1, #0]	@ zero_extendqisi2
 1170              	.LVL109:
 1171              	.LBE292:
 1172              	.LBE293:
 1173              	.LBB294:
 1174              	.LBB295:
 1175 0116 5649     		ldr	r1, .L20+168
 1176              	.LBE295:
 1177              	.LBE294:
 324:.\gobeelib.c  **** 	gobee_param.ana_gyro_scale_sensivity.fbyte[1] = EEPROM_ReadByte(41);	//
 1178              		.loc 1 324 0
 1179 0118 5874     		strb	r0, [r3, #17]
 1180              	.LVL110:
 1181              	.LBB297:
 1182              	.LBB296:
 1183              		.loc 1 400 0
 1184 011a 0878     		ldrb	r0, [r1, #0]	@ zero_extendqisi2
 1185              	.LVL111:
 1186              	.LBE296:
 1187              	.LBE297:
 1188              	.LBB298:
 1189              	.LBB299:
 1190 011c 5549     		ldr	r1, .L20+172
ARM GAS  C:\Users\Graziano\AppData\Local\Temp\ccH8y0FY.s 			page 31


 1191              	.LBE299:
 1192              	.LBE298:
 325:.\gobeelib.c  **** 	gobee_param.ana_gyro_scale_sensivity.fbyte[2] = EEPROM_ReadByte(42);	//
 1193              		.loc 1 325 0
 1194 011e 9874     		strb	r0, [r3, #18]
 1195              	.LVL112:
 1196              	.LBB301:
 1197              	.LBB300:
 1198              		.loc 1 400 0
 1199 0120 0878     		ldrb	r0, [r1, #0]	@ zero_extendqisi2
 1200              	.LVL113:
 1201              	.LBE300:
 1202              	.LBE301:
 326:.\gobeelib.c  **** 	gobee_param.ana_gyro_scale_sensivity.fbyte[3] = EEPROM_ReadByte(43);	//float number loading	
 1203              		.loc 1 326 0
 1204 0122 D874     		strb	r0, [r3, #19]
 1205              	.LVL114:
 1206              	.LBB302:
 1207              	.LBB303:
 1208              		.loc 1 400 0
 1209 0124 544B     		ldr	r3, .L20+176
 1210              	.LBE303:
 1211              	.LBE302:
 1212              	.LBB305:
 1213              	.LBB306:
 1214 0126 5548     		ldr	r0, .L20+180
 1215              	.LVL115:
 1216              	.LBE306:
 1217              	.LBE305:
 1218              	.LBB308:
 1219              	.LBB304:
 1220 0128 1978     		ldrb	r1, [r3, #0]	@ zero_extendqisi2
 1221              	.LVL116:
 1222              	.LBE304:
 1223              	.LBE308:
 331:.\gobeelib.c  **** 	pan_axis.param.Kpf.fbyte[0] = EEPROM_ReadByte(48);	//
 1224              		.loc 1 331 0
 1225 012a 1173     		strb	r1, [r2, #12]
 1226              	.LVL117:
 1227              	.LBB309:
 1228              	.LBB307:
 1229              		.loc 1 400 0
 1230 012c 0378     		ldrb	r3, [r0, #0]	@ zero_extendqisi2
 1231              	.LVL118:
 1232              	.LBE307:
 1233              	.LBE309:
 1234              	.LBB310:
 1235              	.LBB311:
 1236 012e 5449     		ldr	r1, .L20+184
 1237              	.LVL119:
 1238              	.LBE311:
 1239              	.LBE310:
 332:.\gobeelib.c  **** 	pan_axis.param.Kpf.fbyte[1] = EEPROM_ReadByte(49);	//
 1240              		.loc 1 332 0
 1241 0130 5373     		strb	r3, [r2, #13]
 1242              	.LVL120:
 1243              	.LBB313:
ARM GAS  C:\Users\Graziano\AppData\Local\Temp\ccH8y0FY.s 			page 32


 1244              	.LBB312:
 1245              		.loc 1 400 0
 1246 0132 0878     		ldrb	r0, [r1, #0]	@ zero_extendqisi2
 1247              	.LVL121:
 1248              	.LBE312:
 1249              	.LBE313:
 1250              	.LBB314:
 1251              	.LBB315:
 1252 0134 534B     		ldr	r3, .L20+188
 1253              	.LVL122:
 1254              	.LBE315:
 1255              	.LBE314:
 333:.\gobeelib.c  **** 	pan_axis.param.Kpf.fbyte[2] = EEPROM_ReadByte(50);	//
 1256              		.loc 1 333 0
 1257 0136 9073     		strb	r0, [r2, #14]
 1258              	.LVL123:
 1259              	.LBB317:
 1260              	.LBB316:
 1261              		.loc 1 400 0
 1262 0138 1978     		ldrb	r1, [r3, #0]	@ zero_extendqisi2
 1263              	.LVL124:
 1264              	.LBE316:
 1265              	.LBE317:
 1266              	.LBB318:
 1267              	.LBB319:
 1268 013a 5348     		ldr	r0, .L20+192
 1269              	.LVL125:
 1270              	.LBE319:
 1271              	.LBE318:
 334:.\gobeelib.c  **** 	pan_axis.param.Kpf.fbyte[3] = EEPROM_ReadByte(51);	//float number loading		
 1272              		.loc 1 334 0
 1273 013c D173     		strb	r1, [r2, #15]
 1274              	.LVL126:
 1275              	.LBB321:
 1276              	.LBB320:
 1277              		.loc 1 400 0
 1278 013e 0378     		ldrb	r3, [r0, #0]	@ zero_extendqisi2
 1279              	.LVL127:
 1280              	.LBE320:
 1281              	.LBE321:
 1282              	.LBB322:
 1283              	.LBB323:
 1284 0140 5249     		ldr	r1, .L20+196
 1285              	.LVL128:
 1286              	.LBE323:
 1287              	.LBE322:
 336:.\gobeelib.c  **** 	pan_axis.param.Kdf.fbyte[0] = EEPROM_ReadByte(52);	//
 1288              		.loc 1 336 0
 1289 0142 1374     		strb	r3, [r2, #16]
 1290              	.LVL129:
 1291              	.LBB325:
 1292              	.LBB324:
 1293              		.loc 1 400 0
 1294 0144 0878     		ldrb	r0, [r1, #0]	@ zero_extendqisi2
 1295              	.LVL130:
 1296              	.LBE324:
 1297              	.LBE325:
ARM GAS  C:\Users\Graziano\AppData\Local\Temp\ccH8y0FY.s 			page 33


 1298              	.LBB326:
 1299              	.LBB327:
 1300 0146 524B     		ldr	r3, .L20+200
 1301              	.LVL131:
 1302              	.LBE327:
 1303              	.LBE326:
 337:.\gobeelib.c  **** 	pan_axis.param.Kdf.fbyte[1] = EEPROM_ReadByte(53);	//
 1304              		.loc 1 337 0
 1305 0148 5074     		strb	r0, [r2, #17]
 1306              	.LVL132:
 1307              	.LBB329:
 1308              	.LBB328:
 1309              		.loc 1 400 0
 1310 014a 1978     		ldrb	r1, [r3, #0]	@ zero_extendqisi2
 1311              	.LVL133:
 1312              	.LBE328:
 1313              	.LBE329:
 1314              	.LBB330:
 1315              	.LBB331:
 1316 014c 5148     		ldr	r0, .L20+204
 1317              	.LVL134:
 1318              	.LBE331:
 1319              	.LBE330:
 338:.\gobeelib.c  **** 	pan_axis.param.Kdf.fbyte[2] = EEPROM_ReadByte(54);	//
 1320              		.loc 1 338 0
 1321 014e 9174     		strb	r1, [r2, #18]
 1322              	.LVL135:
 1323              	.LBB333:
 1324              	.LBB332:
 1325              		.loc 1 400 0
 1326 0150 0378     		ldrb	r3, [r0, #0]	@ zero_extendqisi2
 1327              	.LVL136:
 1328              	.LBE332:
 1329              	.LBE333:
 1330              	.LBB334:
 1331              	.LBB335:
 1332 0152 5149     		ldr	r1, .L20+208
 1333              	.LVL137:
 1334              	.LBE335:
 1335              	.LBE334:
 339:.\gobeelib.c  **** 	pan_axis.param.Kdf.fbyte[3] = EEPROM_ReadByte(55);	//float number loading	
 1336              		.loc 1 339 0
 1337 0154 D374     		strb	r3, [r2, #19]
 1338              	.LVL138:
 1339              	.LBB337:
 1340              	.LBB336:
 1341              		.loc 1 400 0
 1342 0156 0878     		ldrb	r0, [r1, #0]	@ zero_extendqisi2
 1343              	.LVL139:
 1344              	.LBE336:
 1345              	.LBE337:
 1346              	.LBB338:
 1347              	.LBB339:
 1348 0158 504B     		ldr	r3, .L20+212
 1349              	.LVL140:
 1350              	.LBE339:
 1351              	.LBE338:
ARM GAS  C:\Users\Graziano\AppData\Local\Temp\ccH8y0FY.s 			page 34


 341:.\gobeelib.c  **** 	pan_axis.param.Kif.fbyte[0] = EEPROM_ReadByte(56);	//
 1352              		.loc 1 341 0
 1353 015a 1075     		strb	r0, [r2, #20]
 1354              	.LVL141:
 1355              	.LBB341:
 1356              	.LBB340:
 1357              		.loc 1 400 0
 1358 015c 1978     		ldrb	r1, [r3, #0]	@ zero_extendqisi2
 1359              	.LVL142:
 1360              	.LBE340:
 1361              	.LBE341:
 1362              	.LBB342:
 1363              	.LBB343:
 1364 015e 5048     		ldr	r0, .L20+216
 1365              	.LVL143:
 1366              	.LBE343:
 1367              	.LBE342:
 342:.\gobeelib.c  **** 	pan_axis.param.Kif.fbyte[1] = EEPROM_ReadByte(57);	//
 1368              		.loc 1 342 0
 1369 0160 5175     		strb	r1, [r2, #21]
 1370              	.LVL144:
 1371              	.LBB345:
 1372              	.LBB344:
 1373              		.loc 1 400 0
 1374 0162 0378     		ldrb	r3, [r0, #0]	@ zero_extendqisi2
 1375              	.LVL145:
 1376              	.LBE344:
 1377              	.LBE345:
 1378              	.LBB346:
 1379              	.LBB347:
 1380 0164 4F49     		ldr	r1, .L20+220
 1381              	.LVL146:
 1382              	.LBE347:
 1383              	.LBE346:
 343:.\gobeelib.c  **** 	pan_axis.param.Kif.fbyte[2] = EEPROM_ReadByte(58);	//
 1384              		.loc 1 343 0
 1385 0166 9375     		strb	r3, [r2, #22]
 1386              	.LVL147:
 1387              	.LBB349:
 1388              	.LBB348:
 1389              		.loc 1 400 0
 1390 0168 0878     		ldrb	r0, [r1, #0]	@ zero_extendqisi2
 1391              	.LVL148:
 1392              	.LBE348:
 1393              	.LBE349:
 1394              	.LBB350:
 1395              	.LBB351:
 1396 016a 4F4B     		ldr	r3, .L20+224
 1397              	.LVL149:
 1398              	.LBE351:
 1399              	.LBE350:
 344:.\gobeelib.c  **** 	pan_axis.param.Kif.fbyte[3] = EEPROM_ReadByte(59);	//float number loading	
 1400              		.loc 1 344 0
 1401 016c D075     		strb	r0, [r2, #23]
 1402              	.LVL150:
 1403              	.LBB353:
 1404              	.LBB352:
ARM GAS  C:\Users\Graziano\AppData\Local\Temp\ccH8y0FY.s 			page 35


 1405              		.loc 1 400 0
 1406 016e 1978     		ldrb	r1, [r3, #0]	@ zero_extendqisi2
 1407              	.LVL151:
 1408              	.LBE352:
 1409              	.LBE353:
 1410              	.LBB354:
 1411              	.LBB355:
 1412 0170 4E48     		ldr	r0, .L20+228
 1413              	.LVL152:
 1414              	.LBE355:
 1415              	.LBE354:
 346:.\gobeelib.c  **** 	pan_axis.param.Ksif.fbyte[0] = EEPROM_ReadByte(60);	//
 1416              		.loc 1 346 0
 1417 0172 1176     		strb	r1, [r2, #24]
 1418              	.LVL153:
 1419              	.LBB357:
 1420              	.LBB356:
 1421              		.loc 1 400 0
 1422 0174 0378     		ldrb	r3, [r0, #0]	@ zero_extendqisi2
 1423              	.LVL154:
 1424              	.LBE356:
 1425              	.LBE357:
 1426              	.LBB358:
 1427              	.LBB359:
 1428 0176 4E49     		ldr	r1, .L20+232
 1429              	.LVL155:
 1430              	.LBE359:
 1431              	.LBE358:
 347:.\gobeelib.c  **** 	pan_axis.param.Ksif.fbyte[1] = EEPROM_ReadByte(61);	//
 1432              		.loc 1 347 0
 1433 0178 5376     		strb	r3, [r2, #25]
 1434              	.LVL156:
 1435              	.LBB361:
 1436              	.LBB360:
 1437              		.loc 1 400 0
 1438 017a 0878     		ldrb	r0, [r1, #0]	@ zero_extendqisi2
 1439              	.LVL157:
 1440              	.LBE360:
 1441              	.LBE361:
 1442              	.LBB362:
 1443              	.LBB363:
 1444 017c 4D4B     		ldr	r3, .L20+236
 1445              	.LVL158:
 1446              	.LBE363:
 1447              	.LBE362:
 348:.\gobeelib.c  **** 	pan_axis.param.Ksif.fbyte[2] = EEPROM_ReadByte(62);	//
 1448              		.loc 1 348 0
 1449 017e 9076     		strb	r0, [r2, #26]
 1450              	.LVL159:
 1451              	.LBB365:
 1452              	.LBB364:
 1453              		.loc 1 400 0
 1454 0180 1978     		ldrb	r1, [r3, #0]	@ zero_extendqisi2
 1455              	.LVL160:
 1456              	.LBE364:
 1457              	.LBE365:
 1458              	.LBB366:
ARM GAS  C:\Users\Graziano\AppData\Local\Temp\ccH8y0FY.s 			page 36


 1459              	.LBB367:
 1460 0182 4D48     		ldr	r0, .L20+240
 1461              	.LVL161:
 1462              	.LBE367:
 1463              	.LBE366:
 349:.\gobeelib.c  **** 	pan_axis.param.Ksif.fbyte[3] = EEPROM_ReadByte(63);	//float number loading	
 1464              		.loc 1 349 0
 1465 0184 D176     		strb	r1, [r2, #27]
 1466              	.LVL162:
 1467              	.LBB369:
 1468              	.LBB368:
 1469              		.loc 1 400 0
 1470 0186 0378     		ldrb	r3, [r0, #0]	@ zero_extendqisi2
 1471              	.LVL163:
 1472              	.LBE368:
 1473              	.LBE369:
 1474              	.LBB370:
 1475              	.LBB371:
 1476 0188 4C49     		ldr	r1, .L20+244
 1477              	.LVL164:
 1478              	.LBE371:
 1479              	.LBE370:
 354:.\gobeelib.c  **** 	pan_axis.param.Kopf.fbyte[0] = EEPROM_ReadByte(64);	//
 1480              		.loc 1 354 0
 1481 018a 1377     		strb	r3, [r2, #28]
 1482              	.LVL165:
 1483              	.LBB373:
 1484              	.LBB372:
 1485              		.loc 1 400 0
 1486 018c 0878     		ldrb	r0, [r1, #0]	@ zero_extendqisi2
 1487              	.LVL166:
 1488              	.LBE372:
 1489              	.LBE373:
 1490              	.LBB374:
 1491              	.LBB375:
 1492 018e 4C4B     		ldr	r3, .L20+248
 1493              	.LVL167:
 1494              	.LBE375:
 1495              	.LBE374:
 355:.\gobeelib.c  **** 	pan_axis.param.Kopf.fbyte[1] = EEPROM_ReadByte(65);	//
 1496              		.loc 1 355 0
 1497 0190 5077     		strb	r0, [r2, #29]
 1498              	.LVL168:
 1499              	.LBB377:
 1500              	.LBB376:
 1501              		.loc 1 400 0
 1502 0192 1978     		ldrb	r1, [r3, #0]	@ zero_extendqisi2
 1503              	.LVL169:
 1504              	.LBE376:
 1505              	.LBE377:
 1506              	.LBB378:
 1507              	.LBB379:
 1508 0194 4B48     		ldr	r0, .L20+252
 1509              	.LVL170:
 1510              	.LBE379:
 1511              	.LBE378:
 356:.\gobeelib.c  **** 	pan_axis.param.Kopf.fbyte[2] = EEPROM_ReadByte(66);	//
ARM GAS  C:\Users\Graziano\AppData\Local\Temp\ccH8y0FY.s 			page 37


 1512              		.loc 1 356 0
 1513 0196 9177     		strb	r1, [r2, #30]
 1514              	.LVL171:
 1515              	.LBB381:
 1516              	.LBB380:
 1517              		.loc 1 400 0
 1518 0198 0378     		ldrb	r3, [r0, #0]	@ zero_extendqisi2
 1519              	.LVL172:
 1520              	.LBE380:
 1521              	.LBE381:
 1522              	.LBB382:
 1523              	.LBB383:
 1524 019a 4B49     		ldr	r1, .L20+256
 1525              	.LVL173:
 1526              	.LBE383:
 1527              	.LBE382:
 357:.\gobeelib.c  **** 	pan_axis.param.Kopf.fbyte[3] = EEPROM_ReadByte(67);	//float number loading	
 1528              		.loc 1 357 0
 1529 019c D377     		strb	r3, [r2, #31]
 1530              	.LVL174:
 1531              	.LBB385:
 1532              	.LBB384:
 1533              		.loc 1 400 0
 1534 019e 0878     		ldrb	r0, [r1, #0]	@ zero_extendqisi2
 1535              	.LVL175:
 1536              	.LBE384:
 1537              	.LBE385:
 1538              	.LBB386:
 1539              	.LBB387:
 1540 01a0 4A4B     		ldr	r3, .L20+260
 1541              	.LVL176:
 1542              	.LBE387:
 1543              	.LBE386:
 359:.\gobeelib.c  **** 	pan_axis.param.Gain_ANAOUT.fbyte[0] = EEPROM_ReadByte(68);	//
 1544              		.loc 1 359 0
 1545 01a2 82F82000 		strb	r0, [r2, #32]
 1546              	.LVL177:
 1547              	.LBB389:
 1548              	.LBB388:
 1549              		.loc 1 400 0
 1550 01a6 1978     		ldrb	r1, [r3, #0]	@ zero_extendqisi2
 1551              	.LVL178:
 1552              	.LBE388:
 1553              	.LBE389:
 1554              	.LBB390:
 1555              	.LBB391:
 1556 01a8 4948     		ldr	r0, .L20+264
 1557              	.LVL179:
 1558              	.LBE391:
 1559              	.LBE390:
 360:.\gobeelib.c  **** 	pan_axis.param.Gain_ANAOUT.fbyte[1] = EEPROM_ReadByte(69);	//
 1560              		.loc 1 360 0
 1561 01aa 82F82110 		strb	r1, [r2, #33]
 1562              	.LVL180:
 1563              	.LBB393:
 1564              	.LBB392:
 1565              		.loc 1 400 0
ARM GAS  C:\Users\Graziano\AppData\Local\Temp\ccH8y0FY.s 			page 38


 1566 01ae 0378     		ldrb	r3, [r0, #0]	@ zero_extendqisi2
 1567              	.LVL181:
 1568              	.LBE392:
 1569              	.LBE393:
 1570              	.LBB394:
 1571              	.LBB395:
 1572 01b0 4849     		ldr	r1, .L20+268
 1573              	.LVL182:
 1574              	.LBE395:
 1575              	.LBE394:
 361:.\gobeelib.c  **** 	pan_axis.param.Gain_ANAOUT.fbyte[2] = EEPROM_ReadByte(70);	//
 1576              		.loc 1 361 0
 1577 01b2 82F82230 		strb	r3, [r2, #34]
 1578              	.LVL183:
 1579              	.LBB397:
 1580              	.LBB396:
 1581              		.loc 1 400 0
 1582 01b6 0878     		ldrb	r0, [r1, #0]	@ zero_extendqisi2
 1583              	.LVL184:
 1584              	.LBE396:
 1585              	.LBE397:
 1586              	.LBB398:
 1587              	.LBB399:
 1588 01b8 474B     		ldr	r3, .L20+272
 1589              	.LVL185:
 1590              	.LBE399:
 1591              	.LBE398:
 362:.\gobeelib.c  **** 	pan_axis.param.Gain_ANAOUT.fbyte[3] = EEPROM_ReadByte(71);	//float number loading	
 1592              		.loc 1 362 0
 1593 01ba 82F82300 		strb	r0, [r2, #35]
 1594              	.LVL186:
 1595              	.LBB401:
 1596              	.LBB400:
 1597              		.loc 1 400 0
 1598 01be 1978     		ldrb	r1, [r3, #0]	@ zero_extendqisi2
 1599              	.LVL187:
 1600              	.LBE400:
 1601              	.LBE401:
 364:.\gobeelib.c  **** 	pan_axis.param.color = EEPROM_ReadByte(72);	
 1602              		.loc 1 364 0
 1603 01c0 82F82410 		strb	r1, [r2, #36]
 1604 01c4 7047     		bx	lr
 1605              	.L21:
 1606 01c6 00BF     		.align	2
 1607              	.L20:
 1608 01c8 00000000 		.word	EEreadBuffer
 1609 01cc 00800040 		.word	1073774592
 1610 01d0 00000000 		.word	gobee_param
 1611 01d4 01800040 		.word	1073774593
 1612 01d8 00000000 		.word	pan_axis
 1613 01dc 02800040 		.word	1073774594
 1614 01e0 03800040 		.word	1073774595
 1615 01e4 04800040 		.word	1073774596
 1616 01e8 05800040 		.word	1073774597
 1617 01ec 06800040 		.word	1073774598
 1618 01f0 07800040 		.word	1073774599
 1619 01f4 08800040 		.word	1073774600
ARM GAS  C:\Users\Graziano\AppData\Local\Temp\ccH8y0FY.s 			page 39


 1620 01f8 09800040 		.word	1073774601
 1621 01fc 0A800040 		.word	1073774602
 1622 0200 0C800040 		.word	1073774604
 1623 0204 0F800040 		.word	1073774607
 1624 0208 10800040 		.word	1073774608
 1625 020c 11800040 		.word	1073774609
 1626 0210 12800040 		.word	1073774610
 1627 0214 13800040 		.word	1073774611
 1628 0218 14800040 		.word	1073774612
 1629 021c 15800040 		.word	1073774613
 1630 0220 16800040 		.word	1073774614
 1631 0224 17800040 		.word	1073774615
 1632 0228 18800040 		.word	1073774616
 1633 022c 19800040 		.word	1073774617
 1634 0230 1A800040 		.word	1073774618
 1635 0234 1B800040 		.word	1073774619
 1636 0238 1C800040 		.word	1073774620
 1637 023c 1D800040 		.word	1073774621
 1638 0240 1E800040 		.word	1073774622
 1639 0244 1F800040 		.word	1073774623
 1640 0248 20800040 		.word	1073774624
 1641 024c 21800040 		.word	1073774625
 1642 0250 22800040 		.word	1073774626
 1643 0254 23800040 		.word	1073774627
 1644 0258 24800040 		.word	1073774628
 1645 025c 25800040 		.word	1073774629
 1646 0260 26800040 		.word	1073774630
 1647 0264 27800040 		.word	1073774631
 1648 0268 28800040 		.word	1073774632
 1649 026c 29800040 		.word	1073774633
 1650 0270 2A800040 		.word	1073774634
 1651 0274 2B800040 		.word	1073774635
 1652 0278 30800040 		.word	1073774640
 1653 027c 31800040 		.word	1073774641
 1654 0280 32800040 		.word	1073774642
 1655 0284 33800040 		.word	1073774643
 1656 0288 34800040 		.word	1073774644
 1657 028c 35800040 		.word	1073774645
 1658 0290 36800040 		.word	1073774646
 1659 0294 37800040 		.word	1073774647
 1660 0298 38800040 		.word	1073774648
 1661 029c 39800040 		.word	1073774649
 1662 02a0 3A800040 		.word	1073774650
 1663 02a4 3B800040 		.word	1073774651
 1664 02a8 3C800040 		.word	1073774652
 1665 02ac 3D800040 		.word	1073774653
 1666 02b0 3E800040 		.word	1073774654
 1667 02b4 3F800040 		.word	1073774655
 1668 02b8 40800040 		.word	1073774656
 1669 02bc 41800040 		.word	1073774657
 1670 02c0 42800040 		.word	1073774658
 1671 02c4 43800040 		.word	1073774659
 1672 02c8 44800040 		.word	1073774660
 1673 02cc 45800040 		.word	1073774661
 1674 02d0 46800040 		.word	1073774662
 1675 02d4 47800040 		.word	1073774663
 1676 02d8 48800040 		.word	1073774664
ARM GAS  C:\Users\Graziano\AppData\Local\Temp\ccH8y0FY.s 			page 40


 1677              		.cfi_endproc
 1678              	.LFE61:
 1679              		.size	ReadAllEEparams, .-ReadAllEEparams
 1680              		.section	.text.EEPROM_ReadByte,"ax",%progbits
 1681              		.align	1
 1682              		.global	EEPROM_ReadByte
 1683              		.thumb
 1684              		.thumb_func
 1685              		.type	EEPROM_ReadByte, %function
 1686              	EEPROM_ReadByte:
 1687              	.LFB62:
 397:.\gobeelib.c  ****   {
 1688              		.loc 1 397 0
 1689              		.cfi_startproc
 1690              		@ args = 0, pretend = 0, frame = 0
 1691              		@ frame_needed = 0, uses_anonymous_args = 0
 1692              		@ link register save eliminated.
 1693              	.LVL188:
 1694              		.loc 1 400 0
 1695 0000 00F18040 		add	r0, r0, #1073741824
 1696              	.LVL189:
 1697 0004 00F50041 		add	r1, r0, #32768
 1698 0008 0878     		ldrb	r0, [r1, #0]	@ zero_extendqisi2
 1699              	.LVL190:
 401:.\gobeelib.c  ****   	return(EEPROMData);
 402:.\gobeelib.c  ****   }
 1700              		.loc 1 402 0
 1701 000a 7047     		bx	lr
 1702              		.cfi_endproc
 1703              	.LFE62:
 1704              		.size	EEPROM_ReadByte, .-EEPROM_ReadByte
 1705              		.section	.text.EEPROM_WriteBuffer,"ax",%progbits
 1706              		.align	1
 1707              		.global	EEPROM_WriteBuffer
 1708              		.thumb
 1709              		.thumb_func
 1710              		.type	EEPROM_WriteBuffer, %function
 1711              	EEPROM_WriteBuffer:
 1712              	.LFB63:
 403:.\gobeelib.c  ****   
 404:.\gobeelib.c  ****   // Writes 16byte buffer (1 row) starting from EEPROM RowAddress 	// 
 405:.\gobeelib.c  ****   // sourceData <-- pointer to 16 bytes array to write				//
 406:.\gobeelib.c  ****   // 0 <= RowAddress <= 127											//
 407:.\gobeelib.c  ****   uint8 EEPROM_WriteBuffer(uint8 RowAddress, uint8* sourceData)
 408:.\gobeelib.c  ****   {
 1713              		.loc 1 408 0
 1714              		.cfi_startproc
 1715              		@ args = 0, pretend = 0, frame = 0
 1716              		@ frame_needed = 0, uses_anonymous_args = 0
 1717              	.LVL191:
 1718 0000 08B5     		push	{r3, lr}
 1719              	.LCFI5:
 1720              		.cfi_def_cfa_offset 8
 1721              		.cfi_offset 3, -8
 1722              		.cfi_offset 14, -4
 1723              		.loc 1 408 0
 1724 0002 0346     		mov	r3, r0
ARM GAS  C:\Users\Graziano\AppData\Local\Temp\ccH8y0FY.s 			page 41


 409:.\gobeelib.c  ****   	uint8 EEPStatus;
 410:.\gobeelib.c  **** 	
 411:.\gobeelib.c  ****   	EEPStatus = EEPROM_Write(sourceData, RowAddress);
 1725              		.loc 1 411 0
 1726 0004 0846     		mov	r0, r1
 1727              	.LVL192:
 1728 0006 1946     		mov	r1, r3
 1729              	.LVL193:
 1730 0008 FFF7FEFF 		bl	EEPROM_Write
 1731              	.LVL194:
 412:.\gobeelib.c  **** 	return EEPStatus;
 413:.\gobeelib.c  ****   }
 1732              		.loc 1 413 0
 1733 000c C0B2     		uxtb	r0, r0
 1734 000e 08BD     		pop	{r3, pc}
 1735              		.cfi_endproc
 1736              	.LFE63:
 1737              		.size	EEPROM_WriteBuffer, .-EEPROM_WriteBuffer
 1738              		.section	.text.clshome_console,"ax",%progbits
 1739              		.align	1
 1740              		.global	clshome_console
 1741              		.thumb
 1742              		.thumb_func
 1743              		.type	clshome_console, %function
 1744              	clshome_console:
 1745              	.LFB64:
 414:.\gobeelib.c  **** 
 415:.\gobeelib.c  **** 
 416:.\gobeelib.c  **** // *************************************************************
 417:.\gobeelib.c  **** // *** Funzioni "grafiche"	di console						 ***
 418:.\gobeelib.c  **** // *************************************************************
 419:.\gobeelib.c  **** 
 420:.\gobeelib.c  **** void clshome_console(void)
 421:.\gobeelib.c  **** {
 1746              		.loc 1 421 0
 1747              		.cfi_startproc
 1748              		@ args = 0, pretend = 0, frame = 0
 1749              		@ frame_needed = 0, uses_anonymous_args = 0
 1750 0000 08B5     		push	{r3, lr}
 1751              	.LCFI6:
 1752              		.cfi_def_cfa_offset 8
 1753              		.cfi_offset 3, -8
 1754              		.cfi_offset 14, -4
 422:.\gobeelib.c  **** 	printf("\x1B[2J");			/* Erase Screen (ESC=\x1B) 	*/
 1755              		.loc 1 422 0
 1756 0002 0448     		ldr	r0, .L25
 1757 0004 FFF7FEFF 		bl	printf
 1758              	.LVL195:
 423:.\gobeelib.c  **** 	printf("\x1B[H");			/* Cursor Home (ESC=\x1B)	*/
 1759              		.loc 1 423 0
 1760 0008 0348     		ldr	r0, .L25+4
 424:.\gobeelib.c  **** }
 1761              		.loc 1 424 0
 1762 000a BDE80840 		pop	{r3, lr}
 423:.\gobeelib.c  **** 	printf("\x1B[H");			/* Cursor Home (ESC=\x1B)	*/
 1763              		.loc 1 423 0
 1764 000e FFF7FEBF 		b	printf
ARM GAS  C:\Users\Graziano\AppData\Local\Temp\ccH8y0FY.s 			page 42


 1765              	.LVL196:
 1766              	.L26:
 1767 0012 00BF     		.align	2
 1768              	.L25:
 1769 0014 00000000 		.word	.LC0
 1770 0018 05000000 		.word	.LC1
 1771              		.cfi_endproc
 1772              	.LFE64:
 1773              		.size	clshome_console, .-clshome_console
 1774              		.section	.text.printf_spc,"ax",%progbits
 1775              		.align	1
 1776              		.global	printf_spc
 1777              		.thumb
 1778              		.thumb_func
 1779              		.type	printf_spc, %function
 1780              	printf_spc:
 1781              	.LFB65:
 425:.\gobeelib.c  **** 
 426:.\gobeelib.c  **** void printf_spc(int space_num)
 427:.\gobeelib.c  **** {
 1782              		.loc 1 427 0
 1783              		.cfi_startproc
 1784              		@ args = 0, pretend = 0, frame = 0
 1785              		@ frame_needed = 0, uses_anonymous_args = 0
 1786              	.LVL197:
 1787 0000 38B5     		push	{r3, r4, r5, lr}
 1788              	.LCFI7:
 1789              		.cfi_def_cfa_offset 16
 1790              		.cfi_offset 3, -16
 1791              		.cfi_offset 4, -12
 1792              		.cfi_offset 5, -8
 1793              		.cfi_offset 14, -4
 1794              		.loc 1 427 0
 1795 0002 0546     		mov	r5, r0
 428:.\gobeelib.c  **** 	int idx;
 429:.\gobeelib.c  **** 	for(idx=0;idx<=space_num;idx++)
 1796              		.loc 1 429 0
 1797 0004 0024     		movs	r4, #0
 1798              	.LVL198:
 1799              	.L28:
 1800              		.loc 1 429 0 is_stmt 0 discriminator 1
 1801 0006 AC42     		cmp	r4, r5
 1802 0008 04DC     		bgt	.L30
 1803              	.L29:
 430:.\gobeelib.c  **** 	{
 431:.\gobeelib.c  **** 		printf(" ");			/* Print space_num Spaces on the console 	*/
 1804              		.loc 1 431 0 is_stmt 1 discriminator 2
 1805 000a 2020     		movs	r0, #32
 1806 000c FFF7FEFF 		bl	putchar
 1807              	.LVL199:
 429:.\gobeelib.c  **** 	for(idx=0;idx<=space_num;idx++)
 1808              		.loc 1 429 0 discriminator 2
 1809 0010 0134     		adds	r4, r4, #1
 1810              	.LVL200:
 1811 0012 F8E7     		b	.L28
 1812              	.L30:
 432:.\gobeelib.c  **** 	}	
ARM GAS  C:\Users\Graziano\AppData\Local\Temp\ccH8y0FY.s 			page 43


 433:.\gobeelib.c  **** }
 1813              		.loc 1 433 0
 1814 0014 38BD     		pop	{r3, r4, r5, pc}
 1815              		.cfi_endproc
 1816              	.LFE65:
 1817              		.size	printf_spc, .-printf_spc
 1818              		.section	.text.print_abs_linear_hystogram,"ax",%progbits
 1819              		.align	1
 1820              		.global	print_abs_linear_hystogram
 1821              		.thumb
 1822              		.thumb_func
 1823              		.type	print_abs_linear_hystogram, %function
 1824              	print_abs_linear_hystogram:
 1825              	.LFB66:
 434:.\gobeelib.c  **** 
 435:.\gobeelib.c  **** // stampa un istogramma della variabile value rispetto ad un valore massimo max_value
 436:.\gobeelib.c  **** // che corrisponder a max_stars asterischi
 437:.\gobeelib.c  **** // L'istogramma stampato  funzione lineare di abs(value)
 438:.\gobeelib.c  **** // legenda  il puntatore ad una stringa che viene stampata prima del bargraph
 439:.\gobeelib.c  **** void print_abs_linear_hystogram(int16 value, uint16 max_value, uint8 max_stars, char *string)
 440:.\gobeelib.c  **** {
 1826              		.loc 1 440 0
 1827              		.cfi_startproc
 1828              		@ args = 0, pretend = 0, frame = 0
 1829              		@ frame_needed = 0, uses_anonymous_args = 0
 1830              	.LVL201:
 1831 0000 F8B5     		push	{r3, r4, r5, r6, r7, lr}
 1832              	.LCFI8:
 1833              		.cfi_def_cfa_offset 24
 1834              		.cfi_offset 3, -24
 1835              		.cfi_offset 4, -20
 1836              		.cfi_offset 5, -16
 1837              		.cfi_offset 6, -12
 1838              		.cfi_offset 7, -8
 1839              		.cfi_offset 14, -4
 1840              		.loc 1 440 0
 1841 0002 0446     		mov	r4, r0
 1842 0004 1E46     		mov	r6, r3
 441:.\gobeelib.c  **** 	uint8 idx, star_num;
 442:.\gobeelib.c  **** 	
 443:.\gobeelib.c  **** 	printf("|");
 1843              		.loc 1 443 0
 1844 0006 7C20     		movs	r0, #124
 1845              	.LVL202:
 440:.\gobeelib.c  **** {
 1846              		.loc 1 440 0
 1847 0008 1546     		mov	r5, r2
 1848 000a 0F46     		mov	r7, r1
 1849              		.loc 1 443 0
 1850 000c FFF7FEFF 		bl	putchar
 1851              	.LVL203:
 444:.\gobeelib.c  **** 	printf(string);
 1852              		.loc 1 444 0
 1853 0010 3046     		mov	r0, r6
 1854 0012 FFF7FEFF 		bl	printf
 1855              	.LVL204:
 445:.\gobeelib.c  **** 	
ARM GAS  C:\Users\Graziano\AppData\Local\Temp\ccH8y0FY.s 			page 44


 446:.\gobeelib.c  **** 	if (value >= 0)
 1856              		.loc 1 446 0
 1857 0016 002C     		cmp	r4, #0
 1858 0018 05FB04F4 		mul	r4, r5, r4
 1859 001c 03DB     		blt	.L32
 447:.\gobeelib.c  **** 	{
 448:.\gobeelib.c  **** 		star_num = (uint8) (value * (uint16)max_stars / max_value);
 1860              		.loc 1 448 0
 1861 001e 94FBF7F2 		sdiv	r2, r4, r7
 1862 0022 D6B2     		uxtb	r6, r2
 1863              	.LVL205:
 1864 0024 03E0     		b	.L33
 1865              	.LVL206:
 1866              	.L32:
 449:.\gobeelib.c  **** 	}
 450:.\gobeelib.c  **** 	else
 451:.\gobeelib.c  **** 	{
 452:.\gobeelib.c  **** 		star_num = -(uint8) (value * (uint16)max_stars / max_value);
 1867              		.loc 1 452 0
 1868 0026 94FBF7F0 		sdiv	r0, r4, r7
 1869 002a 4142     		negs	r1, r0
 1870 002c CEB2     		uxtb	r6, r1
 1871              	.LVL207:
 1872              	.L33:
 453:.\gobeelib.c  **** 	}
 454:.\gobeelib.c  **** 	
 455:.\gobeelib.c  **** 	for (idx = 1; idx <= max_stars; idx++)
 1873              		.loc 1 455 0
 1874 002e 0124     		movs	r4, #1
 1875              	.LVL208:
 1876              	.L34:
 1877              		.loc 1 455 0 is_stmt 0 discriminator 1
 1878 0030 AC42     		cmp	r4, r5
 1879 0032 09D8     		bhi	.L39
 1880              	.L37:
 456:.\gobeelib.c  **** 	{
 457:.\gobeelib.c  **** 		if (idx <= star_num)
 1881              		.loc 1 457 0 is_stmt 1
 1882 0034 B442     		cmp	r4, r6
 1883 0036 01D8     		bhi	.L35
 458:.\gobeelib.c  **** 		{
 459:.\gobeelib.c  **** 			printf ("*");
 1884              		.loc 1 459 0
 1885 0038 2A20     		movs	r0, #42
 1886 003a 00E0     		b	.L38
 1887              	.L35:
 460:.\gobeelib.c  **** 		}
 461:.\gobeelib.c  **** 		else
 462:.\gobeelib.c  **** 		{
 463:.\gobeelib.c  **** 			printf (" ");
 1888              		.loc 1 463 0
 1889 003c 2020     		movs	r0, #32
 1890              	.L38:
 1891 003e FFF7FEFF 		bl	putchar
 1892              	.LVL209:
 455:.\gobeelib.c  **** 	for (idx = 1; idx <= max_stars; idx++)
 1893              		.loc 1 455 0
ARM GAS  C:\Users\Graziano\AppData\Local\Temp\ccH8y0FY.s 			page 45


 1894 0042 631C     		adds	r3, r4, #1
 1895 0044 DCB2     		uxtb	r4, r3
 1896              	.LVL210:
 1897 0046 F3E7     		b	.L34
 1898              	.LVL211:
 1899              	.L39:
 464:.\gobeelib.c  **** 		}	
 465:.\gobeelib.c  **** 	}	
 466:.\gobeelib.c  **** 	printf("|\r\n");	
 1900              		.loc 1 466 0
 1901 0048 0248     		ldr	r0, .L40
 467:.\gobeelib.c  **** }
 1902              		.loc 1 467 0
 1903 004a BDE8F840 		pop	{r3, r4, r5, r6, r7, lr}
 466:.\gobeelib.c  **** 	printf("|\r\n");	
 1904              		.loc 1 466 0
 1905 004e FFF7FEBF 		b	puts
 1906              	.LVL212:
 1907              	.L41:
 1908 0052 00BF     		.align	2
 1909              	.L40:
 1910 0054 09000000 		.word	.LC2
 1911              		.cfi_endproc
 1912              	.LFE66:
 1913              		.size	print_abs_linear_hystogram, .-print_abs_linear_hystogram
 1914              		.section	.text.print_hystogram_border,"ax",%progbits
 1915              		.align	1
 1916              		.global	print_hystogram_border
 1917              		.thumb
 1918              		.thumb_func
 1919              		.type	print_hystogram_border, %function
 1920              	print_hystogram_border:
 1921              	.LFB67:
 468:.\gobeelib.c  **** 
 469:.\gobeelib.c  **** // stampa il bordo superiore o inferiore dell'istogramma lungo max_stars asterischi e con legenda
 470:.\gobeelib.c  **** void print_hystogram_border(uint8 max_stars, char *legenda)
 471:.\gobeelib.c  **** {
 1922              		.loc 1 471 0
 1923              		.cfi_startproc
 1924              		@ args = 0, pretend = 0, frame = 0
 1925              		@ frame_needed = 0, uses_anonymous_args = 0
 1926              	.LVL213:
 1927 0000 70B5     		push	{r4, r5, r6, lr}
 1928              	.LCFI9:
 1929              		.cfi_def_cfa_offset 16
 1930              		.cfi_offset 4, -16
 1931              		.cfi_offset 5, -12
 1932              		.cfi_offset 6, -8
 1933              		.cfi_offset 14, -4
 1934              		.loc 1 471 0
 1935 0002 0546     		mov	r5, r0
 1936 0004 0E46     		mov	r6, r1
 472:.\gobeelib.c  **** 	uint8 idx;
 473:.\gobeelib.c  **** 	for (idx = 1; idx <= max_stars+2+strlen(legenda); idx++)
 1937              		.loc 1 473 0
 1938 0006 0124     		movs	r4, #1
 1939              	.LVL214:
ARM GAS  C:\Users\Graziano\AppData\Local\Temp\ccH8y0FY.s 			page 46


 1940              	.L43:
 1941              		.loc 1 473 0 is_stmt 0 discriminator 1
 1942 0008 3046     		mov	r0, r6
 1943 000a FFF7FEFF 		bl	strlen
 1944              	.LVL215:
 1945 000e AB1C     		adds	r3, r5, #2
 1946 0010 1818     		adds	r0, r3, r0
 1947 0012 8442     		cmp	r4, r0
 1948 0014 05D8     		bhi	.L45
 1949              	.L44:
 474:.\gobeelib.c  **** 		{
 475:.\gobeelib.c  **** 			printf("-");		
 1950              		.loc 1 475 0 is_stmt 1 discriminator 2
 1951 0016 2D20     		movs	r0, #45
 473:.\gobeelib.c  **** 	for (idx = 1; idx <= max_stars+2+strlen(legenda); idx++)
 1952              		.loc 1 473 0 discriminator 2
 1953 0018 0134     		adds	r4, r4, #1
 1954              	.LVL216:
 1955              		.loc 1 475 0 discriminator 2
 1956 001a FFF7FEFF 		bl	putchar
 1957              	.LVL217:
 473:.\gobeelib.c  **** 	for (idx = 1; idx <= max_stars+2+strlen(legenda); idx++)
 1958              		.loc 1 473 0 discriminator 2
 1959 001e E4B2     		uxtb	r4, r4
 1960              	.LVL218:
 1961 0020 F2E7     		b	.L43
 1962              	.L45:
 476:.\gobeelib.c  **** 		}
 477:.\gobeelib.c  **** 	printf("\r\n");
 1963              		.loc 1 477 0
 1964 0022 0248     		ldr	r0, .L46
 478:.\gobeelib.c  **** }
 1965              		.loc 1 478 0
 1966 0024 BDE87040 		pop	{r4, r5, r6, lr}
 477:.\gobeelib.c  **** 	printf("\r\n");
 1967              		.loc 1 477 0
 1968 0028 FFF7FEBF 		b	puts
 1969              	.LVL219:
 1970              	.L47:
 1971              		.align	2
 1972              	.L46:
 1973 002c 0C000000 		.word	.LC3
 1974              		.cfi_endproc
 1975              	.LFE67:
 1976              		.size	print_hystogram_border, .-print_hystogram_border
 1977              		.section	.text.print_joke,"ax",%progbits
 1978              		.align	1
 1979              		.global	print_joke
 1980              		.thumb
 1981              		.thumb_func
 1982              		.type	print_joke, %function
 1983              	print_joke:
 1984              	.LFB68:
 479:.\gobeelib.c  **** 
 480:.\gobeelib.c  **** // stampa scherzo
 481:.\gobeelib.c  **** void print_joke(void)
 482:.\gobeelib.c  **** {
ARM GAS  C:\Users\Graziano\AppData\Local\Temp\ccH8y0FY.s 			page 47


 1985              		.loc 1 482 0
 1986              		.cfi_startproc
 1987              		@ args = 0, pretend = 0, frame = 0
 1988              		@ frame_needed = 0, uses_anonymous_args = 0
 1989 0000 10B5     		push	{r4, lr}
 1990              	.LCFI10:
 1991              		.cfi_def_cfa_offset 8
 1992              		.cfi_offset 4, -8
 1993              		.cfi_offset 14, -4
 483:.\gobeelib.c  **** 	printf("\r\n");
 1994              		.loc 1 483 0
 1995 0002 194C     		ldr	r4, .L49
 1996 0004 2046     		mov	r0, r4
 1997 0006 FFF7FEFF 		bl	puts
 1998              	.LVL220:
 484:.\gobeelib.c  **** 	printf(STR_JOKE0);
 1999              		.loc 1 484 0
 2000 000a 1848     		ldr	r0, .L49+4
 2001 000c FFF7FEFF 		bl	puts
 2002              	.LVL221:
 485:.\gobeelib.c  **** 	printf(STR_JOKE1);
 2003              		.loc 1 485 0
 2004 0010 1748     		ldr	r0, .L49+8
 2005 0012 FFF7FEFF 		bl	puts
 2006              	.LVL222:
 486:.\gobeelib.c  **** 	printf(STR_JOKE2);
 2007              		.loc 1 486 0
 2008 0016 1748     		ldr	r0, .L49+12
 2009 0018 FFF7FEFF 		bl	puts
 2010              	.LVL223:
 487:.\gobeelib.c  **** 	printf(STR_JOKE3);
 2011              		.loc 1 487 0
 2012 001c 1648     		ldr	r0, .L49+16
 2013 001e FFF7FEFF 		bl	puts
 2014              	.LVL224:
 488:.\gobeelib.c  **** 	printf(STR_JOKE4);
 2015              		.loc 1 488 0
 2016 0022 1648     		ldr	r0, .L49+20
 2017 0024 FFF7FEFF 		bl	puts
 2018              	.LVL225:
 489:.\gobeelib.c  **** 	printf(STR_JOKE5);
 2019              		.loc 1 489 0
 2020 0028 1548     		ldr	r0, .L49+24
 2021 002a FFF7FEFF 		bl	puts
 2022              	.LVL226:
 490:.\gobeelib.c  **** 	printf(STR_JOKE6);
 2023              		.loc 1 490 0
 2024 002e 1548     		ldr	r0, .L49+28
 2025 0030 FFF7FEFF 		bl	puts
 2026              	.LVL227:
 491:.\gobeelib.c  **** 	printf(STR_JOKE7);
 2027              		.loc 1 491 0
 2028 0034 1448     		ldr	r0, .L49+32
 2029 0036 FFF7FEFF 		bl	puts
 2030              	.LVL228:
 492:.\gobeelib.c  **** 	printf(STR_JOKE8);
 2031              		.loc 1 492 0
ARM GAS  C:\Users\Graziano\AppData\Local\Temp\ccH8y0FY.s 			page 48


 2032 003a 1448     		ldr	r0, .L49+36
 2033 003c FFF7FEFF 		bl	puts
 2034              	.LVL229:
 493:.\gobeelib.c  **** 	printf(STR_JOKE9);	
 2035              		.loc 1 493 0
 2036 0040 1348     		ldr	r0, .L49+40
 2037 0042 FFF7FEFF 		bl	puts
 2038              	.LVL230:
 494:.\gobeelib.c  **** 	printf(STR_JOKEA);
 2039              		.loc 1 494 0
 2040 0046 1348     		ldr	r0, .L49+44
 2041 0048 FFF7FEFF 		bl	puts
 2042              	.LVL231:
 495:.\gobeelib.c  **** 	printf(STR_JOKEB);
 2043              		.loc 1 495 0
 2044 004c 1248     		ldr	r0, .L49+48
 2045 004e FFF7FEFF 		bl	puts
 2046              	.LVL232:
 496:.\gobeelib.c  **** 	printf(STR_JOKEC);	
 2047              		.loc 1 496 0
 2048 0052 1248     		ldr	r0, .L49+52
 2049 0054 FFF7FEFF 		bl	puts
 2050              	.LVL233:
 497:.\gobeelib.c  **** 	printf(STR_JOKED);	
 2051              		.loc 1 497 0
 2052 0058 1148     		ldr	r0, .L49+56
 2053 005a FFF7FEFF 		bl	puts
 2054              	.LVL234:
 498:.\gobeelib.c  **** 	printf("\r\n");
 2055              		.loc 1 498 0
 2056 005e 2046     		mov	r0, r4
 499:.\gobeelib.c  **** }
 2057              		.loc 1 499 0
 2058 0060 BDE81040 		pop	{r4, lr}
 498:.\gobeelib.c  **** 	printf("\r\n");
 2059              		.loc 1 498 0
 2060 0064 FFF7FEBF 		b	puts
 2061              	.LVL235:
 2062              	.L50:
 2063              		.align	2
 2064              	.L49:
 2065 0068 0C000000 		.word	.LC3
 2066 006c 0E000000 		.word	.LC4
 2067 0070 33000000 		.word	.LC5
 2068 0074 57000000 		.word	.LC6
 2069 0078 7A000000 		.word	.LC7
 2070 007c 9C000000 		.word	.LC8
 2071 0080 BD000000 		.word	.LC9
 2072 0084 00010000 		.word	.LC10
 2073 0088 48010000 		.word	.LC11
 2074 008c 90010000 		.word	.LC12
 2075 0090 DA010000 		.word	.LC13
 2076 0094 22020000 		.word	.LC14
 2077 0098 6A020000 		.word	.LC15
 2078 009c B4020000 		.word	.LC16
 2079 00a0 F9020000 		.word	.LC17
 2080              		.cfi_endproc
ARM GAS  C:\Users\Graziano\AppData\Local\Temp\ccH8y0FY.s 			page 49


 2081              	.LFE68:
 2082              		.size	print_joke, .-print_joke
 2083              		.section	.text._write,"ax",%progbits
 2084              		.align	1
 2085              		.global	_write
 2086              		.thumb
 2087              		.thumb_func
 2088              		.type	_write, %function
 2089              	_write:
 2090              	.LFB69:
 500:.\gobeelib.c  **** 
 501:.\gobeelib.c  **** // ***********************************
 502:.\gobeelib.c  **** // *** Funzioni di Standard Output ***
 503:.\gobeelib.c  **** // ***********************************
 504:.\gobeelib.c  **** 
 505:.\gobeelib.c  **** #if PSOC5LP_ARCH
 506:.\gobeelib.c  **** /* To use Keil's IO functions such as printf,                 */
 507:.\gobeelib.c  **** /* the program must override Keil's built-in putchar function.*/ 
 508:.\gobeelib.c  **** /* This function overrides over USB UART					  */
 509:.\gobeelib.c  **** // Provides IO Functions required to use printf with a UART.
 510:.\gobeelib.c  **** // UART instance name is assumed to be UART
 511:.\gobeelib.c  **** 
 512:.\gobeelib.c  **** 
 513:.\gobeelib.c  **** int _write(int file, char *ptr, int len) {
 2091              		.loc 1 513 0
 2092              		.cfi_startproc
 2093              		@ args = 0, pretend = 0, frame = 0
 2094              		@ frame_needed = 0, uses_anonymous_args = 0
 2095              	.LVL236:
 2096 0000 70B5     		push	{r4, r5, r6, lr}
 2097              	.LCFI11:
 2098              		.cfi_def_cfa_offset 16
 2099              		.cfi_offset 4, -16
 2100              		.cfi_offset 5, -12
 2101              		.cfi_offset 6, -8
 2102              		.cfi_offset 14, -4
 2103              		.loc 1 513 0
 2104 0002 0E46     		mov	r6, r1
 2105 0004 1546     		mov	r5, r2
 514:.\gobeelib.c  ****     int todo;
 515:.\gobeelib.c  **** 
 516:.\gobeelib.c  ****     for (todo = 0; todo < len; todo++) {
 2106              		.loc 1 516 0
 2107 0006 0024     		movs	r4, #0
 2108              	.LVL237:
 2109              	.L52:
 2110              		.loc 1 516 0 is_stmt 0 discriminator 1
 2111 0008 AC42     		cmp	r4, r5
 2112 000a 04DA     		bge	.L54
 2113              	.L53:
 517:.\gobeelib.c  ****         UART_USB_PutChar(*ptr++);
 2114              		.loc 1 517 0 is_stmt 1 discriminator 2
 2115 000c 305D     		ldrb	r0, [r6, r4]	@ zero_extendqisi2
 2116 000e FFF7FEFF 		bl	UART_USB_PutChar
 2117              	.LVL238:
 516:.\gobeelib.c  ****     for (todo = 0; todo < len; todo++) {
 2118              		.loc 1 516 0 discriminator 2
ARM GAS  C:\Users\Graziano\AppData\Local\Temp\ccH8y0FY.s 			page 50


 2119 0012 0134     		adds	r4, r4, #1
 2120              	.LVL239:
 2121 0014 F8E7     		b	.L52
 2122              	.L54:
 518:.\gobeelib.c  ****     }
 519:.\gobeelib.c  ****     return len;
 520:.\gobeelib.c  **** }
 2123              		.loc 1 520 0
 2124 0016 2846     		mov	r0, r5
 2125 0018 70BD     		pop	{r4, r5, r6, pc}
 2126              		.cfi_endproc
 2127              	.LFE69:
 2128              		.size	_write, .-_write
 2129              		.section	.text._read,"ax",%progbits
 2130              		.align	1
 2131              		.global	_read
 2132              		.thumb
 2133              		.thumb_func
 2134              		.type	_read, %function
 2135              	_read:
 2136              	.LFB70:
 521:.\gobeelib.c  **** 
 522:.\gobeelib.c  **** int _read(int file, char *ptr, int len) {
 2137              		.loc 1 522 0
 2138              		.cfi_startproc
 2139              		@ args = 0, pretend = 0, frame = 0
 2140              		@ frame_needed = 0, uses_anonymous_args = 0
 2141              		@ link register save eliminated.
 2142              	.LVL240:
 523:.\gobeelib.c  ****     return 0;
 524:.\gobeelib.c  **** }
 2143              		.loc 1 524 0
 2144 0000 0020     		movs	r0, #0
 2145              	.LVL241:
 2146 0002 7047     		bx	lr
 2147              		.cfi_endproc
 2148              	.LFE70:
 2149              		.size	_read, .-_read
 2150              		.section	.text._fstat,"ax",%progbits
 2151              		.align	1
 2152              		.global	_fstat
 2153              		.thumb
 2154              		.thumb_func
 2155              		.type	_fstat, %function
 2156              	_fstat:
 2157              	.LFB71:
 525:.\gobeelib.c  **** 
 526:.\gobeelib.c  **** #include <sys/stat.h>
 527:.\gobeelib.c  **** int _fstat(int file, struct stat *st) {
 2158              		.loc 1 527 0
 2159              		.cfi_startproc
 2160              		@ args = 0, pretend = 0, frame = 0
 2161              		@ frame_needed = 0, uses_anonymous_args = 0
 2162              		@ link register save eliminated.
 2163              	.LVL242:
 528:.\gobeelib.c  ****     st->st_mode = S_IFCHR;
 2164              		.loc 1 528 0
ARM GAS  C:\Users\Graziano\AppData\Local\Temp\ccH8y0FY.s 			page 51


 2165 0000 4FF40053 		mov	r3, #8192
 2166 0004 4B60     		str	r3, [r1, #4]
 529:.\gobeelib.c  **** 	return 0;
 530:.\gobeelib.c  **** }
 2167              		.loc 1 530 0
 2168 0006 0020     		movs	r0, #0
 2169              	.LVL243:
 2170 0008 7047     		bx	lr
 2171              		.cfi_endproc
 2172              	.LFE71:
 2173              		.size	_fstat, .-_fstat
 2174              		.section	.text._close,"ax",%progbits
 2175              		.align	1
 2176              		.global	_close
 2177              		.thumb
 2178              		.thumb_func
 2179              		.type	_close, %function
 2180              	_close:
 2181              	.LFB72:
 531:.\gobeelib.c  **** 
 532:.\gobeelib.c  **** int _close(int file) {
 2182              		.loc 1 532 0
 2183              		.cfi_startproc
 2184              		@ args = 0, pretend = 0, frame = 0
 2185              		@ frame_needed = 0, uses_anonymous_args = 0
 2186              		@ link register save eliminated.
 2187              	.LVL244:
 533:.\gobeelib.c  ****     return -1;
 534:.\gobeelib.c  **** }
 2188              		.loc 1 534 0
 2189 0000 4FF0FF30 		mov	r0, #-1
 2190              	.LVL245:
 2191 0004 7047     		bx	lr
 2192              		.cfi_endproc
 2193              	.LFE72:
 2194              		.size	_close, .-_close
 2195              		.section	.text._isatty,"ax",%progbits
 2196              		.align	1
 2197              		.global	_isatty
 2198              		.thumb
 2199              		.thumb_func
 2200              		.type	_isatty, %function
 2201              	_isatty:
 2202              	.LFB73:
 535:.\gobeelib.c  **** 
 536:.\gobeelib.c  **** int _isatty(int file) {
 2203              		.loc 1 536 0
 2204              		.cfi_startproc
 2205              		@ args = 0, pretend = 0, frame = 0
 2206              		@ frame_needed = 0, uses_anonymous_args = 0
 2207              		@ link register save eliminated.
 2208              	.LVL246:
 537:.\gobeelib.c  ****     return 1;
 538:.\gobeelib.c  **** }
 2209              		.loc 1 538 0
 2210 0000 0120     		movs	r0, #1
 2211              	.LVL247:
ARM GAS  C:\Users\Graziano\AppData\Local\Temp\ccH8y0FY.s 			page 52


 2212 0002 7047     		bx	lr
 2213              		.cfi_endproc
 2214              	.LFE73:
 2215              		.size	_isatty, .-_isatty
 2216              		.section	.text._lseek,"ax",%progbits
 2217              		.align	1
 2218              		.global	_lseek
 2219              		.thumb
 2220              		.thumb_func
 2221              		.type	_lseek, %function
 2222              	_lseek:
 2223              	.LFB74:
 539:.\gobeelib.c  **** 
 540:.\gobeelib.c  **** int _lseek(int file, int ptr, int dir) {
 2224              		.loc 1 540 0
 2225              		.cfi_startproc
 2226              		@ args = 0, pretend = 0, frame = 0
 2227              		@ frame_needed = 0, uses_anonymous_args = 0
 2228              		@ link register save eliminated.
 2229              	.LVL248:
 541:.\gobeelib.c  ****     return 0;
 542:.\gobeelib.c  **** }
 2230              		.loc 1 542 0
 2231 0000 0020     		movs	r0, #0
 2232              	.LVL249:
 2233 0002 7047     		bx	lr
 2234              		.cfi_endproc
 2235              	.LFE74:
 2236              		.size	_lseek, .-_lseek
 2237              		.comm	gobee_vparam,0,1
 2238              		.section	.rodata.str1.1,"aMS",%progbits,1
 2239              	.LC0:
 2240 0000 1B5B324A 		.ascii	"\033[2J\000"
 2240      00
 2241              	.LC1:
 2242 0005 1B5B4800 		.ascii	"\033[H\000"
 2243              	.LC2:
 2244 0009 7C0D00   		.ascii	"|\015\000"
 2245              	.LC3:
 2246 000c 0D00     		.ascii	"\015\000"
 2247              	.LC4:
 2248 000e 20202020 		.ascii	"                       (#########) \015\000"
 2248      20202020 
 2248      20202020 
 2248      20202020 
 2248      20202020 
 2249              	.LC5:
 2250 0033 20202020 		.ascii	"                      (#########) \015\000"
 2250      20202020 
 2250      20202020 
 2250      20202020 
 2250      20202020 
 2251              	.LC6:
 2252 0057 20202020 		.ascii	"                     (#########) \015\000"
 2252      20202020 
 2252      20202020 
 2252      20202020 
ARM GAS  C:\Users\Graziano\AppData\Local\Temp\ccH8y0FY.s 			page 53


 2252      20202020 
 2253              	.LC7:
 2254 007a 20202020 		.ascii	"                    (#########) \015\000"
 2254      20202020 
 2254      20202020 
 2254      20202020 
 2254      20202020 
 2255              	.LC8:
 2256 009c 20202020 		.ascii	"      __?__        (#########) \015\000"
 2256      20205F5F 
 2256      3F5F5F20 
 2256      20202020 
 2256      20202028 
 2257              	.LC9:
 2258 00bd 20202020 		.ascii	"     /     \\      (#########) |\\/\\/\\/|  /\\ /\\"
 2258      202F2020 
 2258      2020205C 
 2258      20202020 
 2258      20202823 
 2259 00ea 20202F5C 		.ascii	"  /\\             /  \015\000"
 2259      20202020 
 2259      20202020 
 2259      20202020 
 2259      202F2020 
 2260              	.LC10:
 2261 0100 20202020 		.ascii	"    |       |    (#########)  |      |  | V  \\/  \\"
 2261      7C202020 
 2261      20202020 
 2261      7C202020 
 2261      20282323 
 2262 0132 2D2D2D2E 		.ascii	"---.  .----/ \\----. \015\000"
 2262      20202E2D 
 2262      2D2D2D2F 
 2262      205C2D2D 
 2262      2D2D2E20 
 2263              	.LC11:
 2264 0148 20202020 		.ascii	"    |  (o)(o)     (o)(o)(##)  |      |   \\_       "
 2264      7C202028 
 2264      6F29286F 
 2264      29202020 
 2264      2020286F 
 2265 017a 202F2020 		.ascii	" /     \\          / \015\000"
 2265      2020205C 
 2265      20202020 
 2265      20202020 
 2265      20202F20 
 2266              	.LC12:
 2267 0190 20202020 		.ascii	"    C   .---_)  ,_C     (##)  | (o)(o)    (o)(o)  ?"
 2267      43202020 
 2267      2E2D2D2D 
 2267      5F292020 
 2267      2C5F4320 
 2268 01c3 5F5F2E20 		.ascii	"__. .--\\ (o)(o) /__. \015\000"
 2268      2E2D2D5C 
 2268      20286F29 
 2268      286F2920 
 2268      2F5F5F2E 
ARM GAS  C:\Users\Graziano\AppData\Local\Temp\ccH8y0FY.s 			page 54


 2269              	.LC13:
 2270 01da 20202020 		.ascii	"     | |.___|  /____,   (##)  C      _)  _C        "
 2270      207C207C 
 2270      2E5F5F5F 
 2270      7C20202F 
 2270      5F5F5F5F 
 2271 020d 202F2020 		.ascii	" /   \\     ()    / \015\000"
 2271      205C2020 
 2271      20202028 
 2271      29202020 
 2271      202F200D 
 2272              	.LC14:
 2273 0222 20202020 		.ascii	"     |  \\__/     \\     (#)     | ,___|  /____,   "
 2273      207C2020 
 2273      5C5F5F2F 
 2273      20202020 
 2273      205C2020 
 2274 0253 2920205C 		.ascii	")  \\    >   (C_)   ? \015\000"
 2274      20202020 
 2274      3E202020 
 2274      28435F29 
 2274      2020203F 
 2275              	.LC15:
 2276 026a 20202020 		.ascii	"     /_____\\      |    |       |   /      \\     /"
 2276      202F5F5F 
 2276      5F5F5F5C 
 2276      20202020 
 2276      20207C20 
 2277 029b 2D2D2D2D 		.ascii	"----'  /___\\____/___\\  \015\000"
 2277      2720202F 
 2277      5F5F5F5C 
 2277      5F5F5F5F 
 2277      2F5F5F5F 
 2278              	.LC16:
 2279 02b4 20202020 		.ascii	"    /_____/ \\     OOOOOO      /____\\       ooooo "
 2279      2F5F5F5F 
 2279      5F5F2F20 
 2279      5C202020 
 2279      20204F4F 
 2280 02e5 20202020 		.ascii	"          /|    | \015\000"
 2280      20202020 
 2280      20202F7C 
 2280      20202020 
 2280      7C200D00 
 2281              	.LC17:
 2282 02f9 2020202F 		.ascii	"   /         \\   /      \\    /      \\     /     "
 2282      20202020 
 2282      20202020 
 2282      205C2020 
 2282      202F2020 
 2283 0329 5C202020 		.ascii	"\\           |    |  \015\000"
 2283      20202020 
 2283      20202020 
 2283      7C202020 
 2283      207C2020 
 2284              		.text
 2285              	.Letext0:
ARM GAS  C:\Users\Graziano\AppData\Local\Temp\ccH8y0FY.s 			page 55


 2286              		.file 2 "c:\\program files (x86)\\cypress\\psoc creator\\3.0\\psoc creator\\import\\gnu_cs\\arm\\4
 2287              		.file 3 "./Generated_Source/PSoC5/cytypes.h"
 2288              		.file 4 "c:\\program files (x86)\\cypress\\psoc creator\\3.0\\psoc creator\\import\\gnu_cs\\arm\\4
 2289              		.file 5 "c:\\program files (x86)\\cypress\\psoc creator\\3.0\\psoc creator\\import\\gnu_cs\\arm\\4
 2290              		.file 6 "c:\\program files (x86)\\cypress\\psoc creator\\3.0\\psoc creator\\import\\gnu_cs\\arm\\4
 2291              		.file 7 "./gobee.h"
 2292              		.file 8 "c:\\program files (x86)\\cypress\\psoc creator\\3.0\\psoc creator\\import\\gnu_cs\\arm\\4
 2293              		.file 9 "./Generated_Source/PSoC5/core_cm3.h"
 2294              		.file 10 "./Generated_Source/PSoC5/EEPROM.h"
 2295              		.file 11 "c:\\program files (x86)\\cypress\\psoc creator\\3.0\\psoc creator\\import\\gnu_cs\\arm\\
 2296              		.file 12 "<built-in>"
 2297              		.file 13 "c:\\program files (x86)\\cypress\\psoc creator\\3.0\\psoc creator\\import\\gnu_cs\\arm\\
 2298              		.file 14 "./Generated_Source/PSoC5/UART_USB.h"