ARM GAS  C:\Users\Graziano\AppData\Local\Temp\ccpJonYe.s 			page 1


   1              		.syntax unified
   2              		.cpu cortex-m3
   3              		.fpu softvfp
   4              		.eabi_attribute 20, 1
   5              		.eabi_attribute 21, 1
   6              		.eabi_attribute 23, 3
   7              		.eabi_attribute 24, 1
   8              		.eabi_attribute 25, 1
   9              		.eabi_attribute 26, 1
  10              		.eabi_attribute 30, 4
  11              		.eabi_attribute 34, 1
  12              		.eabi_attribute 18, 4
  13              		.thumb
  14              		.file	"I2C_COULOMB_MASTER.c"
  15              		.text
  16              	.Ltext0:
  17              		.cfi_sections	.debug_frame
  18              		.section	.text.I2C_COULOMB_MasterWriteBuf,"ax",%progbits
  19              		.align	1
  20              		.global	I2C_COULOMB_MasterWriteBuf
  21              		.thumb
  22              		.thumb_func
  23              		.type	I2C_COULOMB_MasterWriteBuf, %function
  24              	I2C_COULOMB_MasterWriteBuf:
  25              	.LFB0:
  26              		.file 1 ".\\Generated_Source\\PSoC5\\I2C_COULOMB_MASTER.c"
   1:.\Generated_Source\PSoC5/I2C_COULOMB_MASTER.c **** /*******************************************************************************
   2:.\Generated_Source\PSoC5/I2C_COULOMB_MASTER.c **** * File Name: I2C_COULOMB_MASTER.c
   3:.\Generated_Source\PSoC5/I2C_COULOMB_MASTER.c **** * Version 3.30
   4:.\Generated_Source\PSoC5/I2C_COULOMB_MASTER.c **** *
   5:.\Generated_Source\PSoC5/I2C_COULOMB_MASTER.c **** * Description:
   6:.\Generated_Source\PSoC5/I2C_COULOMB_MASTER.c **** *  This file provides the source code of APIs for the I2C component Master mode.
   7:.\Generated_Source\PSoC5/I2C_COULOMB_MASTER.c **** *
   8:.\Generated_Source\PSoC5/I2C_COULOMB_MASTER.c **** * Note:
   9:.\Generated_Source\PSoC5/I2C_COULOMB_MASTER.c **** *
  10:.\Generated_Source\PSoC5/I2C_COULOMB_MASTER.c **** *******************************************************************************
  11:.\Generated_Source\PSoC5/I2C_COULOMB_MASTER.c **** * Copyright 2012, Cypress Semiconductor Corporation.  All rights reserved.
  12:.\Generated_Source\PSoC5/I2C_COULOMB_MASTER.c **** * You may use this file only in accordance with the license, terms, conditions,
  13:.\Generated_Source\PSoC5/I2C_COULOMB_MASTER.c **** * disclaimers, and limitations in the end user license agreement accompanying
  14:.\Generated_Source\PSoC5/I2C_COULOMB_MASTER.c **** * the software package with which this file was provided.
  15:.\Generated_Source\PSoC5/I2C_COULOMB_MASTER.c **** *******************************************************************************/
  16:.\Generated_Source\PSoC5/I2C_COULOMB_MASTER.c **** 
  17:.\Generated_Source\PSoC5/I2C_COULOMB_MASTER.c **** #include "I2C_COULOMB_PVT.h"
  18:.\Generated_Source\PSoC5/I2C_COULOMB_MASTER.c **** 
  19:.\Generated_Source\PSoC5/I2C_COULOMB_MASTER.c **** #if(I2C_COULOMB_MODE_MASTER_ENABLED)
  20:.\Generated_Source\PSoC5/I2C_COULOMB_MASTER.c **** 
  21:.\Generated_Source\PSoC5/I2C_COULOMB_MASTER.c **** /**********************************
  22:.\Generated_Source\PSoC5/I2C_COULOMB_MASTER.c **** *      System variables
  23:.\Generated_Source\PSoC5/I2C_COULOMB_MASTER.c **** **********************************/
  24:.\Generated_Source\PSoC5/I2C_COULOMB_MASTER.c **** 
  25:.\Generated_Source\PSoC5/I2C_COULOMB_MASTER.c **** volatile uint8 I2C_COULOMB_mstrStatus;     /* Master Status byte  */
  26:.\Generated_Source\PSoC5/I2C_COULOMB_MASTER.c **** volatile uint8 I2C_COULOMB_mstrControl;    /* Master Control byte */
  27:.\Generated_Source\PSoC5/I2C_COULOMB_MASTER.c **** 
  28:.\Generated_Source\PSoC5/I2C_COULOMB_MASTER.c **** /* Transmit buffer variables */
  29:.\Generated_Source\PSoC5/I2C_COULOMB_MASTER.c **** volatile uint8 * I2C_COULOMB_mstrRdBufPtr;     /* Pointer to Master Read buffer */
  30:.\Generated_Source\PSoC5/I2C_COULOMB_MASTER.c **** volatile uint8   I2C_COULOMB_mstrRdBufSize;    /* Master Read buffer size       */
  31:.\Generated_Source\PSoC5/I2C_COULOMB_MASTER.c **** volatile uint8   I2C_COULOMB_mstrRdBufIndex;   /* Master Read buffer Index      */
ARM GAS  C:\Users\Graziano\AppData\Local\Temp\ccpJonYe.s 			page 2


  32:.\Generated_Source\PSoC5/I2C_COULOMB_MASTER.c **** 
  33:.\Generated_Source\PSoC5/I2C_COULOMB_MASTER.c **** /* Receive buffer variables */
  34:.\Generated_Source\PSoC5/I2C_COULOMB_MASTER.c **** volatile uint8 * I2C_COULOMB_mstrWrBufPtr;     /* Pointer to Master Write buffer */
  35:.\Generated_Source\PSoC5/I2C_COULOMB_MASTER.c **** volatile uint8   I2C_COULOMB_mstrWrBufSize;    /* Master Write buffer size       */
  36:.\Generated_Source\PSoC5/I2C_COULOMB_MASTER.c **** volatile uint8   I2C_COULOMB_mstrWrBufIndex;   /* Master Write buffer Index      */
  37:.\Generated_Source\PSoC5/I2C_COULOMB_MASTER.c **** 
  38:.\Generated_Source\PSoC5/I2C_COULOMB_MASTER.c **** 
  39:.\Generated_Source\PSoC5/I2C_COULOMB_MASTER.c **** /*******************************************************************************
  40:.\Generated_Source\PSoC5/I2C_COULOMB_MASTER.c **** * Function Name: I2C_COULOMB_MasterWriteBuf
  41:.\Generated_Source\PSoC5/I2C_COULOMB_MASTER.c **** ********************************************************************************
  42:.\Generated_Source\PSoC5/I2C_COULOMB_MASTER.c **** *
  43:.\Generated_Source\PSoC5/I2C_COULOMB_MASTER.c **** * Summary:
  44:.\Generated_Source\PSoC5/I2C_COULOMB_MASTER.c **** *  Automatically writes an entire buffer of data to a slave device. Once the
  45:.\Generated_Source\PSoC5/I2C_COULOMB_MASTER.c **** *  data transfer is initiated by this function, further data transfer is handled
  46:.\Generated_Source\PSoC5/I2C_COULOMB_MASTER.c **** *  by the included ISR in byte by byte mode.
  47:.\Generated_Source\PSoC5/I2C_COULOMB_MASTER.c **** *
  48:.\Generated_Source\PSoC5/I2C_COULOMB_MASTER.c **** * Parameters:
  49:.\Generated_Source\PSoC5/I2C_COULOMB_MASTER.c **** *  slaveAddr: 7-bit slave address.
  50:.\Generated_Source\PSoC5/I2C_COULOMB_MASTER.c **** *  xferData:  Pointer to buffer of data to be sent.
  51:.\Generated_Source\PSoC5/I2C_COULOMB_MASTER.c **** *  cnt:       Size of buffer to send.
  52:.\Generated_Source\PSoC5/I2C_COULOMB_MASTER.c **** *  mode:      Transfer mode defines: start or restart condition generation at
  53:.\Generated_Source\PSoC5/I2C_COULOMB_MASTER.c **** *             begin of the transfer and complete the transfer or halt before
  54:.\Generated_Source\PSoC5/I2C_COULOMB_MASTER.c **** *             generating a stop.
  55:.\Generated_Source\PSoC5/I2C_COULOMB_MASTER.c **** *
  56:.\Generated_Source\PSoC5/I2C_COULOMB_MASTER.c **** * Return:
  57:.\Generated_Source\PSoC5/I2C_COULOMB_MASTER.c **** *  Status error - zero means no errors.
  58:.\Generated_Source\PSoC5/I2C_COULOMB_MASTER.c **** *
  59:.\Generated_Source\PSoC5/I2C_COULOMB_MASTER.c **** * Side Effects:
  60:.\Generated_Source\PSoC5/I2C_COULOMB_MASTER.c **** *  The included ISR will start transfer after start or restart condition will
  61:.\Generated_Source\PSoC5/I2C_COULOMB_MASTER.c **** *  be generated.
  62:.\Generated_Source\PSoC5/I2C_COULOMB_MASTER.c **** *
  63:.\Generated_Source\PSoC5/I2C_COULOMB_MASTER.c **** * Global variables:
  64:.\Generated_Source\PSoC5/I2C_COULOMB_MASTER.c **** *  I2C_COULOMB_mstrStatus  - used to store current status of I2C Master.
  65:.\Generated_Source\PSoC5/I2C_COULOMB_MASTER.c **** *  I2C_COULOMB_state       - used to store current state of software FSM.
  66:.\Generated_Source\PSoC5/I2C_COULOMB_MASTER.c **** *  I2C_COULOMB_mstrControl - used to control master end of transaction with
  67:.\Generated_Source\PSoC5/I2C_COULOMB_MASTER.c **** *  or without the Stop generation.
  68:.\Generated_Source\PSoC5/I2C_COULOMB_MASTER.c **** *  I2C_COULOMB_mstrWrBufPtr - used to store pointer to master write buffer.
  69:.\Generated_Source\PSoC5/I2C_COULOMB_MASTER.c **** *  I2C_COULOMB_mstrWrBufIndex - used to current index within master write
  70:.\Generated_Source\PSoC5/I2C_COULOMB_MASTER.c **** *  buffer.
  71:.\Generated_Source\PSoC5/I2C_COULOMB_MASTER.c **** *  I2C_COULOMB_mstrWrBufSize - used to store master write buffer size.
  72:.\Generated_Source\PSoC5/I2C_COULOMB_MASTER.c **** *
  73:.\Generated_Source\PSoC5/I2C_COULOMB_MASTER.c **** * Reentrant:
  74:.\Generated_Source\PSoC5/I2C_COULOMB_MASTER.c **** *  No
  75:.\Generated_Source\PSoC5/I2C_COULOMB_MASTER.c **** *
  76:.\Generated_Source\PSoC5/I2C_COULOMB_MASTER.c **** *******************************************************************************/
  77:.\Generated_Source\PSoC5/I2C_COULOMB_MASTER.c **** uint8 I2C_COULOMB_MasterWriteBuf(uint8 slaveAddress, uint8 * wrData, uint8 cnt, uint8 mode)
  78:.\Generated_Source\PSoC5/I2C_COULOMB_MASTER.c ****       
  79:.\Generated_Source\PSoC5/I2C_COULOMB_MASTER.c **** {
  27              		.loc 1 79 0
  28              		.cfi_startproc
  29              		@ args = 0, pretend = 0, frame = 0
  30              		@ frame_needed = 0, uses_anonymous_args = 0
  31              	.LVL0:
  32 0000 30B5     		push	{r4, r5, lr}
  33              	.LCFI0:
  34              		.cfi_def_cfa_offset 12
  35              		.cfi_offset 4, -12
ARM GAS  C:\Users\Graziano\AppData\Local\Temp\ccpJonYe.s 			page 3


  36              		.cfi_offset 5, -8
  37              		.cfi_offset 14, -4
  80:.\Generated_Source\PSoC5/I2C_COULOMB_MASTER.c ****     uint8 errStatus;
  81:.\Generated_Source\PSoC5/I2C_COULOMB_MASTER.c **** 
  82:.\Generated_Source\PSoC5/I2C_COULOMB_MASTER.c ****     errStatus = I2C_COULOMB_MSTR_NOT_READY;
  83:.\Generated_Source\PSoC5/I2C_COULOMB_MASTER.c **** 
  84:.\Generated_Source\PSoC5/I2C_COULOMB_MASTER.c ****     if(NULL != wrData)
  38              		.loc 1 84 0
  39 0002 C1B1     		cbz	r1, .L10
  85:.\Generated_Source\PSoC5/I2C_COULOMB_MASTER.c ****     {
  86:.\Generated_Source\PSoC5/I2C_COULOMB_MASTER.c ****         /* Check I2C state before transfer: valid are IDLE or HALT */
  87:.\Generated_Source\PSoC5/I2C_COULOMB_MASTER.c ****         if(I2C_COULOMB_SM_IDLE == I2C_COULOMB_state)
  40              		.loc 1 87 0
  41 0004 204C     		ldr	r4, .L19
  42 0006 2578     		ldrb	r5, [r4, #0]	@ zero_extendqisi2
  43 0008 102D     		cmp	r5, #16
  44 000a 07D1     		bne	.L3
  88:.\Generated_Source\PSoC5/I2C_COULOMB_MASTER.c ****         {
  89:.\Generated_Source\PSoC5/I2C_COULOMB_MASTER.c ****             /* Check if free: Master is ready to transaction */
  90:.\Generated_Source\PSoC5/I2C_COULOMB_MASTER.c ****             if(I2C_COULOMB_CHECK_BUS_FREE(I2C_COULOMB_MCSR_REG))
  45              		.loc 1 90 0
  46 000c 1F4C     		ldr	r4, .L19+4
  47 000e 2478     		ldrb	r4, [r4, #0]	@ zero_extendqisi2
  48 0010 04F00804 		and	r4, r4, #8
  49 0014 E4B2     		uxtb	r4, r4
  50 0016 84B1     		cbz	r4, .L4
  91:.\Generated_Source\PSoC5/I2C_COULOMB_MASTER.c ****             {
  92:.\Generated_Source\PSoC5/I2C_COULOMB_MASTER.c ****                 errStatus = I2C_COULOMB_MSTR_NO_ERROR;
  93:.\Generated_Source\PSoC5/I2C_COULOMB_MASTER.c ****             }
  94:.\Generated_Source\PSoC5/I2C_COULOMB_MASTER.c ****             else
  95:.\Generated_Source\PSoC5/I2C_COULOMB_MASTER.c ****             {
  96:.\Generated_Source\PSoC5/I2C_COULOMB_MASTER.c ****                 errStatus = I2C_COULOMB_MSTR_BUS_BUSY;
  51              		.loc 1 96 0
  52 0018 0120     		movs	r0, #1
  53              	.LVL1:
  54 001a 30BD     		pop	{r4, r5, pc}
  55              	.LVL2:
  56              	.L3:
  97:.\Generated_Source\PSoC5/I2C_COULOMB_MASTER.c ****             }
  98:.\Generated_Source\PSoC5/I2C_COULOMB_MASTER.c ****         }
  99:.\Generated_Source\PSoC5/I2C_COULOMB_MASTER.c ****         else if(I2C_COULOMB_SM_MSTR_HALT == I2C_COULOMB_state)
  57              		.loc 1 99 0
  58 001c 2478     		ldrb	r4, [r4, #0]	@ zero_extendqisi2
  59 001e 602C     		cmp	r4, #96
  60 0020 09D1     		bne	.L10
  61              	.LVL3:
 100:.\Generated_Source\PSoC5/I2C_COULOMB_MASTER.c ****         {
 101:.\Generated_Source\PSoC5/I2C_COULOMB_MASTER.c ****             errStatus = I2C_COULOMB_MSTR_NO_ERROR;
 102:.\Generated_Source\PSoC5/I2C_COULOMB_MASTER.c **** 
 103:.\Generated_Source\PSoC5/I2C_COULOMB_MASTER.c ****             CyIntClearPending(I2C_COULOMB_ISR_NUMBER);
  62              		.loc 1 103 0
  63 0022 1B4C     		ldr	r4, .L19+8
  64 0024 4FF40045 		mov	r5, #32768
  65 0028 2560     		str	r5, [r4, #0]
 104:.\Generated_Source\PSoC5/I2C_COULOMB_MASTER.c ****             I2C_COULOMB_mstrStatus &= ((uint8) ~I2C_COULOMB_MSTAT_XFER_HALT);
  66              		.loc 1 104 0
  67 002a 1A4C     		ldr	r4, .L19+12
ARM GAS  C:\Users\Graziano\AppData\Local\Temp\ccpJonYe.s 			page 4


  68 002c 2578     		ldrb	r5, [r4, #0]	@ zero_extendqisi2
  69 002e 05F0F705 		and	r5, r5, #247
  70 0032 2570     		strb	r5, [r4, #0]
  71 0034 01E0     		b	.L4
  72              	.LVL4:
  73              	.L10:
  82:.\Generated_Source\PSoC5/I2C_COULOMB_MASTER.c ****     errStatus = I2C_COULOMB_MSTR_NOT_READY;
  74              		.loc 1 82 0
  75 0036 0220     		movs	r0, #2
  76              	.LVL5:
  77 0038 30BD     		pop	{r4, r5, pc}
  78              	.LVL6:
  79              	.L4:
 105:.\Generated_Source\PSoC5/I2C_COULOMB_MASTER.c ****         }
 106:.\Generated_Source\PSoC5/I2C_COULOMB_MASTER.c ****         else
 107:.\Generated_Source\PSoC5/I2C_COULOMB_MASTER.c ****         {
 108:.\Generated_Source\PSoC5/I2C_COULOMB_MASTER.c ****             /* errStatus = I2C_COULOMB_MSTR_NOT_READY was send before */
 109:.\Generated_Source\PSoC5/I2C_COULOMB_MASTER.c ****         }
 110:.\Generated_Source\PSoC5/I2C_COULOMB_MASTER.c **** 
 111:.\Generated_Source\PSoC5/I2C_COULOMB_MASTER.c ****         if(I2C_COULOMB_MSTR_NO_ERROR == errStatus)
 112:.\Generated_Source\PSoC5/I2C_COULOMB_MASTER.c ****         {
 113:.\Generated_Source\PSoC5/I2C_COULOMB_MASTER.c ****             I2C_COULOMB_state    = I2C_COULOMB_SM_MSTR_WR_ADDR;
  80              		.loc 1 113 0
  81 003a 134C     		ldr	r4, .L19
  82 003c 4525     		movs	r5, #69
  83 003e 2570     		strb	r5, [r4, #0]
 114:.\Generated_Source\PSoC5/I2C_COULOMB_MASTER.c ****             I2C_COULOMB_DATA_REG = ((uint8) (slaveAddress << I2C_COULOMB_SLAVE_ADDR_SHIFT));
  84              		.loc 1 114 0
  85 0040 4000     		lsls	r0, r0, #1
  86              	.LVL7:
  87 0042 154C     		ldr	r4, .L19+16
  88 0044 C0B2     		uxtb	r0, r0
  89 0046 2070     		strb	r0, [r4, #0]
 115:.\Generated_Source\PSoC5/I2C_COULOMB_MASTER.c **** 
 116:.\Generated_Source\PSoC5/I2C_COULOMB_MASTER.c ****             I2C_COULOMB_mstrWrBufIndex = 0u;
  90              		.loc 1 116 0
  91 0048 1448     		ldr	r0, .L19+20
  92 004a 0024     		movs	r4, #0
  93 004c 0470     		strb	r4, [r0, #0]
 117:.\Generated_Source\PSoC5/I2C_COULOMB_MASTER.c ****             I2C_COULOMB_mstrWrBufSize  = cnt;
  94              		.loc 1 117 0
  95 004e 1448     		ldr	r0, .L19+24
 118:.\Generated_Source\PSoC5/I2C_COULOMB_MASTER.c ****             I2C_COULOMB_mstrWrBufPtr   = (volatile uint8 *) wrData;
 119:.\Generated_Source\PSoC5/I2C_COULOMB_MASTER.c **** 
 120:.\Generated_Source\PSoC5/I2C_COULOMB_MASTER.c ****             I2C_COULOMB_mstrControl = mode;    /* Save transaction mode */
 121:.\Generated_Source\PSoC5/I2C_COULOMB_MASTER.c **** 
 122:.\Generated_Source\PSoC5/I2C_COULOMB_MASTER.c ****             /* Generate a Start or ReStart depends on mode */
 123:.\Generated_Source\PSoC5/I2C_COULOMB_MASTER.c ****             if(I2C_COULOMB_CHECK_RESTART(mode))
  96              		.loc 1 123 0
  97 0050 13F0010F 		tst	r3, #1
 117:.\Generated_Source\PSoC5/I2C_COULOMB_MASTER.c ****             I2C_COULOMB_mstrWrBufSize  = cnt;
  98              		.loc 1 117 0
  99 0054 0270     		strb	r2, [r0, #0]
 118:.\Generated_Source\PSoC5/I2C_COULOMB_MASTER.c ****             I2C_COULOMB_mstrWrBufPtr   = (volatile uint8 *) wrData;
 100              		.loc 1 118 0
 101 0056 134A     		ldr	r2, .L19+28
 102              	.LVL8:
ARM GAS  C:\Users\Graziano\AppData\Local\Temp\ccpJonYe.s 			page 5


 103 0058 1160     		str	r1, [r2, #0]
 120:.\Generated_Source\PSoC5/I2C_COULOMB_MASTER.c ****             I2C_COULOMB_mstrControl = mode;    /* Save transaction mode */
 104              		.loc 1 120 0
 105 005a 1349     		ldr	r1, .L19+32
 106              	.LVL9:
 107 005c 0B70     		strb	r3, [r1, #0]
 108 005e 0B4B     		ldr	r3, .L19+4
 109              	.LVL10:
 110              		.loc 1 123 0
 111 0060 04D0     		beq	.L18
 112              	.L7:
 124:.\Generated_Source\PSoC5/I2C_COULOMB_MASTER.c ****             {
 125:.\Generated_Source\PSoC5/I2C_COULOMB_MASTER.c ****                 I2C_COULOMB_GENERATE_RESTART;
 113              		.loc 1 125 0
 114 0062 1222     		movs	r2, #18
 115 0064 1A70     		strb	r2, [r3, #0]
 116 0066 0420     		movs	r0, #4
 117 0068 104B     		ldr	r3, .L19+36
 118 006a 00E0     		b	.L16
 119              	.L18:
 126:.\Generated_Source\PSoC5/I2C_COULOMB_MASTER.c ****             }
 127:.\Generated_Source\PSoC5/I2C_COULOMB_MASTER.c ****             else
 128:.\Generated_Source\PSoC5/I2C_COULOMB_MASTER.c ****             {
 129:.\Generated_Source\PSoC5/I2C_COULOMB_MASTER.c ****                 I2C_COULOMB_GENERATE_START;
 120              		.loc 1 129 0
 121 006c 0120     		movs	r0, #1
 122              	.L16:
 130:.\Generated_Source\PSoC5/I2C_COULOMB_MASTER.c ****             }
 131:.\Generated_Source\PSoC5/I2C_COULOMB_MASTER.c **** 
 132:.\Generated_Source\PSoC5/I2C_COULOMB_MASTER.c ****             I2C_COULOMB_mstrStatus &= ((uint8) ~I2C_COULOMB_MSTAT_WR_CMPLT);
 123              		.loc 1 132 0
 124 006e 0949     		ldr	r1, .L19+12
 129:.\Generated_Source\PSoC5/I2C_COULOMB_MASTER.c ****                 I2C_COULOMB_GENERATE_START;
 125              		.loc 1 129 0
 126 0070 1870     		strb	r0, [r3, #0]
 127              		.loc 1 132 0
 128 0072 0B78     		ldrb	r3, [r1, #0]	@ zero_extendqisi2
 133:.\Generated_Source\PSoC5/I2C_COULOMB_MASTER.c **** 
 134:.\Generated_Source\PSoC5/I2C_COULOMB_MASTER.c ****             I2C_COULOMB_EnableInt();   /* Enable intr to complete transfer */
 129              		.loc 1 134 0
 130 0074 4FF40042 		mov	r2, #32768
 132:.\Generated_Source\PSoC5/I2C_COULOMB_MASTER.c ****             I2C_COULOMB_mstrStatus &= ((uint8) ~I2C_COULOMB_MSTAT_WR_CMPLT);
 131              		.loc 1 132 0
 132 0078 03F0FD00 		and	r0, r3, #253
 133 007c 0870     		strb	r0, [r1, #0]
 134              		.loc 1 134 0
 135 007e 0C49     		ldr	r1, .L19+40
 136 0080 0020     		movs	r0, #0
 137 0082 0A60     		str	r2, [r1, #0]
 138 0084 30BD     		pop	{r4, r5, pc}
 139              	.L20:
 140 0086 00BF     		.align	2
 141              	.L19:
 142 0088 00000000 		.word	I2C_COULOMB_state
 143 008c D9490040 		.word	1073760729
 144 0090 80E200E0 		.word	-536812928
 145 0094 00000000 		.word	I2C_COULOMB_mstrStatus
ARM GAS  C:\Users\Graziano\AppData\Local\Temp\ccpJonYe.s 			page 6


 146 0098 D8490040 		.word	1073760728
 147 009c 00000000 		.word	I2C_COULOMB_mstrWrBufIndex
 148 00a0 00000000 		.word	I2C_COULOMB_mstrWrBufSize
 149 00a4 00000000 		.word	I2C_COULOMB_mstrWrBufPtr
 150 00a8 00000000 		.word	I2C_COULOMB_mstrControl
 151 00ac D7490040 		.word	1073760727
 152 00b0 00E100E0 		.word	-536813312
 153              		.cfi_endproc
 154              	.LFE0:
 155              		.size	I2C_COULOMB_MasterWriteBuf, .-I2C_COULOMB_MasterWriteBuf
 156              		.section	.text.I2C_COULOMB_MasterReadBuf,"ax",%progbits
 157              		.align	1
 158              		.global	I2C_COULOMB_MasterReadBuf
 159              		.thumb
 160              		.thumb_func
 161              		.type	I2C_COULOMB_MasterReadBuf, %function
 162              	I2C_COULOMB_MasterReadBuf:
 163              	.LFB1:
 135:.\Generated_Source\PSoC5/I2C_COULOMB_MASTER.c ****         }
 136:.\Generated_Source\PSoC5/I2C_COULOMB_MASTER.c ****     }
 137:.\Generated_Source\PSoC5/I2C_COULOMB_MASTER.c **** 
 138:.\Generated_Source\PSoC5/I2C_COULOMB_MASTER.c ****     return(errStatus);
 139:.\Generated_Source\PSoC5/I2C_COULOMB_MASTER.c **** }
 140:.\Generated_Source\PSoC5/I2C_COULOMB_MASTER.c **** 
 141:.\Generated_Source\PSoC5/I2C_COULOMB_MASTER.c **** 
 142:.\Generated_Source\PSoC5/I2C_COULOMB_MASTER.c **** /*******************************************************************************
 143:.\Generated_Source\PSoC5/I2C_COULOMB_MASTER.c **** * Function Name: I2C_COULOMB_MasterReadBuf
 144:.\Generated_Source\PSoC5/I2C_COULOMB_MASTER.c **** ********************************************************************************
 145:.\Generated_Source\PSoC5/I2C_COULOMB_MASTER.c **** *
 146:.\Generated_Source\PSoC5/I2C_COULOMB_MASTER.c **** * Summary:
 147:.\Generated_Source\PSoC5/I2C_COULOMB_MASTER.c **** *  Automatically writes an entire buffer of data to a slave device. Once the
 148:.\Generated_Source\PSoC5/I2C_COULOMB_MASTER.c **** *  data transfer is initiated by this function, further data transfer is handled
 149:.\Generated_Source\PSoC5/I2C_COULOMB_MASTER.c **** *  by the included ISR in byte by byte mode.
 150:.\Generated_Source\PSoC5/I2C_COULOMB_MASTER.c **** *
 151:.\Generated_Source\PSoC5/I2C_COULOMB_MASTER.c **** * Parameters:
 152:.\Generated_Source\PSoC5/I2C_COULOMB_MASTER.c **** *  slaveAddr: 7-bit slave address.
 153:.\Generated_Source\PSoC5/I2C_COULOMB_MASTER.c **** *  xferData:  Pointer to buffer where to put data from slave.
 154:.\Generated_Source\PSoC5/I2C_COULOMB_MASTER.c **** *  cnt:       Size of buffer to read.
 155:.\Generated_Source\PSoC5/I2C_COULOMB_MASTER.c **** *  mode:      Transfer mode defines: start or restart condition generation at
 156:.\Generated_Source\PSoC5/I2C_COULOMB_MASTER.c **** *             begin of the transfer and complete the transfer or halt before
 157:.\Generated_Source\PSoC5/I2C_COULOMB_MASTER.c **** *             generating a stop.
 158:.\Generated_Source\PSoC5/I2C_COULOMB_MASTER.c **** *
 159:.\Generated_Source\PSoC5/I2C_COULOMB_MASTER.c **** * Return:
 160:.\Generated_Source\PSoC5/I2C_COULOMB_MASTER.c **** *  Status error - zero means no errors.
 161:.\Generated_Source\PSoC5/I2C_COULOMB_MASTER.c **** *
 162:.\Generated_Source\PSoC5/I2C_COULOMB_MASTER.c **** * Side Effects:
 163:.\Generated_Source\PSoC5/I2C_COULOMB_MASTER.c **** *  The included ISR will start transfer after start or restart condition will
 164:.\Generated_Source\PSoC5/I2C_COULOMB_MASTER.c **** *  be generated.
 165:.\Generated_Source\PSoC5/I2C_COULOMB_MASTER.c **** *
 166:.\Generated_Source\PSoC5/I2C_COULOMB_MASTER.c **** * Global variables:
 167:.\Generated_Source\PSoC5/I2C_COULOMB_MASTER.c **** *  I2C_COULOMB_mstrStatus  - used to store current status of I2C Master.
 168:.\Generated_Source\PSoC5/I2C_COULOMB_MASTER.c **** *  I2C_COULOMB_state       - used to store current state of software FSM.
 169:.\Generated_Source\PSoC5/I2C_COULOMB_MASTER.c **** *  I2C_COULOMB_mstrControl - used to control master end of transaction with
 170:.\Generated_Source\PSoC5/I2C_COULOMB_MASTER.c **** *  or without the Stop generation.
 171:.\Generated_Source\PSoC5/I2C_COULOMB_MASTER.c **** *  I2C_COULOMB_mstrRdBufPtr - used to store pointer to master write buffer.
 172:.\Generated_Source\PSoC5/I2C_COULOMB_MASTER.c **** *  I2C_COULOMB_mstrRdBufIndex - used to current index within master write
 173:.\Generated_Source\PSoC5/I2C_COULOMB_MASTER.c **** *  buffer.
ARM GAS  C:\Users\Graziano\AppData\Local\Temp\ccpJonYe.s 			page 7


 174:.\Generated_Source\PSoC5/I2C_COULOMB_MASTER.c **** *  I2C_COULOMB_mstrRdBufSize - used to store master write buffer size.
 175:.\Generated_Source\PSoC5/I2C_COULOMB_MASTER.c **** *
 176:.\Generated_Source\PSoC5/I2C_COULOMB_MASTER.c **** * Reentrant:
 177:.\Generated_Source\PSoC5/I2C_COULOMB_MASTER.c **** *  No
 178:.\Generated_Source\PSoC5/I2C_COULOMB_MASTER.c **** *
 179:.\Generated_Source\PSoC5/I2C_COULOMB_MASTER.c **** *******************************************************************************/
 180:.\Generated_Source\PSoC5/I2C_COULOMB_MASTER.c **** uint8 I2C_COULOMB_MasterReadBuf(uint8 slaveAddress, uint8 * rdData, uint8 cnt, uint8 mode)
 181:.\Generated_Source\PSoC5/I2C_COULOMB_MASTER.c ****       
 182:.\Generated_Source\PSoC5/I2C_COULOMB_MASTER.c **** {
 164              		.loc 1 182 0
 165              		.cfi_startproc
 166              		@ args = 0, pretend = 0, frame = 0
 167              		@ frame_needed = 0, uses_anonymous_args = 0
 168              	.LVL11:
 169 0000 30B5     		push	{r4, r5, lr}
 170              	.LCFI1:
 171              		.cfi_def_cfa_offset 12
 172              		.cfi_offset 4, -12
 173              		.cfi_offset 5, -8
 174              		.cfi_offset 14, -4
 183:.\Generated_Source\PSoC5/I2C_COULOMB_MASTER.c ****     uint8 errStatus;
 184:.\Generated_Source\PSoC5/I2C_COULOMB_MASTER.c **** 
 185:.\Generated_Source\PSoC5/I2C_COULOMB_MASTER.c ****     errStatus = I2C_COULOMB_MSTR_NOT_READY;
 186:.\Generated_Source\PSoC5/I2C_COULOMB_MASTER.c **** 
 187:.\Generated_Source\PSoC5/I2C_COULOMB_MASTER.c ****     if(NULL != rdData)
 175              		.loc 1 187 0
 176 0002 C1B1     		cbz	r1, .L30
 188:.\Generated_Source\PSoC5/I2C_COULOMB_MASTER.c ****     {
 189:.\Generated_Source\PSoC5/I2C_COULOMB_MASTER.c ****         /* Check I2C state before transfer: valid are IDLE or HALT */
 190:.\Generated_Source\PSoC5/I2C_COULOMB_MASTER.c ****         if(I2C_COULOMB_SM_IDLE == I2C_COULOMB_state)
 177              		.loc 1 190 0
 178 0004 214C     		ldr	r4, .L38
 179 0006 2578     		ldrb	r5, [r4, #0]	@ zero_extendqisi2
 180 0008 102D     		cmp	r5, #16
 181 000a 07D1     		bne	.L23
 191:.\Generated_Source\PSoC5/I2C_COULOMB_MASTER.c ****         {
 192:.\Generated_Source\PSoC5/I2C_COULOMB_MASTER.c ****             /* Check if free: Master is ready to transaction */
 193:.\Generated_Source\PSoC5/I2C_COULOMB_MASTER.c ****             if(I2C_COULOMB_CHECK_BUS_FREE(I2C_COULOMB_MCSR_REG))
 182              		.loc 1 193 0
 183 000c 204C     		ldr	r4, .L38+4
 184 000e 2478     		ldrb	r4, [r4, #0]	@ zero_extendqisi2
 185 0010 04F00804 		and	r4, r4, #8
 186 0014 E4B2     		uxtb	r4, r4
 187 0016 84B1     		cbz	r4, .L24
 194:.\Generated_Source\PSoC5/I2C_COULOMB_MASTER.c ****             {
 195:.\Generated_Source\PSoC5/I2C_COULOMB_MASTER.c ****                 errStatus = I2C_COULOMB_MSTR_NO_ERROR;
 196:.\Generated_Source\PSoC5/I2C_COULOMB_MASTER.c ****             }
 197:.\Generated_Source\PSoC5/I2C_COULOMB_MASTER.c ****             else
 198:.\Generated_Source\PSoC5/I2C_COULOMB_MASTER.c ****             {
 199:.\Generated_Source\PSoC5/I2C_COULOMB_MASTER.c ****                 errStatus = I2C_COULOMB_MSTR_BUS_BUSY;
 188              		.loc 1 199 0
 189 0018 0120     		movs	r0, #1
 190              	.LVL12:
 191 001a 30BD     		pop	{r4, r5, pc}
 192              	.LVL13:
 193              	.L23:
 200:.\Generated_Source\PSoC5/I2C_COULOMB_MASTER.c ****             }
ARM GAS  C:\Users\Graziano\AppData\Local\Temp\ccpJonYe.s 			page 8


 201:.\Generated_Source\PSoC5/I2C_COULOMB_MASTER.c ****         }
 202:.\Generated_Source\PSoC5/I2C_COULOMB_MASTER.c ****         else if(I2C_COULOMB_SM_MSTR_HALT == I2C_COULOMB_state)
 194              		.loc 1 202 0
 195 001c 2478     		ldrb	r4, [r4, #0]	@ zero_extendqisi2
 196 001e 602C     		cmp	r4, #96
 197 0020 09D1     		bne	.L30
 198              	.LVL14:
 203:.\Generated_Source\PSoC5/I2C_COULOMB_MASTER.c ****         {
 204:.\Generated_Source\PSoC5/I2C_COULOMB_MASTER.c ****             errStatus = I2C_COULOMB_MSTR_NO_ERROR;
 205:.\Generated_Source\PSoC5/I2C_COULOMB_MASTER.c **** 
 206:.\Generated_Source\PSoC5/I2C_COULOMB_MASTER.c ****             CyIntClearPending(I2C_COULOMB_ISR_NUMBER);
 199              		.loc 1 206 0
 200 0022 1C4C     		ldr	r4, .L38+8
 201 0024 4FF40045 		mov	r5, #32768
 202 0028 2560     		str	r5, [r4, #0]
 207:.\Generated_Source\PSoC5/I2C_COULOMB_MASTER.c ****             I2C_COULOMB_mstrStatus &= ((uint8) ~I2C_COULOMB_MSTAT_XFER_HALT);
 203              		.loc 1 207 0
 204 002a 1B4C     		ldr	r4, .L38+12
 205 002c 2578     		ldrb	r5, [r4, #0]	@ zero_extendqisi2
 206 002e 05F0F705 		and	r5, r5, #247
 207 0032 2570     		strb	r5, [r4, #0]
 208 0034 01E0     		b	.L24
 209              	.LVL15:
 210              	.L30:
 185:.\Generated_Source\PSoC5/I2C_COULOMB_MASTER.c ****     errStatus = I2C_COULOMB_MSTR_NOT_READY;
 211              		.loc 1 185 0
 212 0036 0220     		movs	r0, #2
 213              	.LVL16:
 214 0038 30BD     		pop	{r4, r5, pc}
 215              	.LVL17:
 216              	.L24:
 208:.\Generated_Source\PSoC5/I2C_COULOMB_MASTER.c ****         }
 209:.\Generated_Source\PSoC5/I2C_COULOMB_MASTER.c ****         else
 210:.\Generated_Source\PSoC5/I2C_COULOMB_MASTER.c ****         {
 211:.\Generated_Source\PSoC5/I2C_COULOMB_MASTER.c ****             /* errStatus = I2C_COULOMB_MSTR_NOT_READY was send before */
 212:.\Generated_Source\PSoC5/I2C_COULOMB_MASTER.c ****         }
 213:.\Generated_Source\PSoC5/I2C_COULOMB_MASTER.c **** 
 214:.\Generated_Source\PSoC5/I2C_COULOMB_MASTER.c ****         if(I2C_COULOMB_MSTR_NO_ERROR == errStatus)
 215:.\Generated_Source\PSoC5/I2C_COULOMB_MASTER.c ****         {
 216:.\Generated_Source\PSoC5/I2C_COULOMB_MASTER.c ****             I2C_COULOMB_state    = I2C_COULOMB_SM_MSTR_RD_ADDR;
 217              		.loc 1 216 0
 218 003a 144C     		ldr	r4, .L38
 217:.\Generated_Source\PSoC5/I2C_COULOMB_MASTER.c ****             I2C_COULOMB_DATA_REG = (((uint8) (slaveAddress << I2C_COULOMB_SLAVE_ADDR_SHIFT)) |
 219              		.loc 1 217 0
 220 003c 4000     		lsls	r0, r0, #1
 221              	.LVL18:
 216:.\Generated_Source\PSoC5/I2C_COULOMB_MASTER.c ****             I2C_COULOMB_state    = I2C_COULOMB_SM_MSTR_RD_ADDR;
 222              		.loc 1 216 0
 223 003e 4925     		movs	r5, #73
 224 0040 2570     		strb	r5, [r4, #0]
 225              		.loc 1 217 0
 226 0042 40F00104 		orr	r4, r0, #1
 227 0046 E0B2     		uxtb	r0, r4
 228 0048 144C     		ldr	r4, .L38+16
 229 004a 2070     		strb	r0, [r4, #0]
 218:.\Generated_Source\PSoC5/I2C_COULOMB_MASTER.c ****                                                    I2C_COULOMB_READ_FLAG);
 219:.\Generated_Source\PSoC5/I2C_COULOMB_MASTER.c **** 
ARM GAS  C:\Users\Graziano\AppData\Local\Temp\ccpJonYe.s 			page 9


 220:.\Generated_Source\PSoC5/I2C_COULOMB_MASTER.c ****             I2C_COULOMB_mstrRdBufIndex  = 0u;
 230              		.loc 1 220 0
 231 004c 1448     		ldr	r0, .L38+20
 232 004e 0024     		movs	r4, #0
 233 0050 0470     		strb	r4, [r0, #0]
 221:.\Generated_Source\PSoC5/I2C_COULOMB_MASTER.c ****             I2C_COULOMB_mstrRdBufSize   = cnt;
 234              		.loc 1 221 0
 235 0052 1448     		ldr	r0, .L38+24
 222:.\Generated_Source\PSoC5/I2C_COULOMB_MASTER.c ****             I2C_COULOMB_mstrRdBufPtr    = (volatile uint8 *) rdData;
 223:.\Generated_Source\PSoC5/I2C_COULOMB_MASTER.c **** 
 224:.\Generated_Source\PSoC5/I2C_COULOMB_MASTER.c ****             I2C_COULOMB_mstrControl = mode;    /* Save transaction mode */
 225:.\Generated_Source\PSoC5/I2C_COULOMB_MASTER.c **** 
 226:.\Generated_Source\PSoC5/I2C_COULOMB_MASTER.c ****             /* Generate a Start or ReStart depends on mode */
 227:.\Generated_Source\PSoC5/I2C_COULOMB_MASTER.c ****             if(I2C_COULOMB_CHECK_RESTART(mode))
 236              		.loc 1 227 0
 237 0054 13F0010F 		tst	r3, #1
 221:.\Generated_Source\PSoC5/I2C_COULOMB_MASTER.c ****             I2C_COULOMB_mstrRdBufSize   = cnt;
 238              		.loc 1 221 0
 239 0058 0270     		strb	r2, [r0, #0]
 222:.\Generated_Source\PSoC5/I2C_COULOMB_MASTER.c ****             I2C_COULOMB_mstrRdBufPtr    = (volatile uint8 *) rdData;
 240              		.loc 1 222 0
 241 005a 134A     		ldr	r2, .L38+28
 242              	.LVL19:
 243 005c 1160     		str	r1, [r2, #0]
 224:.\Generated_Source\PSoC5/I2C_COULOMB_MASTER.c ****             I2C_COULOMB_mstrControl = mode;    /* Save transaction mode */
 244              		.loc 1 224 0
 245 005e 1349     		ldr	r1, .L38+32
 246              	.LVL20:
 247 0060 0B70     		strb	r3, [r1, #0]
 248 0062 0B4B     		ldr	r3, .L38+4
 249              	.LVL21:
 250              		.loc 1 227 0
 251 0064 04D0     		beq	.L37
 252              	.L27:
 228:.\Generated_Source\PSoC5/I2C_COULOMB_MASTER.c ****             {
 229:.\Generated_Source\PSoC5/I2C_COULOMB_MASTER.c ****                 I2C_COULOMB_GENERATE_RESTART;
 253              		.loc 1 229 0
 254 0066 1222     		movs	r2, #18
 255 0068 1A70     		strb	r2, [r3, #0]
 256 006a 0420     		movs	r0, #4
 257 006c 104B     		ldr	r3, .L38+36
 258 006e 00E0     		b	.L36
 259              	.L37:
 230:.\Generated_Source\PSoC5/I2C_COULOMB_MASTER.c ****             }
 231:.\Generated_Source\PSoC5/I2C_COULOMB_MASTER.c ****             else
 232:.\Generated_Source\PSoC5/I2C_COULOMB_MASTER.c ****             {
 233:.\Generated_Source\PSoC5/I2C_COULOMB_MASTER.c ****                 I2C_COULOMB_GENERATE_START;
 260              		.loc 1 233 0
 261 0070 0120     		movs	r0, #1
 262              	.L36:
 234:.\Generated_Source\PSoC5/I2C_COULOMB_MASTER.c ****             }
 235:.\Generated_Source\PSoC5/I2C_COULOMB_MASTER.c **** 
 236:.\Generated_Source\PSoC5/I2C_COULOMB_MASTER.c ****             I2C_COULOMB_mstrStatus &= ((uint8) ~I2C_COULOMB_MSTAT_RD_CMPLT);
 263              		.loc 1 236 0
 264 0072 0949     		ldr	r1, .L38+12
 233:.\Generated_Source\PSoC5/I2C_COULOMB_MASTER.c ****                 I2C_COULOMB_GENERATE_START;
 265              		.loc 1 233 0
ARM GAS  C:\Users\Graziano\AppData\Local\Temp\ccpJonYe.s 			page 10


 266 0074 1870     		strb	r0, [r3, #0]
 267              		.loc 1 236 0
 268 0076 0B78     		ldrb	r3, [r1, #0]	@ zero_extendqisi2
 237:.\Generated_Source\PSoC5/I2C_COULOMB_MASTER.c **** 
 238:.\Generated_Source\PSoC5/I2C_COULOMB_MASTER.c ****             I2C_COULOMB_EnableInt();   /* Enable intr to complete transfer */
 269              		.loc 1 238 0
 270 0078 4FF40042 		mov	r2, #32768
 236:.\Generated_Source\PSoC5/I2C_COULOMB_MASTER.c ****             I2C_COULOMB_mstrStatus &= ((uint8) ~I2C_COULOMB_MSTAT_RD_CMPLT);
 271              		.loc 1 236 0
 272 007c 03F0FE00 		and	r0, r3, #254
 273 0080 0870     		strb	r0, [r1, #0]
 274              		.loc 1 238 0
 275 0082 0C49     		ldr	r1, .L38+40
 276 0084 0020     		movs	r0, #0
 277 0086 0A60     		str	r2, [r1, #0]
 278 0088 30BD     		pop	{r4, r5, pc}
 279              	.L39:
 280 008a 00BF     		.align	2
 281              	.L38:
 282 008c 00000000 		.word	I2C_COULOMB_state
 283 0090 D9490040 		.word	1073760729
 284 0094 80E200E0 		.word	-536812928
 285 0098 00000000 		.word	I2C_COULOMB_mstrStatus
 286 009c D8490040 		.word	1073760728
 287 00a0 00000000 		.word	I2C_COULOMB_mstrRdBufIndex
 288 00a4 00000000 		.word	I2C_COULOMB_mstrRdBufSize
 289 00a8 00000000 		.word	I2C_COULOMB_mstrRdBufPtr
 290 00ac 00000000 		.word	I2C_COULOMB_mstrControl
 291 00b0 D7490040 		.word	1073760727
 292 00b4 00E100E0 		.word	-536813312
 293              		.cfi_endproc
 294              	.LFE1:
 295              		.size	I2C_COULOMB_MasterReadBuf, .-I2C_COULOMB_MasterReadBuf
 296              		.section	.text.I2C_COULOMB_MasterSendStart,"ax",%progbits
 297              		.align	1
 298              		.global	I2C_COULOMB_MasterSendStart
 299              		.thumb
 300              		.thumb_func
 301              		.type	I2C_COULOMB_MasterSendStart, %function
 302              	I2C_COULOMB_MasterSendStart:
 303              	.LFB2:
 239:.\Generated_Source\PSoC5/I2C_COULOMB_MASTER.c ****         }
 240:.\Generated_Source\PSoC5/I2C_COULOMB_MASTER.c ****     }
 241:.\Generated_Source\PSoC5/I2C_COULOMB_MASTER.c **** 
 242:.\Generated_Source\PSoC5/I2C_COULOMB_MASTER.c ****     return(errStatus);
 243:.\Generated_Source\PSoC5/I2C_COULOMB_MASTER.c **** }
 244:.\Generated_Source\PSoC5/I2C_COULOMB_MASTER.c **** 
 245:.\Generated_Source\PSoC5/I2C_COULOMB_MASTER.c **** 
 246:.\Generated_Source\PSoC5/I2C_COULOMB_MASTER.c **** /*******************************************************************************
 247:.\Generated_Source\PSoC5/I2C_COULOMB_MASTER.c **** * Function Name: I2C_COULOMB_MasterSendStart
 248:.\Generated_Source\PSoC5/I2C_COULOMB_MASTER.c **** ********************************************************************************
 249:.\Generated_Source\PSoC5/I2C_COULOMB_MASTER.c **** *
 250:.\Generated_Source\PSoC5/I2C_COULOMB_MASTER.c **** * Summary:
 251:.\Generated_Source\PSoC5/I2C_COULOMB_MASTER.c **** *  Generates Start condition and sends slave address with read/write bit.
 252:.\Generated_Source\PSoC5/I2C_COULOMB_MASTER.c **** *
 253:.\Generated_Source\PSoC5/I2C_COULOMB_MASTER.c **** * Parameters:
 254:.\Generated_Source\PSoC5/I2C_COULOMB_MASTER.c **** *  slaveAddress:  7-bit slave address.
ARM GAS  C:\Users\Graziano\AppData\Local\Temp\ccpJonYe.s 			page 11


 255:.\Generated_Source\PSoC5/I2C_COULOMB_MASTER.c **** *  R_nW:          Zero, send write command, non-zero send read command.
 256:.\Generated_Source\PSoC5/I2C_COULOMB_MASTER.c **** *
 257:.\Generated_Source\PSoC5/I2C_COULOMB_MASTER.c **** * Return:
 258:.\Generated_Source\PSoC5/I2C_COULOMB_MASTER.c **** *  Status error - zero means no errors.
 259:.\Generated_Source\PSoC5/I2C_COULOMB_MASTER.c **** *
 260:.\Generated_Source\PSoC5/I2C_COULOMB_MASTER.c **** * Side Effects:
 261:.\Generated_Source\PSoC5/I2C_COULOMB_MASTER.c **** *  This function is entered without a 'byte complete' bit set in the I2C_CSR
 262:.\Generated_Source\PSoC5/I2C_COULOMB_MASTER.c **** *  register. It does not exit until it will be set.
 263:.\Generated_Source\PSoC5/I2C_COULOMB_MASTER.c **** *
 264:.\Generated_Source\PSoC5/I2C_COULOMB_MASTER.c **** * Global variables:
 265:.\Generated_Source\PSoC5/I2C_COULOMB_MASTER.c **** *  I2C_COULOMB_state - used to store current state of software FSM.
 266:.\Generated_Source\PSoC5/I2C_COULOMB_MASTER.c **** *
 267:.\Generated_Source\PSoC5/I2C_COULOMB_MASTER.c **** * Reentrant:
 268:.\Generated_Source\PSoC5/I2C_COULOMB_MASTER.c **** *  No
 269:.\Generated_Source\PSoC5/I2C_COULOMB_MASTER.c **** *
 270:.\Generated_Source\PSoC5/I2C_COULOMB_MASTER.c **** *******************************************************************************/
 271:.\Generated_Source\PSoC5/I2C_COULOMB_MASTER.c **** uint8 I2C_COULOMB_MasterSendStart(uint8 slaveAddress, uint8 R_nW)
 272:.\Generated_Source\PSoC5/I2C_COULOMB_MASTER.c ****       
 273:.\Generated_Source\PSoC5/I2C_COULOMB_MASTER.c **** {
 304              		.loc 1 273 0
 305              		.cfi_startproc
 306              		@ args = 0, pretend = 0, frame = 0
 307              		@ frame_needed = 0, uses_anonymous_args = 0
 308              	.LVL22:
 309 0000 10B5     		push	{r4, lr}
 310              	.LCFI2:
 311              		.cfi_def_cfa_offset 8
 312              		.cfi_offset 4, -8
 313              		.cfi_offset 14, -4
 274:.\Generated_Source\PSoC5/I2C_COULOMB_MASTER.c ****     uint8 errStatus;
 275:.\Generated_Source\PSoC5/I2C_COULOMB_MASTER.c **** 
 276:.\Generated_Source\PSoC5/I2C_COULOMB_MASTER.c ****     errStatus = I2C_COULOMB_MSTR_NOT_READY;
 277:.\Generated_Source\PSoC5/I2C_COULOMB_MASTER.c **** 
 278:.\Generated_Source\PSoC5/I2C_COULOMB_MASTER.c ****     /* If IDLE, check if bus is free */
 279:.\Generated_Source\PSoC5/I2C_COULOMB_MASTER.c ****     if(I2C_COULOMB_SM_IDLE == I2C_COULOMB_state)
 314              		.loc 1 279 0
 315 0002 174B     		ldr	r3, .L53
 316 0004 1A78     		ldrb	r2, [r3, #0]	@ zero_extendqisi2
 317 0006 102A     		cmp	r2, #16
 318 0008 24D1     		bne	.L45
 280:.\Generated_Source\PSoC5/I2C_COULOMB_MASTER.c ****     {
 281:.\Generated_Source\PSoC5/I2C_COULOMB_MASTER.c ****         /* If bus is free, generate Start condition */
 282:.\Generated_Source\PSoC5/I2C_COULOMB_MASTER.c ****         if(I2C_COULOMB_CHECK_BUS_FREE(I2C_COULOMB_MCSR_REG))
 319              		.loc 1 282 0
 320 000a 164A     		ldr	r2, .L53+4
 321 000c 1278     		ldrb	r2, [r2, #0]	@ zero_extendqisi2
 322 000e 02F00802 		and	r2, r2, #8
 323 0012 D2B2     		uxtb	r2, r2
 324 0014 02BB     		cbnz	r2, .L46
 283:.\Generated_Source\PSoC5/I2C_COULOMB_MASTER.c ****         {
 284:.\Generated_Source\PSoC5/I2C_COULOMB_MASTER.c ****             I2C_COULOMB_DisableInt();  /* Disable ISR for Manual functions */
 325              		.loc 1 284 0
 326 0016 144A     		ldr	r2, .L53+8
 327 0018 4FF40044 		mov	r4, #32768
 285:.\Generated_Source\PSoC5/I2C_COULOMB_MASTER.c **** 
 286:.\Generated_Source\PSoC5/I2C_COULOMB_MASTER.c ****             slaveAddress = ((uint8) (slaveAddress << I2C_COULOMB_SLAVE_ADDR_SHIFT)); /* Set Address
 328              		.loc 1 286 0
ARM GAS  C:\Users\Graziano\AppData\Local\Temp\ccpJonYe.s 			page 12


 329 001c 4000     		lsls	r0, r0, #1
 330              	.LVL23:
 284:.\Generated_Source\PSoC5/I2C_COULOMB_MASTER.c ****             I2C_COULOMB_DisableInt();  /* Disable ISR for Manual functions */
 331              		.loc 1 284 0
 332 001e 1460     		str	r4, [r2, #0]
 333              		.loc 1 286 0
 334 0020 C0B2     		uxtb	r0, r0
 335              	.LVL24:
 287:.\Generated_Source\PSoC5/I2C_COULOMB_MASTER.c ****             if(0u != R_nW)                                      /* Set the Read/Write flag */
 336              		.loc 1 287 0
 337 0022 19B1     		cbz	r1, .L42
 288:.\Generated_Source\PSoC5/I2C_COULOMB_MASTER.c ****             {
 289:.\Generated_Source\PSoC5/I2C_COULOMB_MASTER.c ****                 slaveAddress |= I2C_COULOMB_READ_FLAG;
 338              		.loc 1 289 0
 339 0024 40F00100 		orr	r0, r0, #1
 340              	.LVL25:
 290:.\Generated_Source\PSoC5/I2C_COULOMB_MASTER.c ****                 I2C_COULOMB_state = I2C_COULOMB_SM_MSTR_RD_ADDR;
 341              		.loc 1 290 0
 342 0028 4921     		movs	r1, #73
 343              	.LVL26:
 344 002a 00E0     		b	.L52
 345              	.LVL27:
 346              	.L42:
 291:.\Generated_Source\PSoC5/I2C_COULOMB_MASTER.c ****             }
 292:.\Generated_Source\PSoC5/I2C_COULOMB_MASTER.c ****             else
 293:.\Generated_Source\PSoC5/I2C_COULOMB_MASTER.c ****             {
 294:.\Generated_Source\PSoC5/I2C_COULOMB_MASTER.c ****                 I2C_COULOMB_state = I2C_COULOMB_SM_MSTR_WR_ADDR;
 347              		.loc 1 294 0
 348 002c 4521     		movs	r1, #69
 349              	.LVL28:
 350              	.L52:
 351 002e 1970     		strb	r1, [r3, #0]
 352              	.LVL29:
 295:.\Generated_Source\PSoC5/I2C_COULOMB_MASTER.c ****             }
 296:.\Generated_Source\PSoC5/I2C_COULOMB_MASTER.c ****             I2C_COULOMB_DATA_REG = slaveAddress;   /* Write address to data reg */
 353              		.loc 1 296 0
 354 0030 0E4B     		ldr	r3, .L53+12
 297:.\Generated_Source\PSoC5/I2C_COULOMB_MASTER.c **** 
 298:.\Generated_Source\PSoC5/I2C_COULOMB_MASTER.c **** 
 299:.\Generated_Source\PSoC5/I2C_COULOMB_MASTER.c ****             I2C_COULOMB_GENERATE_START;
 355              		.loc 1 299 0
 356 0032 0122     		movs	r2, #1
 296:.\Generated_Source\PSoC5/I2C_COULOMB_MASTER.c ****             I2C_COULOMB_DATA_REG = slaveAddress;   /* Write address to data reg */
 357              		.loc 1 296 0
 358 0034 1870     		strb	r0, [r3, #0]
 359              		.loc 1 299 0
 360 0036 5A70     		strb	r2, [r3, #1]
 361              	.LVL30:
 362              	.L44:
 300:.\Generated_Source\PSoC5/I2C_COULOMB_MASTER.c ****             while(I2C_COULOMB_WAIT_BYTE_COMPLETE(I2C_COULOMB_CSR_REG))
 363              		.loc 1 300 0 discriminator 1
 364 0038 0D48     		ldr	r0, .L53+16
 365 003a 0178     		ldrb	r1, [r0, #0]	@ zero_extendqisi2
 366 003c CA07     		lsls	r2, r1, #31
 367 003e FBD5     		bpl	.L44
 301:.\Generated_Source\PSoC5/I2C_COULOMB_MASTER.c ****             {
 302:.\Generated_Source\PSoC5/I2C_COULOMB_MASTER.c ****                 ; /* Wait for the address to be transfered */
ARM GAS  C:\Users\Graziano\AppData\Local\Temp\ccpJonYe.s 			page 13


 303:.\Generated_Source\PSoC5/I2C_COULOMB_MASTER.c ****             }
 304:.\Generated_Source\PSoC5/I2C_COULOMB_MASTER.c **** 
 305:.\Generated_Source\PSoC5/I2C_COULOMB_MASTER.c ****             #if(I2C_COULOMB_MODE_MULTI_MASTER_SLAVE_ENABLED)
 306:.\Generated_Source\PSoC5/I2C_COULOMB_MASTER.c ****                 if(I2C_COULOMB_CHECK_START_GEN(I2C_COULOMB_MCSR_REG))
 307:.\Generated_Source\PSoC5/I2C_COULOMB_MASTER.c ****                 {
 308:.\Generated_Source\PSoC5/I2C_COULOMB_MASTER.c ****                     I2C_COULOMB_CLEAR_START_GEN;
 309:.\Generated_Source\PSoC5/I2C_COULOMB_MASTER.c **** 
 310:.\Generated_Source\PSoC5/I2C_COULOMB_MASTER.c ****                     /* Start condition was not generated: reset FSM to IDLE */
 311:.\Generated_Source\PSoC5/I2C_COULOMB_MASTER.c ****                     I2C_COULOMB_state = I2C_COULOMB_SM_IDLE;
 312:.\Generated_Source\PSoC5/I2C_COULOMB_MASTER.c ****                     errStatus = I2C_COULOMB_MSTR_ERR_ABORT_START_GEN;
 313:.\Generated_Source\PSoC5/I2C_COULOMB_MASTER.c ****                 }
 314:.\Generated_Source\PSoC5/I2C_COULOMB_MASTER.c ****                 else
 315:.\Generated_Source\PSoC5/I2C_COULOMB_MASTER.c ****             #endif /* (I2C_COULOMB_MODE_MULTI_MASTER_SLAVE_ENABLED) */
 316:.\Generated_Source\PSoC5/I2C_COULOMB_MASTER.c **** 
 317:.\Generated_Source\PSoC5/I2C_COULOMB_MASTER.c ****             #if(I2C_COULOMB_MODE_MULTI_MASTER_ENABLED)
 318:.\Generated_Source\PSoC5/I2C_COULOMB_MASTER.c **** 
 319:.\Generated_Source\PSoC5/I2C_COULOMB_MASTER.c ****                 if(I2C_COULOMB_CHECK_LOST_ARB(I2C_COULOMB_CSR_REG))
 320:.\Generated_Source\PSoC5/I2C_COULOMB_MASTER.c ****                 {
 321:.\Generated_Source\PSoC5/I2C_COULOMB_MASTER.c ****                     I2C_COULOMB_BUS_RELEASE;
 322:.\Generated_Source\PSoC5/I2C_COULOMB_MASTER.c **** 
 323:.\Generated_Source\PSoC5/I2C_COULOMB_MASTER.c ****                     /* Master lost arbitrage: reset FSM to IDLE */
 324:.\Generated_Source\PSoC5/I2C_COULOMB_MASTER.c ****                     I2C_COULOMB_state = I2C_COULOMB_SM_IDLE;
 325:.\Generated_Source\PSoC5/I2C_COULOMB_MASTER.c ****                     errStatus = I2C_COULOMB_MSTR_ERR_ARB_LOST;
 326:.\Generated_Source\PSoC5/I2C_COULOMB_MASTER.c ****                 }
 327:.\Generated_Source\PSoC5/I2C_COULOMB_MASTER.c ****                 else
 328:.\Generated_Source\PSoC5/I2C_COULOMB_MASTER.c ****             #endif /* (I2C_COULOMB_MODE_MULTI_MASTER_ENABLED) */
 329:.\Generated_Source\PSoC5/I2C_COULOMB_MASTER.c **** 
 330:.\Generated_Source\PSoC5/I2C_COULOMB_MASTER.c ****                 if(I2C_COULOMB_CHECK_ADDR_NAK(I2C_COULOMB_CSR_REG))
 368              		.loc 1 330 0
 369 0040 0378     		ldrb	r3, [r0, #0]	@ zero_extendqisi2
 370 0042 03F00A02 		and	r2, r3, #10
 371 0046 0A2A     		cmp	r2, #10
 372 0048 08D1     		bne	.L47
 331:.\Generated_Source\PSoC5/I2C_COULOMB_MASTER.c ****                 {
 332:.\Generated_Source\PSoC5/I2C_COULOMB_MASTER.c ****                     /* Address has been NACKed: reset FSM to IDLE */
 333:.\Generated_Source\PSoC5/I2C_COULOMB_MASTER.c ****                     I2C_COULOMB_state = I2C_COULOMB_SM_IDLE;
 373              		.loc 1 333 0
 374 004a 0549     		ldr	r1, .L53
 375 004c 1020     		movs	r0, #16
 376 004e 0870     		strb	r0, [r1, #0]
 377              	.LVL31:
 334:.\Generated_Source\PSoC5/I2C_COULOMB_MASTER.c ****                     errStatus = I2C_COULOMB_MSTR_ERR_LB_NAK;
 378              		.loc 1 334 0
 379 0050 0320     		movs	r0, #3
 380 0052 10BD     		pop	{r4, pc}
 381              	.LVL32:
 382              	.L45:
 276:.\Generated_Source\PSoC5/I2C_COULOMB_MASTER.c ****     errStatus = I2C_COULOMB_MSTR_NOT_READY;
 383              		.loc 1 276 0
 384 0054 0220     		movs	r0, #2
 385              	.LVL33:
 386 0056 10BD     		pop	{r4, pc}
 387              	.LVL34:
 388              	.L46:
 335:.\Generated_Source\PSoC5/I2C_COULOMB_MASTER.c ****                 }
 336:.\Generated_Source\PSoC5/I2C_COULOMB_MASTER.c ****                 else
 337:.\Generated_Source\PSoC5/I2C_COULOMB_MASTER.c ****                 {
ARM GAS  C:\Users\Graziano\AppData\Local\Temp\ccpJonYe.s 			page 14


 338:.\Generated_Source\PSoC5/I2C_COULOMB_MASTER.c ****                     /* Start was sent witout errors */
 339:.\Generated_Source\PSoC5/I2C_COULOMB_MASTER.c ****                     errStatus = I2C_COULOMB_MSTR_NO_ERROR;
 340:.\Generated_Source\PSoC5/I2C_COULOMB_MASTER.c ****                 }
 341:.\Generated_Source\PSoC5/I2C_COULOMB_MASTER.c ****         }
 342:.\Generated_Source\PSoC5/I2C_COULOMB_MASTER.c ****         else
 343:.\Generated_Source\PSoC5/I2C_COULOMB_MASTER.c ****         {
 344:.\Generated_Source\PSoC5/I2C_COULOMB_MASTER.c ****             errStatus = I2C_COULOMB_MSTR_BUS_BUSY; /* Bus is busy */
 389              		.loc 1 344 0
 390 0058 0120     		movs	r0, #1
 391              	.LVL35:
 392 005a 10BD     		pop	{r4, pc}
 393              	.LVL36:
 394              	.L47:
 339:.\Generated_Source\PSoC5/I2C_COULOMB_MASTER.c ****                     errStatus = I2C_COULOMB_MSTR_NO_ERROR;
 395              		.loc 1 339 0
 396 005c 0020     		movs	r0, #0
 397              	.LVL37:
 345:.\Generated_Source\PSoC5/I2C_COULOMB_MASTER.c ****         }
 346:.\Generated_Source\PSoC5/I2C_COULOMB_MASTER.c ****     }
 347:.\Generated_Source\PSoC5/I2C_COULOMB_MASTER.c **** 
 348:.\Generated_Source\PSoC5/I2C_COULOMB_MASTER.c ****     return(errStatus);
 349:.\Generated_Source\PSoC5/I2C_COULOMB_MASTER.c **** }
 398              		.loc 1 349 0
 399 005e 10BD     		pop	{r4, pc}
 400              	.L54:
 401              		.align	2
 402              	.L53:
 403 0060 00000000 		.word	I2C_COULOMB_state
 404 0064 D9490040 		.word	1073760729
 405 0068 80E100E0 		.word	-536813184
 406 006c D8490040 		.word	1073760728
 407 0070 D7490040 		.word	1073760727
 408              		.cfi_endproc
 409              	.LFE2:
 410              		.size	I2C_COULOMB_MasterSendStart, .-I2C_COULOMB_MasterSendStart
 411              		.section	.text.I2C_COULOMB_MasterSendRestart,"ax",%progbits
 412              		.align	1
 413              		.global	I2C_COULOMB_MasterSendRestart
 414              		.thumb
 415              		.thumb_func
 416              		.type	I2C_COULOMB_MasterSendRestart, %function
 417              	I2C_COULOMB_MasterSendRestart:
 418              	.LFB3:
 350:.\Generated_Source\PSoC5/I2C_COULOMB_MASTER.c **** 
 351:.\Generated_Source\PSoC5/I2C_COULOMB_MASTER.c **** 
 352:.\Generated_Source\PSoC5/I2C_COULOMB_MASTER.c **** /*******************************************************************************
 353:.\Generated_Source\PSoC5/I2C_COULOMB_MASTER.c **** * Function Name: I2C_COULOMB_MasterSendRestart
 354:.\Generated_Source\PSoC5/I2C_COULOMB_MASTER.c **** ********************************************************************************
 355:.\Generated_Source\PSoC5/I2C_COULOMB_MASTER.c **** *
 356:.\Generated_Source\PSoC5/I2C_COULOMB_MASTER.c **** * Summary:
 357:.\Generated_Source\PSoC5/I2C_COULOMB_MASTER.c **** *  Generates ReStart condition and sends slave address with read/write bit.
 358:.\Generated_Source\PSoC5/I2C_COULOMB_MASTER.c **** *
 359:.\Generated_Source\PSoC5/I2C_COULOMB_MASTER.c **** * Parameters:
 360:.\Generated_Source\PSoC5/I2C_COULOMB_MASTER.c **** *  slaveAddress:  7-bit slave address.
 361:.\Generated_Source\PSoC5/I2C_COULOMB_MASTER.c **** *  R_nW:          Zero, send write command, non-zero send read command.
 362:.\Generated_Source\PSoC5/I2C_COULOMB_MASTER.c **** *
 363:.\Generated_Source\PSoC5/I2C_COULOMB_MASTER.c **** * Return:
ARM GAS  C:\Users\Graziano\AppData\Local\Temp\ccpJonYe.s 			page 15


 364:.\Generated_Source\PSoC5/I2C_COULOMB_MASTER.c **** *  Status error - zero means no errors.
 365:.\Generated_Source\PSoC5/I2C_COULOMB_MASTER.c **** *
 366:.\Generated_Source\PSoC5/I2C_COULOMB_MASTER.c **** * Side Effects:
 367:.\Generated_Source\PSoC5/I2C_COULOMB_MASTER.c **** *  This function is entered without a 'byte complete' bit set in the I2C_CSR
 368:.\Generated_Source\PSoC5/I2C_COULOMB_MASTER.c **** *  register. It does not exit until it will be set.
 369:.\Generated_Source\PSoC5/I2C_COULOMB_MASTER.c **** *
 370:.\Generated_Source\PSoC5/I2C_COULOMB_MASTER.c **** * Global variables:
 371:.\Generated_Source\PSoC5/I2C_COULOMB_MASTER.c **** *  I2C_COULOMB_state - used to store current state of software FSM.
 372:.\Generated_Source\PSoC5/I2C_COULOMB_MASTER.c **** *
 373:.\Generated_Source\PSoC5/I2C_COULOMB_MASTER.c **** * Reentrant:
 374:.\Generated_Source\PSoC5/I2C_COULOMB_MASTER.c **** *  No
 375:.\Generated_Source\PSoC5/I2C_COULOMB_MASTER.c **** *
 376:.\Generated_Source\PSoC5/I2C_COULOMB_MASTER.c **** *******************************************************************************/
 377:.\Generated_Source\PSoC5/I2C_COULOMB_MASTER.c **** uint8 I2C_COULOMB_MasterSendRestart(uint8 slaveAddress, uint8 R_nW)
 378:.\Generated_Source\PSoC5/I2C_COULOMB_MASTER.c ****       
 379:.\Generated_Source\PSoC5/I2C_COULOMB_MASTER.c **** {
 419              		.loc 1 379 0
 420              		.cfi_startproc
 421              		@ args = 0, pretend = 0, frame = 0
 422              		@ frame_needed = 0, uses_anonymous_args = 0
 423              		@ link register save eliminated.
 424              	.LVL38:
 380:.\Generated_Source\PSoC5/I2C_COULOMB_MASTER.c ****     uint8 errStatus;
 381:.\Generated_Source\PSoC5/I2C_COULOMB_MASTER.c **** 
 382:.\Generated_Source\PSoC5/I2C_COULOMB_MASTER.c ****     errStatus = I2C_COULOMB_MSTR_NOT_READY;
 383:.\Generated_Source\PSoC5/I2C_COULOMB_MASTER.c **** 
 384:.\Generated_Source\PSoC5/I2C_COULOMB_MASTER.c ****     /* Check if START condition was generated */
 385:.\Generated_Source\PSoC5/I2C_COULOMB_MASTER.c ****     if(I2C_COULOMB_CHECK_MASTER_MODE(I2C_COULOMB_MCSR_REG))
 425              		.loc 1 385 0
 426 0000 144B     		ldr	r3, .L67
 427 0002 1A78     		ldrb	r2, [r3, #0]	@ zero_extendqisi2
 428 0004 02F00403 		and	r3, r2, #4
 429 0008 DAB2     		uxtb	r2, r3
 430 000a F2B1     		cbz	r2, .L60
 386:.\Generated_Source\PSoC5/I2C_COULOMB_MASTER.c ****     {
 387:.\Generated_Source\PSoC5/I2C_COULOMB_MASTER.c ****         slaveAddress = ((uint8) (slaveAddress << I2C_COULOMB_SLAVE_ADDR_SHIFT)); /* Set Address */
 431              		.loc 1 387 0
 432 000c 4000     		lsls	r0, r0, #1
 433              	.LVL39:
 434 000e C0B2     		uxtb	r0, r0
 435              	.LVL40:
 436 0010 114B     		ldr	r3, .L67+4
 388:.\Generated_Source\PSoC5/I2C_COULOMB_MASTER.c ****         if(0u != R_nW)  /* Set the Read/Write flag */
 437              		.loc 1 388 0
 438 0012 19B1     		cbz	r1, .L57
 389:.\Generated_Source\PSoC5/I2C_COULOMB_MASTER.c ****         {
 390:.\Generated_Source\PSoC5/I2C_COULOMB_MASTER.c ****             slaveAddress |= I2C_COULOMB_READ_FLAG;
 439              		.loc 1 390 0
 440 0014 40F00100 		orr	r0, r0, #1
 441              	.LVL41:
 391:.\Generated_Source\PSoC5/I2C_COULOMB_MASTER.c ****             I2C_COULOMB_state = I2C_COULOMB_SM_MSTR_RD_ADDR;
 442              		.loc 1 391 0
 443 0018 4921     		movs	r1, #73
 444              	.LVL42:
 445 001a 00E0     		b	.L66
 446              	.LVL43:
 447              	.L57:
ARM GAS  C:\Users\Graziano\AppData\Local\Temp\ccpJonYe.s 			page 16


 392:.\Generated_Source\PSoC5/I2C_COULOMB_MASTER.c ****         }
 393:.\Generated_Source\PSoC5/I2C_COULOMB_MASTER.c ****         else
 394:.\Generated_Source\PSoC5/I2C_COULOMB_MASTER.c ****         {
 395:.\Generated_Source\PSoC5/I2C_COULOMB_MASTER.c ****             I2C_COULOMB_state = I2C_COULOMB_SM_MSTR_WR_ADDR;
 448              		.loc 1 395 0
 449 001c 4521     		movs	r1, #69
 450              	.LVL44:
 451              	.L66:
 452 001e 1970     		strb	r1, [r3, #0]
 453              	.LVL45:
 396:.\Generated_Source\PSoC5/I2C_COULOMB_MASTER.c ****         }
 397:.\Generated_Source\PSoC5/I2C_COULOMB_MASTER.c ****         I2C_COULOMB_DATA_REG = slaveAddress;    /* Write address to data reg */
 454              		.loc 1 397 0
 455 0020 0E4B     		ldr	r3, .L67+8
 398:.\Generated_Source\PSoC5/I2C_COULOMB_MASTER.c **** 
 399:.\Generated_Source\PSoC5/I2C_COULOMB_MASTER.c **** 
 400:.\Generated_Source\PSoC5/I2C_COULOMB_MASTER.c ****         I2C_COULOMB_GENERATE_RESTART_MANUAL;
 456              		.loc 1 400 0
 457 0022 1222     		movs	r2, #18
 397:.\Generated_Source\PSoC5/I2C_COULOMB_MASTER.c ****         I2C_COULOMB_DATA_REG = slaveAddress;    /* Write address to data reg */
 458              		.loc 1 397 0
 459 0024 1870     		strb	r0, [r3, #0]
 460              		.loc 1 400 0
 461 0026 0420     		movs	r0, #4
 462              	.LVL46:
 463 0028 5A70     		strb	r2, [r3, #1]
 464 002a 03F8010C 		strb	r0, [r3, #-1]
 465              	.L59:
 401:.\Generated_Source\PSoC5/I2C_COULOMB_MASTER.c ****         while(I2C_COULOMB_WAIT_BYTE_COMPLETE(I2C_COULOMB_CSR_REG))
 466              		.loc 1 401 0 discriminator 1
 467 002e 0C4B     		ldr	r3, .L67+12
 468 0030 1978     		ldrb	r1, [r3, #0]	@ zero_extendqisi2
 469 0032 C907     		lsls	r1, r1, #31
 470 0034 FBD5     		bpl	.L59
 402:.\Generated_Source\PSoC5/I2C_COULOMB_MASTER.c ****         {
 403:.\Generated_Source\PSoC5/I2C_COULOMB_MASTER.c ****             ; /* Wait for the address to be transfered */
 404:.\Generated_Source\PSoC5/I2C_COULOMB_MASTER.c ****         }
 405:.\Generated_Source\PSoC5/I2C_COULOMB_MASTER.c **** 
 406:.\Generated_Source\PSoC5/I2C_COULOMB_MASTER.c ****         #if(I2C_COULOMB_MODE_MULTI_MASTER_ENABLED)
 407:.\Generated_Source\PSoC5/I2C_COULOMB_MASTER.c ****             if(I2C_COULOMB_CHECK_LOST_ARB(I2C_COULOMB_CSR_REG))
 408:.\Generated_Source\PSoC5/I2C_COULOMB_MASTER.c ****             {
 409:.\Generated_Source\PSoC5/I2C_COULOMB_MASTER.c ****                 I2C_COULOMB_BUS_RELEASE;
 410:.\Generated_Source\PSoC5/I2C_COULOMB_MASTER.c **** 
 411:.\Generated_Source\PSoC5/I2C_COULOMB_MASTER.c ****                 /* Master lost arbitrage: reset FSM to IDLE */
 412:.\Generated_Source\PSoC5/I2C_COULOMB_MASTER.c ****                 I2C_COULOMB_state = I2C_COULOMB_SM_IDLE;
 413:.\Generated_Source\PSoC5/I2C_COULOMB_MASTER.c ****                 errStatus = I2C_COULOMB_MSTR_ERR_ARB_LOST;
 414:.\Generated_Source\PSoC5/I2C_COULOMB_MASTER.c ****             }
 415:.\Generated_Source\PSoC5/I2C_COULOMB_MASTER.c ****             else
 416:.\Generated_Source\PSoC5/I2C_COULOMB_MASTER.c ****         #endif /* (I2C_COULOMB_MODE_MULTI_MASTER_ENABLED) */
 417:.\Generated_Source\PSoC5/I2C_COULOMB_MASTER.c **** 
 418:.\Generated_Source\PSoC5/I2C_COULOMB_MASTER.c ****             if(I2C_COULOMB_CHECK_ADDR_NAK(I2C_COULOMB_CSR_REG))
 471              		.loc 1 418 0
 472 0036 1A78     		ldrb	r2, [r3, #0]	@ zero_extendqisi2
 473 0038 02F00A00 		and	r0, r2, #10
 474 003c 0A28     		cmp	r0, #10
 475 003e 06D1     		bne	.L61
 419:.\Generated_Source\PSoC5/I2C_COULOMB_MASTER.c ****             {
ARM GAS  C:\Users\Graziano\AppData\Local\Temp\ccpJonYe.s 			page 17


 420:.\Generated_Source\PSoC5/I2C_COULOMB_MASTER.c ****                 /* Address has been NACKed: reset FSM to IDLE */
 421:.\Generated_Source\PSoC5/I2C_COULOMB_MASTER.c ****                 I2C_COULOMB_state = I2C_COULOMB_SM_IDLE;
 476              		.loc 1 421 0
 477 0040 054B     		ldr	r3, .L67+4
 478 0042 1021     		movs	r1, #16
 479 0044 1970     		strb	r1, [r3, #0]
 480              	.LVL47:
 422:.\Generated_Source\PSoC5/I2C_COULOMB_MASTER.c ****                 errStatus = I2C_COULOMB_MSTR_ERR_LB_NAK;
 481              		.loc 1 422 0
 482 0046 0320     		movs	r0, #3
 483 0048 7047     		bx	lr
 484              	.LVL48:
 485              	.L60:
 382:.\Generated_Source\PSoC5/I2C_COULOMB_MASTER.c ****     errStatus = I2C_COULOMB_MSTR_NOT_READY;
 486              		.loc 1 382 0
 487 004a 0220     		movs	r0, #2
 488              	.LVL49:
 489 004c 7047     		bx	lr
 490              	.LVL50:
 491              	.L61:
 423:.\Generated_Source\PSoC5/I2C_COULOMB_MASTER.c ****             }
 424:.\Generated_Source\PSoC5/I2C_COULOMB_MASTER.c ****             else
 425:.\Generated_Source\PSoC5/I2C_COULOMB_MASTER.c ****             {
 426:.\Generated_Source\PSoC5/I2C_COULOMB_MASTER.c ****                 /* ReStart was sent witout errors */
 427:.\Generated_Source\PSoC5/I2C_COULOMB_MASTER.c ****                 errStatus = I2C_COULOMB_MSTR_NO_ERROR;
 492              		.loc 1 427 0
 493 004e 0020     		movs	r0, #0
 494              	.LVL51:
 428:.\Generated_Source\PSoC5/I2C_COULOMB_MASTER.c ****             }
 429:.\Generated_Source\PSoC5/I2C_COULOMB_MASTER.c ****     }
 430:.\Generated_Source\PSoC5/I2C_COULOMB_MASTER.c **** 
 431:.\Generated_Source\PSoC5/I2C_COULOMB_MASTER.c ****     return(errStatus);
 432:.\Generated_Source\PSoC5/I2C_COULOMB_MASTER.c **** }
 495              		.loc 1 432 0
 496 0050 7047     		bx	lr
 497              	.L68:
 498 0052 00BF     		.align	2
 499              	.L67:
 500 0054 D9490040 		.word	1073760729
 501 0058 00000000 		.word	I2C_COULOMB_state
 502 005c D8490040 		.word	1073760728
 503 0060 D7490040 		.word	1073760727
 504              		.cfi_endproc
 505              	.LFE3:
 506              		.size	I2C_COULOMB_MasterSendRestart, .-I2C_COULOMB_MasterSendRestart
 507              		.section	.text.I2C_COULOMB_MasterSendStop,"ax",%progbits
 508              		.align	1
 509              		.global	I2C_COULOMB_MasterSendStop
 510              		.thumb
 511              		.thumb_func
 512              		.type	I2C_COULOMB_MasterSendStop, %function
 513              	I2C_COULOMB_MasterSendStop:
 514              	.LFB4:
 433:.\Generated_Source\PSoC5/I2C_COULOMB_MASTER.c **** 
 434:.\Generated_Source\PSoC5/I2C_COULOMB_MASTER.c **** 
 435:.\Generated_Source\PSoC5/I2C_COULOMB_MASTER.c **** /*******************************************************************************
 436:.\Generated_Source\PSoC5/I2C_COULOMB_MASTER.c **** * Function Name: I2C_COULOMB_MasterSendStop
ARM GAS  C:\Users\Graziano\AppData\Local\Temp\ccpJonYe.s 			page 18


 437:.\Generated_Source\PSoC5/I2C_COULOMB_MASTER.c **** ********************************************************************************
 438:.\Generated_Source\PSoC5/I2C_COULOMB_MASTER.c **** *
 439:.\Generated_Source\PSoC5/I2C_COULOMB_MASTER.c **** * Summary:
 440:.\Generated_Source\PSoC5/I2C_COULOMB_MASTER.c **** *  Generates I2C Stop condition on bus. Function do nothing if Start or Restart
 441:.\Generated_Source\PSoC5/I2C_COULOMB_MASTER.c **** *  condition was failed before call this function.
 442:.\Generated_Source\PSoC5/I2C_COULOMB_MASTER.c **** *
 443:.\Generated_Source\PSoC5/I2C_COULOMB_MASTER.c **** * Parameters:
 444:.\Generated_Source\PSoC5/I2C_COULOMB_MASTER.c **** *  None
 445:.\Generated_Source\PSoC5/I2C_COULOMB_MASTER.c **** *
 446:.\Generated_Source\PSoC5/I2C_COULOMB_MASTER.c **** * Return:
 447:.\Generated_Source\PSoC5/I2C_COULOMB_MASTER.c **** *  Status error - zero means no errors.
 448:.\Generated_Source\PSoC5/I2C_COULOMB_MASTER.c **** *
 449:.\Generated_Source\PSoC5/I2C_COULOMB_MASTER.c **** * Side Effects:
 450:.\Generated_Source\PSoC5/I2C_COULOMB_MASTER.c **** *  The Stop generation is required to complete transaction.
 451:.\Generated_Source\PSoC5/I2C_COULOMB_MASTER.c **** *  This function does not wait whileStop condition will be generated.
 452:.\Generated_Source\PSoC5/I2C_COULOMB_MASTER.c **** *
 453:.\Generated_Source\PSoC5/I2C_COULOMB_MASTER.c **** * Global variables:
 454:.\Generated_Source\PSoC5/I2C_COULOMB_MASTER.c **** *  I2C_COULOMB_state - used to store current state of software FSM.
 455:.\Generated_Source\PSoC5/I2C_COULOMB_MASTER.c **** *
 456:.\Generated_Source\PSoC5/I2C_COULOMB_MASTER.c **** * Reentrant:
 457:.\Generated_Source\PSoC5/I2C_COULOMB_MASTER.c **** *  No
 458:.\Generated_Source\PSoC5/I2C_COULOMB_MASTER.c **** *
 459:.\Generated_Source\PSoC5/I2C_COULOMB_MASTER.c **** *******************************************************************************/
 460:.\Generated_Source\PSoC5/I2C_COULOMB_MASTER.c **** uint8 I2C_COULOMB_MasterSendStop(void) 
 461:.\Generated_Source\PSoC5/I2C_COULOMB_MASTER.c **** {
 515              		.loc 1 461 0
 516              		.cfi_startproc
 517              		@ args = 0, pretend = 0, frame = 0
 518              		@ frame_needed = 0, uses_anonymous_args = 0
 519              		@ link register save eliminated.
 520              	.LVL52:
 462:.\Generated_Source\PSoC5/I2C_COULOMB_MASTER.c ****     uint8 errStatus;
 463:.\Generated_Source\PSoC5/I2C_COULOMB_MASTER.c **** 
 464:.\Generated_Source\PSoC5/I2C_COULOMB_MASTER.c ****     errStatus = I2C_COULOMB_MSTR_NOT_READY;
 465:.\Generated_Source\PSoC5/I2C_COULOMB_MASTER.c **** 
 466:.\Generated_Source\PSoC5/I2C_COULOMB_MASTER.c ****     /* Check if START condition was generated */
 467:.\Generated_Source\PSoC5/I2C_COULOMB_MASTER.c ****     if(I2C_COULOMB_CHECK_MASTER_MODE(I2C_COULOMB_MCSR_REG))
 521              		.loc 1 467 0
 522 0000 0A4A     		ldr	r2, .L77
 523 0002 1378     		ldrb	r3, [r2, #0]	@ zero_extendqisi2
 524 0004 03F00400 		and	r0, r3, #4
 525 0008 C1B2     		uxtb	r1, r0
 526 000a 69B1     		cbz	r1, .L72
 468:.\Generated_Source\PSoC5/I2C_COULOMB_MASTER.c ****     {
 469:.\Generated_Source\PSoC5/I2C_COULOMB_MASTER.c ****         I2C_COULOMB_GENERATE_STOP_MANUAL;              /* Generate STOP */
 527              		.loc 1 469 0
 528 000c 1023     		movs	r3, #16
 529 000e 0420     		movs	r0, #4
 530 0010 1370     		strb	r3, [r2, #0]
 531 0012 02F8020C 		strb	r0, [r2, #-2]
 470:.\Generated_Source\PSoC5/I2C_COULOMB_MASTER.c ****         I2C_COULOMB_state = I2C_COULOMB_SM_IDLE;  /* Reset state to IDLE */
 532              		.loc 1 470 0
 533 0016 064A     		ldr	r2, .L77+4
 534 0018 1370     		strb	r3, [r2, #0]
 535              	.L71:
 471:.\Generated_Source\PSoC5/I2C_COULOMB_MASTER.c **** 
 472:.\Generated_Source\PSoC5/I2C_COULOMB_MASTER.c ****         while(I2C_COULOMB_WAIT_STOP_COMPLETE(I2C_COULOMB_CSR_REG))
ARM GAS  C:\Users\Graziano\AppData\Local\Temp\ccpJonYe.s 			page 19


 536              		.loc 1 472 0 discriminator 1
 537 001a 0649     		ldr	r1, .L77+8
 538 001c 0B78     		ldrb	r3, [r1, #0]	@ zero_extendqisi2
 539 001e 13F0210F 		tst	r3, #33
 540 0022 FAD0     		beq	.L71
 473:.\Generated_Source\PSoC5/I2C_COULOMB_MASTER.c ****         {
 474:.\Generated_Source\PSoC5/I2C_COULOMB_MASTER.c ****             ; /* Wait for Stop to be generated */
 475:.\Generated_Source\PSoC5/I2C_COULOMB_MASTER.c ****         }
 476:.\Generated_Source\PSoC5/I2C_COULOMB_MASTER.c **** 
 477:.\Generated_Source\PSoC5/I2C_COULOMB_MASTER.c ****         errStatus = I2C_COULOMB_MSTR_NO_ERROR;
 541              		.loc 1 477 0
 542 0024 0020     		movs	r0, #0
 543 0026 7047     		bx	lr
 544              	.L72:
 464:.\Generated_Source\PSoC5/I2C_COULOMB_MASTER.c ****     errStatus = I2C_COULOMB_MSTR_NOT_READY;
 545              		.loc 1 464 0
 546 0028 0220     		movs	r0, #2
 547              	.LVL53:
 478:.\Generated_Source\PSoC5/I2C_COULOMB_MASTER.c ****         #if(I2C_COULOMB_MODE_MULTI_MASTER_ENABLED)
 479:.\Generated_Source\PSoC5/I2C_COULOMB_MASTER.c ****             if(I2C_COULOMB_CHECK_LOST_ARB(I2C_COULOMB_CSR_REG))
 480:.\Generated_Source\PSoC5/I2C_COULOMB_MASTER.c ****             {
 481:.\Generated_Source\PSoC5/I2C_COULOMB_MASTER.c ****                 I2C_COULOMB_BUS_RELEASE;
 482:.\Generated_Source\PSoC5/I2C_COULOMB_MASTER.c **** 
 483:.\Generated_Source\PSoC5/I2C_COULOMB_MASTER.c ****                 /* NACK was generated by enother instead Stop */
 484:.\Generated_Source\PSoC5/I2C_COULOMB_MASTER.c ****                 errStatus = I2C_COULOMB_MSTR_ERR_ARB_LOST;
 485:.\Generated_Source\PSoC5/I2C_COULOMB_MASTER.c ****             }
 486:.\Generated_Source\PSoC5/I2C_COULOMB_MASTER.c ****         #endif /* (I2C_COULOMB_MODE_MULTI_MASTER_ENABLED) */
 487:.\Generated_Source\PSoC5/I2C_COULOMB_MASTER.c ****     }
 488:.\Generated_Source\PSoC5/I2C_COULOMB_MASTER.c **** 
 489:.\Generated_Source\PSoC5/I2C_COULOMB_MASTER.c ****     return(errStatus);
 490:.\Generated_Source\PSoC5/I2C_COULOMB_MASTER.c **** }
 548              		.loc 1 490 0
 549 002a 7047     		bx	lr
 550              	.L78:
 551              		.align	2
 552              	.L77:
 553 002c D9490040 		.word	1073760729
 554 0030 00000000 		.word	I2C_COULOMB_state
 555 0034 D7490040 		.word	1073760727
 556              		.cfi_endproc
 557              	.LFE4:
 558              		.size	I2C_COULOMB_MasterSendStop, .-I2C_COULOMB_MasterSendStop
 559              		.section	.text.I2C_COULOMB_MasterWriteByte,"ax",%progbits
 560              		.align	1
 561              		.global	I2C_COULOMB_MasterWriteByte
 562              		.thumb
 563              		.thumb_func
 564              		.type	I2C_COULOMB_MasterWriteByte, %function
 565              	I2C_COULOMB_MasterWriteByte:
 566              	.LFB5:
 491:.\Generated_Source\PSoC5/I2C_COULOMB_MASTER.c **** 
 492:.\Generated_Source\PSoC5/I2C_COULOMB_MASTER.c **** 
 493:.\Generated_Source\PSoC5/I2C_COULOMB_MASTER.c **** /*******************************************************************************
 494:.\Generated_Source\PSoC5/I2C_COULOMB_MASTER.c **** * Function Name: I2C_COULOMB_MasterWriteByte
 495:.\Generated_Source\PSoC5/I2C_COULOMB_MASTER.c **** ********************************************************************************
 496:.\Generated_Source\PSoC5/I2C_COULOMB_MASTER.c **** *
 497:.\Generated_Source\PSoC5/I2C_COULOMB_MASTER.c **** * Summary:
ARM GAS  C:\Users\Graziano\AppData\Local\Temp\ccpJonYe.s 			page 20


 498:.\Generated_Source\PSoC5/I2C_COULOMB_MASTER.c **** *  Sends one byte to a slave. A valid Start or ReStart condition must be
 499:.\Generated_Source\PSoC5/I2C_COULOMB_MASTER.c **** *  generated before this call this function. Function do nothing if Start or
 500:.\Generated_Source\PSoC5/I2C_COULOMB_MASTER.c **** *  Restart condition was failed before call this function.
 501:.\Generated_Source\PSoC5/I2C_COULOMB_MASTER.c **** *
 502:.\Generated_Source\PSoC5/I2C_COULOMB_MASTER.c **** * Parameters:
 503:.\Generated_Source\PSoC5/I2C_COULOMB_MASTER.c **** *  data:  The data byte to send to the slave.
 504:.\Generated_Source\PSoC5/I2C_COULOMB_MASTER.c **** *
 505:.\Generated_Source\PSoC5/I2C_COULOMB_MASTER.c **** * Return:
 506:.\Generated_Source\PSoC5/I2C_COULOMB_MASTER.c **** *  Status error - zero means no errors.
 507:.\Generated_Source\PSoC5/I2C_COULOMB_MASTER.c **** *
 508:.\Generated_Source\PSoC5/I2C_COULOMB_MASTER.c **** * Side Effects:
 509:.\Generated_Source\PSoC5/I2C_COULOMB_MASTER.c **** *  This function is entered without a 'byte complete' bit set in the I2C_CSR
 510:.\Generated_Source\PSoC5/I2C_COULOMB_MASTER.c **** *  register. It does not exit until it will be set.
 511:.\Generated_Source\PSoC5/I2C_COULOMB_MASTER.c **** *
 512:.\Generated_Source\PSoC5/I2C_COULOMB_MASTER.c **** * Global variables:
 513:.\Generated_Source\PSoC5/I2C_COULOMB_MASTER.c **** *  I2C_COULOMB_state - used to store current state of software FSM.
 514:.\Generated_Source\PSoC5/I2C_COULOMB_MASTER.c **** *
 515:.\Generated_Source\PSoC5/I2C_COULOMB_MASTER.c **** *******************************************************************************/
 516:.\Generated_Source\PSoC5/I2C_COULOMB_MASTER.c **** uint8 I2C_COULOMB_MasterWriteByte(uint8 theByte) 
 517:.\Generated_Source\PSoC5/I2C_COULOMB_MASTER.c **** {
 567              		.loc 1 517 0
 568              		.cfi_startproc
 569              		@ args = 0, pretend = 0, frame = 0
 570              		@ frame_needed = 0, uses_anonymous_args = 0
 571              		@ link register save eliminated.
 572              	.LVL54:
 518:.\Generated_Source\PSoC5/I2C_COULOMB_MASTER.c ****     uint8 errStatus;
 519:.\Generated_Source\PSoC5/I2C_COULOMB_MASTER.c **** 
 520:.\Generated_Source\PSoC5/I2C_COULOMB_MASTER.c ****     errStatus = I2C_COULOMB_MSTR_NOT_READY;
 521:.\Generated_Source\PSoC5/I2C_COULOMB_MASTER.c **** 
 522:.\Generated_Source\PSoC5/I2C_COULOMB_MASTER.c ****     /* Check if START condition was generated */
 523:.\Generated_Source\PSoC5/I2C_COULOMB_MASTER.c ****     if(I2C_COULOMB_CHECK_MASTER_MODE(I2C_COULOMB_MCSR_REG))
 573              		.loc 1 523 0
 574 0000 0F4B     		ldr	r3, .L88
 575 0002 1978     		ldrb	r1, [r3, #0]	@ zero_extendqisi2
 576 0004 01F00402 		and	r2, r1, #4
 577 0008 D3B2     		uxtb	r3, r2
 578 000a B3B1     		cbz	r3, .L83
 524:.\Generated_Source\PSoC5/I2C_COULOMB_MASTER.c ****     {
 525:.\Generated_Source\PSoC5/I2C_COULOMB_MASTER.c ****         I2C_COULOMB_DATA_REG = theByte;                        /* Write DATA register */
 579              		.loc 1 525 0
 580 000c 0D49     		ldr	r1, .L88+4
 526:.\Generated_Source\PSoC5/I2C_COULOMB_MASTER.c ****         I2C_COULOMB_TRANSMIT_DATA_MANUAL;                      /* Set transmit mode */
 527:.\Generated_Source\PSoC5/I2C_COULOMB_MASTER.c ****         I2C_COULOMB_state = I2C_COULOMB_SM_MSTR_WR_DATA;  /* Set state WR_DATA */
 581              		.loc 1 527 0
 582 000e 0E4B     		ldr	r3, .L88+8
 525:.\Generated_Source\PSoC5/I2C_COULOMB_MASTER.c ****         I2C_COULOMB_DATA_REG = theByte;                        /* Write DATA register */
 583              		.loc 1 525 0
 584 0010 0870     		strb	r0, [r1, #0]
 585              		.loc 1 527 0
 586 0012 4622     		movs	r2, #70
 526:.\Generated_Source\PSoC5/I2C_COULOMB_MASTER.c ****         I2C_COULOMB_TRANSMIT_DATA_MANUAL;                      /* Set transmit mode */
 587              		.loc 1 526 0
 588 0014 0420     		movs	r0, #4
 589              	.LVL55:
 590 0016 01F8010C 		strb	r0, [r1, #-1]
 591              		.loc 1 527 0
ARM GAS  C:\Users\Graziano\AppData\Local\Temp\ccpJonYe.s 			page 21


 592 001a 1A70     		strb	r2, [r3, #0]
 593              	.LVL56:
 594              	.L81:
 528:.\Generated_Source\PSoC5/I2C_COULOMB_MASTER.c **** 
 529:.\Generated_Source\PSoC5/I2C_COULOMB_MASTER.c ****         /* Make sure the last byte has been transfered first */
 530:.\Generated_Source\PSoC5/I2C_COULOMB_MASTER.c ****         while(I2C_COULOMB_WAIT_BYTE_COMPLETE(I2C_COULOMB_CSR_REG))
 595              		.loc 1 530 0 discriminator 1
 596 001c 0B49     		ldr	r1, .L88+12
 597 001e 0878     		ldrb	r0, [r1, #0]	@ zero_extendqisi2
 598 0020 C007     		lsls	r0, r0, #31
 599 0022 FBD5     		bpl	.L81
 531:.\Generated_Source\PSoC5/I2C_COULOMB_MASTER.c ****         {
 532:.\Generated_Source\PSoC5/I2C_COULOMB_MASTER.c ****             ; /* Wait for byte to be written */
 533:.\Generated_Source\PSoC5/I2C_COULOMB_MASTER.c ****         }
 534:.\Generated_Source\PSoC5/I2C_COULOMB_MASTER.c **** 
 535:.\Generated_Source\PSoC5/I2C_COULOMB_MASTER.c ****         #if(I2C_COULOMB_MODE_MULTI_MASTER_ENABLED)
 536:.\Generated_Source\PSoC5/I2C_COULOMB_MASTER.c ****             if(I2C_COULOMB_CHECK_LOST_ARB(I2C_COULOMB_CSR_REG))
 537:.\Generated_Source\PSoC5/I2C_COULOMB_MASTER.c ****             {
 538:.\Generated_Source\PSoC5/I2C_COULOMB_MASTER.c ****                 I2C_COULOMB_BUS_RELEASE;
 539:.\Generated_Source\PSoC5/I2C_COULOMB_MASTER.c **** 
 540:.\Generated_Source\PSoC5/I2C_COULOMB_MASTER.c ****                 /* Master lost arbitrage: reset FSM to IDLE */
 541:.\Generated_Source\PSoC5/I2C_COULOMB_MASTER.c ****                 I2C_COULOMB_state = I2C_COULOMB_SM_IDLE;
 542:.\Generated_Source\PSoC5/I2C_COULOMB_MASTER.c ****                 errStatus = I2C_COULOMB_MSTR_ERR_ARB_LOST;
 543:.\Generated_Source\PSoC5/I2C_COULOMB_MASTER.c ****             }
 544:.\Generated_Source\PSoC5/I2C_COULOMB_MASTER.c ****             /* Check LRB bit */
 545:.\Generated_Source\PSoC5/I2C_COULOMB_MASTER.c ****             else
 546:.\Generated_Source\PSoC5/I2C_COULOMB_MASTER.c ****         #endif /* (I2C_COULOMB_MODE_MULTI_MASTER_ENABLED) */
 547:.\Generated_Source\PSoC5/I2C_COULOMB_MASTER.c **** 
 548:.\Generated_Source\PSoC5/I2C_COULOMB_MASTER.c ****             if(I2C_COULOMB_CHECK_DATA_ACK(I2C_COULOMB_CSR_REG))
 600              		.loc 1 548 0
 601 0024 0A78     		ldrb	r2, [r1, #0]	@ zero_extendqisi2
 602 0026 0849     		ldr	r1, .L88+8
 603 0028 02F00203 		and	r3, r2, #2
 604 002c D8B2     		uxtb	r0, r3
 605 002e 6022     		movs	r2, #96
 549:.\Generated_Source\PSoC5/I2C_COULOMB_MASTER.c ****             {
 550:.\Generated_Source\PSoC5/I2C_COULOMB_MASTER.c ****                 I2C_COULOMB_state = I2C_COULOMB_SM_MSTR_HALT;     /* Set state to HALT */
 606              		.loc 1 550 0
 607 0030 0A70     		strb	r2, [r1, #0]
 548:.\Generated_Source\PSoC5/I2C_COULOMB_MASTER.c ****             if(I2C_COULOMB_CHECK_DATA_ACK(I2C_COULOMB_CSR_REG))
 608              		.loc 1 548 0
 609 0032 00B9     		cbnz	r0, .L82
 610              	.LVL57:
 611 0034 7047     		bx	lr
 612              	.LVL58:
 613              	.L82:
 551:.\Generated_Source\PSoC5/I2C_COULOMB_MASTER.c ****                 errStatus = I2C_COULOMB_MSTR_NO_ERROR;                 /* The LRB was ACKed */
 552:.\Generated_Source\PSoC5/I2C_COULOMB_MASTER.c ****             }
 553:.\Generated_Source\PSoC5/I2C_COULOMB_MASTER.c ****             else
 554:.\Generated_Source\PSoC5/I2C_COULOMB_MASTER.c ****             {
 555:.\Generated_Source\PSoC5/I2C_COULOMB_MASTER.c ****                 I2C_COULOMB_state = I2C_COULOMB_SM_MSTR_HALT;     /* Set state to HALT */
 556:.\Generated_Source\PSoC5/I2C_COULOMB_MASTER.c ****                 errStatus = I2C_COULOMB_MSTR_ERR_LB_NAK;               /* The LRB was NACKed */
 614              		.loc 1 556 0
 615 0036 0320     		movs	r0, #3
 616 0038 7047     		bx	lr
 617              	.LVL59:
 618              	.L83:
ARM GAS  C:\Users\Graziano\AppData\Local\Temp\ccpJonYe.s 			page 22


 520:.\Generated_Source\PSoC5/I2C_COULOMB_MASTER.c ****     errStatus = I2C_COULOMB_MSTR_NOT_READY;
 619              		.loc 1 520 0
 620 003a 0220     		movs	r0, #2
 621              	.LVL60:
 557:.\Generated_Source\PSoC5/I2C_COULOMB_MASTER.c ****             }
 558:.\Generated_Source\PSoC5/I2C_COULOMB_MASTER.c ****     }
 559:.\Generated_Source\PSoC5/I2C_COULOMB_MASTER.c **** 
 560:.\Generated_Source\PSoC5/I2C_COULOMB_MASTER.c ****     return(errStatus);
 561:.\Generated_Source\PSoC5/I2C_COULOMB_MASTER.c **** }
 622              		.loc 1 561 0
 623 003c 7047     		bx	lr
 624              	.L89:
 625 003e 00BF     		.align	2
 626              	.L88:
 627 0040 D9490040 		.word	1073760729
 628 0044 D8490040 		.word	1073760728
 629 0048 00000000 		.word	I2C_COULOMB_state
 630 004c D7490040 		.word	1073760727
 631              		.cfi_endproc
 632              	.LFE5:
 633              		.size	I2C_COULOMB_MasterWriteByte, .-I2C_COULOMB_MasterWriteByte
 634              		.section	.text.I2C_COULOMB_MasterReadByte,"ax",%progbits
 635              		.align	1
 636              		.global	I2C_COULOMB_MasterReadByte
 637              		.thumb
 638              		.thumb_func
 639              		.type	I2C_COULOMB_MasterReadByte, %function
 640              	I2C_COULOMB_MasterReadByte:
 641              	.LFB6:
 562:.\Generated_Source\PSoC5/I2C_COULOMB_MASTER.c **** 
 563:.\Generated_Source\PSoC5/I2C_COULOMB_MASTER.c **** 
 564:.\Generated_Source\PSoC5/I2C_COULOMB_MASTER.c **** /*******************************************************************************
 565:.\Generated_Source\PSoC5/I2C_COULOMB_MASTER.c **** * Function Name: I2C_COULOMB_MasterReadByte
 566:.\Generated_Source\PSoC5/I2C_COULOMB_MASTER.c **** ********************************************************************************
 567:.\Generated_Source\PSoC5/I2C_COULOMB_MASTER.c **** *
 568:.\Generated_Source\PSoC5/I2C_COULOMB_MASTER.c **** * Summary:
 569:.\Generated_Source\PSoC5/I2C_COULOMB_MASTER.c **** *  Reads one byte from a slave and ACK or NACK the transfer. A valid Start or
 570:.\Generated_Source\PSoC5/I2C_COULOMB_MASTER.c **** *  ReStart condition must be generated before this call this function. Function
 571:.\Generated_Source\PSoC5/I2C_COULOMB_MASTER.c **** *  do nothing if Start or Restart condition was failed before call this
 572:.\Generated_Source\PSoC5/I2C_COULOMB_MASTER.c **** *  function.
 573:.\Generated_Source\PSoC5/I2C_COULOMB_MASTER.c **** *
 574:.\Generated_Source\PSoC5/I2C_COULOMB_MASTER.c **** * Parameters:
 575:.\Generated_Source\PSoC5/I2C_COULOMB_MASTER.c **** *  acknNack:  Zero, response with NACK, if non-zero response with ACK.
 576:.\Generated_Source\PSoC5/I2C_COULOMB_MASTER.c **** *
 577:.\Generated_Source\PSoC5/I2C_COULOMB_MASTER.c **** * Return:
 578:.\Generated_Source\PSoC5/I2C_COULOMB_MASTER.c **** *  Byte read from slave.
 579:.\Generated_Source\PSoC5/I2C_COULOMB_MASTER.c **** *
 580:.\Generated_Source\PSoC5/I2C_COULOMB_MASTER.c **** * Side Effects:
 581:.\Generated_Source\PSoC5/I2C_COULOMB_MASTER.c **** *  This function is entered without a 'byte complete' bit set in the I2C_CSR
 582:.\Generated_Source\PSoC5/I2C_COULOMB_MASTER.c **** *  register. It does not exit until it will be set.
 583:.\Generated_Source\PSoC5/I2C_COULOMB_MASTER.c **** *
 584:.\Generated_Source\PSoC5/I2C_COULOMB_MASTER.c **** * Global variables:
 585:.\Generated_Source\PSoC5/I2C_COULOMB_MASTER.c **** *  I2C_COULOMB_state - used to store current state of software FSM.
 586:.\Generated_Source\PSoC5/I2C_COULOMB_MASTER.c **** *
 587:.\Generated_Source\PSoC5/I2C_COULOMB_MASTER.c **** * Reentrant:
 588:.\Generated_Source\PSoC5/I2C_COULOMB_MASTER.c **** *  No
 589:.\Generated_Source\PSoC5/I2C_COULOMB_MASTER.c **** *
ARM GAS  C:\Users\Graziano\AppData\Local\Temp\ccpJonYe.s 			page 23


 590:.\Generated_Source\PSoC5/I2C_COULOMB_MASTER.c **** *******************************************************************************/
 591:.\Generated_Source\PSoC5/I2C_COULOMB_MASTER.c **** uint8 I2C_COULOMB_MasterReadByte(uint8 acknNak) 
 592:.\Generated_Source\PSoC5/I2C_COULOMB_MASTER.c **** {
 642              		.loc 1 592 0
 643              		.cfi_startproc
 644              		@ args = 0, pretend = 0, frame = 0
 645              		@ frame_needed = 0, uses_anonymous_args = 0
 646              		@ link register save eliminated.
 647              	.LVL61:
 593:.\Generated_Source\PSoC5/I2C_COULOMB_MASTER.c ****     uint8 theByte;
 594:.\Generated_Source\PSoC5/I2C_COULOMB_MASTER.c **** 
 595:.\Generated_Source\PSoC5/I2C_COULOMB_MASTER.c ****     theByte = 0u;
 596:.\Generated_Source\PSoC5/I2C_COULOMB_MASTER.c **** 
 597:.\Generated_Source\PSoC5/I2C_COULOMB_MASTER.c ****     /* Check if START condition was generated */
 598:.\Generated_Source\PSoC5/I2C_COULOMB_MASTER.c ****     if(I2C_COULOMB_CHECK_MASTER_MODE(I2C_COULOMB_MCSR_REG))
 648              		.loc 1 598 0
 649 0000 0F4B     		ldr	r3, .L102
 592:.\Generated_Source\PSoC5/I2C_COULOMB_MASTER.c **** {
 650              		.loc 1 592 0
 651 0002 0246     		mov	r2, r0
 652              		.loc 1 598 0
 653 0004 1878     		ldrb	r0, [r3, #0]	@ zero_extendqisi2
 654              	.LVL62:
 655 0006 00F00401 		and	r1, r0, #4
 656 000a CBB2     		uxtb	r3, r1
 657 000c ABB1     		cbz	r3, .L95
 599:.\Generated_Source\PSoC5/I2C_COULOMB_MASTER.c ****     {
 600:.\Generated_Source\PSoC5/I2C_COULOMB_MASTER.c ****         /* When address phase need release the bus and receive the byte, then decide ACK or NACK */
 601:.\Generated_Source\PSoC5/I2C_COULOMB_MASTER.c ****         if(I2C_COULOMB_SM_MSTR_RD_ADDR == I2C_COULOMB_state)
 658              		.loc 1 601 0
 659 000e 0D48     		ldr	r0, .L102+4
 660 0010 0178     		ldrb	r1, [r0, #0]	@ zero_extendqisi2
 661 0012 4929     		cmp	r1, #73
 662 0014 04D1     		bne	.L98
 602:.\Generated_Source\PSoC5/I2C_COULOMB_MASTER.c ****         {
 603:.\Generated_Source\PSoC5/I2C_COULOMB_MASTER.c ****             I2C_COULOMB_state = I2C_COULOMB_SM_MSTR_RD_DATA;
 663              		.loc 1 603 0
 664 0016 4A23     		movs	r3, #74
 604:.\Generated_Source\PSoC5/I2C_COULOMB_MASTER.c ****             I2C_COULOMB_READY_TO_READ_MANUAL;
 665              		.loc 1 604 0
 666 0018 0B49     		ldr	r1, .L102+8
 603:.\Generated_Source\PSoC5/I2C_COULOMB_MASTER.c ****             I2C_COULOMB_state = I2C_COULOMB_SM_MSTR_RD_DATA;
 667              		.loc 1 603 0
 668 001a 0370     		strb	r3, [r0, #0]
 669              		.loc 1 604 0
 670 001c 0020     		movs	r0, #0
 671 001e 0870     		strb	r0, [r1, #0]
 672              	.L98:
 605:.\Generated_Source\PSoC5/I2C_COULOMB_MASTER.c ****         }
 606:.\Generated_Source\PSoC5/I2C_COULOMB_MASTER.c **** 
 607:.\Generated_Source\PSoC5/I2C_COULOMB_MASTER.c ****         while(I2C_COULOMB_WAIT_BYTE_COMPLETE(I2C_COULOMB_CSR_REG))
 673              		.loc 1 607 0 discriminator 1
 674 0020 094B     		ldr	r3, .L102+8
 675 0022 1878     		ldrb	r0, [r3, #0]	@ zero_extendqisi2
 676 0024 C107     		lsls	r1, r0, #31
 677 0026 FBD5     		bpl	.L98
 608:.\Generated_Source\PSoC5/I2C_COULOMB_MASTER.c ****         {
ARM GAS  C:\Users\Graziano\AppData\Local\Temp\ccpJonYe.s 			page 24


 609:.\Generated_Source\PSoC5/I2C_COULOMB_MASTER.c ****             ; /* Wait for byte to be read */
 610:.\Generated_Source\PSoC5/I2C_COULOMB_MASTER.c ****         }
 611:.\Generated_Source\PSoC5/I2C_COULOMB_MASTER.c **** 
 612:.\Generated_Source\PSoC5/I2C_COULOMB_MASTER.c ****         theByte = I2C_COULOMB_DATA_REG;
 678              		.loc 1 612 0
 679 0028 0849     		ldr	r1, .L102+12
 680 002a 0878     		ldrb	r0, [r1, #0]	@ zero_extendqisi2
 681              	.LVL63:
 613:.\Generated_Source\PSoC5/I2C_COULOMB_MASTER.c **** 
 614:.\Generated_Source\PSoC5/I2C_COULOMB_MASTER.c ****         /* Now if the ACK flag was set, ACK the data which will release the bus and
 615:.\Generated_Source\PSoC5/I2C_COULOMB_MASTER.c ****            start the next byte in otherwise do NOTHING to the CSR reg.
 616:.\Generated_Source\PSoC5/I2C_COULOMB_MASTER.c ****            This will allow the calling routine to generate a repeat start or
 617:.\Generated_Source\PSoC5/I2C_COULOMB_MASTER.c ****            stop depending on it's preference. */
 618:.\Generated_Source\PSoC5/I2C_COULOMB_MASTER.c ****         if(acknNak != 0u)   /* Do ACK */
 682              		.loc 1 618 0
 683 002c 0AB1     		cbz	r2, .L94
 619:.\Generated_Source\PSoC5/I2C_COULOMB_MASTER.c ****         {
 620:.\Generated_Source\PSoC5/I2C_COULOMB_MASTER.c ****             I2C_COULOMB_ACK_AND_RECEIVE_MANUAL;
 684              		.loc 1 620 0
 685 002e 1022     		movs	r2, #16
 686 0030 01E0     		b	.L101
 687              	.L94:
 621:.\Generated_Source\PSoC5/I2C_COULOMB_MASTER.c ****         }
 622:.\Generated_Source\PSoC5/I2C_COULOMB_MASTER.c ****         else                /* Do NACK */
 623:.\Generated_Source\PSoC5/I2C_COULOMB_MASTER.c ****         {
 624:.\Generated_Source\PSoC5/I2C_COULOMB_MASTER.c ****             /* Do nothing to be able work with ReStart */
 625:.\Generated_Source\PSoC5/I2C_COULOMB_MASTER.c ****             I2C_COULOMB_state = I2C_COULOMB_SM_MSTR_HALT;
 688              		.loc 1 625 0
 689 0032 044B     		ldr	r3, .L102+4
 690 0034 6022     		movs	r2, #96
 691              	.L101:
 692 0036 1A70     		strb	r2, [r3, #0]
 693 0038 7047     		bx	lr
 694              	.LVL64:
 695              	.L95:
 595:.\Generated_Source\PSoC5/I2C_COULOMB_MASTER.c ****     theByte = 0u;
 696              		.loc 1 595 0
 697 003a 1846     		mov	r0, r3
 698              	.LVL65:
 626:.\Generated_Source\PSoC5/I2C_COULOMB_MASTER.c ****         }
 627:.\Generated_Source\PSoC5/I2C_COULOMB_MASTER.c ****     }
 628:.\Generated_Source\PSoC5/I2C_COULOMB_MASTER.c **** 
 629:.\Generated_Source\PSoC5/I2C_COULOMB_MASTER.c ****     return(theByte);
 630:.\Generated_Source\PSoC5/I2C_COULOMB_MASTER.c **** }
 699              		.loc 1 630 0
 700 003c 7047     		bx	lr
 701              	.L103:
 702 003e 00BF     		.align	2
 703              	.L102:
 704 0040 D9490040 		.word	1073760729
 705 0044 00000000 		.word	I2C_COULOMB_state
 706 0048 D7490040 		.word	1073760727
 707 004c D8490040 		.word	1073760728
 708              		.cfi_endproc
 709              	.LFE6:
 710              		.size	I2C_COULOMB_MasterReadByte, .-I2C_COULOMB_MasterReadByte
 711              		.section	.text.I2C_COULOMB_MasterStatus,"ax",%progbits
ARM GAS  C:\Users\Graziano\AppData\Local\Temp\ccpJonYe.s 			page 25


 712              		.align	1
 713              		.global	I2C_COULOMB_MasterStatus
 714              		.thumb
 715              		.thumb_func
 716              		.type	I2C_COULOMB_MasterStatus, %function
 717              	I2C_COULOMB_MasterStatus:
 718              	.LFB7:
 631:.\Generated_Source\PSoC5/I2C_COULOMB_MASTER.c **** 
 632:.\Generated_Source\PSoC5/I2C_COULOMB_MASTER.c **** 
 633:.\Generated_Source\PSoC5/I2C_COULOMB_MASTER.c **** /*******************************************************************************
 634:.\Generated_Source\PSoC5/I2C_COULOMB_MASTER.c **** * Function Name: I2C_COULOMB_MasterStatus
 635:.\Generated_Source\PSoC5/I2C_COULOMB_MASTER.c **** ********************************************************************************
 636:.\Generated_Source\PSoC5/I2C_COULOMB_MASTER.c **** *
 637:.\Generated_Source\PSoC5/I2C_COULOMB_MASTER.c **** * Summary:
 638:.\Generated_Source\PSoC5/I2C_COULOMB_MASTER.c **** *  Returns the master's communication status.
 639:.\Generated_Source\PSoC5/I2C_COULOMB_MASTER.c **** *
 640:.\Generated_Source\PSoC5/I2C_COULOMB_MASTER.c **** * Parameters:
 641:.\Generated_Source\PSoC5/I2C_COULOMB_MASTER.c **** *  None
 642:.\Generated_Source\PSoC5/I2C_COULOMB_MASTER.c **** *
 643:.\Generated_Source\PSoC5/I2C_COULOMB_MASTER.c **** * Return:
 644:.\Generated_Source\PSoC5/I2C_COULOMB_MASTER.c **** *  Current status of I2C master.
 645:.\Generated_Source\PSoC5/I2C_COULOMB_MASTER.c **** *
 646:.\Generated_Source\PSoC5/I2C_COULOMB_MASTER.c **** * Global variables:
 647:.\Generated_Source\PSoC5/I2C_COULOMB_MASTER.c **** *  I2C_COULOMB_mstrStatus - used to store current status of I2C Master.
 648:.\Generated_Source\PSoC5/I2C_COULOMB_MASTER.c **** *
 649:.\Generated_Source\PSoC5/I2C_COULOMB_MASTER.c **** *******************************************************************************/
 650:.\Generated_Source\PSoC5/I2C_COULOMB_MASTER.c **** uint8 I2C_COULOMB_MasterStatus(void) 
 651:.\Generated_Source\PSoC5/I2C_COULOMB_MASTER.c **** {
 719              		.loc 1 651 0
 720              		.cfi_startproc
 721              		@ args = 0, pretend = 0, frame = 0
 722              		@ frame_needed = 0, uses_anonymous_args = 0
 723              		@ link register save eliminated.
 652:.\Generated_Source\PSoC5/I2C_COULOMB_MASTER.c ****     uint8 status;
 653:.\Generated_Source\PSoC5/I2C_COULOMB_MASTER.c **** 
 654:.\Generated_Source\PSoC5/I2C_COULOMB_MASTER.c ****     status = I2C_COULOMB_mstrStatus;
 724              		.loc 1 654 0
 725 0000 054B     		ldr	r3, .L109
 655:.\Generated_Source\PSoC5/I2C_COULOMB_MASTER.c **** 
 656:.\Generated_Source\PSoC5/I2C_COULOMB_MASTER.c ****     /* When in Master state only transaction is in progress */
 657:.\Generated_Source\PSoC5/I2C_COULOMB_MASTER.c ****     if(I2C_COULOMB_CHECK_SM_MASTER)
 726              		.loc 1 657 0
 727 0002 0649     		ldr	r1, .L109+4
 654:.\Generated_Source\PSoC5/I2C_COULOMB_MASTER.c ****     status = I2C_COULOMB_mstrStatus;
 728              		.loc 1 654 0
 729 0004 1878     		ldrb	r0, [r3, #0]	@ zero_extendqisi2
 730              	.LVL66:
 731              		.loc 1 657 0
 732 0006 0A78     		ldrb	r2, [r1, #0]	@ zero_extendqisi2
 733 0008 02F04003 		and	r3, r2, #64
 734 000c D9B2     		uxtb	r1, r3
 735 000e 09B1     		cbz	r1, .L105
 658:.\Generated_Source\PSoC5/I2C_COULOMB_MASTER.c ****     {
 659:.\Generated_Source\PSoC5/I2C_COULOMB_MASTER.c ****         /* Add transaction in progress activity to master status */
 660:.\Generated_Source\PSoC5/I2C_COULOMB_MASTER.c ****         status |= I2C_COULOMB_MSTAT_XFER_INP;
 736              		.loc 1 660 0
 737 0010 40F00400 		orr	r0, r0, #4
ARM GAS  C:\Users\Graziano\AppData\Local\Temp\ccpJonYe.s 			page 26


 738              	.LVL67:
 739              	.L105:
 661:.\Generated_Source\PSoC5/I2C_COULOMB_MASTER.c ****     }
 662:.\Generated_Source\PSoC5/I2C_COULOMB_MASTER.c ****     else
 663:.\Generated_Source\PSoC5/I2C_COULOMB_MASTER.c ****     {
 664:.\Generated_Source\PSoC5/I2C_COULOMB_MASTER.c ****         /* Current master status is valid */
 665:.\Generated_Source\PSoC5/I2C_COULOMB_MASTER.c ****     }
 666:.\Generated_Source\PSoC5/I2C_COULOMB_MASTER.c **** 
 667:.\Generated_Source\PSoC5/I2C_COULOMB_MASTER.c ****     return(status);
 668:.\Generated_Source\PSoC5/I2C_COULOMB_MASTER.c **** }
 740              		.loc 1 668 0
 741 0014 7047     		bx	lr
 742              	.L110:
 743 0016 00BF     		.align	2
 744              	.L109:
 745 0018 00000000 		.word	I2C_COULOMB_mstrStatus
 746 001c 00000000 		.word	I2C_COULOMB_state
 747              		.cfi_endproc
 748              	.LFE7:
 749              		.size	I2C_COULOMB_MasterStatus, .-I2C_COULOMB_MasterStatus
 750              		.section	.text.I2C_COULOMB_MasterClearStatus,"ax",%progbits
 751              		.align	1
 752              		.global	I2C_COULOMB_MasterClearStatus
 753              		.thumb
 754              		.thumb_func
 755              		.type	I2C_COULOMB_MasterClearStatus, %function
 756              	I2C_COULOMB_MasterClearStatus:
 757              	.LFB8:
 669:.\Generated_Source\PSoC5/I2C_COULOMB_MASTER.c **** 
 670:.\Generated_Source\PSoC5/I2C_COULOMB_MASTER.c **** 
 671:.\Generated_Source\PSoC5/I2C_COULOMB_MASTER.c **** /*******************************************************************************
 672:.\Generated_Source\PSoC5/I2C_COULOMB_MASTER.c **** * Function Name: I2C_COULOMB_MasterClearStatus
 673:.\Generated_Source\PSoC5/I2C_COULOMB_MASTER.c **** ********************************************************************************
 674:.\Generated_Source\PSoC5/I2C_COULOMB_MASTER.c **** *
 675:.\Generated_Source\PSoC5/I2C_COULOMB_MASTER.c **** * Summary:
 676:.\Generated_Source\PSoC5/I2C_COULOMB_MASTER.c **** *  Clears all status flags and returns the master status.
 677:.\Generated_Source\PSoC5/I2C_COULOMB_MASTER.c **** *
 678:.\Generated_Source\PSoC5/I2C_COULOMB_MASTER.c **** * Parameters:
 679:.\Generated_Source\PSoC5/I2C_COULOMB_MASTER.c **** *  None
 680:.\Generated_Source\PSoC5/I2C_COULOMB_MASTER.c **** *
 681:.\Generated_Source\PSoC5/I2C_COULOMB_MASTER.c **** * Return:
 682:.\Generated_Source\PSoC5/I2C_COULOMB_MASTER.c **** *  Current status of I2C master.
 683:.\Generated_Source\PSoC5/I2C_COULOMB_MASTER.c **** *
 684:.\Generated_Source\PSoC5/I2C_COULOMB_MASTER.c **** * Global variables:
 685:.\Generated_Source\PSoC5/I2C_COULOMB_MASTER.c **** *  I2C_COULOMB_mstrStatus - used to store current status of I2C Master.
 686:.\Generated_Source\PSoC5/I2C_COULOMB_MASTER.c **** *
 687:.\Generated_Source\PSoC5/I2C_COULOMB_MASTER.c **** * Reentrant:
 688:.\Generated_Source\PSoC5/I2C_COULOMB_MASTER.c **** *  No
 689:.\Generated_Source\PSoC5/I2C_COULOMB_MASTER.c **** *
 690:.\Generated_Source\PSoC5/I2C_COULOMB_MASTER.c **** *******************************************************************************/
 691:.\Generated_Source\PSoC5/I2C_COULOMB_MASTER.c **** uint8 I2C_COULOMB_MasterClearStatus(void) 
 692:.\Generated_Source\PSoC5/I2C_COULOMB_MASTER.c **** {
 758              		.loc 1 692 0
 759              		.cfi_startproc
 760              		@ args = 0, pretend = 0, frame = 0
 761              		@ frame_needed = 0, uses_anonymous_args = 0
 762              		@ link register save eliminated.
ARM GAS  C:\Users\Graziano\AppData\Local\Temp\ccpJonYe.s 			page 27


 693:.\Generated_Source\PSoC5/I2C_COULOMB_MASTER.c ****     /* Current master status */
 694:.\Generated_Source\PSoC5/I2C_COULOMB_MASTER.c ****     uint8 status;
 695:.\Generated_Source\PSoC5/I2C_COULOMB_MASTER.c **** 
 696:.\Generated_Source\PSoC5/I2C_COULOMB_MASTER.c ****     /* Read and clear master status */
 697:.\Generated_Source\PSoC5/I2C_COULOMB_MASTER.c ****     status = I2C_COULOMB_mstrStatus;
 763              		.loc 1 697 0
 764 0000 024B     		ldr	r3, .L112
 698:.\Generated_Source\PSoC5/I2C_COULOMB_MASTER.c ****     I2C_COULOMB_mstrStatus = I2C_COULOMB_MSTAT_CLEAR;
 765              		.loc 1 698 0
 766 0002 0022     		movs	r2, #0
 697:.\Generated_Source\PSoC5/I2C_COULOMB_MASTER.c ****     status = I2C_COULOMB_mstrStatus;
 767              		.loc 1 697 0
 768 0004 1878     		ldrb	r0, [r3, #0]	@ zero_extendqisi2
 769              	.LVL68:
 770              		.loc 1 698 0
 771 0006 1A70     		strb	r2, [r3, #0]
 699:.\Generated_Source\PSoC5/I2C_COULOMB_MASTER.c **** 
 700:.\Generated_Source\PSoC5/I2C_COULOMB_MASTER.c ****     return(status);
 701:.\Generated_Source\PSoC5/I2C_COULOMB_MASTER.c **** }
 772              		.loc 1 701 0
 773 0008 7047     		bx	lr
 774              	.L113:
 775 000a 00BF     		.align	2
 776              	.L112:
 777 000c 00000000 		.word	I2C_COULOMB_mstrStatus
 778              		.cfi_endproc
 779              	.LFE8:
 780              		.size	I2C_COULOMB_MasterClearStatus, .-I2C_COULOMB_MasterClearStatus
 781              		.section	.text.I2C_COULOMB_MasterGetReadBufSize,"ax",%progbits
 782              		.align	1
 783              		.global	I2C_COULOMB_MasterGetReadBufSize
 784              		.thumb
 785              		.thumb_func
 786              		.type	I2C_COULOMB_MasterGetReadBufSize, %function
 787              	I2C_COULOMB_MasterGetReadBufSize:
 788              	.LFB9:
 702:.\Generated_Source\PSoC5/I2C_COULOMB_MASTER.c **** 
 703:.\Generated_Source\PSoC5/I2C_COULOMB_MASTER.c **** 
 704:.\Generated_Source\PSoC5/I2C_COULOMB_MASTER.c **** /*******************************************************************************
 705:.\Generated_Source\PSoC5/I2C_COULOMB_MASTER.c **** * Function Name: I2C_COULOMB_MasterGetReadBufSize
 706:.\Generated_Source\PSoC5/I2C_COULOMB_MASTER.c **** ********************************************************************************
 707:.\Generated_Source\PSoC5/I2C_COULOMB_MASTER.c **** *
 708:.\Generated_Source\PSoC5/I2C_COULOMB_MASTER.c **** * Summary:
 709:.\Generated_Source\PSoC5/I2C_COULOMB_MASTER.c **** *  Returns the amount of bytes that has been transferred with an
 710:.\Generated_Source\PSoC5/I2C_COULOMB_MASTER.c **** *  I2C_MasterReadBuf command.
 711:.\Generated_Source\PSoC5/I2C_COULOMB_MASTER.c **** *
 712:.\Generated_Source\PSoC5/I2C_COULOMB_MASTER.c **** * Parameters:
 713:.\Generated_Source\PSoC5/I2C_COULOMB_MASTER.c **** *  None
 714:.\Generated_Source\PSoC5/I2C_COULOMB_MASTER.c **** *
 715:.\Generated_Source\PSoC5/I2C_COULOMB_MASTER.c **** * Return:
 716:.\Generated_Source\PSoC5/I2C_COULOMB_MASTER.c **** *  Byte count of transfer. If the transfer is not yet complete, it will return
 717:.\Generated_Source\PSoC5/I2C_COULOMB_MASTER.c **** *  the byte count transferred so far.
 718:.\Generated_Source\PSoC5/I2C_COULOMB_MASTER.c **** *
 719:.\Generated_Source\PSoC5/I2C_COULOMB_MASTER.c **** * Global variables:
 720:.\Generated_Source\PSoC5/I2C_COULOMB_MASTER.c **** *  I2C_COULOMB_mstrRdBufIndex - used to current index within master read
 721:.\Generated_Source\PSoC5/I2C_COULOMB_MASTER.c **** *  buffer.
 722:.\Generated_Source\PSoC5/I2C_COULOMB_MASTER.c **** *
ARM GAS  C:\Users\Graziano\AppData\Local\Temp\ccpJonYe.s 			page 28


 723:.\Generated_Source\PSoC5/I2C_COULOMB_MASTER.c **** *******************************************************************************/
 724:.\Generated_Source\PSoC5/I2C_COULOMB_MASTER.c **** uint8 I2C_COULOMB_MasterGetReadBufSize(void) 
 725:.\Generated_Source\PSoC5/I2C_COULOMB_MASTER.c **** {
 789              		.loc 1 725 0
 790              		.cfi_startproc
 791              		@ args = 0, pretend = 0, frame = 0
 792              		@ frame_needed = 0, uses_anonymous_args = 0
 793              		@ link register save eliminated.
 726:.\Generated_Source\PSoC5/I2C_COULOMB_MASTER.c ****     return(I2C_COULOMB_mstrRdBufIndex);
 794              		.loc 1 726 0
 795 0000 014B     		ldr	r3, .L115
 796 0002 1878     		ldrb	r0, [r3, #0]	@ zero_extendqisi2
 727:.\Generated_Source\PSoC5/I2C_COULOMB_MASTER.c **** }
 797              		.loc 1 727 0
 798 0004 7047     		bx	lr
 799              	.L116:
 800 0006 00BF     		.align	2
 801              	.L115:
 802 0008 00000000 		.word	I2C_COULOMB_mstrRdBufIndex
 803              		.cfi_endproc
 804              	.LFE9:
 805              		.size	I2C_COULOMB_MasterGetReadBufSize, .-I2C_COULOMB_MasterGetReadBufSize
 806              		.section	.text.I2C_COULOMB_MasterGetWriteBufSize,"ax",%progbits
 807              		.align	1
 808              		.global	I2C_COULOMB_MasterGetWriteBufSize
 809              		.thumb
 810              		.thumb_func
 811              		.type	I2C_COULOMB_MasterGetWriteBufSize, %function
 812              	I2C_COULOMB_MasterGetWriteBufSize:
 813              	.LFB10:
 728:.\Generated_Source\PSoC5/I2C_COULOMB_MASTER.c **** 
 729:.\Generated_Source\PSoC5/I2C_COULOMB_MASTER.c **** 
 730:.\Generated_Source\PSoC5/I2C_COULOMB_MASTER.c **** /*******************************************************************************
 731:.\Generated_Source\PSoC5/I2C_COULOMB_MASTER.c **** * Function Name: I2C_COULOMB_MasterGetWriteBufSize
 732:.\Generated_Source\PSoC5/I2C_COULOMB_MASTER.c **** ********************************************************************************
 733:.\Generated_Source\PSoC5/I2C_COULOMB_MASTER.c **** *
 734:.\Generated_Source\PSoC5/I2C_COULOMB_MASTER.c **** * Summary:
 735:.\Generated_Source\PSoC5/I2C_COULOMB_MASTER.c **** *  Returns the amount of bytes that has been transferred with an
 736:.\Generated_Source\PSoC5/I2C_COULOMB_MASTER.c **** *  I2C_MasterWriteBuf command.
 737:.\Generated_Source\PSoC5/I2C_COULOMB_MASTER.c **** *
 738:.\Generated_Source\PSoC5/I2C_COULOMB_MASTER.c **** * Parameters:
 739:.\Generated_Source\PSoC5/I2C_COULOMB_MASTER.c **** *  None
 740:.\Generated_Source\PSoC5/I2C_COULOMB_MASTER.c **** *
 741:.\Generated_Source\PSoC5/I2C_COULOMB_MASTER.c **** * Return:
 742:.\Generated_Source\PSoC5/I2C_COULOMB_MASTER.c **** *  Byte count of transfer. If the transfer is not yet complete, it will return
 743:.\Generated_Source\PSoC5/I2C_COULOMB_MASTER.c **** *  the byte count transferred so far.
 744:.\Generated_Source\PSoC5/I2C_COULOMB_MASTER.c **** *
 745:.\Generated_Source\PSoC5/I2C_COULOMB_MASTER.c **** * Global variables:
 746:.\Generated_Source\PSoC5/I2C_COULOMB_MASTER.c **** *  I2C_COULOMB_mstrWrBufIndex - used to current index within master write
 747:.\Generated_Source\PSoC5/I2C_COULOMB_MASTER.c **** *  buffer.
 748:.\Generated_Source\PSoC5/I2C_COULOMB_MASTER.c **** *
 749:.\Generated_Source\PSoC5/I2C_COULOMB_MASTER.c **** *******************************************************************************/
 750:.\Generated_Source\PSoC5/I2C_COULOMB_MASTER.c **** uint8 I2C_COULOMB_MasterGetWriteBufSize(void) 
 751:.\Generated_Source\PSoC5/I2C_COULOMB_MASTER.c **** {
 814              		.loc 1 751 0
 815              		.cfi_startproc
 816              		@ args = 0, pretend = 0, frame = 0
ARM GAS  C:\Users\Graziano\AppData\Local\Temp\ccpJonYe.s 			page 29


 817              		@ frame_needed = 0, uses_anonymous_args = 0
 818              		@ link register save eliminated.
 752:.\Generated_Source\PSoC5/I2C_COULOMB_MASTER.c ****     return(I2C_COULOMB_mstrWrBufIndex);
 819              		.loc 1 752 0
 820 0000 014B     		ldr	r3, .L118
 821 0002 1878     		ldrb	r0, [r3, #0]	@ zero_extendqisi2
 753:.\Generated_Source\PSoC5/I2C_COULOMB_MASTER.c **** }
 822              		.loc 1 753 0
 823 0004 7047     		bx	lr
 824              	.L119:
 825 0006 00BF     		.align	2
 826              	.L118:
 827 0008 00000000 		.word	I2C_COULOMB_mstrWrBufIndex
 828              		.cfi_endproc
 829              	.LFE10:
 830              		.size	I2C_COULOMB_MasterGetWriteBufSize, .-I2C_COULOMB_MasterGetWriteBufSize
 831              		.section	.text.I2C_COULOMB_MasterClearReadBuf,"ax",%progbits
 832              		.align	1
 833              		.global	I2C_COULOMB_MasterClearReadBuf
 834              		.thumb
 835              		.thumb_func
 836              		.type	I2C_COULOMB_MasterClearReadBuf, %function
 837              	I2C_COULOMB_MasterClearReadBuf:
 838              	.LFB11:
 754:.\Generated_Source\PSoC5/I2C_COULOMB_MASTER.c **** 
 755:.\Generated_Source\PSoC5/I2C_COULOMB_MASTER.c **** 
 756:.\Generated_Source\PSoC5/I2C_COULOMB_MASTER.c **** /*******************************************************************************
 757:.\Generated_Source\PSoC5/I2C_COULOMB_MASTER.c **** * Function Name: I2C_COULOMB_MasterClearReadBuf
 758:.\Generated_Source\PSoC5/I2C_COULOMB_MASTER.c **** ********************************************************************************
 759:.\Generated_Source\PSoC5/I2C_COULOMB_MASTER.c **** *
 760:.\Generated_Source\PSoC5/I2C_COULOMB_MASTER.c **** * Summary:
 761:.\Generated_Source\PSoC5/I2C_COULOMB_MASTER.c **** *  Resets the read buffer pointer back to the first byte in the buffer.
 762:.\Generated_Source\PSoC5/I2C_COULOMB_MASTER.c **** *
 763:.\Generated_Source\PSoC5/I2C_COULOMB_MASTER.c **** * Parameters:
 764:.\Generated_Source\PSoC5/I2C_COULOMB_MASTER.c **** *  None
 765:.\Generated_Source\PSoC5/I2C_COULOMB_MASTER.c **** *
 766:.\Generated_Source\PSoC5/I2C_COULOMB_MASTER.c **** * Return:
 767:.\Generated_Source\PSoC5/I2C_COULOMB_MASTER.c **** *  None
 768:.\Generated_Source\PSoC5/I2C_COULOMB_MASTER.c **** *
 769:.\Generated_Source\PSoC5/I2C_COULOMB_MASTER.c **** * Global variables:
 770:.\Generated_Source\PSoC5/I2C_COULOMB_MASTER.c **** *  I2C_COULOMB_mstrRdBufIndex - used to current index within master read
 771:.\Generated_Source\PSoC5/I2C_COULOMB_MASTER.c **** *   buffer.
 772:.\Generated_Source\PSoC5/I2C_COULOMB_MASTER.c **** *  I2C_COULOMB_mstrStatus - used to store current status of I2C Master.
 773:.\Generated_Source\PSoC5/I2C_COULOMB_MASTER.c **** *
 774:.\Generated_Source\PSoC5/I2C_COULOMB_MASTER.c **** * Reentrant:
 775:.\Generated_Source\PSoC5/I2C_COULOMB_MASTER.c **** *  No
 776:.\Generated_Source\PSoC5/I2C_COULOMB_MASTER.c **** *
 777:.\Generated_Source\PSoC5/I2C_COULOMB_MASTER.c **** *******************************************************************************/
 778:.\Generated_Source\PSoC5/I2C_COULOMB_MASTER.c **** void I2C_COULOMB_MasterClearReadBuf(void) 
 779:.\Generated_Source\PSoC5/I2C_COULOMB_MASTER.c **** {
 839              		.loc 1 779 0
 840              		.cfi_startproc
 841              		@ args = 0, pretend = 0, frame = 0
 842              		@ frame_needed = 0, uses_anonymous_args = 0
 843              		@ link register save eliminated.
 780:.\Generated_Source\PSoC5/I2C_COULOMB_MASTER.c ****     I2C_COULOMB_mstrRdBufIndex = 0u;
 844              		.loc 1 780 0
ARM GAS  C:\Users\Graziano\AppData\Local\Temp\ccpJonYe.s 			page 30


 845 0000 044B     		ldr	r3, .L121
 846 0002 0022     		movs	r2, #0
 781:.\Generated_Source\PSoC5/I2C_COULOMB_MASTER.c ****     I2C_COULOMB_mstrStatus    &= ((uint8) ~I2C_COULOMB_MSTAT_RD_CMPLT);
 847              		.loc 1 781 0
 848 0004 0448     		ldr	r0, .L121+4
 780:.\Generated_Source\PSoC5/I2C_COULOMB_MASTER.c ****     I2C_COULOMB_mstrRdBufIndex = 0u;
 849              		.loc 1 780 0
 850 0006 1A70     		strb	r2, [r3, #0]
 851              		.loc 1 781 0
 852 0008 0178     		ldrb	r1, [r0, #0]	@ zero_extendqisi2
 853 000a 01F0FE02 		and	r2, r1, #254
 854 000e 0270     		strb	r2, [r0, #0]
 855 0010 7047     		bx	lr
 856              	.L122:
 857 0012 00BF     		.align	2
 858              	.L121:
 859 0014 00000000 		.word	I2C_COULOMB_mstrRdBufIndex
 860 0018 00000000 		.word	I2C_COULOMB_mstrStatus
 861              		.cfi_endproc
 862              	.LFE11:
 863              		.size	I2C_COULOMB_MasterClearReadBuf, .-I2C_COULOMB_MasterClearReadBuf
 864              		.section	.text.I2C_COULOMB_MasterClearWriteBuf,"ax",%progbits
 865              		.align	1
 866              		.global	I2C_COULOMB_MasterClearWriteBuf
 867              		.thumb
 868              		.thumb_func
 869              		.type	I2C_COULOMB_MasterClearWriteBuf, %function
 870              	I2C_COULOMB_MasterClearWriteBuf:
 871              	.LFB12:
 782:.\Generated_Source\PSoC5/I2C_COULOMB_MASTER.c **** }
 783:.\Generated_Source\PSoC5/I2C_COULOMB_MASTER.c **** 
 784:.\Generated_Source\PSoC5/I2C_COULOMB_MASTER.c **** 
 785:.\Generated_Source\PSoC5/I2C_COULOMB_MASTER.c **** /*******************************************************************************
 786:.\Generated_Source\PSoC5/I2C_COULOMB_MASTER.c **** * Function Name: I2C_COULOMB_MasterClearWriteBuf
 787:.\Generated_Source\PSoC5/I2C_COULOMB_MASTER.c **** ********************************************************************************
 788:.\Generated_Source\PSoC5/I2C_COULOMB_MASTER.c **** *
 789:.\Generated_Source\PSoC5/I2C_COULOMB_MASTER.c **** * Summary:
 790:.\Generated_Source\PSoC5/I2C_COULOMB_MASTER.c **** *  Resets the write buffer pointer back to the first byte in the buffer.
 791:.\Generated_Source\PSoC5/I2C_COULOMB_MASTER.c **** *
 792:.\Generated_Source\PSoC5/I2C_COULOMB_MASTER.c **** * Parameters:
 793:.\Generated_Source\PSoC5/I2C_COULOMB_MASTER.c **** *  None
 794:.\Generated_Source\PSoC5/I2C_COULOMB_MASTER.c **** *
 795:.\Generated_Source\PSoC5/I2C_COULOMB_MASTER.c **** * Return:
 796:.\Generated_Source\PSoC5/I2C_COULOMB_MASTER.c **** *  None
 797:.\Generated_Source\PSoC5/I2C_COULOMB_MASTER.c **** *
 798:.\Generated_Source\PSoC5/I2C_COULOMB_MASTER.c **** * Global variables:
 799:.\Generated_Source\PSoC5/I2C_COULOMB_MASTER.c **** *  I2C_COULOMB_mstrRdBufIndex - used to current index within master read
 800:.\Generated_Source\PSoC5/I2C_COULOMB_MASTER.c **** *   buffer.
 801:.\Generated_Source\PSoC5/I2C_COULOMB_MASTER.c **** *  I2C_COULOMB_mstrStatus - used to store current status of I2C Master.
 802:.\Generated_Source\PSoC5/I2C_COULOMB_MASTER.c **** *
 803:.\Generated_Source\PSoC5/I2C_COULOMB_MASTER.c **** * Reentrant:
 804:.\Generated_Source\PSoC5/I2C_COULOMB_MASTER.c **** *  No
 805:.\Generated_Source\PSoC5/I2C_COULOMB_MASTER.c **** *
 806:.\Generated_Source\PSoC5/I2C_COULOMB_MASTER.c **** *******************************************************************************/
 807:.\Generated_Source\PSoC5/I2C_COULOMB_MASTER.c **** void I2C_COULOMB_MasterClearWriteBuf(void) 
 808:.\Generated_Source\PSoC5/I2C_COULOMB_MASTER.c **** {
 872              		.loc 1 808 0
ARM GAS  C:\Users\Graziano\AppData\Local\Temp\ccpJonYe.s 			page 31


 873              		.cfi_startproc
 874              		@ args = 0, pretend = 0, frame = 0
 875              		@ frame_needed = 0, uses_anonymous_args = 0
 876              		@ link register save eliminated.
 809:.\Generated_Source\PSoC5/I2C_COULOMB_MASTER.c ****     I2C_COULOMB_mstrWrBufIndex = 0u;
 877              		.loc 1 809 0
 878 0000 044B     		ldr	r3, .L124
 879 0002 0022     		movs	r2, #0
 810:.\Generated_Source\PSoC5/I2C_COULOMB_MASTER.c ****     I2C_COULOMB_mstrStatus    &= ((uint8) ~I2C_COULOMB_MSTAT_WR_CMPLT);
 880              		.loc 1 810 0
 881 0004 0448     		ldr	r0, .L124+4
 809:.\Generated_Source\PSoC5/I2C_COULOMB_MASTER.c ****     I2C_COULOMB_mstrWrBufIndex = 0u;
 882              		.loc 1 809 0
 883 0006 1A70     		strb	r2, [r3, #0]
 884              		.loc 1 810 0
 885 0008 0178     		ldrb	r1, [r0, #0]	@ zero_extendqisi2
 886 000a 01F0FD02 		and	r2, r1, #253
 887 000e 0270     		strb	r2, [r0, #0]
 888 0010 7047     		bx	lr
 889              	.L125:
 890 0012 00BF     		.align	2
 891              	.L124:
 892 0014 00000000 		.word	I2C_COULOMB_mstrWrBufIndex
 893 0018 00000000 		.word	I2C_COULOMB_mstrStatus
 894              		.cfi_endproc
 895              	.LFE12:
 896              		.size	I2C_COULOMB_MasterClearWriteBuf, .-I2C_COULOMB_MasterClearWriteBuf
 897              		.section	.text.I2C_COULOMB_Workaround,"ax",%progbits
 898              		.align	1
 899              		.global	I2C_COULOMB_Workaround
 900              		.thumb
 901              		.thumb_func
 902              		.type	I2C_COULOMB_Workaround, %function
 903              	I2C_COULOMB_Workaround:
 904              	.LFB13:
 811:.\Generated_Source\PSoC5/I2C_COULOMB_MASTER.c **** }
 812:.\Generated_Source\PSoC5/I2C_COULOMB_MASTER.c **** 
 813:.\Generated_Source\PSoC5/I2C_COULOMB_MASTER.c **** 
 814:.\Generated_Source\PSoC5/I2C_COULOMB_MASTER.c **** /*******************************************************************************
 815:.\Generated_Source\PSoC5/I2C_COULOMB_MASTER.c **** * Function Name: I2C_COULOMB_Workaround
 816:.\Generated_Source\PSoC5/I2C_COULOMB_MASTER.c **** ********************************************************************************
 817:.\Generated_Source\PSoC5/I2C_COULOMB_MASTER.c **** *
 818:.\Generated_Source\PSoC5/I2C_COULOMB_MASTER.c **** * Summary:
 819:.\Generated_Source\PSoC5/I2C_COULOMB_MASTER.c **** *  Do nothing. This fake fuction use as workaround for CDT 78083.
 820:.\Generated_Source\PSoC5/I2C_COULOMB_MASTER.c **** *
 821:.\Generated_Source\PSoC5/I2C_COULOMB_MASTER.c **** * Parameters:
 822:.\Generated_Source\PSoC5/I2C_COULOMB_MASTER.c **** *  None
 823:.\Generated_Source\PSoC5/I2C_COULOMB_MASTER.c **** *
 824:.\Generated_Source\PSoC5/I2C_COULOMB_MASTER.c **** * Return:
 825:.\Generated_Source\PSoC5/I2C_COULOMB_MASTER.c **** *  None
 826:.\Generated_Source\PSoC5/I2C_COULOMB_MASTER.c **** *
 827:.\Generated_Source\PSoC5/I2C_COULOMB_MASTER.c **** * Reentrant:
 828:.\Generated_Source\PSoC5/I2C_COULOMB_MASTER.c **** *  No
 829:.\Generated_Source\PSoC5/I2C_COULOMB_MASTER.c **** *
 830:.\Generated_Source\PSoC5/I2C_COULOMB_MASTER.c **** *******************************************************************************/
 831:.\Generated_Source\PSoC5/I2C_COULOMB_MASTER.c **** void I2C_COULOMB_Workaround(void) 
 832:.\Generated_Source\PSoC5/I2C_COULOMB_MASTER.c **** {
ARM GAS  C:\Users\Graziano\AppData\Local\Temp\ccpJonYe.s 			page 32


 905              		.loc 1 832 0
 906              		.cfi_startproc
 907              		@ args = 0, pretend = 0, frame = 0
 908              		@ frame_needed = 0, uses_anonymous_args = 0
 909              		@ link register save eliminated.
 910 0000 7047     		bx	lr
 911              		.cfi_endproc
 912              	.LFE13:
 913              		.size	I2C_COULOMB_Workaround, .-I2C_COULOMB_Workaround
 914              		.comm	I2C_COULOMB_mstrWrBufIndex,1,1
 915              		.comm	I2C_COULOMB_mstrWrBufSize,1,1
 916              		.comm	I2C_COULOMB_mstrWrBufPtr,4,4
 917              		.comm	I2C_COULOMB_mstrRdBufIndex,1,1
 918              		.comm	I2C_COULOMB_mstrRdBufSize,1,1
 919              		.comm	I2C_COULOMB_mstrRdBufPtr,4,4
 920              		.comm	I2C_COULOMB_mstrControl,1,1
 921              		.comm	I2C_COULOMB_mstrStatus,1,1
 922              		.text
 923              	.Letext0:
 924              		.file 2 ".\\Generated_Source\\PSoC5\\cytypes.h"
 925              		.file 3 ".\\Generated_Source\\PSoC5\\I2C_COULOMB_PVT.h"