ARM GAS  C:\Users\Graziano\AppData\Local\Temp\ccUt0Pjh.s 			page 1


   1              		.syntax unified
   2              		.cpu cortex-m3
   3              		.fpu softvfp
   4              		.eabi_attribute 20, 1
   5              		.eabi_attribute 21, 1
   6              		.eabi_attribute 23, 3
   7              		.eabi_attribute 24, 1
   8              		.eabi_attribute 25, 1
   9              		.eabi_attribute 26, 1
  10              		.eabi_attribute 30, 4
  11              		.eabi_attribute 34, 1
  12              		.eabi_attribute 18, 4
  13              		.thumb
  14              		.file	"I2C_COULOMB.c"
  15              		.text
  16              	.Ltext0:
  17              		.cfi_sections	.debug_frame
  18              		.section	.text.I2C_COULOMB_Init,"ax",%progbits
  19              		.align	1
  20              		.global	I2C_COULOMB_Init
  21              		.thumb
  22              		.thumb_func
  23              		.type	I2C_COULOMB_Init, %function
  24              	I2C_COULOMB_Init:
  25              	.LFB0:
  26              		.file 1 ".\\Generated_Source\\PSoC5\\I2C_COULOMB.c"
   1:.\Generated_Source\PSoC5/I2C_COULOMB.c **** /*******************************************************************************
   2:.\Generated_Source\PSoC5/I2C_COULOMB.c **** * File Name: I2C_COULOMB.c
   3:.\Generated_Source\PSoC5/I2C_COULOMB.c **** * Version 3.30
   4:.\Generated_Source\PSoC5/I2C_COULOMB.c **** *
   5:.\Generated_Source\PSoC5/I2C_COULOMB.c **** * Description:
   6:.\Generated_Source\PSoC5/I2C_COULOMB.c **** *  This file provides the source code of APIs for the I2C component.
   7:.\Generated_Source\PSoC5/I2C_COULOMB.c **** *  Actual protocol and operation code resides in the interrupt service routine
   8:.\Generated_Source\PSoC5/I2C_COULOMB.c **** *  file.
   9:.\Generated_Source\PSoC5/I2C_COULOMB.c **** *
  10:.\Generated_Source\PSoC5/I2C_COULOMB.c **** * Note:
  11:.\Generated_Source\PSoC5/I2C_COULOMB.c **** *
  12:.\Generated_Source\PSoC5/I2C_COULOMB.c **** *******************************************************************************
  13:.\Generated_Source\PSoC5/I2C_COULOMB.c **** * Copyright 2008-2012, Cypress Semiconductor Corporation. All rights reserved.
  14:.\Generated_Source\PSoC5/I2C_COULOMB.c **** * You may use this file only in accordance with the license, terms, conditions,
  15:.\Generated_Source\PSoC5/I2C_COULOMB.c **** * disclaimers, and limitations in the end user license agreement accompanying
  16:.\Generated_Source\PSoC5/I2C_COULOMB.c **** * the software package with which this file was provided.
  17:.\Generated_Source\PSoC5/I2C_COULOMB.c **** *******************************************************************************/
  18:.\Generated_Source\PSoC5/I2C_COULOMB.c **** 
  19:.\Generated_Source\PSoC5/I2C_COULOMB.c **** #include "I2C_COULOMB_PVT.h"
  20:.\Generated_Source\PSoC5/I2C_COULOMB.c **** 
  21:.\Generated_Source\PSoC5/I2C_COULOMB.c **** 
  22:.\Generated_Source\PSoC5/I2C_COULOMB.c **** /**********************************
  23:.\Generated_Source\PSoC5/I2C_COULOMB.c **** *      System variables
  24:.\Generated_Source\PSoC5/I2C_COULOMB.c **** **********************************/
  25:.\Generated_Source\PSoC5/I2C_COULOMB.c **** 
  26:.\Generated_Source\PSoC5/I2C_COULOMB.c **** uint8 I2C_COULOMB_initVar = 0u;    /* Defines if component was initialized */
  27:.\Generated_Source\PSoC5/I2C_COULOMB.c **** 
  28:.\Generated_Source\PSoC5/I2C_COULOMB.c **** volatile uint8 I2C_COULOMB_state;  /* Current state of I2C FSM */
  29:.\Generated_Source\PSoC5/I2C_COULOMB.c **** 
  30:.\Generated_Source\PSoC5/I2C_COULOMB.c **** 
  31:.\Generated_Source\PSoC5/I2C_COULOMB.c **** /*******************************************************************************
ARM GAS  C:\Users\Graziano\AppData\Local\Temp\ccUt0Pjh.s 			page 2


  32:.\Generated_Source\PSoC5/I2C_COULOMB.c **** * Function Name: I2C_COULOMB_Init
  33:.\Generated_Source\PSoC5/I2C_COULOMB.c **** ********************************************************************************
  34:.\Generated_Source\PSoC5/I2C_COULOMB.c **** *
  35:.\Generated_Source\PSoC5/I2C_COULOMB.c **** * Summary:
  36:.\Generated_Source\PSoC5/I2C_COULOMB.c **** *  Initializes I2C registers with initial values provided from customizer.
  37:.\Generated_Source\PSoC5/I2C_COULOMB.c **** *
  38:.\Generated_Source\PSoC5/I2C_COULOMB.c **** * Parameters:
  39:.\Generated_Source\PSoC5/I2C_COULOMB.c **** *  None
  40:.\Generated_Source\PSoC5/I2C_COULOMB.c **** *
  41:.\Generated_Source\PSoC5/I2C_COULOMB.c **** * Return:
  42:.\Generated_Source\PSoC5/I2C_COULOMB.c **** *  None
  43:.\Generated_Source\PSoC5/I2C_COULOMB.c **** *
  44:.\Generated_Source\PSoC5/I2C_COULOMB.c **** * Global variables:
  45:.\Generated_Source\PSoC5/I2C_COULOMB.c **** *  None
  46:.\Generated_Source\PSoC5/I2C_COULOMB.c **** *
  47:.\Generated_Source\PSoC5/I2C_COULOMB.c **** * Reentrant:
  48:.\Generated_Source\PSoC5/I2C_COULOMB.c **** *  No
  49:.\Generated_Source\PSoC5/I2C_COULOMB.c **** *
  50:.\Generated_Source\PSoC5/I2C_COULOMB.c **** *******************************************************************************/
  51:.\Generated_Source\PSoC5/I2C_COULOMB.c **** void I2C_COULOMB_Init(void) 
  52:.\Generated_Source\PSoC5/I2C_COULOMB.c **** {
  27              		.loc 1 52 0
  28              		.cfi_startproc
  29              		@ args = 0, pretend = 0, frame = 0
  30              		@ frame_needed = 0, uses_anonymous_args = 0
  31 0000 08B5     		push	{r3, lr}
  32              	.LCFI0:
  33              		.cfi_def_cfa_offset 8
  34              		.cfi_offset 3, -8
  35              		.cfi_offset 14, -4
  53:.\Generated_Source\PSoC5/I2C_COULOMB.c ****     #if(I2C_COULOMB_FF_IMPLEMENTED)
  54:.\Generated_Source\PSoC5/I2C_COULOMB.c ****         I2C_COULOMB_CFG_REG  = I2C_COULOMB_DEFAULT_CFG;
  36              		.loc 1 54 0
  37 0002 104B     		ldr	r3, .L2
  38 0004 0622     		movs	r2, #6
  39 0006 1A70     		strb	r2, [r3, #0]
  55:.\Generated_Source\PSoC5/I2C_COULOMB.c ****         I2C_COULOMB_XCFG_REG = I2C_COULOMB_DEFAULT_XCFG;
  40              		.loc 1 55 0
  41 0008 8120     		movs	r0, #129
  56:.\Generated_Source\PSoC5/I2C_COULOMB.c **** 
  57:.\Generated_Source\PSoC5/I2C_COULOMB.c ****         #if(CY_PSOC5A)
  58:.\Generated_Source\PSoC5/I2C_COULOMB.c ****             I2C_COULOMB_CLKDIV_REG  = LO8(I2C_COULOMB_DEFAULT_DIVIDE_FACTOR);
  59:.\Generated_Source\PSoC5/I2C_COULOMB.c ****         #else
  60:.\Generated_Source\PSoC5/I2C_COULOMB.c ****             I2C_COULOMB_CLKDIV1_REG = LO8(I2C_COULOMB_DEFAULT_DIVIDE_FACTOR);
  61:.\Generated_Source\PSoC5/I2C_COULOMB.c ****             I2C_COULOMB_CLKDIV2_REG = HI8(I2C_COULOMB_DEFAULT_DIVIDE_FACTOR);
  42              		.loc 1 61 0
  43 000a 0022     		movs	r2, #0
  60:.\Generated_Source\PSoC5/I2C_COULOMB.c ****             I2C_COULOMB_CLKDIV1_REG = LO8(I2C_COULOMB_DEFAULT_DIVIDE_FACTOR);
  44              		.loc 1 60 0
  45 000c 2A21     		movs	r1, #42
  55:.\Generated_Source\PSoC5/I2C_COULOMB.c ****         I2C_COULOMB_XCFG_REG = I2C_COULOMB_DEFAULT_XCFG;
  46              		.loc 1 55 0
  47 000e 03F80E0C 		strb	r0, [r3, #-14]
  60:.\Generated_Source\PSoC5/I2C_COULOMB.c ****             I2C_COULOMB_CLKDIV1_REG = LO8(I2C_COULOMB_DEFAULT_DIVIDE_FACTOR);
  48              		.loc 1 60 0
  49 0012 5971     		strb	r1, [r3, #5]
  50              		.loc 1 61 0
ARM GAS  C:\Users\Graziano\AppData\Local\Temp\ccUt0Pjh.s 			page 3


  51 0014 9A71     		strb	r2, [r3, #6]
  62:.\Generated_Source\PSoC5/I2C_COULOMB.c ****         #endif /* (CY_PSOC5A) */
  63:.\Generated_Source\PSoC5/I2C_COULOMB.c **** 
  64:.\Generated_Source\PSoC5/I2C_COULOMB.c ****     #else
  65:.\Generated_Source\PSoC5/I2C_COULOMB.c ****         uint8 enableInterrupts;
  66:.\Generated_Source\PSoC5/I2C_COULOMB.c **** 
  67:.\Generated_Source\PSoC5/I2C_COULOMB.c ****         I2C_COULOMB_CFG_REG      = I2C_COULOMB_DEFAULT_CFG;      /* control  */
  68:.\Generated_Source\PSoC5/I2C_COULOMB.c ****         I2C_COULOMB_INT_MASK_REG = I2C_COULOMB_DEFAULT_INT_MASK; /* int_mask */
  69:.\Generated_Source\PSoC5/I2C_COULOMB.c **** 
  70:.\Generated_Source\PSoC5/I2C_COULOMB.c ****         /* Enable interrupts from block */
  71:.\Generated_Source\PSoC5/I2C_COULOMB.c ****         enableInterrupts = CyEnterCriticalSection();
  72:.\Generated_Source\PSoC5/I2C_COULOMB.c ****         I2C_COULOMB_INT_ENABLE_REG |= I2C_COULOMB_INTR_ENABLE; /* aux_ctl */
  73:.\Generated_Source\PSoC5/I2C_COULOMB.c ****         CyExitCriticalSection(enableInterrupts);
  74:.\Generated_Source\PSoC5/I2C_COULOMB.c **** 
  75:.\Generated_Source\PSoC5/I2C_COULOMB.c ****         #if(I2C_COULOMB_MODE_MASTER_ENABLED)
  76:.\Generated_Source\PSoC5/I2C_COULOMB.c ****             I2C_COULOMB_MCLK_PRD_REG = I2C_COULOMB_DEFAULT_MCLK_PRD;
  77:.\Generated_Source\PSoC5/I2C_COULOMB.c ****             I2C_COULOMB_MCLK_CMP_REG = I2C_COULOMB_DEFAULT_MCLK_CMP;
  78:.\Generated_Source\PSoC5/I2C_COULOMB.c ****          #endif /* (I2C_COULOMB_MODE_MASTER_ENABLED) */
  79:.\Generated_Source\PSoC5/I2C_COULOMB.c **** 
  80:.\Generated_Source\PSoC5/I2C_COULOMB.c ****         #if(I2C_COULOMB_MODE_SLAVE_ENABLED)
  81:.\Generated_Source\PSoC5/I2C_COULOMB.c ****             I2C_COULOMB_PERIOD_REG = I2C_COULOMB_DEFAULT_PERIOD;
  82:.\Generated_Source\PSoC5/I2C_COULOMB.c ****         #endif  /* (I2C_COULOMB_MODE_SLAVE_ENABLED) */
  83:.\Generated_Source\PSoC5/I2C_COULOMB.c **** 
  84:.\Generated_Source\PSoC5/I2C_COULOMB.c ****     #endif /* (I2C_COULOMB_FF_IMPLEMENTED) */
  85:.\Generated_Source\PSoC5/I2C_COULOMB.c **** 
  86:.\Generated_Source\PSoC5/I2C_COULOMB.c ****     #if(I2C_COULOMB_TIMEOUT_ENABLED)
  87:.\Generated_Source\PSoC5/I2C_COULOMB.c ****         I2C_COULOMB_TimeoutInit();
  88:.\Generated_Source\PSoC5/I2C_COULOMB.c ****     #endif /* (I2C_COULOMB_TIMEOUT_ENABLED) */
  89:.\Generated_Source\PSoC5/I2C_COULOMB.c **** 
  90:.\Generated_Source\PSoC5/I2C_COULOMB.c ****     /* Disable Interrupt and set vector and priority */
  91:.\Generated_Source\PSoC5/I2C_COULOMB.c ****     CyIntDisable    (I2C_COULOMB_ISR_NUMBER);
  52              		.loc 1 91 0
  53 0016 0C4B     		ldr	r3, .L2+4
  54 0018 4FF40040 		mov	r0, #32768
  55 001c 1860     		str	r0, [r3, #0]
  92:.\Generated_Source\PSoC5/I2C_COULOMB.c ****     CyIntSetPriority(I2C_COULOMB_ISR_NUMBER, I2C_COULOMB_ISR_PRIORITY);
  56              		.loc 1 92 0
  57 001e 0721     		movs	r1, #7
  58 0020 0F20     		movs	r0, #15
  59 0022 FFF7FEFF 		bl	CyIntSetPriority
  60              	.LVL0:
  93:.\Generated_Source\PSoC5/I2C_COULOMB.c ****     #if(I2C_COULOMB_INTERN_I2C_INTR_HANDLER)
  94:.\Generated_Source\PSoC5/I2C_COULOMB.c ****         (void) CyIntSetVector(I2C_COULOMB_ISR_NUMBER, &I2C_COULOMB_ISR);
  61              		.loc 1 94 0
  62 0026 0F20     		movs	r0, #15
  63 0028 0849     		ldr	r1, .L2+8
  64 002a FFF7FEFF 		bl	CyIntSetVector
  65              	.LVL1:
  95:.\Generated_Source\PSoC5/I2C_COULOMB.c ****     #endif /* (I2C_COULOMB_INTERN_I2C_INTR_HANDLER) */
  96:.\Generated_Source\PSoC5/I2C_COULOMB.c **** 
  97:.\Generated_Source\PSoC5/I2C_COULOMB.c **** 
  98:.\Generated_Source\PSoC5/I2C_COULOMB.c ****     /* Put state machine in idle state */
  99:.\Generated_Source\PSoC5/I2C_COULOMB.c ****     I2C_COULOMB_state = I2C_COULOMB_SM_IDLE;
  66              		.loc 1 99 0
  67 002e 084A     		ldr	r2, .L2+12
  68 0030 1021     		movs	r1, #16
  69 0032 1170     		strb	r1, [r2, #0]
ARM GAS  C:\Users\Graziano\AppData\Local\Temp\ccUt0Pjh.s 			page 4


 100:.\Generated_Source\PSoC5/I2C_COULOMB.c **** 
 101:.\Generated_Source\PSoC5/I2C_COULOMB.c ****     #if(I2C_COULOMB_MODE_SLAVE_ENABLED)
 102:.\Generated_Source\PSoC5/I2C_COULOMB.c ****         /* Reset status and buffers index */
 103:.\Generated_Source\PSoC5/I2C_COULOMB.c ****         I2C_COULOMB_SlaveClearReadBuf();
 104:.\Generated_Source\PSoC5/I2C_COULOMB.c ****         I2C_COULOMB_SlaveClearWriteBuf();
 105:.\Generated_Source\PSoC5/I2C_COULOMB.c ****         I2C_COULOMB_slStatus = 0u; /* Reset slave status */
 106:.\Generated_Source\PSoC5/I2C_COULOMB.c **** 
 107:.\Generated_Source\PSoC5/I2C_COULOMB.c ****         /* Set default address */
 108:.\Generated_Source\PSoC5/I2C_COULOMB.c ****         I2C_COULOMB_SlaveSetAddress(I2C_COULOMB_DEFAULT_ADDR);
 109:.\Generated_Source\PSoC5/I2C_COULOMB.c ****     #endif /* (I2C_COULOMB_MODE_SLAVE_ENABLED) */
 110:.\Generated_Source\PSoC5/I2C_COULOMB.c **** 
 111:.\Generated_Source\PSoC5/I2C_COULOMB.c ****     #if(I2C_COULOMB_MODE_MASTER_ENABLED)
 112:.\Generated_Source\PSoC5/I2C_COULOMB.c ****         /* Reset status and buffers index */
 113:.\Generated_Source\PSoC5/I2C_COULOMB.c ****         I2C_COULOMB_MasterClearReadBuf();
  70              		.loc 1 113 0
  71 0034 FFF7FEFF 		bl	I2C_COULOMB_MasterClearReadBuf
  72              	.LVL2:
 114:.\Generated_Source\PSoC5/I2C_COULOMB.c ****         I2C_COULOMB_MasterClearWriteBuf();
  73              		.loc 1 114 0
  74 0038 FFF7FEFF 		bl	I2C_COULOMB_MasterClearWriteBuf
  75              	.LVL3:
 115:.\Generated_Source\PSoC5/I2C_COULOMB.c ****         (void) I2C_COULOMB_MasterClearStatus();
 116:.\Generated_Source\PSoC5/I2C_COULOMB.c ****     #endif /* (I2C_COULOMB_MODE_MASTER_ENABLED) */
 117:.\Generated_Source\PSoC5/I2C_COULOMB.c **** }
  76              		.loc 1 117 0
  77 003c BDE80840 		pop	{r3, lr}
 115:.\Generated_Source\PSoC5/I2C_COULOMB.c ****         (void) I2C_COULOMB_MasterClearStatus();
  78              		.loc 1 115 0
  79 0040 FFF7FEBF 		b	I2C_COULOMB_MasterClearStatus
  80              	.LVL4:
  81              	.L3:
  82              		.align	2
  83              	.L2:
  84 0044 D6490040 		.word	1073760726
  85 0048 80E100E0 		.word	-536813184
  86 004c 00000000 		.word	I2C_COULOMB_ISR
  87 0050 00000000 		.word	I2C_COULOMB_state
  88              		.cfi_endproc
  89              	.LFE0:
  90              		.size	I2C_COULOMB_Init, .-I2C_COULOMB_Init
  91              		.section	.text.I2C_COULOMB_Enable,"ax",%progbits
  92              		.align	1
  93              		.global	I2C_COULOMB_Enable
  94              		.thumb
  95              		.thumb_func
  96              		.type	I2C_COULOMB_Enable, %function
  97              	I2C_COULOMB_Enable:
  98              	.LFB1:
 118:.\Generated_Source\PSoC5/I2C_COULOMB.c **** 
 119:.\Generated_Source\PSoC5/I2C_COULOMB.c **** 
 120:.\Generated_Source\PSoC5/I2C_COULOMB.c **** /*******************************************************************************
 121:.\Generated_Source\PSoC5/I2C_COULOMB.c **** * Function Name: I2C_COULOMB_Enable
 122:.\Generated_Source\PSoC5/I2C_COULOMB.c **** ********************************************************************************
 123:.\Generated_Source\PSoC5/I2C_COULOMB.c **** *
 124:.\Generated_Source\PSoC5/I2C_COULOMB.c **** * Summary:
 125:.\Generated_Source\PSoC5/I2C_COULOMB.c **** *  Enables I2C operations.
 126:.\Generated_Source\PSoC5/I2C_COULOMB.c **** *
ARM GAS  C:\Users\Graziano\AppData\Local\Temp\ccUt0Pjh.s 			page 5


 127:.\Generated_Source\PSoC5/I2C_COULOMB.c **** * Parameters:
 128:.\Generated_Source\PSoC5/I2C_COULOMB.c **** *  None
 129:.\Generated_Source\PSoC5/I2C_COULOMB.c **** *
 130:.\Generated_Source\PSoC5/I2C_COULOMB.c **** * Return:
 131:.\Generated_Source\PSoC5/I2C_COULOMB.c **** *  None
 132:.\Generated_Source\PSoC5/I2C_COULOMB.c **** *
 133:.\Generated_Source\PSoC5/I2C_COULOMB.c **** * Global variables:
 134:.\Generated_Source\PSoC5/I2C_COULOMB.c **** *  None
 135:.\Generated_Source\PSoC5/I2C_COULOMB.c **** *
 136:.\Generated_Source\PSoC5/I2C_COULOMB.c **** *******************************************************************************/
 137:.\Generated_Source\PSoC5/I2C_COULOMB.c **** void I2C_COULOMB_Enable(void) 
 138:.\Generated_Source\PSoC5/I2C_COULOMB.c **** {
  99              		.loc 1 138 0
 100              		.cfi_startproc
 101              		@ args = 0, pretend = 0, frame = 0
 102              		@ frame_needed = 0, uses_anonymous_args = 0
 103 0000 08B5     		push	{r3, lr}
 104              	.LCFI1:
 105              		.cfi_def_cfa_offset 8
 106              		.cfi_offset 3, -8
 107              		.cfi_offset 14, -4
 139:.\Generated_Source\PSoC5/I2C_COULOMB.c ****     #if(I2C_COULOMB_FF_IMPLEMENTED)
 140:.\Generated_Source\PSoC5/I2C_COULOMB.c ****         uint8 enableInterrupts;
 141:.\Generated_Source\PSoC5/I2C_COULOMB.c **** 
 142:.\Generated_Source\PSoC5/I2C_COULOMB.c ****         /* Enable power to I2C FF block */
 143:.\Generated_Source\PSoC5/I2C_COULOMB.c ****         enableInterrupts = CyEnterCriticalSection();
 108              		.loc 1 143 0
 109 0002 FFF7FEFF 		bl	CyEnterCriticalSection
 110              	.LVL5:
 144:.\Generated_Source\PSoC5/I2C_COULOMB.c ****         I2C_COULOMB_ACT_PWRMGR_REG  |= I2C_COULOMB_ACT_PWR_EN;
 111              		.loc 1 144 0
 112 0006 064B     		ldr	r3, .L5
 113 0008 1A78     		ldrb	r2, [r3, #0]	@ zero_extendqisi2
 114 000a 42F00401 		orr	r1, r2, #4
 115 000e 1970     		strb	r1, [r3, #0]
 145:.\Generated_Source\PSoC5/I2C_COULOMB.c ****         I2C_COULOMB_STBY_PWRMGR_REG |= I2C_COULOMB_STBY_PWR_EN;
 116              		.loc 1 145 0
 117 0010 1A7C     		ldrb	r2, [r3, #16]	@ zero_extendqisi2
 118 0012 42F00401 		orr	r1, r2, #4
 119 0016 1974     		strb	r1, [r3, #16]
 146:.\Generated_Source\PSoC5/I2C_COULOMB.c ****         CyExitCriticalSection(enableInterrupts);
 147:.\Generated_Source\PSoC5/I2C_COULOMB.c **** 
 148:.\Generated_Source\PSoC5/I2C_COULOMB.c ****     #else
 149:.\Generated_Source\PSoC5/I2C_COULOMB.c **** 
 150:.\Generated_Source\PSoC5/I2C_COULOMB.c ****         #if(I2C_COULOMB_MODE_SLAVE_ENABLED)
 151:.\Generated_Source\PSoC5/I2C_COULOMB.c ****             uint8 enableInterrupts;
 152:.\Generated_Source\PSoC5/I2C_COULOMB.c ****         #endif /* (I2C_COULOMB_MODE_SLAVE_ENABLED) */
 153:.\Generated_Source\PSoC5/I2C_COULOMB.c **** 
 154:.\Generated_Source\PSoC5/I2C_COULOMB.c ****         #if(I2C_COULOMB_MODE_SLAVE_ENABLED)
 155:.\Generated_Source\PSoC5/I2C_COULOMB.c ****             /* Enable slave bit counter */
 156:.\Generated_Source\PSoC5/I2C_COULOMB.c ****             enableInterrupts = CyEnterCriticalSection();
 157:.\Generated_Source\PSoC5/I2C_COULOMB.c ****             I2C_COULOMB_COUNTER_AUX_CTL_REG |= I2C_COULOMB_CNT7_ENABLE;   /* aux_ctl */
 158:.\Generated_Source\PSoC5/I2C_COULOMB.c ****             CyExitCriticalSection(enableInterrupts);
 159:.\Generated_Source\PSoC5/I2C_COULOMB.c ****         #endif /* (I2C_COULOMB_MODE_SLAVE_ENABLED) */
 160:.\Generated_Source\PSoC5/I2C_COULOMB.c **** 
 161:.\Generated_Source\PSoC5/I2C_COULOMB.c ****         I2C_COULOMB_CFG_REG |= I2C_COULOMB_ENABLE_MS;
 162:.\Generated_Source\PSoC5/I2C_COULOMB.c **** 
ARM GAS  C:\Users\Graziano\AppData\Local\Temp\ccUt0Pjh.s 			page 6


 163:.\Generated_Source\PSoC5/I2C_COULOMB.c ****     #endif /* (I2C_COULOMB_FF_IMPLEMENTED) */
 164:.\Generated_Source\PSoC5/I2C_COULOMB.c **** 
 165:.\Generated_Source\PSoC5/I2C_COULOMB.c ****     #if(I2C_COULOMB_TIMEOUT_ENABLED)
 166:.\Generated_Source\PSoC5/I2C_COULOMB.c ****         I2C_COULOMB_TimeoutEnable();
 167:.\Generated_Source\PSoC5/I2C_COULOMB.c ****     #endif /* (I2C_COULOMB_TIMEOUT_ENABLED) */
 168:.\Generated_Source\PSoC5/I2C_COULOMB.c **** }
 120              		.loc 1 168 0
 121 0018 BDE80840 		pop	{r3, lr}
 146:.\Generated_Source\PSoC5/I2C_COULOMB.c ****         CyExitCriticalSection(enableInterrupts);
 122              		.loc 1 146 0
 123 001c FFF7FEBF 		b	CyExitCriticalSection
 124              	.LVL6:
 125              	.L6:
 126              		.align	2
 127              	.L5:
 128 0020 A5430040 		.word	1073759141
 129              		.cfi_endproc
 130              	.LFE1:
 131              		.size	I2C_COULOMB_Enable, .-I2C_COULOMB_Enable
 132              		.section	.text.I2C_COULOMB_Start,"ax",%progbits
 133              		.align	1
 134              		.global	I2C_COULOMB_Start
 135              		.thumb
 136              		.thumb_func
 137              		.type	I2C_COULOMB_Start, %function
 138              	I2C_COULOMB_Start:
 139              	.LFB2:
 169:.\Generated_Source\PSoC5/I2C_COULOMB.c **** 
 170:.\Generated_Source\PSoC5/I2C_COULOMB.c **** 
 171:.\Generated_Source\PSoC5/I2C_COULOMB.c **** /*******************************************************************************
 172:.\Generated_Source\PSoC5/I2C_COULOMB.c **** * Function Name: I2C_COULOMB_Start
 173:.\Generated_Source\PSoC5/I2C_COULOMB.c **** ********************************************************************************
 174:.\Generated_Source\PSoC5/I2C_COULOMB.c **** *
 175:.\Generated_Source\PSoC5/I2C_COULOMB.c **** * Summary:
 176:.\Generated_Source\PSoC5/I2C_COULOMB.c **** *  Starts the I2C hardware. Enables Active mode power template bits or clock
 177:.\Generated_Source\PSoC5/I2C_COULOMB.c **** *  gating as appropriate. It is required to be executed before I2C bus
 178:.\Generated_Source\PSoC5/I2C_COULOMB.c **** *  operation.
 179:.\Generated_Source\PSoC5/I2C_COULOMB.c **** *  The I2C interrupt remains disabled after this function call.
 180:.\Generated_Source\PSoC5/I2C_COULOMB.c **** *
 181:.\Generated_Source\PSoC5/I2C_COULOMB.c **** * Parameters:
 182:.\Generated_Source\PSoC5/I2C_COULOMB.c **** *  None
 183:.\Generated_Source\PSoC5/I2C_COULOMB.c **** *
 184:.\Generated_Source\PSoC5/I2C_COULOMB.c **** * Return:
 185:.\Generated_Source\PSoC5/I2C_COULOMB.c **** *  None
 186:.\Generated_Source\PSoC5/I2C_COULOMB.c **** *
 187:.\Generated_Source\PSoC5/I2C_COULOMB.c **** * Side Effects:
 188:.\Generated_Source\PSoC5/I2C_COULOMB.c **** *  This component automatically enables it's interrupt.  If I2C is enabled
 189:.\Generated_Source\PSoC5/I2C_COULOMB.c **** *  without the interrupt enabled, it could lock up the I2C bus.
 190:.\Generated_Source\PSoC5/I2C_COULOMB.c **** *
 191:.\Generated_Source\PSoC5/I2C_COULOMB.c **** * Global variables:
 192:.\Generated_Source\PSoC5/I2C_COULOMB.c **** *  I2C_COULOMB_initVar - used to check initial configuration, modified
 193:.\Generated_Source\PSoC5/I2C_COULOMB.c **** *  on first function call.
 194:.\Generated_Source\PSoC5/I2C_COULOMB.c **** *
 195:.\Generated_Source\PSoC5/I2C_COULOMB.c **** * Reentrant:
 196:.\Generated_Source\PSoC5/I2C_COULOMB.c **** *  No
 197:.\Generated_Source\PSoC5/I2C_COULOMB.c **** *
 198:.\Generated_Source\PSoC5/I2C_COULOMB.c **** *******************************************************************************/
ARM GAS  C:\Users\Graziano\AppData\Local\Temp\ccUt0Pjh.s 			page 7


 199:.\Generated_Source\PSoC5/I2C_COULOMB.c **** void I2C_COULOMB_Start(void) 
 200:.\Generated_Source\PSoC5/I2C_COULOMB.c **** {
 140              		.loc 1 200 0
 141              		.cfi_startproc
 142              		@ args = 0, pretend = 0, frame = 0
 143              		@ frame_needed = 0, uses_anonymous_args = 0
 144 0000 10B5     		push	{r4, lr}
 145              	.LCFI2:
 146              		.cfi_def_cfa_offset 8
 147              		.cfi_offset 4, -8
 148              		.cfi_offset 14, -4
 201:.\Generated_Source\PSoC5/I2C_COULOMB.c ****     /* Initialize I2C registers, reset I2C buffer index and clears status */
 202:.\Generated_Source\PSoC5/I2C_COULOMB.c ****     if(0u == I2C_COULOMB_initVar)
 149              		.loc 1 202 0
 150 0002 074C     		ldr	r4, .L10
 151 0004 2378     		ldrb	r3, [r4, #0]	@ zero_extendqisi2
 152 0006 1BB9     		cbnz	r3, .L8
 203:.\Generated_Source\PSoC5/I2C_COULOMB.c ****     {
 204:.\Generated_Source\PSoC5/I2C_COULOMB.c ****         I2C_COULOMB_Init();
 153              		.loc 1 204 0
 154 0008 FFF7FEFF 		bl	I2C_COULOMB_Init
 155              	.LVL7:
 205:.\Generated_Source\PSoC5/I2C_COULOMB.c ****         I2C_COULOMB_initVar = 1u; /* Component initialized */
 156              		.loc 1 205 0
 157 000c 0120     		movs	r0, #1
 158 000e 2070     		strb	r0, [r4, #0]
 159              	.L8:
 206:.\Generated_Source\PSoC5/I2C_COULOMB.c ****     }
 207:.\Generated_Source\PSoC5/I2C_COULOMB.c **** 
 208:.\Generated_Source\PSoC5/I2C_COULOMB.c ****     I2C_COULOMB_Enable();
 160              		.loc 1 208 0
 161 0010 FFF7FEFF 		bl	I2C_COULOMB_Enable
 162              	.LVL8:
 209:.\Generated_Source\PSoC5/I2C_COULOMB.c ****     I2C_COULOMB_EnableInt();
 163              		.loc 1 209 0
 164 0014 0349     		ldr	r1, .L10+4
 165 0016 4FF40042 		mov	r2, #32768
 166 001a 0A60     		str	r2, [r1, #0]
 167 001c 10BD     		pop	{r4, pc}
 168              	.L11:
 169 001e 00BF     		.align	2
 170              	.L10:
 171 0020 00000000 		.word	.LANCHOR0
 172 0024 00E100E0 		.word	-536813312
 173              		.cfi_endproc
 174              	.LFE2:
 175              		.size	I2C_COULOMB_Start, .-I2C_COULOMB_Start
 176              		.section	.text.I2C_COULOMB_Stop,"ax",%progbits
 177              		.align	1
 178              		.global	I2C_COULOMB_Stop
 179              		.thumb
 180              		.thumb_func
 181              		.type	I2C_COULOMB_Stop, %function
 182              	I2C_COULOMB_Stop:
 183              	.LFB3:
 210:.\Generated_Source\PSoC5/I2C_COULOMB.c **** }
 211:.\Generated_Source\PSoC5/I2C_COULOMB.c **** 
ARM GAS  C:\Users\Graziano\AppData\Local\Temp\ccUt0Pjh.s 			page 8


 212:.\Generated_Source\PSoC5/I2C_COULOMB.c **** 
 213:.\Generated_Source\PSoC5/I2C_COULOMB.c **** /*******************************************************************************
 214:.\Generated_Source\PSoC5/I2C_COULOMB.c **** * Function Name: I2C_COULOMB_Stop
 215:.\Generated_Source\PSoC5/I2C_COULOMB.c **** ********************************************************************************
 216:.\Generated_Source\PSoC5/I2C_COULOMB.c **** *
 217:.\Generated_Source\PSoC5/I2C_COULOMB.c **** * Summary:
 218:.\Generated_Source\PSoC5/I2C_COULOMB.c **** *  Disables I2C hardware and disables I2C interrupt. Disables Active mode power
 219:.\Generated_Source\PSoC5/I2C_COULOMB.c **** *  template bits or clock gating as appropriate.
 220:.\Generated_Source\PSoC5/I2C_COULOMB.c **** *
 221:.\Generated_Source\PSoC5/I2C_COULOMB.c **** * Parameters:
 222:.\Generated_Source\PSoC5/I2C_COULOMB.c **** *  None
 223:.\Generated_Source\PSoC5/I2C_COULOMB.c **** *
 224:.\Generated_Source\PSoC5/I2C_COULOMB.c **** * Return:
 225:.\Generated_Source\PSoC5/I2C_COULOMB.c **** *  None
 226:.\Generated_Source\PSoC5/I2C_COULOMB.c **** *
 227:.\Generated_Source\PSoC5/I2C_COULOMB.c **** *******************************************************************************/
 228:.\Generated_Source\PSoC5/I2C_COULOMB.c **** void I2C_COULOMB_Stop(void) 
 229:.\Generated_Source\PSoC5/I2C_COULOMB.c **** {
 184              		.loc 1 229 0
 185              		.cfi_startproc
 186              		@ args = 0, pretend = 0, frame = 0
 187              		@ frame_needed = 0, uses_anonymous_args = 0
 188 0000 2DE9F041 		push	{r4, r5, r6, r7, r8, lr}
 189              	.LCFI3:
 190              		.cfi_def_cfa_offset 24
 191              		.cfi_offset 4, -24
 192              		.cfi_offset 5, -20
 193              		.cfi_offset 6, -16
 194              		.cfi_offset 7, -12
 195              		.cfi_offset 8, -8
 196              		.cfi_offset 14, -4
 230:.\Generated_Source\PSoC5/I2C_COULOMB.c ****     #if((I2C_COULOMB_FF_IMPLEMENTED)  || \
 231:.\Generated_Source\PSoC5/I2C_COULOMB.c ****         (I2C_COULOMB_UDB_IMPLEMENTED && I2C_COULOMB_MODE_SLAVE_ENABLED))
 232:.\Generated_Source\PSoC5/I2C_COULOMB.c ****         uint8 enableInterrupts;
 233:.\Generated_Source\PSoC5/I2C_COULOMB.c ****     #endif /* ((I2C_COULOMB_FF_IMPLEMENTED)  || \
 234:.\Generated_Source\PSoC5/I2C_COULOMB.c ****                (I2C_COULOMB_UDB_IMPLEMENTED && I2C_COULOMB_MODE_SLAVE_ENABLED)) */
 235:.\Generated_Source\PSoC5/I2C_COULOMB.c **** 
 236:.\Generated_Source\PSoC5/I2C_COULOMB.c ****     I2C_COULOMB_DisableInt();
 197              		.loc 1 236 0
 198 0004 1B4B     		ldr	r3, .L13
 237:.\Generated_Source\PSoC5/I2C_COULOMB.c **** 
 238:.\Generated_Source\PSoC5/I2C_COULOMB.c ****     I2C_COULOMB_DISABLE_INT_ON_STOP;   /* Interrupt on Stop can be enabled by write */
 199              		.loc 1 238 0
 200 0006 1C4C     		ldr	r4, .L13+4
 236:.\Generated_Source\PSoC5/I2C_COULOMB.c ****     I2C_COULOMB_DisableInt();
 201              		.loc 1 236 0
 202 0008 4FF40046 		mov	r6, #32768
 203 000c 1E60     		str	r6, [r3, #0]
 204              		.loc 1 238 0
 205 000e 2078     		ldrb	r0, [r4, #0]	@ zero_extendqisi2
 239:.\Generated_Source\PSoC5/I2C_COULOMB.c ****     (void) I2C_COULOMB_CSR_REG;        /* Clear CSR reg */
 206              		.loc 1 239 0
 207 0010 1A4A     		ldr	r2, .L13+8
 238:.\Generated_Source\PSoC5/I2C_COULOMB.c ****     I2C_COULOMB_DISABLE_INT_ON_STOP;   /* Interrupt on Stop can be enabled by write */
 208              		.loc 1 238 0
 209 0012 00F0EF01 		and	r1, r0, #239
 240:.\Generated_Source\PSoC5/I2C_COULOMB.c ****     
ARM GAS  C:\Users\Graziano\AppData\Local\Temp\ccUt0Pjh.s 			page 9


 241:.\Generated_Source\PSoC5/I2C_COULOMB.c ****     #if(I2C_COULOMB_TIMEOUT_ENABLED)
 242:.\Generated_Source\PSoC5/I2C_COULOMB.c ****         I2C_COULOMB_TimeoutStop();
 243:.\Generated_Source\PSoC5/I2C_COULOMB.c ****     #endif  /* End (I2C_COULOMB_TIMEOUT_ENABLED) */
 244:.\Generated_Source\PSoC5/I2C_COULOMB.c **** 
 245:.\Generated_Source\PSoC5/I2C_COULOMB.c ****     #if(I2C_COULOMB_FF_IMPLEMENTED)
 246:.\Generated_Source\PSoC5/I2C_COULOMB.c ****         #if(CY_PSOC3 || CY_PSOC5LP)
 247:.\Generated_Source\PSoC5/I2C_COULOMB.c ****             /* Store registers which are held in reset when Master and Slave bits are cleared */
 248:.\Generated_Source\PSoC5/I2C_COULOMB.c ****             #if(I2C_COULOMB_MODE_SLAVE_ENABLED)
 249:.\Generated_Source\PSoC5/I2C_COULOMB.c ****                 I2C_COULOMB_backup.addr = I2C_COULOMB_ADDR_REG;
 250:.\Generated_Source\PSoC5/I2C_COULOMB.c ****             #endif /* (I2C_COULOMB_MODE_SLAVE_ENABLED) */
 251:.\Generated_Source\PSoC5/I2C_COULOMB.c **** 
 252:.\Generated_Source\PSoC5/I2C_COULOMB.c ****             I2C_COULOMB_backup.clkDiv1  = I2C_COULOMB_CLKDIV1_REG;
 210              		.loc 1 252 0
 211 0016 DFF87C80 		ldr	r8, .L13+32
 238:.\Generated_Source\PSoC5/I2C_COULOMB.c ****     I2C_COULOMB_DISABLE_INT_ON_STOP;   /* Interrupt on Stop can be enabled by write */
 212              		.loc 1 238 0
 213 001a 2170     		strb	r1, [r4, #0]
 239:.\Generated_Source\PSoC5/I2C_COULOMB.c ****     (void) I2C_COULOMB_CSR_REG;        /* Clear CSR reg */
 214              		.loc 1 239 0
 215 001c 1378     		ldrb	r3, [r2, #0]	@ zero_extendqisi2
 216              		.loc 1 252 0
 217 001e 184D     		ldr	r5, .L13+12
 218 0020 98F80070 		ldrb	r7, [r8, #0]	@ zero_extendqisi2
 219 0024 EF70     		strb	r7, [r5, #3]
 253:.\Generated_Source\PSoC5/I2C_COULOMB.c ****             I2C_COULOMB_backup.clkDiv2  = I2C_COULOMB_CLKDIV2_REG;
 220              		.loc 1 253 0
 221 0026 174F     		ldr	r7, .L13+16
 222 0028 3B78     		ldrb	r3, [r7, #0]	@ zero_extendqisi2
 223 002a 2B71     		strb	r3, [r5, #4]
 254:.\Generated_Source\PSoC5/I2C_COULOMB.c **** 
 255:.\Generated_Source\PSoC5/I2C_COULOMB.c **** 
 256:.\Generated_Source\PSoC5/I2C_COULOMB.c ****             /* Reset FF block */
 257:.\Generated_Source\PSoC5/I2C_COULOMB.c ****             I2C_COULOMB_CFG_REG &= ((uint8) ~I2C_COULOMB_ENABLE_MS);
 224              		.loc 1 257 0
 225 002c 2078     		ldrb	r0, [r4, #0]	@ zero_extendqisi2
 226 002e 00F0FD01 		and	r1, r0, #253
 227 0032 2170     		strb	r1, [r4, #0]
 258:.\Generated_Source\PSoC5/I2C_COULOMB.c ****             CyDelayUs(I2C_COULOMB_FF_RESET_DELAY);
 228              		.loc 1 258 0
 229 0034 0220     		movs	r0, #2
 230 0036 FFF7FEFF 		bl	CyDelayUs
 231              	.LVL9:
 259:.\Generated_Source\PSoC5/I2C_COULOMB.c ****             I2C_COULOMB_CFG_REG |= ((uint8)  I2C_COULOMB_ENABLE_MS);
 232              		.loc 1 259 0
 233 003a 2278     		ldrb	r2, [r4, #0]	@ zero_extendqisi2
 234 003c 42F00203 		orr	r3, r2, #2
 235 0040 2370     		strb	r3, [r4, #0]
 260:.\Generated_Source\PSoC5/I2C_COULOMB.c **** 
 261:.\Generated_Source\PSoC5/I2C_COULOMB.c **** 
 262:.\Generated_Source\PSoC5/I2C_COULOMB.c ****             /* Restore registers */
 263:.\Generated_Source\PSoC5/I2C_COULOMB.c ****             #if(I2C_COULOMB_MODE_SLAVE_ENABLED)
 264:.\Generated_Source\PSoC5/I2C_COULOMB.c ****                 I2C_COULOMB_ADDR_REG = I2C_COULOMB_backup.addr;
 265:.\Generated_Source\PSoC5/I2C_COULOMB.c ****             #endif /* (I2C_COULOMB_MODE_SLAVE_ENABLED) */
 266:.\Generated_Source\PSoC5/I2C_COULOMB.c **** 
 267:.\Generated_Source\PSoC5/I2C_COULOMB.c ****             I2C_COULOMB_CLKDIV1_REG = I2C_COULOMB_backup.clkDiv1;
 236              		.loc 1 267 0
 237 0042 E878     		ldrb	r0, [r5, #3]	@ zero_extendqisi2
ARM GAS  C:\Users\Graziano\AppData\Local\Temp\ccUt0Pjh.s 			page 10


 238 0044 88F80000 		strb	r0, [r8, #0]
 268:.\Generated_Source\PSoC5/I2C_COULOMB.c ****             I2C_COULOMB_CLKDIV2_REG = I2C_COULOMB_backup.clkDiv2;
 239              		.loc 1 268 0
 240 0048 2979     		ldrb	r1, [r5, #4]	@ zero_extendqisi2
 241 004a 3970     		strb	r1, [r7, #0]
 269:.\Generated_Source\PSoC5/I2C_COULOMB.c **** 
 270:.\Generated_Source\PSoC5/I2C_COULOMB.c ****         #endif /* (CY_PSOC3 || CY_PSOC5LP) */
 271:.\Generated_Source\PSoC5/I2C_COULOMB.c **** 
 272:.\Generated_Source\PSoC5/I2C_COULOMB.c ****         /* Disable power to I2C block */
 273:.\Generated_Source\PSoC5/I2C_COULOMB.c ****         enableInterrupts = CyEnterCriticalSection();
 242              		.loc 1 273 0
 243 004c FFF7FEFF 		bl	CyEnterCriticalSection
 244              	.LVL10:
 274:.\Generated_Source\PSoC5/I2C_COULOMB.c ****         I2C_COULOMB_ACT_PWRMGR_REG  &= ((uint8) ~I2C_COULOMB_ACT_PWR_EN);
 245              		.loc 1 274 0
 246 0050 0D4B     		ldr	r3, .L13+20
 247 0052 1A78     		ldrb	r2, [r3, #0]	@ zero_extendqisi2
 248 0054 02F0FB01 		and	r1, r2, #251
 249 0058 1970     		strb	r1, [r3, #0]
 275:.\Generated_Source\PSoC5/I2C_COULOMB.c ****         I2C_COULOMB_STBY_PWRMGR_REG &= ((uint8) ~I2C_COULOMB_STBY_PWR_EN);
 250              		.loc 1 275 0
 251 005a 1A7C     		ldrb	r2, [r3, #16]	@ zero_extendqisi2
 252 005c 02F0FB01 		and	r1, r2, #251
 253 0060 1974     		strb	r1, [r3, #16]
 276:.\Generated_Source\PSoC5/I2C_COULOMB.c ****         CyExitCriticalSection(enableInterrupts);
 254              		.loc 1 276 0
 255 0062 FFF7FEFF 		bl	CyExitCriticalSection
 256              	.LVL11:
 277:.\Generated_Source\PSoC5/I2C_COULOMB.c **** 
 278:.\Generated_Source\PSoC5/I2C_COULOMB.c ****     #else
 279:.\Generated_Source\PSoC5/I2C_COULOMB.c **** 
 280:.\Generated_Source\PSoC5/I2C_COULOMB.c ****         #if(I2C_COULOMB_MODE_SLAVE_ENABLED)
 281:.\Generated_Source\PSoC5/I2C_COULOMB.c ****             /* Disable slave bit counter */
 282:.\Generated_Source\PSoC5/I2C_COULOMB.c ****             enableInterrupts = CyEnterCriticalSection();
 283:.\Generated_Source\PSoC5/I2C_COULOMB.c ****             I2C_COULOMB_COUNTER_AUX_CTL_REG &= ((uint8) ~I2C_COULOMB_CNT7_ENABLE);
 284:.\Generated_Source\PSoC5/I2C_COULOMB.c ****             CyExitCriticalSection(enableInterrupts);
 285:.\Generated_Source\PSoC5/I2C_COULOMB.c ****         #endif /* (I2C_COULOMB_MODE_SLAVE_ENABLED) */
 286:.\Generated_Source\PSoC5/I2C_COULOMB.c **** 
 287:.\Generated_Source\PSoC5/I2C_COULOMB.c ****         I2C_COULOMB_CFG_REG &= ((uint8) ~I2C_COULOMB_ENABLE_MS);
 288:.\Generated_Source\PSoC5/I2C_COULOMB.c **** 
 289:.\Generated_Source\PSoC5/I2C_COULOMB.c ****     #endif /* (I2C_COULOMB_FF_IMPLEMENTED) */
 290:.\Generated_Source\PSoC5/I2C_COULOMB.c **** 
 291:.\Generated_Source\PSoC5/I2C_COULOMB.c ****     I2C_COULOMB_ClearPendingInt();  /* Clear interrupt triggers on reset */
 257              		.loc 1 291 0
 258 0066 0948     		ldr	r0, .L13+24
 292:.\Generated_Source\PSoC5/I2C_COULOMB.c **** 
 293:.\Generated_Source\PSoC5/I2C_COULOMB.c ****     I2C_COULOMB_state = I2C_COULOMB_SM_IDLE;  /* Reset software FSM */
 259              		.loc 1 293 0
 260 0068 094B     		ldr	r3, .L13+28
 261 006a 1022     		movs	r2, #16
 291:.\Generated_Source\PSoC5/I2C_COULOMB.c ****     I2C_COULOMB_ClearPendingInt();  /* Clear interrupt triggers on reset */
 262              		.loc 1 291 0
 263 006c 0660     		str	r6, [r0, #0]
 264              		.loc 1 293 0
 265 006e 1A70     		strb	r2, [r3, #0]
 266 0070 BDE8F081 		pop	{r4, r5, r6, r7, r8, pc}
 267              	.L14:
ARM GAS  C:\Users\Graziano\AppData\Local\Temp\ccUt0Pjh.s 			page 11


 268              		.align	2
 269              	.L13:
 270 0074 80E100E0 		.word	-536813184
 271 0078 D6490040 		.word	1073760726
 272 007c D7490040 		.word	1073760727
 273 0080 00000000 		.word	I2C_COULOMB_backup
 274 0084 DC490040 		.word	1073760732
 275 0088 A5430040 		.word	1073759141
 276 008c 80E200E0 		.word	-536812928
 277 0090 00000000 		.word	I2C_COULOMB_state
 278 0094 DB490040 		.word	1073760731
 279              		.cfi_endproc
 280              	.LFE3:
 281              		.size	I2C_COULOMB_Stop, .-I2C_COULOMB_Stop
 282              		.comm	I2C_COULOMB_state,1,1
 283              		.global	I2C_COULOMB_initVar
 284              		.bss
 285              		.set	.LANCHOR0,. + 0
 286              		.type	I2C_COULOMB_initVar, %object
 287              		.size	I2C_COULOMB_initVar, 1
 288              	I2C_COULOMB_initVar:
 289 0000 00       		.space	1
 290              		.text
 291              	.Letext0:
 292              		.file 2 ".\\Generated_Source\\PSoC5\\cytypes.h"
 293              		.file 3 ".\\Generated_Source\\PSoC5\\I2C_COULOMB.h"
 294              		.file 4 ".\\Generated_Source\\PSoC5\\I2C_COULOMB_PVT.h"
 295              		.file 5 ".\\Generated_Source\\PSoC5\\CyLib.h"