ARM GAS  C:\Users\Graziano\AppData\Local\Temp\ccQb7321.s 			page 1


   1              		.syntax unified
   2              		.cpu cortex-m3
   3              		.fpu softvfp
   4              		.eabi_attribute 20, 1
   5              		.eabi_attribute 21, 1
   6              		.eabi_attribute 23, 3
   7              		.eabi_attribute 24, 1
   8              		.eabi_attribute 25, 1
   9              		.eabi_attribute 26, 1
  10              		.eabi_attribute 30, 4
  11              		.eabi_attribute 34, 1
  12              		.eabi_attribute 18, 4
  13              		.thumb
  14              		.file	"I2C_COULOMB_PM.c"
  15              		.text
  16              	.Ltext0:
  17              		.cfi_sections	.debug_frame
  18              		.section	.text.I2C_COULOMB_SaveConfig,"ax",%progbits
  19              		.align	1
  20              		.global	I2C_COULOMB_SaveConfig
  21              		.thumb
  22              		.thumb_func
  23              		.type	I2C_COULOMB_SaveConfig, %function
  24              	I2C_COULOMB_SaveConfig:
  25              	.LFB0:
  26              		.file 1 ".\\Generated_Source\\PSoC5\\I2C_COULOMB_PM.c"
   1:.\Generated_Source\PSoC5/I2C_COULOMB_PM.c **** /*******************************************************************************
   2:.\Generated_Source\PSoC5/I2C_COULOMB_PM.c **** * File Name: I2C_COULOMB_PM.c
   3:.\Generated_Source\PSoC5/I2C_COULOMB_PM.c **** * Version 3.30
   4:.\Generated_Source\PSoC5/I2C_COULOMB_PM.c **** *
   5:.\Generated_Source\PSoC5/I2C_COULOMB_PM.c **** * Description:
   6:.\Generated_Source\PSoC5/I2C_COULOMB_PM.c **** *  This file provides Low power mode APIs for I2C component.
   7:.\Generated_Source\PSoC5/I2C_COULOMB_PM.c **** *
   8:.\Generated_Source\PSoC5/I2C_COULOMB_PM.c **** * Note:
   9:.\Generated_Source\PSoC5/I2C_COULOMB_PM.c **** *  None
  10:.\Generated_Source\PSoC5/I2C_COULOMB_PM.c **** *
  11:.\Generated_Source\PSoC5/I2C_COULOMB_PM.c **** ********************************************************************************
  12:.\Generated_Source\PSoC5/I2C_COULOMB_PM.c **** * Copyright 2008-2012, Cypress Semiconductor Corporation.  All rights reserved.
  13:.\Generated_Source\PSoC5/I2C_COULOMB_PM.c **** * You may use this file only in accordance with the license, terms, conditions,
  14:.\Generated_Source\PSoC5/I2C_COULOMB_PM.c **** * disclaimers, and limitations in the end user license agreement accompanying
  15:.\Generated_Source\PSoC5/I2C_COULOMB_PM.c **** * the software package with which this file was provided.
  16:.\Generated_Source\PSoC5/I2C_COULOMB_PM.c **** *******************************************************************************/
  17:.\Generated_Source\PSoC5/I2C_COULOMB_PM.c **** 
  18:.\Generated_Source\PSoC5/I2C_COULOMB_PM.c **** #include "I2C_COULOMB_PVT.h"
  19:.\Generated_Source\PSoC5/I2C_COULOMB_PM.c **** 
  20:.\Generated_Source\PSoC5/I2C_COULOMB_PM.c **** I2C_COULOMB_BACKUP_STRUCT I2C_COULOMB_backup =
  21:.\Generated_Source\PSoC5/I2C_COULOMB_PM.c **** {
  22:.\Generated_Source\PSoC5/I2C_COULOMB_PM.c ****     I2C_COULOMB_DISABLE, /* enableState */
  23:.\Generated_Source\PSoC5/I2C_COULOMB_PM.c **** 
  24:.\Generated_Source\PSoC5/I2C_COULOMB_PM.c ****     #if(I2C_COULOMB_FF_IMPLEMENTED)
  25:.\Generated_Source\PSoC5/I2C_COULOMB_PM.c ****         I2C_COULOMB_DEFAULT_XCFG,  /* xcfg */
  26:.\Generated_Source\PSoC5/I2C_COULOMB_PM.c ****         I2C_COULOMB_DEFAULT_CFG,   /* cfg  */
  27:.\Generated_Source\PSoC5/I2C_COULOMB_PM.c **** 
  28:.\Generated_Source\PSoC5/I2C_COULOMB_PM.c ****         #if(I2C_COULOMB_MODE_SLAVE_ENABLED)
  29:.\Generated_Source\PSoC5/I2C_COULOMB_PM.c ****             I2C_COULOMB_DEFAULT_ADDR, /* addr */
  30:.\Generated_Source\PSoC5/I2C_COULOMB_PM.c ****         #endif /* (I2C_COULOMB_MODE_SLAVE_ENABLED) */
  31:.\Generated_Source\PSoC5/I2C_COULOMB_PM.c **** 
ARM GAS  C:\Users\Graziano\AppData\Local\Temp\ccQb7321.s 			page 2


  32:.\Generated_Source\PSoC5/I2C_COULOMB_PM.c ****         #if(CY_PSOC5A)
  33:.\Generated_Source\PSoC5/I2C_COULOMB_PM.c ****             LO8(I2C_COULOMB_DEFAULT_DIVIDE_FACTOR),  /* div */
  34:.\Generated_Source\PSoC5/I2C_COULOMB_PM.c ****         #else
  35:.\Generated_Source\PSoC5/I2C_COULOMB_PM.c ****             LO8(I2C_COULOMB_DEFAULT_DIVIDE_FACTOR), /* div1 */
  36:.\Generated_Source\PSoC5/I2C_COULOMB_PM.c ****             HI8(I2C_COULOMB_DEFAULT_DIVIDE_FACTOR), /* div2 */
  37:.\Generated_Source\PSoC5/I2C_COULOMB_PM.c ****         #endif /* (CY_PSOC5A) */
  38:.\Generated_Source\PSoC5/I2C_COULOMB_PM.c **** 
  39:.\Generated_Source\PSoC5/I2C_COULOMB_PM.c ****     #else  /* (I2C_COULOMB_UDB_IMPLEMENTED) */
  40:.\Generated_Source\PSoC5/I2C_COULOMB_PM.c ****         I2C_COULOMB_DEFAULT_CFG,    /* control */
  41:.\Generated_Source\PSoC5/I2C_COULOMB_PM.c **** 
  42:.\Generated_Source\PSoC5/I2C_COULOMB_PM.c ****         #if(CY_UDB_V0)
  43:.\Generated_Source\PSoC5/I2C_COULOMB_PM.c ****             I2C_COULOMB_INT_ENABLE_MASK, /* aux_ctl */
  44:.\Generated_Source\PSoC5/I2C_COULOMB_PM.c **** 
  45:.\Generated_Source\PSoC5/I2C_COULOMB_PM.c ****             #if(I2C_COULOMB_MODE_SLAVE_ENABLED)
  46:.\Generated_Source\PSoC5/I2C_COULOMB_PM.c ****                 I2C_COULOMB_DEFAULT_ADDR, /* addr_d0 */
  47:.\Generated_Source\PSoC5/I2C_COULOMB_PM.c ****             #endif /* (I2C_COULOMB_MODE_SLAVE_ENABLED) */
  48:.\Generated_Source\PSoC5/I2C_COULOMB_PM.c ****         #endif /* (CY_UDB_V0) */
  49:.\Generated_Source\PSoC5/I2C_COULOMB_PM.c ****     #endif /* (I2C_COULOMB_FF_IMPLEMENTED) */
  50:.\Generated_Source\PSoC5/I2C_COULOMB_PM.c **** 
  51:.\Generated_Source\PSoC5/I2C_COULOMB_PM.c ****     #if(I2C_COULOMB_TIMEOUT_ENABLED)
  52:.\Generated_Source\PSoC5/I2C_COULOMB_PM.c ****         I2C_COULOMB_DEFAULT_TMOUT_PERIOD,
  53:.\Generated_Source\PSoC5/I2C_COULOMB_PM.c ****         I2C_COULOMB_DEFAULT_TMOUT_INTR_MASK,
  54:.\Generated_Source\PSoC5/I2C_COULOMB_PM.c **** 
  55:.\Generated_Source\PSoC5/I2C_COULOMB_PM.c ****         #if(I2C_COULOMB_TIMEOUT_PRESCALER_ENABLED && CY_UDB_V0)
  56:.\Generated_Source\PSoC5/I2C_COULOMB_PM.c ****             I2C_COULOMB_DEFAULT_TMOUT_PRESCALER_PRD,
  57:.\Generated_Source\PSoC5/I2C_COULOMB_PM.c ****         #endif /* (I2C_COULOMB_TIMEOUT_PRESCALER_ENABLED) */
  58:.\Generated_Source\PSoC5/I2C_COULOMB_PM.c **** 
  59:.\Generated_Source\PSoC5/I2C_COULOMB_PM.c ****     #endif /* (I2C_COULOMB_TIMEOUT_ENABLED) */
  60:.\Generated_Source\PSoC5/I2C_COULOMB_PM.c **** };
  61:.\Generated_Source\PSoC5/I2C_COULOMB_PM.c **** 
  62:.\Generated_Source\PSoC5/I2C_COULOMB_PM.c **** #if((I2C_COULOMB_FF_IMPLEMENTED) && (I2C_COULOMB_WAKEUP_ENABLED))
  63:.\Generated_Source\PSoC5/I2C_COULOMB_PM.c ****     volatile uint8 I2C_COULOMB_wakeupSource;
  64:.\Generated_Source\PSoC5/I2C_COULOMB_PM.c **** #endif /* ((I2C_COULOMB_FF_IMPLEMENTED) && (I2C_COULOMB_WAKEUP_ENABLED)) */
  65:.\Generated_Source\PSoC5/I2C_COULOMB_PM.c **** 
  66:.\Generated_Source\PSoC5/I2C_COULOMB_PM.c **** 
  67:.\Generated_Source\PSoC5/I2C_COULOMB_PM.c **** /*******************************************************************************
  68:.\Generated_Source\PSoC5/I2C_COULOMB_PM.c **** * Function Name: I2C_COULOMB_SaveConfig
  69:.\Generated_Source\PSoC5/I2C_COULOMB_PM.c **** ********************************************************************************
  70:.\Generated_Source\PSoC5/I2C_COULOMB_PM.c **** *
  71:.\Generated_Source\PSoC5/I2C_COULOMB_PM.c **** * Summary:
  72:.\Generated_Source\PSoC5/I2C_COULOMB_PM.c **** *  Wakeup on address match enabled: disables I2C Master(if was enabled before go
  73:.\Generated_Source\PSoC5/I2C_COULOMB_PM.c **** *  to sleep), enables I2C backup regulator. Waits while on-going transaction be
  74:.\Generated_Source\PSoC5/I2C_COULOMB_PM.c **** *  will completed and I2C will be ready go to sleep. All incoming transaction
  75:.\Generated_Source\PSoC5/I2C_COULOMB_PM.c **** *  will be NACKed till power down will be asserted. The address match event
  76:.\Generated_Source\PSoC5/I2C_COULOMB_PM.c **** *  wakes up the chip.
  77:.\Generated_Source\PSoC5/I2C_COULOMB_PM.c **** *  Wakeup on address match disabled: saves I2C configuration and non-retention
  78:.\Generated_Source\PSoC5/I2C_COULOMB_PM.c **** *  register values.
  79:.\Generated_Source\PSoC5/I2C_COULOMB_PM.c **** *
  80:.\Generated_Source\PSoC5/I2C_COULOMB_PM.c **** * Parameters:
  81:.\Generated_Source\PSoC5/I2C_COULOMB_PM.c **** *  None
  82:.\Generated_Source\PSoC5/I2C_COULOMB_PM.c **** *
  83:.\Generated_Source\PSoC5/I2C_COULOMB_PM.c **** * Return:
  84:.\Generated_Source\PSoC5/I2C_COULOMB_PM.c **** *  None
  85:.\Generated_Source\PSoC5/I2C_COULOMB_PM.c **** *
  86:.\Generated_Source\PSoC5/I2C_COULOMB_PM.c **** * Global Variables:
  87:.\Generated_Source\PSoC5/I2C_COULOMB_PM.c **** *  I2C_COULOMB_backup - used to save component configuration and
  88:.\Generated_Source\PSoC5/I2C_COULOMB_PM.c **** *       none-retention registers before enter sleep mode.
ARM GAS  C:\Users\Graziano\AppData\Local\Temp\ccQb7321.s 			page 3


  89:.\Generated_Source\PSoC5/I2C_COULOMB_PM.c **** *
  90:.\Generated_Source\PSoC5/I2C_COULOMB_PM.c **** * Reentrant:
  91:.\Generated_Source\PSoC5/I2C_COULOMB_PM.c **** *  No
  92:.\Generated_Source\PSoC5/I2C_COULOMB_PM.c **** *
  93:.\Generated_Source\PSoC5/I2C_COULOMB_PM.c **** *******************************************************************************/
  94:.\Generated_Source\PSoC5/I2C_COULOMB_PM.c **** void I2C_COULOMB_SaveConfig(void) 
  95:.\Generated_Source\PSoC5/I2C_COULOMB_PM.c **** {
  27              		.loc 1 95 0
  28              		.cfi_startproc
  29              		@ args = 0, pretend = 0, frame = 0
  30              		@ frame_needed = 0, uses_anonymous_args = 0
  31              		@ link register save eliminated.
  96:.\Generated_Source\PSoC5/I2C_COULOMB_PM.c ****     #if(I2C_COULOMB_FF_IMPLEMENTED)
  97:.\Generated_Source\PSoC5/I2C_COULOMB_PM.c ****         #if(I2C_COULOMB_WAKEUP_ENABLED)
  98:.\Generated_Source\PSoC5/I2C_COULOMB_PM.c ****             uint8 enableInterrupts;
  99:.\Generated_Source\PSoC5/I2C_COULOMB_PM.c ****         #endif /* (I2C_COULOMB_WAKEUP_ENABLED) */
 100:.\Generated_Source\PSoC5/I2C_COULOMB_PM.c **** 
 101:.\Generated_Source\PSoC5/I2C_COULOMB_PM.c ****         /* Store regiters in either Sleep mode */
 102:.\Generated_Source\PSoC5/I2C_COULOMB_PM.c ****         I2C_COULOMB_backup.cfg  = I2C_COULOMB_CFG_REG;
  32              		.loc 1 102 0
  33 0000 064B     		ldr	r3, .L2
  34 0002 0748     		ldr	r0, .L2+4
  35 0004 1A78     		ldrb	r2, [r3, #0]	@ zero_extendqisi2
 103:.\Generated_Source\PSoC5/I2C_COULOMB_PM.c ****         I2C_COULOMB_backup.xcfg = I2C_COULOMB_XCFG_REG;
  36              		.loc 1 103 0
  37 0006 0749     		ldr	r1, .L2+8
 102:.\Generated_Source\PSoC5/I2C_COULOMB_PM.c ****         I2C_COULOMB_backup.cfg  = I2C_COULOMB_CFG_REG;
  38              		.loc 1 102 0
  39 0008 8270     		strb	r2, [r0, #2]
  40              		.loc 1 103 0
  41 000a 0B78     		ldrb	r3, [r1, #0]	@ zero_extendqisi2
 104:.\Generated_Source\PSoC5/I2C_COULOMB_PM.c **** 
 105:.\Generated_Source\PSoC5/I2C_COULOMB_PM.c ****         #if(I2C_COULOMB_MODE_SLAVE_ENABLED)
 106:.\Generated_Source\PSoC5/I2C_COULOMB_PM.c ****             I2C_COULOMB_backup.addr = I2C_COULOMB_ADDR_REG;
 107:.\Generated_Source\PSoC5/I2C_COULOMB_PM.c ****         #endif /* (I2C_COULOMB_MODE_SLAVE_ENABLED) */
 108:.\Generated_Source\PSoC5/I2C_COULOMB_PM.c **** 
 109:.\Generated_Source\PSoC5/I2C_COULOMB_PM.c ****         #if(CY_PSOC5A)
 110:.\Generated_Source\PSoC5/I2C_COULOMB_PM.c ****             I2C_COULOMB_backup.clkDiv   = I2C_COULOMB_CLKDIV_REG;
 111:.\Generated_Source\PSoC5/I2C_COULOMB_PM.c ****         #else
 112:.\Generated_Source\PSoC5/I2C_COULOMB_PM.c ****             I2C_COULOMB_backup.clkDiv1  = I2C_COULOMB_CLKDIV1_REG;
  42              		.loc 1 112 0
  43 000c 064A     		ldr	r2, .L2+12
 103:.\Generated_Source\PSoC5/I2C_COULOMB_PM.c ****         I2C_COULOMB_backup.xcfg = I2C_COULOMB_XCFG_REG;
  44              		.loc 1 103 0
  45 000e 4370     		strb	r3, [r0, #1]
  46              		.loc 1 112 0
  47 0010 1178     		ldrb	r1, [r2, #0]	@ zero_extendqisi2
 113:.\Generated_Source\PSoC5/I2C_COULOMB_PM.c ****             I2C_COULOMB_backup.clkDiv2  = I2C_COULOMB_CLKDIV2_REG;
  48              		.loc 1 113 0
  49 0012 064B     		ldr	r3, .L2+16
 112:.\Generated_Source\PSoC5/I2C_COULOMB_PM.c ****             I2C_COULOMB_backup.clkDiv1  = I2C_COULOMB_CLKDIV1_REG;
  50              		.loc 1 112 0
  51 0014 C170     		strb	r1, [r0, #3]
  52              		.loc 1 113 0
  53 0016 1A78     		ldrb	r2, [r3, #0]	@ zero_extendqisi2
  54 0018 0271     		strb	r2, [r0, #4]
  55 001a 7047     		bx	lr
ARM GAS  C:\Users\Graziano\AppData\Local\Temp\ccQb7321.s 			page 4


  56              	.L3:
  57              		.align	2
  58              	.L2:
  59 001c D6490040 		.word	1073760726
  60 0020 00000000 		.word	.LANCHOR0
  61 0024 C8490040 		.word	1073760712
  62 0028 DB490040 		.word	1073760731
  63 002c DC490040 		.word	1073760732
  64              		.cfi_endproc
  65              	.LFE0:
  66              		.size	I2C_COULOMB_SaveConfig, .-I2C_COULOMB_SaveConfig
  67              		.section	.text.I2C_COULOMB_Sleep,"ax",%progbits
  68              		.align	1
  69              		.global	I2C_COULOMB_Sleep
  70              		.thumb
  71              		.thumb_func
  72              		.type	I2C_COULOMB_Sleep, %function
  73              	I2C_COULOMB_Sleep:
  74              	.LFB1:
 114:.\Generated_Source\PSoC5/I2C_COULOMB_PM.c ****         #endif /* (CY_PSOC5A) */
 115:.\Generated_Source\PSoC5/I2C_COULOMB_PM.c **** 
 116:.\Generated_Source\PSoC5/I2C_COULOMB_PM.c ****         #if(I2C_COULOMB_WAKEUP_ENABLED)
 117:.\Generated_Source\PSoC5/I2C_COULOMB_PM.c ****             /* Need to disable Master */
 118:.\Generated_Source\PSoC5/I2C_COULOMB_PM.c ****             I2C_COULOMB_CFG_REG &= ((uint8) ~I2C_COULOMB_ENABLE_MASTER);
 119:.\Generated_Source\PSoC5/I2C_COULOMB_PM.c **** 
 120:.\Generated_Source\PSoC5/I2C_COULOMB_PM.c ****             /* Enable the I2C regulator backup */
 121:.\Generated_Source\PSoC5/I2C_COULOMB_PM.c ****             enableInterrupts = CyEnterCriticalSection();
 122:.\Generated_Source\PSoC5/I2C_COULOMB_PM.c ****             I2C_COULOMB_PWRSYS_CR1_REG |= I2C_COULOMB_PWRSYS_CR1_I2C_REG_BACKUP;
 123:.\Generated_Source\PSoC5/I2C_COULOMB_PM.c ****             CyExitCriticalSection(enableInterrupts);
 124:.\Generated_Source\PSoC5/I2C_COULOMB_PM.c **** 
 125:.\Generated_Source\PSoC5/I2C_COULOMB_PM.c ****             /* 1) Set force NACK to ignore I2C transactions
 126:.\Generated_Source\PSoC5/I2C_COULOMB_PM.c ****                2) Wait while I2C will be ready go to Sleep
 127:.\Generated_Source\PSoC5/I2C_COULOMB_PM.c ****                3) These bits are cleared on wake up */
 128:.\Generated_Source\PSoC5/I2C_COULOMB_PM.c ****             I2C_COULOMB_XCFG_REG |= I2C_COULOMB_XCFG_FORCE_NACK;
 129:.\Generated_Source\PSoC5/I2C_COULOMB_PM.c ****             while(0u == (I2C_COULOMB_XCFG_REG & I2C_COULOMB_XCFG_RDY_TO_SLEEP))
 130:.\Generated_Source\PSoC5/I2C_COULOMB_PM.c ****             {
 131:.\Generated_Source\PSoC5/I2C_COULOMB_PM.c ****                 ; /* Wait when block is ready to Sleep */
 132:.\Generated_Source\PSoC5/I2C_COULOMB_PM.c ****             }
 133:.\Generated_Source\PSoC5/I2C_COULOMB_PM.c **** 
 134:.\Generated_Source\PSoC5/I2C_COULOMB_PM.c ****             /* Setup wakeup interrupt */
 135:.\Generated_Source\PSoC5/I2C_COULOMB_PM.c ****             I2C_COULOMB_DisableInt();
 136:.\Generated_Source\PSoC5/I2C_COULOMB_PM.c ****             (void) CyIntSetVector(I2C_COULOMB_ISR_NUMBER, &I2C_COULOMB_WAKEUP_ISR);
 137:.\Generated_Source\PSoC5/I2C_COULOMB_PM.c ****             I2C_COULOMB_wakeupSource = 0u;
 138:.\Generated_Source\PSoC5/I2C_COULOMB_PM.c ****             I2C_COULOMB_EnableInt();
 139:.\Generated_Source\PSoC5/I2C_COULOMB_PM.c **** 
 140:.\Generated_Source\PSoC5/I2C_COULOMB_PM.c ****         #endif /* (I2C_COULOMB_WAKEUP_ENABLED) */
 141:.\Generated_Source\PSoC5/I2C_COULOMB_PM.c **** 
 142:.\Generated_Source\PSoC5/I2C_COULOMB_PM.c ****     #else
 143:.\Generated_Source\PSoC5/I2C_COULOMB_PM.c ****         /* Store only address match bit */
 144:.\Generated_Source\PSoC5/I2C_COULOMB_PM.c ****         I2C_COULOMB_backup.control = (I2C_COULOMB_CFG_REG & I2C_COULOMB_CTRL_ANY_ADDRESS_MASK);
 145:.\Generated_Source\PSoC5/I2C_COULOMB_PM.c **** 
 146:.\Generated_Source\PSoC5/I2C_COULOMB_PM.c ****         #if(CY_UDB_V0)
 147:.\Generated_Source\PSoC5/I2C_COULOMB_PM.c ****             /* Store interrupt mask bits */
 148:.\Generated_Source\PSoC5/I2C_COULOMB_PM.c ****             I2C_COULOMB_backup.intMask = I2C_COULOMB_INT_MASK_REG;
 149:.\Generated_Source\PSoC5/I2C_COULOMB_PM.c **** 
 150:.\Generated_Source\PSoC5/I2C_COULOMB_PM.c ****             #if(I2C_COULOMB_MODE & I2C_COULOMB_MODE_SLAVE)
 151:.\Generated_Source\PSoC5/I2C_COULOMB_PM.c ****                 I2C_COULOMB_backup.addr = I2C_COULOMB_ADDR_REG;
ARM GAS  C:\Users\Graziano\AppData\Local\Temp\ccQb7321.s 			page 5


 152:.\Generated_Source\PSoC5/I2C_COULOMB_PM.c ****             #endif /* (I2C_COULOMB_MODE & I2C_COULOMB_MODE_SLAVE) */
 153:.\Generated_Source\PSoC5/I2C_COULOMB_PM.c **** 
 154:.\Generated_Source\PSoC5/I2C_COULOMB_PM.c ****         #endif /* (CY_UDB_V0) */
 155:.\Generated_Source\PSoC5/I2C_COULOMB_PM.c **** 
 156:.\Generated_Source\PSoC5/I2C_COULOMB_PM.c ****     #endif /* (I2C_COULOMB_FF_IMPLEMENTED) */
 157:.\Generated_Source\PSoC5/I2C_COULOMB_PM.c **** 
 158:.\Generated_Source\PSoC5/I2C_COULOMB_PM.c ****     #if(I2C_COULOMB_TIMEOUT_ENABLED)
 159:.\Generated_Source\PSoC5/I2C_COULOMB_PM.c ****         I2C_COULOMB_TimeoutSaveConfig();   /* Save Timeout config */
 160:.\Generated_Source\PSoC5/I2C_COULOMB_PM.c ****     #endif /* (I2C_COULOMB_TIMEOUT_ENABLED) */
 161:.\Generated_Source\PSoC5/I2C_COULOMB_PM.c **** }
 162:.\Generated_Source\PSoC5/I2C_COULOMB_PM.c **** 
 163:.\Generated_Source\PSoC5/I2C_COULOMB_PM.c **** 
 164:.\Generated_Source\PSoC5/I2C_COULOMB_PM.c **** /*******************************************************************************
 165:.\Generated_Source\PSoC5/I2C_COULOMB_PM.c **** * Function Name: I2C_COULOMB_Sleep
 166:.\Generated_Source\PSoC5/I2C_COULOMB_PM.c **** ********************************************************************************
 167:.\Generated_Source\PSoC5/I2C_COULOMB_PM.c **** *
 168:.\Generated_Source\PSoC5/I2C_COULOMB_PM.c **** * Summary:
 169:.\Generated_Source\PSoC5/I2C_COULOMB_PM.c **** *  Wakeup on address match enabled: All incoming transaction will be NACKed till
 170:.\Generated_Source\PSoC5/I2C_COULOMB_PM.c **** *  power down will be asserted. The address match event wakes up the chip.
 171:.\Generated_Source\PSoC5/I2C_COULOMB_PM.c **** *  Wakeup on address match disabled: Disables active mode power template bits or
 172:.\Generated_Source\PSoC5/I2C_COULOMB_PM.c **** *  clock gating as appropriate. Saves I2C configuration and non-retention
 173:.\Generated_Source\PSoC5/I2C_COULOMB_PM.c **** *  register values.
 174:.\Generated_Source\PSoC5/I2C_COULOMB_PM.c **** *  Disables I2C interrupt.
 175:.\Generated_Source\PSoC5/I2C_COULOMB_PM.c **** *
 176:.\Generated_Source\PSoC5/I2C_COULOMB_PM.c **** * Parameters:
 177:.\Generated_Source\PSoC5/I2C_COULOMB_PM.c **** *  None
 178:.\Generated_Source\PSoC5/I2C_COULOMB_PM.c **** *
 179:.\Generated_Source\PSoC5/I2C_COULOMB_PM.c **** * Return:
 180:.\Generated_Source\PSoC5/I2C_COULOMB_PM.c **** *  None
 181:.\Generated_Source\PSoC5/I2C_COULOMB_PM.c **** *
 182:.\Generated_Source\PSoC5/I2C_COULOMB_PM.c **** * Reentrant:
 183:.\Generated_Source\PSoC5/I2C_COULOMB_PM.c **** *  No
 184:.\Generated_Source\PSoC5/I2C_COULOMB_PM.c **** *
 185:.\Generated_Source\PSoC5/I2C_COULOMB_PM.c **** *******************************************************************************/
 186:.\Generated_Source\PSoC5/I2C_COULOMB_PM.c **** void I2C_COULOMB_Sleep(void) 
 187:.\Generated_Source\PSoC5/I2C_COULOMB_PM.c **** {
  75              		.loc 1 187 0
  76              		.cfi_startproc
  77              		@ args = 0, pretend = 0, frame = 0
  78              		@ frame_needed = 0, uses_anonymous_args = 0
  79 0000 08B5     		push	{r3, lr}
  80              	.LCFI0:
  81              		.cfi_def_cfa_offset 8
  82              		.cfi_offset 3, -8
  83              		.cfi_offset 14, -4
 188:.\Generated_Source\PSoC5/I2C_COULOMB_PM.c ****     #if(I2C_COULOMB_WAKEUP_ENABLED)
 189:.\Generated_Source\PSoC5/I2C_COULOMB_PM.c ****         /* The I2C block should be always enabled if used as wakeup source */
 190:.\Generated_Source\PSoC5/I2C_COULOMB_PM.c ****         I2C_COULOMB_backup.enableState = I2C_COULOMB_DISABLE;
 191:.\Generated_Source\PSoC5/I2C_COULOMB_PM.c **** 
 192:.\Generated_Source\PSoC5/I2C_COULOMB_PM.c ****         #if(I2C_COULOMB_TIMEOUT_ENABLED)
 193:.\Generated_Source\PSoC5/I2C_COULOMB_PM.c ****             I2C_COULOMB_TimeoutStop();
 194:.\Generated_Source\PSoC5/I2C_COULOMB_PM.c ****         #endif /* (I2C_COULOMB_TIMEOUT_ENABLED) */
 195:.\Generated_Source\PSoC5/I2C_COULOMB_PM.c **** 
 196:.\Generated_Source\PSoC5/I2C_COULOMB_PM.c ****     #else
 197:.\Generated_Source\PSoC5/I2C_COULOMB_PM.c **** 
 198:.\Generated_Source\PSoC5/I2C_COULOMB_PM.c ****         I2C_COULOMB_backup.enableState = ((uint8) I2C_COULOMB_IS_ENABLED);
  84              		.loc 1 198 0
ARM GAS  C:\Users\Graziano\AppData\Local\Temp\ccQb7321.s 			page 6


  85 0002 084B     		ldr	r3, .L10
  86 0004 084A     		ldr	r2, .L10+4
  87 0006 1978     		ldrb	r1, [r3, #0]	@ zero_extendqisi2
  88 0008 C1F38000 		ubfx	r0, r1, #2, #1
  89 000c 1070     		strb	r0, [r2, #0]
 199:.\Generated_Source\PSoC5/I2C_COULOMB_PM.c **** 
 200:.\Generated_Source\PSoC5/I2C_COULOMB_PM.c ****         if(I2C_COULOMB_IS_ENABLED)
  90              		.loc 1 200 0
  91 000e 1B78     		ldrb	r3, [r3, #0]	@ zero_extendqisi2
  92 0010 03F00401 		and	r1, r3, #4
  93 0014 C8B2     		uxtb	r0, r1
  94 0016 08B1     		cbz	r0, .L5
 201:.\Generated_Source\PSoC5/I2C_COULOMB_PM.c ****         {
 202:.\Generated_Source\PSoC5/I2C_COULOMB_PM.c ****             I2C_COULOMB_Stop();
  95              		.loc 1 202 0
  96 0018 FFF7FEFF 		bl	I2C_COULOMB_Stop
  97              	.LVL0:
  98              	.L5:
 203:.\Generated_Source\PSoC5/I2C_COULOMB_PM.c ****         }
 204:.\Generated_Source\PSoC5/I2C_COULOMB_PM.c ****     #endif /* (I2C_COULOMB_WAKEUP_ENABLED) */
 205:.\Generated_Source\PSoC5/I2C_COULOMB_PM.c **** 
 206:.\Generated_Source\PSoC5/I2C_COULOMB_PM.c ****     I2C_COULOMB_SaveConfig();
 207:.\Generated_Source\PSoC5/I2C_COULOMB_PM.c **** }
  99              		.loc 1 207 0
 100 001c BDE80840 		pop	{r3, lr}
 206:.\Generated_Source\PSoC5/I2C_COULOMB_PM.c ****     I2C_COULOMB_SaveConfig();
 101              		.loc 1 206 0
 102 0020 FFF7FEBF 		b	I2C_COULOMB_SaveConfig
 103              	.LVL1:
 104              	.L11:
 105              		.align	2
 106              	.L10:
 107 0024 A5430040 		.word	1073759141
 108 0028 00000000 		.word	.LANCHOR0
 109              		.cfi_endproc
 110              	.LFE1:
 111              		.size	I2C_COULOMB_Sleep, .-I2C_COULOMB_Sleep
 112              		.section	.text.I2C_COULOMB_RestoreConfig,"ax",%progbits
 113              		.align	1
 114              		.global	I2C_COULOMB_RestoreConfig
 115              		.thumb
 116              		.thumb_func
 117              		.type	I2C_COULOMB_RestoreConfig, %function
 118              	I2C_COULOMB_RestoreConfig:
 119              	.LFB2:
 208:.\Generated_Source\PSoC5/I2C_COULOMB_PM.c **** 
 209:.\Generated_Source\PSoC5/I2C_COULOMB_PM.c **** 
 210:.\Generated_Source\PSoC5/I2C_COULOMB_PM.c **** /*******************************************************************************
 211:.\Generated_Source\PSoC5/I2C_COULOMB_PM.c **** * Function Name: I2C_COULOMB_RestoreConfig
 212:.\Generated_Source\PSoC5/I2C_COULOMB_PM.c **** ********************************************************************************
 213:.\Generated_Source\PSoC5/I2C_COULOMB_PM.c **** *
 214:.\Generated_Source\PSoC5/I2C_COULOMB_PM.c **** * Summary:
 215:.\Generated_Source\PSoC5/I2C_COULOMB_PM.c **** *  Wakeup on address match enabled: enables I2C Master (if was enabled before go
 216:.\Generated_Source\PSoC5/I2C_COULOMB_PM.c **** *  to sleep), disables I2C backup regulator.
 217:.\Generated_Source\PSoC5/I2C_COULOMB_PM.c **** *  Wakeup on address match disabled: Restores I2C configuration and
 218:.\Generated_Source\PSoC5/I2C_COULOMB_PM.c **** *  non-retention register values.
 219:.\Generated_Source\PSoC5/I2C_COULOMB_PM.c **** *
ARM GAS  C:\Users\Graziano\AppData\Local\Temp\ccQb7321.s 			page 7


 220:.\Generated_Source\PSoC5/I2C_COULOMB_PM.c **** * Parameters:
 221:.\Generated_Source\PSoC5/I2C_COULOMB_PM.c **** *  None
 222:.\Generated_Source\PSoC5/I2C_COULOMB_PM.c **** *
 223:.\Generated_Source\PSoC5/I2C_COULOMB_PM.c **** * Return:
 224:.\Generated_Source\PSoC5/I2C_COULOMB_PM.c **** *  None
 225:.\Generated_Source\PSoC5/I2C_COULOMB_PM.c **** *
 226:.\Generated_Source\PSoC5/I2C_COULOMB_PM.c **** * Global Variables:
 227:.\Generated_Source\PSoC5/I2C_COULOMB_PM.c **** *  I2C_COULOMB_backup - used to save component configuration and
 228:.\Generated_Source\PSoC5/I2C_COULOMB_PM.c **** *  none-retention registers before exit sleep mode.
 229:.\Generated_Source\PSoC5/I2C_COULOMB_PM.c **** *
 230:.\Generated_Source\PSoC5/I2C_COULOMB_PM.c **** *******************************************************************************/
 231:.\Generated_Source\PSoC5/I2C_COULOMB_PM.c **** void I2C_COULOMB_RestoreConfig(void) 
 232:.\Generated_Source\PSoC5/I2C_COULOMB_PM.c **** {
 120              		.loc 1 232 0
 121              		.cfi_startproc
 122              		@ args = 0, pretend = 0, frame = 0
 123              		@ frame_needed = 0, uses_anonymous_args = 0
 124 0000 10B5     		push	{r4, lr}
 125              	.LCFI1:
 126              		.cfi_def_cfa_offset 8
 127              		.cfi_offset 4, -8
 128              		.cfi_offset 14, -4
 233:.\Generated_Source\PSoC5/I2C_COULOMB_PM.c ****     #if(I2C_COULOMB_FF_IMPLEMENTED)
 234:.\Generated_Source\PSoC5/I2C_COULOMB_PM.c ****         uint8 enableInterrupts;
 235:.\Generated_Source\PSoC5/I2C_COULOMB_PM.c **** 
 236:.\Generated_Source\PSoC5/I2C_COULOMB_PM.c ****         if(I2C_COULOMB_CHECK_PWRSYS_I2C_BACKUP)    /* Enabled if was in Sleep */
 129              		.loc 1 236 0
 130 0002 0F4C     		ldr	r4, .L16
 131 0004 2378     		ldrb	r3, [r4, #0]	@ zero_extendqisi2
 132 0006 03F00400 		and	r0, r3, #4
 133 000a C1B2     		uxtb	r1, r0
 134 000c 59B1     		cbz	r1, .L13
 237:.\Generated_Source\PSoC5/I2C_COULOMB_PM.c ****         {
 238:.\Generated_Source\PSoC5/I2C_COULOMB_PM.c ****             /* Disable back-up regulator */
 239:.\Generated_Source\PSoC5/I2C_COULOMB_PM.c ****             enableInterrupts = CyEnterCriticalSection();
 135              		.loc 1 239 0
 136 000e FFF7FEFF 		bl	CyEnterCriticalSection
 137              	.LVL2:
 240:.\Generated_Source\PSoC5/I2C_COULOMB_PM.c ****             I2C_COULOMB_PWRSYS_CR1_REG &= ((uint8) ~I2C_COULOMB_PWRSYS_CR1_I2C_REG_BACKUP);
 138              		.loc 1 240 0
 139 0012 2178     		ldrb	r1, [r4, #0]	@ zero_extendqisi2
 140 0014 01F0FB02 		and	r2, r1, #251
 141 0018 2270     		strb	r2, [r4, #0]
 241:.\Generated_Source\PSoC5/I2C_COULOMB_PM.c ****             CyExitCriticalSection(enableInterrupts);
 142              		.loc 1 241 0
 143 001a FFF7FEFF 		bl	CyExitCriticalSection
 144              	.LVL3:
 242:.\Generated_Source\PSoC5/I2C_COULOMB_PM.c **** 
 243:.\Generated_Source\PSoC5/I2C_COULOMB_PM.c ****             /* Re-enable Master */
 244:.\Generated_Source\PSoC5/I2C_COULOMB_PM.c ****             I2C_COULOMB_CFG_REG = I2C_COULOMB_backup.cfg;
 145              		.loc 1 244 0
 146 001e 0948     		ldr	r0, .L16+4
 147 0020 094B     		ldr	r3, .L16+8
 148 0022 8278     		ldrb	r2, [r0, #2]	@ zero_extendqisi2
 149 0024 09E0     		b	.L15
 150              	.L13:
 245:.\Generated_Source\PSoC5/I2C_COULOMB_PM.c ****         }
ARM GAS  C:\Users\Graziano\AppData\Local\Temp\ccQb7321.s 			page 8


 246:.\Generated_Source\PSoC5/I2C_COULOMB_PM.c ****         else /* The I2C_REG_BACKUP was cleaned by PM API: it means Hibernate or wake-up not set */
 247:.\Generated_Source\PSoC5/I2C_COULOMB_PM.c ****         {
 248:.\Generated_Source\PSoC5/I2C_COULOMB_PM.c ****             #if(I2C_COULOMB_WAKEUP_ENABLED)
 249:.\Generated_Source\PSoC5/I2C_COULOMB_PM.c ****                 /* Disable power to I2C block before register restore */
 250:.\Generated_Source\PSoC5/I2C_COULOMB_PM.c ****                 enableInterrupts = CyEnterCriticalSection();
 251:.\Generated_Source\PSoC5/I2C_COULOMB_PM.c ****                 I2C_COULOMB_ACT_PWRMGR_REG  &= ((uint8) ~I2C_COULOMB_ACT_PWR_EN);
 252:.\Generated_Source\PSoC5/I2C_COULOMB_PM.c ****                 I2C_COULOMB_STBY_PWRMGR_REG &= ((uint8) ~I2C_COULOMB_STBY_PWR_EN);
 253:.\Generated_Source\PSoC5/I2C_COULOMB_PM.c ****                 CyExitCriticalSection(enableInterrupts);
 254:.\Generated_Source\PSoC5/I2C_COULOMB_PM.c **** 
 255:.\Generated_Source\PSoC5/I2C_COULOMB_PM.c ****                 /* Enable component after restore complete */
 256:.\Generated_Source\PSoC5/I2C_COULOMB_PM.c ****                 I2C_COULOMB_backup.enableState = I2C_COULOMB_ENABLE;
 257:.\Generated_Source\PSoC5/I2C_COULOMB_PM.c ****             #endif /* (I2C_COULOMB_WAKEUP_ENABLED) */
 258:.\Generated_Source\PSoC5/I2C_COULOMB_PM.c **** 
 259:.\Generated_Source\PSoC5/I2C_COULOMB_PM.c ****             /* Restore component registers: Hibernate disable power */
 260:.\Generated_Source\PSoC5/I2C_COULOMB_PM.c ****             I2C_COULOMB_XCFG_REG = I2C_COULOMB_backup.xcfg;
 151              		.loc 1 260 0
 152 0026 074B     		ldr	r3, .L16+4
 153 0028 084A     		ldr	r2, .L16+12
 154 002a 5878     		ldrb	r0, [r3, #1]	@ zero_extendqisi2
 155 002c 1070     		strb	r0, [r2, #0]
 261:.\Generated_Source\PSoC5/I2C_COULOMB_PM.c ****             I2C_COULOMB_CFG_REG  = I2C_COULOMB_backup.cfg;
 156              		.loc 1 261 0
 157 002e 9978     		ldrb	r1, [r3, #2]	@ zero_extendqisi2
 158 0030 9173     		strb	r1, [r2, #14]
 262:.\Generated_Source\PSoC5/I2C_COULOMB_PM.c **** 
 263:.\Generated_Source\PSoC5/I2C_COULOMB_PM.c ****             #if(I2C_COULOMB_MODE_SLAVE_ENABLED)
 264:.\Generated_Source\PSoC5/I2C_COULOMB_PM.c ****                 I2C_COULOMB_ADDR_REG = I2C_COULOMB_backup.addr;
 265:.\Generated_Source\PSoC5/I2C_COULOMB_PM.c ****             #endif /* (I2C_COULOMB_MODE_SLAVE_ENABLED) */
 266:.\Generated_Source\PSoC5/I2C_COULOMB_PM.c **** 
 267:.\Generated_Source\PSoC5/I2C_COULOMB_PM.c ****             #if(CY_PSOC5A)
 268:.\Generated_Source\PSoC5/I2C_COULOMB_PM.c ****                 I2C_COULOMB_CLKDIV_REG  = I2C_COULOMB_backup.clkDiv;
 269:.\Generated_Source\PSoC5/I2C_COULOMB_PM.c ****             #else
 270:.\Generated_Source\PSoC5/I2C_COULOMB_PM.c ****                 I2C_COULOMB_CLKDIV1_REG = I2C_COULOMB_backup.clkDiv1;
 159              		.loc 1 270 0
 160 0032 D878     		ldrb	r0, [r3, #3]	@ zero_extendqisi2
 161 0034 D074     		strb	r0, [r2, #19]
 271:.\Generated_Source\PSoC5/I2C_COULOMB_PM.c ****                 I2C_COULOMB_CLKDIV2_REG = I2C_COULOMB_backup.clkDiv2;
 162              		.loc 1 271 0
 163 0036 1A79     		ldrb	r2, [r3, #4]	@ zero_extendqisi2
 164 0038 054B     		ldr	r3, .L16+16
 165              	.L15:
 166 003a 1A70     		strb	r2, [r3, #0]
 167 003c 10BD     		pop	{r4, pc}
 168              	.L17:
 169 003e 00BF     		.align	2
 170              	.L16:
 171 0040 31430040 		.word	1073759025
 172 0044 00000000 		.word	.LANCHOR0
 173 0048 D6490040 		.word	1073760726
 174 004c C8490040 		.word	1073760712
 175 0050 DC490040 		.word	1073760732
 176              		.cfi_endproc
 177              	.LFE2:
 178              		.size	I2C_COULOMB_RestoreConfig, .-I2C_COULOMB_RestoreConfig
 179              		.section	.text.I2C_COULOMB_Wakeup,"ax",%progbits
 180              		.align	1
 181              		.global	I2C_COULOMB_Wakeup
ARM GAS  C:\Users\Graziano\AppData\Local\Temp\ccQb7321.s 			page 9


 182              		.thumb
 183              		.thumb_func
 184              		.type	I2C_COULOMB_Wakeup, %function
 185              	I2C_COULOMB_Wakeup:
 186              	.LFB3:
 272:.\Generated_Source\PSoC5/I2C_COULOMB_PM.c ****             #endif /* (CY_PSOC5A) */
 273:.\Generated_Source\PSoC5/I2C_COULOMB_PM.c ****         }
 274:.\Generated_Source\PSoC5/I2C_COULOMB_PM.c **** 
 275:.\Generated_Source\PSoC5/I2C_COULOMB_PM.c ****         #if(I2C_COULOMB_WAKEUP_ENABLED)
 276:.\Generated_Source\PSoC5/I2C_COULOMB_PM.c ****             I2C_COULOMB_DisableInt();
 277:.\Generated_Source\PSoC5/I2C_COULOMB_PM.c ****             (void) CyIntSetVector(I2C_COULOMB_ISR_NUMBER, &I2C_COULOMB_ISR);
 278:.\Generated_Source\PSoC5/I2C_COULOMB_PM.c ****             if(0u != I2C_COULOMB_wakeupSource)
 279:.\Generated_Source\PSoC5/I2C_COULOMB_PM.c ****             {
 280:.\Generated_Source\PSoC5/I2C_COULOMB_PM.c ****                 I2C_COULOMB_SetPendingInt();   /* Generate interrupt to process incomming transcati
 281:.\Generated_Source\PSoC5/I2C_COULOMB_PM.c ****             }
 282:.\Generated_Source\PSoC5/I2C_COULOMB_PM.c ****             I2C_COULOMB_EnableInt();
 283:.\Generated_Source\PSoC5/I2C_COULOMB_PM.c ****         #endif /* (I2C_COULOMB_WAKEUP_ENABLED) */
 284:.\Generated_Source\PSoC5/I2C_COULOMB_PM.c **** 
 285:.\Generated_Source\PSoC5/I2C_COULOMB_PM.c ****     #else
 286:.\Generated_Source\PSoC5/I2C_COULOMB_PM.c **** 
 287:.\Generated_Source\PSoC5/I2C_COULOMB_PM.c ****         #if(CY_UDB_V0)
 288:.\Generated_Source\PSoC5/I2C_COULOMB_PM.c ****             uint8 enableInterrupts;
 289:.\Generated_Source\PSoC5/I2C_COULOMB_PM.c **** 
 290:.\Generated_Source\PSoC5/I2C_COULOMB_PM.c ****             I2C_COULOMB_INT_MASK_REG |= I2C_COULOMB_backup.intMask;
 291:.\Generated_Source\PSoC5/I2C_COULOMB_PM.c **** 
 292:.\Generated_Source\PSoC5/I2C_COULOMB_PM.c ****             enableInterrupts = CyEnterCriticalSection();
 293:.\Generated_Source\PSoC5/I2C_COULOMB_PM.c ****             I2C_COULOMB_INT_ENABLE_REG |= I2C_COULOMB_INT_ENABLE_MASK;
 294:.\Generated_Source\PSoC5/I2C_COULOMB_PM.c ****             CyExitCriticalSection(enableInterrupts);
 295:.\Generated_Source\PSoC5/I2C_COULOMB_PM.c **** 
 296:.\Generated_Source\PSoC5/I2C_COULOMB_PM.c ****             #if(I2C_COULOMB_MODE_MASTER_ENABLED)
 297:.\Generated_Source\PSoC5/I2C_COULOMB_PM.c ****                 /* Restore Master Clock generator */
 298:.\Generated_Source\PSoC5/I2C_COULOMB_PM.c ****                 I2C_COULOMB_MCLK_PRD_REG = I2C_COULOMB_DEFAULT_MCLK_PRD;
 299:.\Generated_Source\PSoC5/I2C_COULOMB_PM.c ****                 I2C_COULOMB_MCLK_CMP_REG = I2C_COULOMB_DEFAULT_MCLK_CMP;
 300:.\Generated_Source\PSoC5/I2C_COULOMB_PM.c ****             #endif /* (I2C_COULOMB_MODE_MASTER_ENABLED) */
 301:.\Generated_Source\PSoC5/I2C_COULOMB_PM.c **** 
 302:.\Generated_Source\PSoC5/I2C_COULOMB_PM.c ****             #if(I2C_COULOMB_MODE_SLAVE_ENABLED)
 303:.\Generated_Source\PSoC5/I2C_COULOMB_PM.c ****                 I2C_COULOMB_ADDR_REG = I2C_COULOMB_backup.addr;
 304:.\Generated_Source\PSoC5/I2C_COULOMB_PM.c **** 
 305:.\Generated_Source\PSoC5/I2C_COULOMB_PM.c ****                 /* Restore slave bit counter period */
 306:.\Generated_Source\PSoC5/I2C_COULOMB_PM.c ****                 I2C_COULOMB_PERIOD_REG = I2C_COULOMB_DEFAULT_PERIOD;
 307:.\Generated_Source\PSoC5/I2C_COULOMB_PM.c ****             #endif /* (I2C_COULOMB_MODE_SLAVE_ENABLED) */
 308:.\Generated_Source\PSoC5/I2C_COULOMB_PM.c **** 
 309:.\Generated_Source\PSoC5/I2C_COULOMB_PM.c ****         #endif /* (CY_UDB_V0) */
 310:.\Generated_Source\PSoC5/I2C_COULOMB_PM.c **** 
 311:.\Generated_Source\PSoC5/I2C_COULOMB_PM.c ****         I2C_COULOMB_CFG_REG = I2C_COULOMB_backup.control;
 312:.\Generated_Source\PSoC5/I2C_COULOMB_PM.c **** 
 313:.\Generated_Source\PSoC5/I2C_COULOMB_PM.c ****     #endif /* (I2C_COULOMB_FF_IMPLEMENTED) */
 314:.\Generated_Source\PSoC5/I2C_COULOMB_PM.c **** 
 315:.\Generated_Source\PSoC5/I2C_COULOMB_PM.c ****     #if(I2C_COULOMB_TIMEOUT_ENABLED)
 316:.\Generated_Source\PSoC5/I2C_COULOMB_PM.c ****         I2C_COULOMB_TimeoutRestoreConfig();
 317:.\Generated_Source\PSoC5/I2C_COULOMB_PM.c ****     #endif /* (I2C_COULOMB_TIMEOUT_ENABLED) */
 318:.\Generated_Source\PSoC5/I2C_COULOMB_PM.c **** }
 319:.\Generated_Source\PSoC5/I2C_COULOMB_PM.c **** 
 320:.\Generated_Source\PSoC5/I2C_COULOMB_PM.c **** 
 321:.\Generated_Source\PSoC5/I2C_COULOMB_PM.c **** /*******************************************************************************
 322:.\Generated_Source\PSoC5/I2C_COULOMB_PM.c **** * Function Name: I2C_COULOMB_Wakeup
 323:.\Generated_Source\PSoC5/I2C_COULOMB_PM.c **** ********************************************************************************
ARM GAS  C:\Users\Graziano\AppData\Local\Temp\ccQb7321.s 			page 10


 324:.\Generated_Source\PSoC5/I2C_COULOMB_PM.c **** *
 325:.\Generated_Source\PSoC5/I2C_COULOMB_PM.c **** * Summary:
 326:.\Generated_Source\PSoC5/I2C_COULOMB_PM.c **** *  Wakeup on address match enabled: enables I2C Master (if was enabled before go
 327:.\Generated_Source\PSoC5/I2C_COULOMB_PM.c **** *  to sleep) and disables I2C backup regulator.
 328:.\Generated_Source\PSoC5/I2C_COULOMB_PM.c **** *  Wakeup on address match disabled: Restores I2C configuration and
 329:.\Generated_Source\PSoC5/I2C_COULOMB_PM.c **** *  non-retention register values. Restores Active mode power template bits or
 330:.\Generated_Source\PSoC5/I2C_COULOMB_PM.c **** *  clock gating as appropriate.
 331:.\Generated_Source\PSoC5/I2C_COULOMB_PM.c **** *  The I2C interrupt remains disabled after function call.
 332:.\Generated_Source\PSoC5/I2C_COULOMB_PM.c **** *
 333:.\Generated_Source\PSoC5/I2C_COULOMB_PM.c **** * Parameters:
 334:.\Generated_Source\PSoC5/I2C_COULOMB_PM.c **** *  None
 335:.\Generated_Source\PSoC5/I2C_COULOMB_PM.c **** *
 336:.\Generated_Source\PSoC5/I2C_COULOMB_PM.c **** * Return:
 337:.\Generated_Source\PSoC5/I2C_COULOMB_PM.c **** *  None
 338:.\Generated_Source\PSoC5/I2C_COULOMB_PM.c **** *
 339:.\Generated_Source\PSoC5/I2C_COULOMB_PM.c **** * Reentrant:
 340:.\Generated_Source\PSoC5/I2C_COULOMB_PM.c **** *  No
 341:.\Generated_Source\PSoC5/I2C_COULOMB_PM.c **** *
 342:.\Generated_Source\PSoC5/I2C_COULOMB_PM.c **** *******************************************************************************/
 343:.\Generated_Source\PSoC5/I2C_COULOMB_PM.c **** void I2C_COULOMB_Wakeup(void) 
 344:.\Generated_Source\PSoC5/I2C_COULOMB_PM.c **** {
 187              		.loc 1 344 0
 188              		.cfi_startproc
 189              		@ args = 0, pretend = 0, frame = 0
 190              		@ frame_needed = 0, uses_anonymous_args = 0
 191 0000 08B5     		push	{r3, lr}
 192              	.LCFI2:
 193              		.cfi_def_cfa_offset 8
 194              		.cfi_offset 3, -8
 195              		.cfi_offset 14, -4
 345:.\Generated_Source\PSoC5/I2C_COULOMB_PM.c ****     I2C_COULOMB_RestoreConfig();   /* Restore I2C register settings */
 196              		.loc 1 345 0
 197 0002 FFF7FEFF 		bl	I2C_COULOMB_RestoreConfig
 198              	.LVL4:
 346:.\Generated_Source\PSoC5/I2C_COULOMB_PM.c **** 
 347:.\Generated_Source\PSoC5/I2C_COULOMB_PM.c ****     /* Restore component enable state */
 348:.\Generated_Source\PSoC5/I2C_COULOMB_PM.c ****     if(0u != I2C_COULOMB_backup.enableState)
 199              		.loc 1 348 0
 200 0006 054B     		ldr	r3, .L23
 201 0008 1878     		ldrb	r0, [r3, #0]	@ zero_extendqisi2
 202 000a 28B1     		cbz	r0, .L18
 349:.\Generated_Source\PSoC5/I2C_COULOMB_PM.c ****     {
 350:.\Generated_Source\PSoC5/I2C_COULOMB_PM.c ****         I2C_COULOMB_Enable();
 203              		.loc 1 350 0
 204 000c FFF7FEFF 		bl	I2C_COULOMB_Enable
 205              	.LVL5:
 351:.\Generated_Source\PSoC5/I2C_COULOMB_PM.c ****         I2C_COULOMB_EnableInt();
 206              		.loc 1 351 0
 207 0010 0349     		ldr	r1, .L23+4
 208 0012 4FF40042 		mov	r2, #32768
 209 0016 0A60     		str	r2, [r1, #0]
 210              	.L18:
 211 0018 08BD     		pop	{r3, pc}
 212              	.L24:
 213 001a 00BF     		.align	2
 214              	.L23:
 215 001c 00000000 		.word	.LANCHOR0
ARM GAS  C:\Users\Graziano\AppData\Local\Temp\ccQb7321.s 			page 11


 216 0020 00E100E0 		.word	-536813312
 217              		.cfi_endproc
 218              	.LFE3:
 219              		.size	I2C_COULOMB_Wakeup, .-I2C_COULOMB_Wakeup
 220              		.global	I2C_COULOMB_backup
 221              		.data
 222              		.set	.LANCHOR0,. + 0
 223              		.type	I2C_COULOMB_backup, %object
 224              		.size	I2C_COULOMB_backup, 5
 225              	I2C_COULOMB_backup:
 226 0000 00       		.byte	0
 227 0001 81       		.byte	-127
 228 0002 06       		.byte	6
 229 0003 2A       		.byte	42
 230 0004 00       		.byte	0
 231              		.text
 232              	.Letext0:
 233              		.file 2 ".\\Generated_Source\\PSoC5\\cytypes.h"
 234              		.file 3 ".\\Generated_Source\\PSoC5\\I2C_COULOMB.h"
 235              		.file 4 ".\\Generated_Source\\PSoC5\\CyLib.h"