ARM GAS  C:\Users\Graziano\AppData\Local\Temp\ccRk9WKl.s 			page 1


   1              		.syntax unified
   2              		.cpu cortex-m3
   3              		.fpu softvfp
   4              		.eabi_attribute 20, 1
   5              		.eabi_attribute 21, 1
   6              		.eabi_attribute 23, 3
   7              		.eabi_attribute 24, 1
   8              		.eabi_attribute 25, 1
   9              		.eabi_attribute 26, 1
  10              		.eabi_attribute 30, 4
  11              		.eabi_attribute 34, 1
  12              		.eabi_attribute 18, 4
  13              		.thumb
  14              		.file	"isr_EVENTS_IDENTIF.c"
  15              		.text
  16              	.Ltext0:
  17              		.cfi_sections	.debug_frame
  18              		.section	.text.isr_EVENTS_IDENTIF_Interrupt,"ax",%progbits
  19              		.align	1
  20              		.global	isr_EVENTS_IDENTIF_Interrupt
  21              		.thumb
  22              		.thumb_func
  23              		.type	isr_EVENTS_IDENTIF_Interrupt, %function
  24              	isr_EVENTS_IDENTIF_Interrupt:
  25              	.LFB3:
  26              		.file 1 ".\\Generated_Source\\PSoC5\\isr_EVENTS_IDENTIF.c"
   1:.\Generated_Source\PSoC5/isr_EVENTS_IDENTIF.c **** /*******************************************************************************
   2:.\Generated_Source\PSoC5/isr_EVENTS_IDENTIF.c **** * File Name: isr_EVENTS_IDENTIF.c  
   3:.\Generated_Source\PSoC5/isr_EVENTS_IDENTIF.c **** * Version 1.70
   4:.\Generated_Source\PSoC5/isr_EVENTS_IDENTIF.c **** *
   5:.\Generated_Source\PSoC5/isr_EVENTS_IDENTIF.c **** *  Description:
   6:.\Generated_Source\PSoC5/isr_EVENTS_IDENTIF.c **** *   API for controlling the state of an interrupt.
   7:.\Generated_Source\PSoC5/isr_EVENTS_IDENTIF.c **** *
   8:.\Generated_Source\PSoC5/isr_EVENTS_IDENTIF.c **** *
   9:.\Generated_Source\PSoC5/isr_EVENTS_IDENTIF.c **** *  Note:
  10:.\Generated_Source\PSoC5/isr_EVENTS_IDENTIF.c **** *
  11:.\Generated_Source\PSoC5/isr_EVENTS_IDENTIF.c **** ********************************************************************************
  12:.\Generated_Source\PSoC5/isr_EVENTS_IDENTIF.c **** * Copyright 2008-2012, Cypress Semiconductor Corporation.  All rights reserved.
  13:.\Generated_Source\PSoC5/isr_EVENTS_IDENTIF.c **** * You may use this file only in accordance with the license, terms, conditions, 
  14:.\Generated_Source\PSoC5/isr_EVENTS_IDENTIF.c **** * disclaimers, and limitations in the end user license agreement accompanying 
  15:.\Generated_Source\PSoC5/isr_EVENTS_IDENTIF.c **** * the software package with which this file was provided.
  16:.\Generated_Source\PSoC5/isr_EVENTS_IDENTIF.c **** *******************************************************************************/
  17:.\Generated_Source\PSoC5/isr_EVENTS_IDENTIF.c **** 
  18:.\Generated_Source\PSoC5/isr_EVENTS_IDENTIF.c **** 
  19:.\Generated_Source\PSoC5/isr_EVENTS_IDENTIF.c **** #include <cydevice_trm.h>
  20:.\Generated_Source\PSoC5/isr_EVENTS_IDENTIF.c **** #include <CyLib.h>
  21:.\Generated_Source\PSoC5/isr_EVENTS_IDENTIF.c **** #include <isr_EVENTS_IDENTIF.h>
  22:.\Generated_Source\PSoC5/isr_EVENTS_IDENTIF.c **** 
  23:.\Generated_Source\PSoC5/isr_EVENTS_IDENTIF.c **** #if !defined(isr_EVENTS_IDENTIF__REMOVED) /* Check for removal by optimization */
  24:.\Generated_Source\PSoC5/isr_EVENTS_IDENTIF.c **** 
  25:.\Generated_Source\PSoC5/isr_EVENTS_IDENTIF.c **** /*******************************************************************************
  26:.\Generated_Source\PSoC5/isr_EVENTS_IDENTIF.c **** *  Place your includes, defines and code here 
  27:.\Generated_Source\PSoC5/isr_EVENTS_IDENTIF.c **** ********************************************************************************/
  28:.\Generated_Source\PSoC5/isr_EVENTS_IDENTIF.c **** /* `#START isr_EVENTS_IDENTIF_intc` */
  29:.\Generated_Source\PSoC5/isr_EVENTS_IDENTIF.c **** 
  30:.\Generated_Source\PSoC5/isr_EVENTS_IDENTIF.c **** #include <gobee.h>
  31:.\Generated_Source\PSoC5/isr_EVENTS_IDENTIF.c **** #include <estimators.h>
ARM GAS  C:\Users\Graziano\AppData\Local\Temp\ccRk9WKl.s 			page 2


  32:.\Generated_Source\PSoC5/isr_EVENTS_IDENTIF.c **** 	
  33:.\Generated_Source\PSoC5/isr_EVENTS_IDENTIF.c **** /* extern Analog ADXL325 3D accelerometer vars) */
  34:.\Generated_Source\PSoC5/isr_EVENTS_IDENTIF.c **** extern struct ANALOG_3D_ACCELEROMETER aacc;
  35:.\Generated_Source\PSoC5/isr_EVENTS_IDENTIF.c **** 	
  36:.\Generated_Source\PSoC5/isr_EVENTS_IDENTIF.c **** /* `#END` */
  37:.\Generated_Source\PSoC5/isr_EVENTS_IDENTIF.c **** 
  38:.\Generated_Source\PSoC5/isr_EVENTS_IDENTIF.c **** #ifndef CYINT_IRQ_BASE
  39:.\Generated_Source\PSoC5/isr_EVENTS_IDENTIF.c **** #define CYINT_IRQ_BASE      16
  40:.\Generated_Source\PSoC5/isr_EVENTS_IDENTIF.c **** #endif /* CYINT_IRQ_BASE */
  41:.\Generated_Source\PSoC5/isr_EVENTS_IDENTIF.c **** #ifndef CYINT_VECT_TABLE
  42:.\Generated_Source\PSoC5/isr_EVENTS_IDENTIF.c **** #define CYINT_VECT_TABLE    ((cyisraddress **) CYREG_NVIC_VECT_OFFSET)
  43:.\Generated_Source\PSoC5/isr_EVENTS_IDENTIF.c **** #endif /* CYINT_VECT_TABLE */
  44:.\Generated_Source\PSoC5/isr_EVENTS_IDENTIF.c **** 
  45:.\Generated_Source\PSoC5/isr_EVENTS_IDENTIF.c **** /* Declared in startup, used to set unused interrupts to. */
  46:.\Generated_Source\PSoC5/isr_EVENTS_IDENTIF.c **** CY_ISR_PROTO(IntDefaultHandler);
  47:.\Generated_Source\PSoC5/isr_EVENTS_IDENTIF.c **** 
  48:.\Generated_Source\PSoC5/isr_EVENTS_IDENTIF.c **** 
  49:.\Generated_Source\PSoC5/isr_EVENTS_IDENTIF.c **** /*******************************************************************************
  50:.\Generated_Source\PSoC5/isr_EVENTS_IDENTIF.c **** * Function Name: isr_EVENTS_IDENTIF_Start
  51:.\Generated_Source\PSoC5/isr_EVENTS_IDENTIF.c **** ********************************************************************************
  52:.\Generated_Source\PSoC5/isr_EVENTS_IDENTIF.c **** *
  53:.\Generated_Source\PSoC5/isr_EVENTS_IDENTIF.c **** * Summary:
  54:.\Generated_Source\PSoC5/isr_EVENTS_IDENTIF.c **** *  Set up the interrupt and enable it.
  55:.\Generated_Source\PSoC5/isr_EVENTS_IDENTIF.c **** *
  56:.\Generated_Source\PSoC5/isr_EVENTS_IDENTIF.c **** * Parameters:  
  57:.\Generated_Source\PSoC5/isr_EVENTS_IDENTIF.c **** *   None
  58:.\Generated_Source\PSoC5/isr_EVENTS_IDENTIF.c **** *
  59:.\Generated_Source\PSoC5/isr_EVENTS_IDENTIF.c **** * Return:
  60:.\Generated_Source\PSoC5/isr_EVENTS_IDENTIF.c **** *   None
  61:.\Generated_Source\PSoC5/isr_EVENTS_IDENTIF.c **** *
  62:.\Generated_Source\PSoC5/isr_EVENTS_IDENTIF.c **** *******************************************************************************/
  63:.\Generated_Source\PSoC5/isr_EVENTS_IDENTIF.c **** void isr_EVENTS_IDENTIF_Start(void)
  64:.\Generated_Source\PSoC5/isr_EVENTS_IDENTIF.c **** {
  65:.\Generated_Source\PSoC5/isr_EVENTS_IDENTIF.c ****     /* For all we know the interrupt is active. */
  66:.\Generated_Source\PSoC5/isr_EVENTS_IDENTIF.c ****     isr_EVENTS_IDENTIF_Disable();
  67:.\Generated_Source\PSoC5/isr_EVENTS_IDENTIF.c **** 
  68:.\Generated_Source\PSoC5/isr_EVENTS_IDENTIF.c ****     /* Set the ISR to point to the isr_EVENTS_IDENTIF Interrupt. */
  69:.\Generated_Source\PSoC5/isr_EVENTS_IDENTIF.c ****     isr_EVENTS_IDENTIF_SetVector(&isr_EVENTS_IDENTIF_Interrupt);
  70:.\Generated_Source\PSoC5/isr_EVENTS_IDENTIF.c **** 
  71:.\Generated_Source\PSoC5/isr_EVENTS_IDENTIF.c ****     /* Set the priority. */
  72:.\Generated_Source\PSoC5/isr_EVENTS_IDENTIF.c ****     isr_EVENTS_IDENTIF_SetPriority((uint8)isr_EVENTS_IDENTIF_INTC_PRIOR_NUMBER);
  73:.\Generated_Source\PSoC5/isr_EVENTS_IDENTIF.c **** 
  74:.\Generated_Source\PSoC5/isr_EVENTS_IDENTIF.c ****     /* Enable it. */
  75:.\Generated_Source\PSoC5/isr_EVENTS_IDENTIF.c ****     isr_EVENTS_IDENTIF_Enable();
  76:.\Generated_Source\PSoC5/isr_EVENTS_IDENTIF.c **** }
  77:.\Generated_Source\PSoC5/isr_EVENTS_IDENTIF.c **** 
  78:.\Generated_Source\PSoC5/isr_EVENTS_IDENTIF.c **** 
  79:.\Generated_Source\PSoC5/isr_EVENTS_IDENTIF.c **** /*******************************************************************************
  80:.\Generated_Source\PSoC5/isr_EVENTS_IDENTIF.c **** * Function Name: isr_EVENTS_IDENTIF_StartEx
  81:.\Generated_Source\PSoC5/isr_EVENTS_IDENTIF.c **** ********************************************************************************
  82:.\Generated_Source\PSoC5/isr_EVENTS_IDENTIF.c **** *
  83:.\Generated_Source\PSoC5/isr_EVENTS_IDENTIF.c **** * Summary:
  84:.\Generated_Source\PSoC5/isr_EVENTS_IDENTIF.c **** *  Set up the interrupt and enable it.
  85:.\Generated_Source\PSoC5/isr_EVENTS_IDENTIF.c **** *
  86:.\Generated_Source\PSoC5/isr_EVENTS_IDENTIF.c **** * Parameters:  
  87:.\Generated_Source\PSoC5/isr_EVENTS_IDENTIF.c **** *   address: Address of the ISR to set in the interrupt vector table.
  88:.\Generated_Source\PSoC5/isr_EVENTS_IDENTIF.c **** *
ARM GAS  C:\Users\Graziano\AppData\Local\Temp\ccRk9WKl.s 			page 3


  89:.\Generated_Source\PSoC5/isr_EVENTS_IDENTIF.c **** * Return:
  90:.\Generated_Source\PSoC5/isr_EVENTS_IDENTIF.c **** *   None
  91:.\Generated_Source\PSoC5/isr_EVENTS_IDENTIF.c **** *
  92:.\Generated_Source\PSoC5/isr_EVENTS_IDENTIF.c **** *******************************************************************************/
  93:.\Generated_Source\PSoC5/isr_EVENTS_IDENTIF.c **** void isr_EVENTS_IDENTIF_StartEx(cyisraddress address)
  94:.\Generated_Source\PSoC5/isr_EVENTS_IDENTIF.c **** {
  95:.\Generated_Source\PSoC5/isr_EVENTS_IDENTIF.c ****     /* For all we know the interrupt is active. */
  96:.\Generated_Source\PSoC5/isr_EVENTS_IDENTIF.c ****     isr_EVENTS_IDENTIF_Disable();
  97:.\Generated_Source\PSoC5/isr_EVENTS_IDENTIF.c **** 
  98:.\Generated_Source\PSoC5/isr_EVENTS_IDENTIF.c ****     /* Set the ISR to point to the isr_EVENTS_IDENTIF Interrupt. */
  99:.\Generated_Source\PSoC5/isr_EVENTS_IDENTIF.c ****     isr_EVENTS_IDENTIF_SetVector(address);
 100:.\Generated_Source\PSoC5/isr_EVENTS_IDENTIF.c **** 
 101:.\Generated_Source\PSoC5/isr_EVENTS_IDENTIF.c ****     /* Set the priority. */
 102:.\Generated_Source\PSoC5/isr_EVENTS_IDENTIF.c ****     isr_EVENTS_IDENTIF_SetPriority((uint8)isr_EVENTS_IDENTIF_INTC_PRIOR_NUMBER);
 103:.\Generated_Source\PSoC5/isr_EVENTS_IDENTIF.c **** 
 104:.\Generated_Source\PSoC5/isr_EVENTS_IDENTIF.c ****     /* Enable it. */
 105:.\Generated_Source\PSoC5/isr_EVENTS_IDENTIF.c ****     isr_EVENTS_IDENTIF_Enable();
 106:.\Generated_Source\PSoC5/isr_EVENTS_IDENTIF.c **** }
 107:.\Generated_Source\PSoC5/isr_EVENTS_IDENTIF.c **** 
 108:.\Generated_Source\PSoC5/isr_EVENTS_IDENTIF.c **** 
 109:.\Generated_Source\PSoC5/isr_EVENTS_IDENTIF.c **** /*******************************************************************************
 110:.\Generated_Source\PSoC5/isr_EVENTS_IDENTIF.c **** * Function Name: isr_EVENTS_IDENTIF_Stop
 111:.\Generated_Source\PSoC5/isr_EVENTS_IDENTIF.c **** ********************************************************************************
 112:.\Generated_Source\PSoC5/isr_EVENTS_IDENTIF.c **** *
 113:.\Generated_Source\PSoC5/isr_EVENTS_IDENTIF.c **** * Summary:
 114:.\Generated_Source\PSoC5/isr_EVENTS_IDENTIF.c **** *   Disables and removes the interrupt.
 115:.\Generated_Source\PSoC5/isr_EVENTS_IDENTIF.c **** *
 116:.\Generated_Source\PSoC5/isr_EVENTS_IDENTIF.c **** * Parameters:  
 117:.\Generated_Source\PSoC5/isr_EVENTS_IDENTIF.c **** *
 118:.\Generated_Source\PSoC5/isr_EVENTS_IDENTIF.c **** * Return:
 119:.\Generated_Source\PSoC5/isr_EVENTS_IDENTIF.c **** *   None
 120:.\Generated_Source\PSoC5/isr_EVENTS_IDENTIF.c **** *
 121:.\Generated_Source\PSoC5/isr_EVENTS_IDENTIF.c **** *******************************************************************************/
 122:.\Generated_Source\PSoC5/isr_EVENTS_IDENTIF.c **** void isr_EVENTS_IDENTIF_Stop(void)
 123:.\Generated_Source\PSoC5/isr_EVENTS_IDENTIF.c **** {
 124:.\Generated_Source\PSoC5/isr_EVENTS_IDENTIF.c ****     /* Disable this interrupt. */
 125:.\Generated_Source\PSoC5/isr_EVENTS_IDENTIF.c ****     isr_EVENTS_IDENTIF_Disable();
 126:.\Generated_Source\PSoC5/isr_EVENTS_IDENTIF.c **** 
 127:.\Generated_Source\PSoC5/isr_EVENTS_IDENTIF.c ****     /* Set the ISR to point to the passive one. */
 128:.\Generated_Source\PSoC5/isr_EVENTS_IDENTIF.c ****     isr_EVENTS_IDENTIF_SetVector(&IntDefaultHandler);
 129:.\Generated_Source\PSoC5/isr_EVENTS_IDENTIF.c **** }
 130:.\Generated_Source\PSoC5/isr_EVENTS_IDENTIF.c **** 
 131:.\Generated_Source\PSoC5/isr_EVENTS_IDENTIF.c **** 
 132:.\Generated_Source\PSoC5/isr_EVENTS_IDENTIF.c **** /*******************************************************************************
 133:.\Generated_Source\PSoC5/isr_EVENTS_IDENTIF.c **** * Function Name: isr_EVENTS_IDENTIF_Interrupt
 134:.\Generated_Source\PSoC5/isr_EVENTS_IDENTIF.c **** ********************************************************************************
 135:.\Generated_Source\PSoC5/isr_EVENTS_IDENTIF.c **** *
 136:.\Generated_Source\PSoC5/isr_EVENTS_IDENTIF.c **** * Summary:
 137:.\Generated_Source\PSoC5/isr_EVENTS_IDENTIF.c **** *   The default Interrupt Service Routine for isr_EVENTS_IDENTIF.
 138:.\Generated_Source\PSoC5/isr_EVENTS_IDENTIF.c **** *
 139:.\Generated_Source\PSoC5/isr_EVENTS_IDENTIF.c **** *   Add custom code between the coments to keep the next version of this file
 140:.\Generated_Source\PSoC5/isr_EVENTS_IDENTIF.c **** *   from over writting your code.
 141:.\Generated_Source\PSoC5/isr_EVENTS_IDENTIF.c **** *
 142:.\Generated_Source\PSoC5/isr_EVENTS_IDENTIF.c **** * Parameters:  
 143:.\Generated_Source\PSoC5/isr_EVENTS_IDENTIF.c **** *
 144:.\Generated_Source\PSoC5/isr_EVENTS_IDENTIF.c **** * Return:
 145:.\Generated_Source\PSoC5/isr_EVENTS_IDENTIF.c **** *   None
ARM GAS  C:\Users\Graziano\AppData\Local\Temp\ccRk9WKl.s 			page 4


 146:.\Generated_Source\PSoC5/isr_EVENTS_IDENTIF.c **** *
 147:.\Generated_Source\PSoC5/isr_EVENTS_IDENTIF.c **** *******************************************************************************/
 148:.\Generated_Source\PSoC5/isr_EVENTS_IDENTIF.c **** CY_ISR(isr_EVENTS_IDENTIF_Interrupt)
 149:.\Generated_Source\PSoC5/isr_EVENTS_IDENTIF.c **** {
  27              		.loc 1 149 0
  28              		.cfi_startproc
  29              		@ args = 0, pretend = 0, frame = 0
  30              		@ frame_needed = 0, uses_anonymous_args = 0
  31 0000 10B5     		push	{r4, lr}
  32              	.LCFI0:
  33              		.cfi_def_cfa_offset 8
  34              		.cfi_offset 4, -8
  35              		.cfi_offset 14, -4
 150:.\Generated_Source\PSoC5/isr_EVENTS_IDENTIF.c ****     /*  Place your Interrupt code here. */
 151:.\Generated_Source\PSoC5/isr_EVENTS_IDENTIF.c ****     /* `#START isr_EVENTS_IDENTIF_Interrupt` */
 152:.\Generated_Source\PSoC5/isr_EVENTS_IDENTIF.c **** 	
 153:.\Generated_Source\PSoC5/isr_EVENTS_IDENTIF.c **** 	SimpleTiltAngleEventsEstimator(aacc.angle_estim_tilt);
  36              		.loc 1 153 0
  37 0002 084C     		ldr	r4, .L2
  38 0004 206B     		ldr	r0, [r4, #48]	@ float
  39 0006 FFF7FEFF 		bl	SimpleTiltAngleEventsEstimator
  40              	.LVL0:
 154:.\Generated_Source\PSoC5/isr_EVENTS_IDENTIF.c **** 	//SimpleRollAngleEventsEstimator(aacc.angle_estim_roll);	
 155:.\Generated_Source\PSoC5/isr_EVENTS_IDENTIF.c **** 	SimpleVibrationEventsEstimator(aacc.system_dynamic_scalar);
  41              		.loc 1 155 0
  42 000a E06A     		ldr	r0, [r4, #44]	@ float
  43 000c FFF7FEFF 		bl	SimpleVibrationEventsEstimator
  44              	.LVL1:
 156:.\Generated_Source\PSoC5/isr_EVENTS_IDENTIF.c **** 	SimpleJumpEventEstimator(aacc.x_axis.acceleration,aacc.y_axis.acceleration,aacc.z_axis.acceleratio
  45              		.loc 1 156 0
  46 0010 A068     		ldr	r0, [r4, #8]	@ float
  47 0012 6169     		ldr	r1, [r4, #20]	@ float
  48 0014 226A     		ldr	r2, [r4, #32]	@ float
  49 0016 A36A     		ldr	r3, [r4, #40]	@ float
  50 0018 FFF7FEFF 		bl	SimpleJumpEventEstimator
  51              	.LVL2:
 157:.\Generated_Source\PSoC5/isr_EVENTS_IDENTIF.c **** 	
 158:.\Generated_Source\PSoC5/isr_EVENTS_IDENTIF.c **** 	MappingStateMachineExecution();
 159:.\Generated_Source\PSoC5/isr_EVENTS_IDENTIF.c **** 	
 160:.\Generated_Source\PSoC5/isr_EVENTS_IDENTIF.c ****     /* `#END` */
 161:.\Generated_Source\PSoC5/isr_EVENTS_IDENTIF.c **** }
  52              		.loc 1 161 0
  53 001c BDE81040 		pop	{r4, lr}
 158:.\Generated_Source\PSoC5/isr_EVENTS_IDENTIF.c **** 	MappingStateMachineExecution();
  54              		.loc 1 158 0
  55 0020 FFF7FEBF 		b	MappingStateMachineExecution
  56              	.LVL3:
  57              	.L3:
  58              		.align	2
  59              	.L2:
  60 0024 00000000 		.word	aacc
  61              		.cfi_endproc
  62              	.LFE3:
  63              		.size	isr_EVENTS_IDENTIF_Interrupt, .-isr_EVENTS_IDENTIF_Interrupt
  64              		.section	.text.isr_EVENTS_IDENTIF_Start,"ax",%progbits
  65              		.align	1
  66              		.global	isr_EVENTS_IDENTIF_Start
ARM GAS  C:\Users\Graziano\AppData\Local\Temp\ccRk9WKl.s 			page 5


  67              		.thumb
  68              		.thumb_func
  69              		.type	isr_EVENTS_IDENTIF_Start, %function
  70              	isr_EVENTS_IDENTIF_Start:
  71              	.LFB0:
  64:.\Generated_Source\PSoC5/isr_EVENTS_IDENTIF.c **** {
  72              		.loc 1 64 0
  73              		.cfi_startproc
  74              		@ args = 0, pretend = 0, frame = 0
  75              		@ frame_needed = 0, uses_anonymous_args = 0
  76              		@ link register save eliminated.
  77              	.LBB22:
  78              	.LBB23:
 162:.\Generated_Source\PSoC5/isr_EVENTS_IDENTIF.c **** 
 163:.\Generated_Source\PSoC5/isr_EVENTS_IDENTIF.c **** 
 164:.\Generated_Source\PSoC5/isr_EVENTS_IDENTIF.c **** /*******************************************************************************
 165:.\Generated_Source\PSoC5/isr_EVENTS_IDENTIF.c **** * Function Name: isr_EVENTS_IDENTIF_SetVector
 166:.\Generated_Source\PSoC5/isr_EVENTS_IDENTIF.c **** ********************************************************************************
 167:.\Generated_Source\PSoC5/isr_EVENTS_IDENTIF.c **** *
 168:.\Generated_Source\PSoC5/isr_EVENTS_IDENTIF.c **** * Summary:
 169:.\Generated_Source\PSoC5/isr_EVENTS_IDENTIF.c **** *   Change the ISR vector for the Interrupt. Note calling isr_EVENTS_IDENTIF_Start
 170:.\Generated_Source\PSoC5/isr_EVENTS_IDENTIF.c **** *   will override any effect this method would have had. To set the vector 
 171:.\Generated_Source\PSoC5/isr_EVENTS_IDENTIF.c **** *   before the component has been started use isr_EVENTS_IDENTIF_StartEx instead.
 172:.\Generated_Source\PSoC5/isr_EVENTS_IDENTIF.c **** *
 173:.\Generated_Source\PSoC5/isr_EVENTS_IDENTIF.c **** * Parameters:
 174:.\Generated_Source\PSoC5/isr_EVENTS_IDENTIF.c **** *   address: Address of the ISR to set in the interrupt vector table.
 175:.\Generated_Source\PSoC5/isr_EVENTS_IDENTIF.c **** *
 176:.\Generated_Source\PSoC5/isr_EVENTS_IDENTIF.c **** * Return:
 177:.\Generated_Source\PSoC5/isr_EVENTS_IDENTIF.c **** *   None
 178:.\Generated_Source\PSoC5/isr_EVENTS_IDENTIF.c **** *
 179:.\Generated_Source\PSoC5/isr_EVENTS_IDENTIF.c **** *******************************************************************************/
 180:.\Generated_Source\PSoC5/isr_EVENTS_IDENTIF.c **** void isr_EVENTS_IDENTIF_SetVector(cyisraddress address)
 181:.\Generated_Source\PSoC5/isr_EVENTS_IDENTIF.c **** {
 182:.\Generated_Source\PSoC5/isr_EVENTS_IDENTIF.c ****     cyisraddress * ramVectorTable;
 183:.\Generated_Source\PSoC5/isr_EVENTS_IDENTIF.c **** 
 184:.\Generated_Source\PSoC5/isr_EVENTS_IDENTIF.c ****     ramVectorTable = (cyisraddress *) *CYINT_VECT_TABLE;
 185:.\Generated_Source\PSoC5/isr_EVENTS_IDENTIF.c **** 
 186:.\Generated_Source\PSoC5/isr_EVENTS_IDENTIF.c ****     ramVectorTable[CYINT_IRQ_BASE + (uint32)isr_EVENTS_IDENTIF__INTC_NUMBER] = address;
 187:.\Generated_Source\PSoC5/isr_EVENTS_IDENTIF.c **** }
 188:.\Generated_Source\PSoC5/isr_EVENTS_IDENTIF.c **** 
 189:.\Generated_Source\PSoC5/isr_EVENTS_IDENTIF.c **** 
 190:.\Generated_Source\PSoC5/isr_EVENTS_IDENTIF.c **** /*******************************************************************************
 191:.\Generated_Source\PSoC5/isr_EVENTS_IDENTIF.c **** * Function Name: isr_EVENTS_IDENTIF_GetVector
 192:.\Generated_Source\PSoC5/isr_EVENTS_IDENTIF.c **** ********************************************************************************
 193:.\Generated_Source\PSoC5/isr_EVENTS_IDENTIF.c **** *
 194:.\Generated_Source\PSoC5/isr_EVENTS_IDENTIF.c **** * Summary:
 195:.\Generated_Source\PSoC5/isr_EVENTS_IDENTIF.c **** *   Gets the "address" of the current ISR vector for the Interrupt.
 196:.\Generated_Source\PSoC5/isr_EVENTS_IDENTIF.c **** *
 197:.\Generated_Source\PSoC5/isr_EVENTS_IDENTIF.c **** * Parameters:
 198:.\Generated_Source\PSoC5/isr_EVENTS_IDENTIF.c **** *   None
 199:.\Generated_Source\PSoC5/isr_EVENTS_IDENTIF.c **** *
 200:.\Generated_Source\PSoC5/isr_EVENTS_IDENTIF.c **** * Return:
 201:.\Generated_Source\PSoC5/isr_EVENTS_IDENTIF.c **** *   Address of the ISR in the interrupt vector table.
 202:.\Generated_Source\PSoC5/isr_EVENTS_IDENTIF.c **** *
 203:.\Generated_Source\PSoC5/isr_EVENTS_IDENTIF.c **** *******************************************************************************/
 204:.\Generated_Source\PSoC5/isr_EVENTS_IDENTIF.c **** cyisraddress isr_EVENTS_IDENTIF_GetVector(void)
 205:.\Generated_Source\PSoC5/isr_EVENTS_IDENTIF.c **** {
ARM GAS  C:\Users\Graziano\AppData\Local\Temp\ccRk9WKl.s 			page 6


 206:.\Generated_Source\PSoC5/isr_EVENTS_IDENTIF.c ****     cyisraddress * ramVectorTable;
 207:.\Generated_Source\PSoC5/isr_EVENTS_IDENTIF.c **** 
 208:.\Generated_Source\PSoC5/isr_EVENTS_IDENTIF.c ****     ramVectorTable = (cyisraddress *) *CYINT_VECT_TABLE;
 209:.\Generated_Source\PSoC5/isr_EVENTS_IDENTIF.c **** 
 210:.\Generated_Source\PSoC5/isr_EVENTS_IDENTIF.c ****     return ramVectorTable[CYINT_IRQ_BASE + (uint32)isr_EVENTS_IDENTIF__INTC_NUMBER];
 211:.\Generated_Source\PSoC5/isr_EVENTS_IDENTIF.c **** }
 212:.\Generated_Source\PSoC5/isr_EVENTS_IDENTIF.c **** 
 213:.\Generated_Source\PSoC5/isr_EVENTS_IDENTIF.c **** 
 214:.\Generated_Source\PSoC5/isr_EVENTS_IDENTIF.c **** /*******************************************************************************
 215:.\Generated_Source\PSoC5/isr_EVENTS_IDENTIF.c **** * Function Name: isr_EVENTS_IDENTIF_SetPriority
 216:.\Generated_Source\PSoC5/isr_EVENTS_IDENTIF.c **** ********************************************************************************
 217:.\Generated_Source\PSoC5/isr_EVENTS_IDENTIF.c **** *
 218:.\Generated_Source\PSoC5/isr_EVENTS_IDENTIF.c **** * Summary:
 219:.\Generated_Source\PSoC5/isr_EVENTS_IDENTIF.c **** *   Sets the Priority of the Interrupt. Note calling isr_EVENTS_IDENTIF_Start
 220:.\Generated_Source\PSoC5/isr_EVENTS_IDENTIF.c **** *   or isr_EVENTS_IDENTIF_StartEx will override any effect this method 
 221:.\Generated_Source\PSoC5/isr_EVENTS_IDENTIF.c **** *   would have had. This method should only be called after 
 222:.\Generated_Source\PSoC5/isr_EVENTS_IDENTIF.c **** *   isr_EVENTS_IDENTIF_Start or isr_EVENTS_IDENTIF_StartEx has been called. To set 
 223:.\Generated_Source\PSoC5/isr_EVENTS_IDENTIF.c **** *   the initial priority for the component use the cydwr file in the tool.
 224:.\Generated_Source\PSoC5/isr_EVENTS_IDENTIF.c **** *
 225:.\Generated_Source\PSoC5/isr_EVENTS_IDENTIF.c **** * Parameters:
 226:.\Generated_Source\PSoC5/isr_EVENTS_IDENTIF.c **** *   priority: Priority of the interrupt. 0 - 7, 0 being the highest.
 227:.\Generated_Source\PSoC5/isr_EVENTS_IDENTIF.c **** *
 228:.\Generated_Source\PSoC5/isr_EVENTS_IDENTIF.c **** * Return:
 229:.\Generated_Source\PSoC5/isr_EVENTS_IDENTIF.c **** *   None
 230:.\Generated_Source\PSoC5/isr_EVENTS_IDENTIF.c **** *
 231:.\Generated_Source\PSoC5/isr_EVENTS_IDENTIF.c **** *******************************************************************************/
 232:.\Generated_Source\PSoC5/isr_EVENTS_IDENTIF.c **** void isr_EVENTS_IDENTIF_SetPriority(uint8 priority)
 233:.\Generated_Source\PSoC5/isr_EVENTS_IDENTIF.c **** {
 234:.\Generated_Source\PSoC5/isr_EVENTS_IDENTIF.c ****     *isr_EVENTS_IDENTIF_INTC_PRIOR = priority << 5;
 235:.\Generated_Source\PSoC5/isr_EVENTS_IDENTIF.c **** }
 236:.\Generated_Source\PSoC5/isr_EVENTS_IDENTIF.c **** 
 237:.\Generated_Source\PSoC5/isr_EVENTS_IDENTIF.c **** 
 238:.\Generated_Source\PSoC5/isr_EVENTS_IDENTIF.c **** /*******************************************************************************
 239:.\Generated_Source\PSoC5/isr_EVENTS_IDENTIF.c **** * Function Name: isr_EVENTS_IDENTIF_GetPriority
 240:.\Generated_Source\PSoC5/isr_EVENTS_IDENTIF.c **** ********************************************************************************
 241:.\Generated_Source\PSoC5/isr_EVENTS_IDENTIF.c **** *
 242:.\Generated_Source\PSoC5/isr_EVENTS_IDENTIF.c **** * Summary:
 243:.\Generated_Source\PSoC5/isr_EVENTS_IDENTIF.c **** *   Gets the Priority of the Interrupt.
 244:.\Generated_Source\PSoC5/isr_EVENTS_IDENTIF.c **** *
 245:.\Generated_Source\PSoC5/isr_EVENTS_IDENTIF.c **** * Parameters:
 246:.\Generated_Source\PSoC5/isr_EVENTS_IDENTIF.c **** *   None
 247:.\Generated_Source\PSoC5/isr_EVENTS_IDENTIF.c **** *
 248:.\Generated_Source\PSoC5/isr_EVENTS_IDENTIF.c **** * Return:
 249:.\Generated_Source\PSoC5/isr_EVENTS_IDENTIF.c **** *   Priority of the interrupt. 0 - 7, 0 being the highest.
 250:.\Generated_Source\PSoC5/isr_EVENTS_IDENTIF.c **** *
 251:.\Generated_Source\PSoC5/isr_EVENTS_IDENTIF.c **** *******************************************************************************/
 252:.\Generated_Source\PSoC5/isr_EVENTS_IDENTIF.c **** uint8 isr_EVENTS_IDENTIF_GetPriority(void)
 253:.\Generated_Source\PSoC5/isr_EVENTS_IDENTIF.c **** {
 254:.\Generated_Source\PSoC5/isr_EVENTS_IDENTIF.c ****     uint8 priority;
 255:.\Generated_Source\PSoC5/isr_EVENTS_IDENTIF.c **** 
 256:.\Generated_Source\PSoC5/isr_EVENTS_IDENTIF.c **** 
 257:.\Generated_Source\PSoC5/isr_EVENTS_IDENTIF.c ****     priority = *isr_EVENTS_IDENTIF_INTC_PRIOR >> 5;
 258:.\Generated_Source\PSoC5/isr_EVENTS_IDENTIF.c **** 
 259:.\Generated_Source\PSoC5/isr_EVENTS_IDENTIF.c ****     return priority;
 260:.\Generated_Source\PSoC5/isr_EVENTS_IDENTIF.c **** }
 261:.\Generated_Source\PSoC5/isr_EVENTS_IDENTIF.c **** 
 262:.\Generated_Source\PSoC5/isr_EVENTS_IDENTIF.c **** 
ARM GAS  C:\Users\Graziano\AppData\Local\Temp\ccRk9WKl.s 			page 7


 263:.\Generated_Source\PSoC5/isr_EVENTS_IDENTIF.c **** /*******************************************************************************
 264:.\Generated_Source\PSoC5/isr_EVENTS_IDENTIF.c **** * Function Name: isr_EVENTS_IDENTIF_Enable
 265:.\Generated_Source\PSoC5/isr_EVENTS_IDENTIF.c **** ********************************************************************************
 266:.\Generated_Source\PSoC5/isr_EVENTS_IDENTIF.c **** *
 267:.\Generated_Source\PSoC5/isr_EVENTS_IDENTIF.c **** * Summary:
 268:.\Generated_Source\PSoC5/isr_EVENTS_IDENTIF.c **** *   Enables the interrupt.
 269:.\Generated_Source\PSoC5/isr_EVENTS_IDENTIF.c **** *
 270:.\Generated_Source\PSoC5/isr_EVENTS_IDENTIF.c **** * Parameters:
 271:.\Generated_Source\PSoC5/isr_EVENTS_IDENTIF.c **** *   None
 272:.\Generated_Source\PSoC5/isr_EVENTS_IDENTIF.c **** *
 273:.\Generated_Source\PSoC5/isr_EVENTS_IDENTIF.c **** * Return:
 274:.\Generated_Source\PSoC5/isr_EVENTS_IDENTIF.c **** *   None
 275:.\Generated_Source\PSoC5/isr_EVENTS_IDENTIF.c **** *
 276:.\Generated_Source\PSoC5/isr_EVENTS_IDENTIF.c **** *******************************************************************************/
 277:.\Generated_Source\PSoC5/isr_EVENTS_IDENTIF.c **** void isr_EVENTS_IDENTIF_Enable(void)
 278:.\Generated_Source\PSoC5/isr_EVENTS_IDENTIF.c **** {
 279:.\Generated_Source\PSoC5/isr_EVENTS_IDENTIF.c ****     /* Enable the general interrupt. */
 280:.\Generated_Source\PSoC5/isr_EVENTS_IDENTIF.c ****     *isr_EVENTS_IDENTIF_INTC_SET_EN = isr_EVENTS_IDENTIF__INTC_MASK;
 281:.\Generated_Source\PSoC5/isr_EVENTS_IDENTIF.c **** }
 282:.\Generated_Source\PSoC5/isr_EVENTS_IDENTIF.c **** 
 283:.\Generated_Source\PSoC5/isr_EVENTS_IDENTIF.c **** 
 284:.\Generated_Source\PSoC5/isr_EVENTS_IDENTIF.c **** /*******************************************************************************
 285:.\Generated_Source\PSoC5/isr_EVENTS_IDENTIF.c **** * Function Name: isr_EVENTS_IDENTIF_GetState
 286:.\Generated_Source\PSoC5/isr_EVENTS_IDENTIF.c **** ********************************************************************************
 287:.\Generated_Source\PSoC5/isr_EVENTS_IDENTIF.c **** *
 288:.\Generated_Source\PSoC5/isr_EVENTS_IDENTIF.c **** * Summary:
 289:.\Generated_Source\PSoC5/isr_EVENTS_IDENTIF.c **** *   Gets the state (enabled, disabled) of the Interrupt.
 290:.\Generated_Source\PSoC5/isr_EVENTS_IDENTIF.c **** *
 291:.\Generated_Source\PSoC5/isr_EVENTS_IDENTIF.c **** * Parameters:
 292:.\Generated_Source\PSoC5/isr_EVENTS_IDENTIF.c **** *   None
 293:.\Generated_Source\PSoC5/isr_EVENTS_IDENTIF.c **** *
 294:.\Generated_Source\PSoC5/isr_EVENTS_IDENTIF.c **** * Return:
 295:.\Generated_Source\PSoC5/isr_EVENTS_IDENTIF.c **** *   1 if enabled, 0 if disabled.
 296:.\Generated_Source\PSoC5/isr_EVENTS_IDENTIF.c **** *
 297:.\Generated_Source\PSoC5/isr_EVENTS_IDENTIF.c **** *******************************************************************************/
 298:.\Generated_Source\PSoC5/isr_EVENTS_IDENTIF.c **** uint8 isr_EVENTS_IDENTIF_GetState(void)
 299:.\Generated_Source\PSoC5/isr_EVENTS_IDENTIF.c **** {
 300:.\Generated_Source\PSoC5/isr_EVENTS_IDENTIF.c ****     /* Get the state of the general interrupt. */
 301:.\Generated_Source\PSoC5/isr_EVENTS_IDENTIF.c ****     return ((*isr_EVENTS_IDENTIF_INTC_SET_EN & (uint32)isr_EVENTS_IDENTIF__INTC_MASK) != 0u) ? 1u:0
 302:.\Generated_Source\PSoC5/isr_EVENTS_IDENTIF.c **** }
 303:.\Generated_Source\PSoC5/isr_EVENTS_IDENTIF.c **** 
 304:.\Generated_Source\PSoC5/isr_EVENTS_IDENTIF.c **** 
 305:.\Generated_Source\PSoC5/isr_EVENTS_IDENTIF.c **** /*******************************************************************************
 306:.\Generated_Source\PSoC5/isr_EVENTS_IDENTIF.c **** * Function Name: isr_EVENTS_IDENTIF_Disable
 307:.\Generated_Source\PSoC5/isr_EVENTS_IDENTIF.c **** ********************************************************************************
 308:.\Generated_Source\PSoC5/isr_EVENTS_IDENTIF.c **** *
 309:.\Generated_Source\PSoC5/isr_EVENTS_IDENTIF.c **** * Summary:
 310:.\Generated_Source\PSoC5/isr_EVENTS_IDENTIF.c **** *   Disables the Interrupt.
 311:.\Generated_Source\PSoC5/isr_EVENTS_IDENTIF.c **** *
 312:.\Generated_Source\PSoC5/isr_EVENTS_IDENTIF.c **** * Parameters:
 313:.\Generated_Source\PSoC5/isr_EVENTS_IDENTIF.c **** *   None
 314:.\Generated_Source\PSoC5/isr_EVENTS_IDENTIF.c **** *
 315:.\Generated_Source\PSoC5/isr_EVENTS_IDENTIF.c **** * Return:
 316:.\Generated_Source\PSoC5/isr_EVENTS_IDENTIF.c **** *   None
 317:.\Generated_Source\PSoC5/isr_EVENTS_IDENTIF.c **** *
 318:.\Generated_Source\PSoC5/isr_EVENTS_IDENTIF.c **** *******************************************************************************/
 319:.\Generated_Source\PSoC5/isr_EVENTS_IDENTIF.c **** void isr_EVENTS_IDENTIF_Disable(void)
ARM GAS  C:\Users\Graziano\AppData\Local\Temp\ccRk9WKl.s 			page 8


 320:.\Generated_Source\PSoC5/isr_EVENTS_IDENTIF.c **** {
 321:.\Generated_Source\PSoC5/isr_EVENTS_IDENTIF.c ****     /* Disable the general interrupt. */
 322:.\Generated_Source\PSoC5/isr_EVENTS_IDENTIF.c ****     *isr_EVENTS_IDENTIF_INTC_CLR_EN = isr_EVENTS_IDENTIF__INTC_MASK;
  79              		.loc 1 322 0
  80 0000 074A     		ldr	r2, .L5
  81              	.LBE23:
  82              	.LBE22:
  83              	.LBB25:
  84              	.LBB26:
 184:.\Generated_Source\PSoC5/isr_EVENTS_IDENTIF.c ****     ramVectorTable = (cyisraddress *) *CYINT_VECT_TABLE;
  85              		.loc 1 184 0
  86 0002 0848     		ldr	r0, .L5+4
  87              	.LBE26:
  88              	.LBE25:
  89              	.LBB29:
  90              	.LBB24:
  91              		.loc 1 322 0
  92 0004 2023     		movs	r3, #32
  93 0006 1360     		str	r3, [r2, #0]
  94              	.LVL4:
  95              	.LBE24:
  96              	.LBE29:
  97              	.LBB30:
  98              	.LBB27:
 186:.\Generated_Source\PSoC5/isr_EVENTS_IDENTIF.c ****     ramVectorTable[CYINT_IRQ_BASE + (uint32)isr_EVENTS_IDENTIF__INTC_NUMBER] = address;
  99              		.loc 1 186 0
 100 0008 0749     		ldr	r1, .L5+8
 184:.\Generated_Source\PSoC5/isr_EVENTS_IDENTIF.c ****     ramVectorTable = (cyisraddress *) *CYINT_VECT_TABLE;
 101              		.loc 1 184 0
 102 000a 0268     		ldr	r2, [r0, #0]
 103              	.LVL5:
 104              	.LBE27:
 105              	.LBE30:
 106              	.LBB31:
 107              	.LBB32:
 234:.\Generated_Source\PSoC5/isr_EVENTS_IDENTIF.c ****     *isr_EVENTS_IDENTIF_INTC_PRIOR = priority << 5;
 108              		.loc 1 234 0
 109 000c C020     		movs	r0, #192
 110              	.LBE32:
 111              	.LBE31:
 112              	.LBB35:
 113              	.LBB28:
 186:.\Generated_Source\PSoC5/isr_EVENTS_IDENTIF.c ****     ramVectorTable[CYINT_IRQ_BASE + (uint32)isr_EVENTS_IDENTIF__INTC_NUMBER] = address;
 114              		.loc 1 186 0
 115 000e 5165     		str	r1, [r2, #84]
 116              	.LVL6:
 117              	.LBE28:
 118              	.LBE35:
 119              	.LBB36:
 120              	.LBB33:
 234:.\Generated_Source\PSoC5/isr_EVENTS_IDENTIF.c ****     *isr_EVENTS_IDENTIF_INTC_PRIOR = priority << 5;
 121              		.loc 1 234 0
 122 0010 064A     		ldr	r2, .L5+12
 123              	.LVL7:
 124              	.LBE33:
 125              	.LBE36:
 126              	.LBB37:
ARM GAS  C:\Users\Graziano\AppData\Local\Temp\ccRk9WKl.s 			page 9


 127              	.LBB38:
 280:.\Generated_Source\PSoC5/isr_EVENTS_IDENTIF.c ****     *isr_EVENTS_IDENTIF_INTC_SET_EN = isr_EVENTS_IDENTIF__INTC_MASK;
 128              		.loc 1 280 0
 129 0012 6FF44171 		mvn	r1, #772
 130              	.LBE38:
 131              	.LBE37:
 132              	.LBB40:
 133              	.LBB34:
 234:.\Generated_Source\PSoC5/isr_EVENTS_IDENTIF.c ****     *isr_EVENTS_IDENTIF_INTC_PRIOR = priority << 5;
 134              		.loc 1 234 0
 135 0016 1070     		strb	r0, [r2, #0]
 136              	.LBE34:
 137              	.LBE40:
 138              	.LBB41:
 139              	.LBB39:
 280:.\Generated_Source\PSoC5/isr_EVENTS_IDENTIF.c ****     *isr_EVENTS_IDENTIF_INTC_SET_EN = isr_EVENTS_IDENTIF__INTC_MASK;
 140              		.loc 1 280 0
 141 0018 5018     		adds	r0, r2, r1
 142 001a 0360     		str	r3, [r0, #0]
 143 001c 7047     		bx	lr
 144              	.L6:
 145 001e 00BF     		.align	2
 146              	.L5:
 147 0020 80E100E0 		.word	-536813184
 148 0024 08ED00E0 		.word	-536810232
 149 0028 00000000 		.word	isr_EVENTS_IDENTIF_Interrupt
 150 002c 05E400E0 		.word	-536812539
 151              	.LBE39:
 152              	.LBE41:
 153              		.cfi_endproc
 154              	.LFE0:
 155              		.size	isr_EVENTS_IDENTIF_Start, .-isr_EVENTS_IDENTIF_Start
 156              		.section	.text.isr_EVENTS_IDENTIF_StartEx,"ax",%progbits
 157              		.align	1
 158              		.global	isr_EVENTS_IDENTIF_StartEx
 159              		.thumb
 160              		.thumb_func
 161              		.type	isr_EVENTS_IDENTIF_StartEx, %function
 162              	isr_EVENTS_IDENTIF_StartEx:
 163              	.LFB1:
  94:.\Generated_Source\PSoC5/isr_EVENTS_IDENTIF.c **** {
 164              		.loc 1 94 0
 165              		.cfi_startproc
 166              		@ args = 0, pretend = 0, frame = 0
 167              		@ frame_needed = 0, uses_anonymous_args = 0
 168              		@ link register save eliminated.
 169              	.LVL8:
 170              	.LBB42:
 171              	.LBB43:
 172              		.loc 1 322 0
 173 0000 064A     		ldr	r2, .L8
 174              	.LBE43:
 175              	.LBE42:
 176              	.LBB45:
 177              	.LBB46:
 184:.\Generated_Source\PSoC5/isr_EVENTS_IDENTIF.c ****     ramVectorTable = (cyisraddress *) *CYINT_VECT_TABLE;
 178              		.loc 1 184 0
ARM GAS  C:\Users\Graziano\AppData\Local\Temp\ccRk9WKl.s 			page 10


 179 0002 0749     		ldr	r1, .L8+4
 180              	.LBE46:
 181              	.LBE45:
 182              	.LBB49:
 183              	.LBB44:
 184              		.loc 1 322 0
 185 0004 2023     		movs	r3, #32
 186 0006 1360     		str	r3, [r2, #0]
 187              	.LVL9:
 188              	.LBE44:
 189              	.LBE49:
 190              	.LBB50:
 191              	.LBB47:
 184:.\Generated_Source\PSoC5/isr_EVENTS_IDENTIF.c ****     ramVectorTable = (cyisraddress *) *CYINT_VECT_TABLE;
 192              		.loc 1 184 0
 193 0008 0A68     		ldr	r2, [r1, #0]
 194              	.LVL10:
 195              	.LBE47:
 196              	.LBE50:
 197              	.LBB51:
 198              	.LBB52:
 234:.\Generated_Source\PSoC5/isr_EVENTS_IDENTIF.c ****     *isr_EVENTS_IDENTIF_INTC_PRIOR = priority << 5;
 199              		.loc 1 234 0
 200 000a 0649     		ldr	r1, .L8+8
 201              	.LBE52:
 202              	.LBE51:
 203              	.LBB55:
 204              	.LBB48:
 186:.\Generated_Source\PSoC5/isr_EVENTS_IDENTIF.c ****     ramVectorTable[CYINT_IRQ_BASE + (uint32)isr_EVENTS_IDENTIF__INTC_NUMBER] = address;
 205              		.loc 1 186 0
 206 000c 5065     		str	r0, [r2, #84]
 207              	.LVL11:
 208              	.LBE48:
 209              	.LBE55:
 210              	.LBB56:
 211              	.LBB53:
 234:.\Generated_Source\PSoC5/isr_EVENTS_IDENTIF.c ****     *isr_EVENTS_IDENTIF_INTC_PRIOR = priority << 5;
 212              		.loc 1 234 0
 213 000e C020     		movs	r0, #192
 214              	.LVL12:
 215              	.LBE53:
 216              	.LBE56:
 217              	.LBB57:
 218              	.LBB58:
 280:.\Generated_Source\PSoC5/isr_EVENTS_IDENTIF.c ****     *isr_EVENTS_IDENTIF_INTC_SET_EN = isr_EVENTS_IDENTIF__INTC_MASK;
 219              		.loc 1 280 0
 220 0010 6FF44172 		mvn	r2, #772
 221              	.LVL13:
 222              	.LBE58:
 223              	.LBE57:
 224              	.LBB60:
 225              	.LBB54:
 234:.\Generated_Source\PSoC5/isr_EVENTS_IDENTIF.c ****     *isr_EVENTS_IDENTIF_INTC_PRIOR = priority << 5;
 226              		.loc 1 234 0
 227 0014 0870     		strb	r0, [r1, #0]
 228              	.LBE54:
 229              	.LBE60:
ARM GAS  C:\Users\Graziano\AppData\Local\Temp\ccRk9WKl.s 			page 11


 230              	.LBB61:
 231              	.LBB59:
 280:.\Generated_Source\PSoC5/isr_EVENTS_IDENTIF.c ****     *isr_EVENTS_IDENTIF_INTC_SET_EN = isr_EVENTS_IDENTIF__INTC_MASK;
 232              		.loc 1 280 0
 233 0016 8818     		adds	r0, r1, r2
 234 0018 0360     		str	r3, [r0, #0]
 235 001a 7047     		bx	lr
 236              	.L9:
 237              		.align	2
 238              	.L8:
 239 001c 80E100E0 		.word	-536813184
 240 0020 08ED00E0 		.word	-536810232
 241 0024 05E400E0 		.word	-536812539
 242              	.LBE59:
 243              	.LBE61:
 244              		.cfi_endproc
 245              	.LFE1:
 246              		.size	isr_EVENTS_IDENTIF_StartEx, .-isr_EVENTS_IDENTIF_StartEx
 247              		.section	.text.isr_EVENTS_IDENTIF_Stop,"ax",%progbits
 248              		.align	1
 249              		.global	isr_EVENTS_IDENTIF_Stop
 250              		.thumb
 251              		.thumb_func
 252              		.type	isr_EVENTS_IDENTIF_Stop, %function
 253              	isr_EVENTS_IDENTIF_Stop:
 254              	.LFB2:
 123:.\Generated_Source\PSoC5/isr_EVENTS_IDENTIF.c **** {
 255              		.loc 1 123 0
 256              		.cfi_startproc
 257              		@ args = 0, pretend = 0, frame = 0
 258              		@ frame_needed = 0, uses_anonymous_args = 0
 259              		@ link register save eliminated.
 260              	.LBB62:
 261              	.LBB63:
 262              		.loc 1 322 0
 263 0000 034B     		ldr	r3, .L11
 264              	.LBE63:
 265              	.LBE62:
 266              	.LBB65:
 267              	.LBB66:
 184:.\Generated_Source\PSoC5/isr_EVENTS_IDENTIF.c ****     ramVectorTable = (cyisraddress *) *CYINT_VECT_TABLE;
 268              		.loc 1 184 0
 269 0002 0448     		ldr	r0, .L11+4
 270              	.LBE66:
 271              	.LBE65:
 272              	.LBB68:
 273              	.LBB64:
 274              		.loc 1 322 0
 275 0004 2022     		movs	r2, #32
 276 0006 1A60     		str	r2, [r3, #0]
 277              	.LVL14:
 278              	.LBE64:
 279              	.LBE68:
 280              	.LBB69:
 281              	.LBB67:
 184:.\Generated_Source\PSoC5/isr_EVENTS_IDENTIF.c ****     ramVectorTable = (cyisraddress *) *CYINT_VECT_TABLE;
 282              		.loc 1 184 0
ARM GAS  C:\Users\Graziano\AppData\Local\Temp\ccRk9WKl.s 			page 12


 283 0008 0168     		ldr	r1, [r0, #0]
 284              	.LVL15:
 186:.\Generated_Source\PSoC5/isr_EVENTS_IDENTIF.c ****     ramVectorTable[CYINT_IRQ_BASE + (uint32)isr_EVENTS_IDENTIF__INTC_NUMBER] = address;
 285              		.loc 1 186 0
 286 000a 034A     		ldr	r2, .L11+8
 287 000c 4A65     		str	r2, [r1, #84]
 288 000e 7047     		bx	lr
 289              	.L12:
 290              		.align	2
 291              	.L11:
 292 0010 80E100E0 		.word	-536813184
 293 0014 08ED00E0 		.word	-536810232
 294 0018 00000000 		.word	IntDefaultHandler
 295              	.LBE67:
 296              	.LBE69:
 297              		.cfi_endproc
 298              	.LFE2:
 299              		.size	isr_EVENTS_IDENTIF_Stop, .-isr_EVENTS_IDENTIF_Stop
 300              		.section	.text.isr_EVENTS_IDENTIF_SetVector,"ax",%progbits
 301              		.align	1
 302              		.global	isr_EVENTS_IDENTIF_SetVector
 303              		.thumb
 304              		.thumb_func
 305              		.type	isr_EVENTS_IDENTIF_SetVector, %function
 306              	isr_EVENTS_IDENTIF_SetVector:
 307              	.LFB4:
 181:.\Generated_Source\PSoC5/isr_EVENTS_IDENTIF.c **** {
 308              		.loc 1 181 0
 309              		.cfi_startproc
 310              		@ args = 0, pretend = 0, frame = 0
 311              		@ frame_needed = 0, uses_anonymous_args = 0
 312              		@ link register save eliminated.
 313              	.LVL16:
 184:.\Generated_Source\PSoC5/isr_EVENTS_IDENTIF.c ****     ramVectorTable = (cyisraddress *) *CYINT_VECT_TABLE;
 314              		.loc 1 184 0
 315 0000 014B     		ldr	r3, .L14
 316 0002 1968     		ldr	r1, [r3, #0]
 317              	.LVL17:
 186:.\Generated_Source\PSoC5/isr_EVENTS_IDENTIF.c ****     ramVectorTable[CYINT_IRQ_BASE + (uint32)isr_EVENTS_IDENTIF__INTC_NUMBER] = address;
 318              		.loc 1 186 0
 319 0004 4865     		str	r0, [r1, #84]
 320 0006 7047     		bx	lr
 321              	.L15:
 322              		.align	2
 323              	.L14:
 324 0008 08ED00E0 		.word	-536810232
 325              		.cfi_endproc
 326              	.LFE4:
 327              		.size	isr_EVENTS_IDENTIF_SetVector, .-isr_EVENTS_IDENTIF_SetVector
 328              		.section	.text.isr_EVENTS_IDENTIF_GetVector,"ax",%progbits
 329              		.align	1
 330              		.global	isr_EVENTS_IDENTIF_GetVector
 331              		.thumb
 332              		.thumb_func
 333              		.type	isr_EVENTS_IDENTIF_GetVector, %function
 334              	isr_EVENTS_IDENTIF_GetVector:
 335              	.LFB5:
ARM GAS  C:\Users\Graziano\AppData\Local\Temp\ccRk9WKl.s 			page 13


 205:.\Generated_Source\PSoC5/isr_EVENTS_IDENTIF.c **** {
 336              		.loc 1 205 0
 337              		.cfi_startproc
 338              		@ args = 0, pretend = 0, frame = 0
 339              		@ frame_needed = 0, uses_anonymous_args = 0
 340              		@ link register save eliminated.
 341              	.LVL18:
 208:.\Generated_Source\PSoC5/isr_EVENTS_IDENTIF.c ****     ramVectorTable = (cyisraddress *) *CYINT_VECT_TABLE;
 342              		.loc 1 208 0
 343 0000 014B     		ldr	r3, .L17
 344              	.LVL19:
 210:.\Generated_Source\PSoC5/isr_EVENTS_IDENTIF.c ****     return ramVectorTable[CYINT_IRQ_BASE + (uint32)isr_EVENTS_IDENTIF__INTC_NUMBER];
 345              		.loc 1 210 0
 346 0002 1868     		ldr	r0, [r3, #0]
 211:.\Generated_Source\PSoC5/isr_EVENTS_IDENTIF.c **** }
 347              		.loc 1 211 0
 348 0004 406D     		ldr	r0, [r0, #84]
 349 0006 7047     		bx	lr
 350              	.L18:
 351              		.align	2
 352              	.L17:
 353 0008 08ED00E0 		.word	-536810232
 354              		.cfi_endproc
 355              	.LFE5:
 356              		.size	isr_EVENTS_IDENTIF_GetVector, .-isr_EVENTS_IDENTIF_GetVector
 357              		.section	.text.isr_EVENTS_IDENTIF_SetPriority,"ax",%progbits
 358              		.align	1
 359              		.global	isr_EVENTS_IDENTIF_SetPriority
 360              		.thumb
 361              		.thumb_func
 362              		.type	isr_EVENTS_IDENTIF_SetPriority, %function
 363              	isr_EVENTS_IDENTIF_SetPriority:
 364              	.LFB6:
 233:.\Generated_Source\PSoC5/isr_EVENTS_IDENTIF.c **** {
 365              		.loc 1 233 0
 366              		.cfi_startproc
 367              		@ args = 0, pretend = 0, frame = 0
 368              		@ frame_needed = 0, uses_anonymous_args = 0
 369              		@ link register save eliminated.
 370              	.LVL20:
 234:.\Generated_Source\PSoC5/isr_EVENTS_IDENTIF.c ****     *isr_EVENTS_IDENTIF_INTC_PRIOR = priority << 5;
 371              		.loc 1 234 0
 372 0000 4001     		lsls	r0, r0, #5
 373              	.LVL21:
 374 0002 024B     		ldr	r3, .L20
 375 0004 C1B2     		uxtb	r1, r0
 376 0006 1970     		strb	r1, [r3, #0]
 377 0008 7047     		bx	lr
 378              	.L21:
 379 000a 00BF     		.align	2
 380              	.L20:
 381 000c 05E400E0 		.word	-536812539
 382              		.cfi_endproc
 383              	.LFE6:
 384              		.size	isr_EVENTS_IDENTIF_SetPriority, .-isr_EVENTS_IDENTIF_SetPriority
 385              		.section	.text.isr_EVENTS_IDENTIF_GetPriority,"ax",%progbits
 386              		.align	1
ARM GAS  C:\Users\Graziano\AppData\Local\Temp\ccRk9WKl.s 			page 14


 387              		.global	isr_EVENTS_IDENTIF_GetPriority
 388              		.thumb
 389              		.thumb_func
 390              		.type	isr_EVENTS_IDENTIF_GetPriority, %function
 391              	isr_EVENTS_IDENTIF_GetPriority:
 392              	.LFB7:
 253:.\Generated_Source\PSoC5/isr_EVENTS_IDENTIF.c **** {
 393              		.loc 1 253 0
 394              		.cfi_startproc
 395              		@ args = 0, pretend = 0, frame = 0
 396              		@ frame_needed = 0, uses_anonymous_args = 0
 397              		@ link register save eliminated.
 257:.\Generated_Source\PSoC5/isr_EVENTS_IDENTIF.c ****     priority = *isr_EVENTS_IDENTIF_INTC_PRIOR >> 5;
 398              		.loc 1 257 0
 399 0000 014B     		ldr	r3, .L23
 400 0002 1878     		ldrb	r0, [r3, #0]	@ zero_extendqisi2
 401              	.LVL22:
 260:.\Generated_Source\PSoC5/isr_EVENTS_IDENTIF.c **** }
 402              		.loc 1 260 0
 403 0004 4009     		lsrs	r0, r0, #5
 404              	.LVL23:
 405 0006 7047     		bx	lr
 406              	.L24:
 407              		.align	2
 408              	.L23:
 409 0008 05E400E0 		.word	-536812539
 410              		.cfi_endproc
 411              	.LFE7:
 412              		.size	isr_EVENTS_IDENTIF_GetPriority, .-isr_EVENTS_IDENTIF_GetPriority
 413              		.section	.text.isr_EVENTS_IDENTIF_Enable,"ax",%progbits
 414              		.align	1
 415              		.global	isr_EVENTS_IDENTIF_Enable
 416              		.thumb
 417              		.thumb_func
 418              		.type	isr_EVENTS_IDENTIF_Enable, %function
 419              	isr_EVENTS_IDENTIF_Enable:
 420              	.LFB8:
 278:.\Generated_Source\PSoC5/isr_EVENTS_IDENTIF.c **** {
 421              		.loc 1 278 0
 422              		.cfi_startproc
 423              		@ args = 0, pretend = 0, frame = 0
 424              		@ frame_needed = 0, uses_anonymous_args = 0
 425              		@ link register save eliminated.
 280:.\Generated_Source\PSoC5/isr_EVENTS_IDENTIF.c ****     *isr_EVENTS_IDENTIF_INTC_SET_EN = isr_EVENTS_IDENTIF__INTC_MASK;
 426              		.loc 1 280 0
 427 0000 014B     		ldr	r3, .L26
 428 0002 2022     		movs	r2, #32
 429 0004 1A60     		str	r2, [r3, #0]
 430 0006 7047     		bx	lr
 431              	.L27:
 432              		.align	2
 433              	.L26:
 434 0008 00E100E0 		.word	-536813312
 435              		.cfi_endproc
 436              	.LFE8:
 437              		.size	isr_EVENTS_IDENTIF_Enable, .-isr_EVENTS_IDENTIF_Enable
 438              		.section	.text.isr_EVENTS_IDENTIF_GetState,"ax",%progbits
ARM GAS  C:\Users\Graziano\AppData\Local\Temp\ccRk9WKl.s 			page 15


 439              		.align	1
 440              		.global	isr_EVENTS_IDENTIF_GetState
 441              		.thumb
 442              		.thumb_func
 443              		.type	isr_EVENTS_IDENTIF_GetState, %function
 444              	isr_EVENTS_IDENTIF_GetState:
 445              	.LFB9:
 299:.\Generated_Source\PSoC5/isr_EVENTS_IDENTIF.c **** {
 446              		.loc 1 299 0
 447              		.cfi_startproc
 448              		@ args = 0, pretend = 0, frame = 0
 449              		@ frame_needed = 0, uses_anonymous_args = 0
 450              		@ link register save eliminated.
 301:.\Generated_Source\PSoC5/isr_EVENTS_IDENTIF.c ****     return ((*isr_EVENTS_IDENTIF_INTC_SET_EN & (uint32)isr_EVENTS_IDENTIF__INTC_MASK) != 0u) ? 1u:0
 451              		.loc 1 301 0
 452 0000 024B     		ldr	r3, .L29
 453 0002 1868     		ldr	r0, [r3, #0]
 302:.\Generated_Source\PSoC5/isr_EVENTS_IDENTIF.c **** }
 454              		.loc 1 302 0
 455 0004 C0F34010 		ubfx	r0, r0, #5, #1
 456 0008 7047     		bx	lr
 457              	.L30:
 458 000a 00BF     		.align	2
 459              	.L29:
 460 000c 00E100E0 		.word	-536813312
 461              		.cfi_endproc
 462              	.LFE9:
 463              		.size	isr_EVENTS_IDENTIF_GetState, .-isr_EVENTS_IDENTIF_GetState
 464              		.section	.text.isr_EVENTS_IDENTIF_Disable,"ax",%progbits
 465              		.align	1
 466              		.global	isr_EVENTS_IDENTIF_Disable
 467              		.thumb
 468              		.thumb_func
 469              		.type	isr_EVENTS_IDENTIF_Disable, %function
 470              	isr_EVENTS_IDENTIF_Disable:
 471              	.LFB10:
 320:.\Generated_Source\PSoC5/isr_EVENTS_IDENTIF.c **** {
 472              		.loc 1 320 0
 473              		.cfi_startproc
 474              		@ args = 0, pretend = 0, frame = 0
 475              		@ frame_needed = 0, uses_anonymous_args = 0
 476              		@ link register save eliminated.
 477              		.loc 1 322 0
 478 0000 014B     		ldr	r3, .L32
 479 0002 2022     		movs	r2, #32
 480 0004 1A60     		str	r2, [r3, #0]
 481 0006 7047     		bx	lr
 482              	.L33:
 483              		.align	2
 484              	.L32:
 485 0008 80E100E0 		.word	-536813184
 486              		.cfi_endproc
 487              	.LFE10:
 488              		.size	isr_EVENTS_IDENTIF_Disable, .-isr_EVENTS_IDENTIF_Disable
 489              		.section	.text.isr_EVENTS_IDENTIF_SetPending,"ax",%progbits
 490              		.align	1
 491              		.global	isr_EVENTS_IDENTIF_SetPending
ARM GAS  C:\Users\Graziano\AppData\Local\Temp\ccRk9WKl.s 			page 16


 492              		.thumb
 493              		.thumb_func
 494              		.type	isr_EVENTS_IDENTIF_SetPending, %function
 495              	isr_EVENTS_IDENTIF_SetPending:
 496              	.LFB11:
 323:.\Generated_Source\PSoC5/isr_EVENTS_IDENTIF.c **** }
 324:.\Generated_Source\PSoC5/isr_EVENTS_IDENTIF.c **** 
 325:.\Generated_Source\PSoC5/isr_EVENTS_IDENTIF.c **** 
 326:.\Generated_Source\PSoC5/isr_EVENTS_IDENTIF.c **** /*******************************************************************************
 327:.\Generated_Source\PSoC5/isr_EVENTS_IDENTIF.c **** * Function Name: isr_EVENTS_IDENTIF_SetPending
 328:.\Generated_Source\PSoC5/isr_EVENTS_IDENTIF.c **** ********************************************************************************
 329:.\Generated_Source\PSoC5/isr_EVENTS_IDENTIF.c **** *
 330:.\Generated_Source\PSoC5/isr_EVENTS_IDENTIF.c **** * Summary:
 331:.\Generated_Source\PSoC5/isr_EVENTS_IDENTIF.c **** *   Causes the Interrupt to enter the pending state, a software method of
 332:.\Generated_Source\PSoC5/isr_EVENTS_IDENTIF.c **** *   generating the interrupt.
 333:.\Generated_Source\PSoC5/isr_EVENTS_IDENTIF.c **** *
 334:.\Generated_Source\PSoC5/isr_EVENTS_IDENTIF.c **** * Parameters:
 335:.\Generated_Source\PSoC5/isr_EVENTS_IDENTIF.c **** *   None
 336:.\Generated_Source\PSoC5/isr_EVENTS_IDENTIF.c **** *
 337:.\Generated_Source\PSoC5/isr_EVENTS_IDENTIF.c **** * Return:
 338:.\Generated_Source\PSoC5/isr_EVENTS_IDENTIF.c **** *   None
 339:.\Generated_Source\PSoC5/isr_EVENTS_IDENTIF.c **** *
 340:.\Generated_Source\PSoC5/isr_EVENTS_IDENTIF.c **** *******************************************************************************/
 341:.\Generated_Source\PSoC5/isr_EVENTS_IDENTIF.c **** void isr_EVENTS_IDENTIF_SetPending(void)
 342:.\Generated_Source\PSoC5/isr_EVENTS_IDENTIF.c **** {
 497              		.loc 1 342 0
 498              		.cfi_startproc
 499              		@ args = 0, pretend = 0, frame = 0
 500              		@ frame_needed = 0, uses_anonymous_args = 0
 501              		@ link register save eliminated.
 343:.\Generated_Source\PSoC5/isr_EVENTS_IDENTIF.c ****     *isr_EVENTS_IDENTIF_INTC_SET_PD = isr_EVENTS_IDENTIF__INTC_MASK;
 502              		.loc 1 343 0
 503 0000 014B     		ldr	r3, .L35
 504 0002 2022     		movs	r2, #32
 505 0004 1A60     		str	r2, [r3, #0]
 506 0006 7047     		bx	lr
 507              	.L36:
 508              		.align	2
 509              	.L35:
 510 0008 00E200E0 		.word	-536813056
 511              		.cfi_endproc
 512              	.LFE11:
 513              		.size	isr_EVENTS_IDENTIF_SetPending, .-isr_EVENTS_IDENTIF_SetPending
 514              		.section	.text.isr_EVENTS_IDENTIF_ClearPending,"ax",%progbits
 515              		.align	1
 516              		.global	isr_EVENTS_IDENTIF_ClearPending
 517              		.thumb
 518              		.thumb_func
 519              		.type	isr_EVENTS_IDENTIF_ClearPending, %function
 520              	isr_EVENTS_IDENTIF_ClearPending:
 521              	.LFB12:
 344:.\Generated_Source\PSoC5/isr_EVENTS_IDENTIF.c **** }
 345:.\Generated_Source\PSoC5/isr_EVENTS_IDENTIF.c **** 
 346:.\Generated_Source\PSoC5/isr_EVENTS_IDENTIF.c **** 
 347:.\Generated_Source\PSoC5/isr_EVENTS_IDENTIF.c **** /*******************************************************************************
 348:.\Generated_Source\PSoC5/isr_EVENTS_IDENTIF.c **** * Function Name: isr_EVENTS_IDENTIF_ClearPending
 349:.\Generated_Source\PSoC5/isr_EVENTS_IDENTIF.c **** ********************************************************************************
ARM GAS  C:\Users\Graziano\AppData\Local\Temp\ccRk9WKl.s 			page 17


 350:.\Generated_Source\PSoC5/isr_EVENTS_IDENTIF.c **** *
 351:.\Generated_Source\PSoC5/isr_EVENTS_IDENTIF.c **** * Summary:
 352:.\Generated_Source\PSoC5/isr_EVENTS_IDENTIF.c **** *   Clears a pending interrupt.
 353:.\Generated_Source\PSoC5/isr_EVENTS_IDENTIF.c **** *
 354:.\Generated_Source\PSoC5/isr_EVENTS_IDENTIF.c **** * Parameters:
 355:.\Generated_Source\PSoC5/isr_EVENTS_IDENTIF.c **** *   None
 356:.\Generated_Source\PSoC5/isr_EVENTS_IDENTIF.c **** *
 357:.\Generated_Source\PSoC5/isr_EVENTS_IDENTIF.c **** * Return:
 358:.\Generated_Source\PSoC5/isr_EVENTS_IDENTIF.c **** *   None
 359:.\Generated_Source\PSoC5/isr_EVENTS_IDENTIF.c **** *
 360:.\Generated_Source\PSoC5/isr_EVENTS_IDENTIF.c **** *******************************************************************************/
 361:.\Generated_Source\PSoC5/isr_EVENTS_IDENTIF.c **** void isr_EVENTS_IDENTIF_ClearPending(void)
 362:.\Generated_Source\PSoC5/isr_EVENTS_IDENTIF.c **** {
 522              		.loc 1 362 0
 523              		.cfi_startproc
 524              		@ args = 0, pretend = 0, frame = 0
 525              		@ frame_needed = 0, uses_anonymous_args = 0
 526              		@ link register save eliminated.
 363:.\Generated_Source\PSoC5/isr_EVENTS_IDENTIF.c ****     *isr_EVENTS_IDENTIF_INTC_CLR_PD = isr_EVENTS_IDENTIF__INTC_MASK;
 527              		.loc 1 363 0
 528 0000 014B     		ldr	r3, .L38
 529 0002 2022     		movs	r2, #32
 530 0004 1A60     		str	r2, [r3, #0]
 531 0006 7047     		bx	lr
 532              	.L39:
 533              		.align	2
 534              	.L38:
 535 0008 80E200E0 		.word	-536812928
 536              		.cfi_endproc
 537              	.LFE12:
 538              		.size	isr_EVENTS_IDENTIF_ClearPending, .-isr_EVENTS_IDENTIF_ClearPending
 539              		.comm	gobee_vparam,0,1
 540              		.text
 541              	.Letext0:
 542              		.file 2 "./Generated_Source/PSoC5/cytypes.h"
 543              		.file 3 "./gobee.h"
 544              		.file 4 "./estimators.h"