ARM GAS  C:\Users\Graziano\AppData\Local\Temp\ccECyNQc.s 			page 1


   1              		.syntax unified
   2              		.cpu cortex-m3
   3              		.fpu softvfp
   4              		.eabi_attribute 20, 1
   5              		.eabi_attribute 21, 1
   6              		.eabi_attribute 23, 3
   7              		.eabi_attribute 24, 1
   8              		.eabi_attribute 25, 1
   9              		.eabi_attribute 26, 1
  10              		.eabi_attribute 30, 4
  11              		.eabi_attribute 34, 1
  12              		.eabi_attribute 18, 4
  13              		.thumb
  14              		.file	"isr_DAS.c"
  15              		.text
  16              	.Ltext0:
  17              		.cfi_sections	.debug_frame
  18              		.section	.text.isr_DAS_Interrupt,"ax",%progbits
  19              		.align	1
  20              		.global	isr_DAS_Interrupt
  21              		.thumb
  22              		.thumb_func
  23              		.type	isr_DAS_Interrupt, %function
  24              	isr_DAS_Interrupt:
  25              	.LFB3:
  26              		.file 1 ".\\Generated_Source\\PSoC5\\isr_DAS.c"
   1:.\Generated_Source\PSoC5/isr_DAS.c **** /*******************************************************************************
   2:.\Generated_Source\PSoC5/isr_DAS.c **** * File Name: isr_DAS.c  
   3:.\Generated_Source\PSoC5/isr_DAS.c **** * Version 1.70
   4:.\Generated_Source\PSoC5/isr_DAS.c **** *
   5:.\Generated_Source\PSoC5/isr_DAS.c **** *  Description:
   6:.\Generated_Source\PSoC5/isr_DAS.c **** *   API for controlling the state of an interrupt.
   7:.\Generated_Source\PSoC5/isr_DAS.c **** *
   8:.\Generated_Source\PSoC5/isr_DAS.c **** *
   9:.\Generated_Source\PSoC5/isr_DAS.c **** *  Note:
  10:.\Generated_Source\PSoC5/isr_DAS.c **** *
  11:.\Generated_Source\PSoC5/isr_DAS.c **** ********************************************************************************
  12:.\Generated_Source\PSoC5/isr_DAS.c **** * Copyright 2008-2012, Cypress Semiconductor Corporation.  All rights reserved.
  13:.\Generated_Source\PSoC5/isr_DAS.c **** * You may use this file only in accordance with the license, terms, conditions, 
  14:.\Generated_Source\PSoC5/isr_DAS.c **** * disclaimers, and limitations in the end user license agreement accompanying 
  15:.\Generated_Source\PSoC5/isr_DAS.c **** * the software package with which this file was provided.
  16:.\Generated_Source\PSoC5/isr_DAS.c **** *******************************************************************************/
  17:.\Generated_Source\PSoC5/isr_DAS.c **** 
  18:.\Generated_Source\PSoC5/isr_DAS.c **** 
  19:.\Generated_Source\PSoC5/isr_DAS.c **** #include <cydevice_trm.h>
  20:.\Generated_Source\PSoC5/isr_DAS.c **** #include <CyLib.h>
  21:.\Generated_Source\PSoC5/isr_DAS.c **** #include <isr_DAS.h>
  22:.\Generated_Source\PSoC5/isr_DAS.c **** 
  23:.\Generated_Source\PSoC5/isr_DAS.c **** #if !defined(isr_DAS__REMOVED) /* Check for removal by optimization */
  24:.\Generated_Source\PSoC5/isr_DAS.c **** 
  25:.\Generated_Source\PSoC5/isr_DAS.c **** /*******************************************************************************
  26:.\Generated_Source\PSoC5/isr_DAS.c **** *  Place your includes, defines and code here 
  27:.\Generated_Source\PSoC5/isr_DAS.c **** ********************************************************************************/
  28:.\Generated_Source\PSoC5/isr_DAS.c **** /* `#START isr_DAS_intc` */
  29:.\Generated_Source\PSoC5/isr_DAS.c **** 
  30:.\Generated_Source\PSoC5/isr_DAS.c **** #include <das.h>
  31:.\Generated_Source\PSoC5/isr_DAS.c **** 	
ARM GAS  C:\Users\Graziano\AppData\Local\Temp\ccECyNQc.s 			page 2


  32:.\Generated_Source\PSoC5/isr_DAS.c **** /* `#END` */
  33:.\Generated_Source\PSoC5/isr_DAS.c **** 
  34:.\Generated_Source\PSoC5/isr_DAS.c **** #ifndef CYINT_IRQ_BASE
  35:.\Generated_Source\PSoC5/isr_DAS.c **** #define CYINT_IRQ_BASE      16
  36:.\Generated_Source\PSoC5/isr_DAS.c **** #endif /* CYINT_IRQ_BASE */
  37:.\Generated_Source\PSoC5/isr_DAS.c **** #ifndef CYINT_VECT_TABLE
  38:.\Generated_Source\PSoC5/isr_DAS.c **** #define CYINT_VECT_TABLE    ((cyisraddress **) CYREG_NVIC_VECT_OFFSET)
  39:.\Generated_Source\PSoC5/isr_DAS.c **** #endif /* CYINT_VECT_TABLE */
  40:.\Generated_Source\PSoC5/isr_DAS.c **** 
  41:.\Generated_Source\PSoC5/isr_DAS.c **** /* Declared in startup, used to set unused interrupts to. */
  42:.\Generated_Source\PSoC5/isr_DAS.c **** CY_ISR_PROTO(IntDefaultHandler);
  43:.\Generated_Source\PSoC5/isr_DAS.c **** 
  44:.\Generated_Source\PSoC5/isr_DAS.c **** 
  45:.\Generated_Source\PSoC5/isr_DAS.c **** /*******************************************************************************
  46:.\Generated_Source\PSoC5/isr_DAS.c **** * Function Name: isr_DAS_Start
  47:.\Generated_Source\PSoC5/isr_DAS.c **** ********************************************************************************
  48:.\Generated_Source\PSoC5/isr_DAS.c **** *
  49:.\Generated_Source\PSoC5/isr_DAS.c **** * Summary:
  50:.\Generated_Source\PSoC5/isr_DAS.c **** *  Set up the interrupt and enable it.
  51:.\Generated_Source\PSoC5/isr_DAS.c **** *
  52:.\Generated_Source\PSoC5/isr_DAS.c **** * Parameters:  
  53:.\Generated_Source\PSoC5/isr_DAS.c **** *   None
  54:.\Generated_Source\PSoC5/isr_DAS.c **** *
  55:.\Generated_Source\PSoC5/isr_DAS.c **** * Return:
  56:.\Generated_Source\PSoC5/isr_DAS.c **** *   None
  57:.\Generated_Source\PSoC5/isr_DAS.c **** *
  58:.\Generated_Source\PSoC5/isr_DAS.c **** *******************************************************************************/
  59:.\Generated_Source\PSoC5/isr_DAS.c **** void isr_DAS_Start(void)
  60:.\Generated_Source\PSoC5/isr_DAS.c **** {
  61:.\Generated_Source\PSoC5/isr_DAS.c ****     /* For all we know the interrupt is active. */
  62:.\Generated_Source\PSoC5/isr_DAS.c ****     isr_DAS_Disable();
  63:.\Generated_Source\PSoC5/isr_DAS.c **** 
  64:.\Generated_Source\PSoC5/isr_DAS.c ****     /* Set the ISR to point to the isr_DAS Interrupt. */
  65:.\Generated_Source\PSoC5/isr_DAS.c ****     isr_DAS_SetVector(&isr_DAS_Interrupt);
  66:.\Generated_Source\PSoC5/isr_DAS.c **** 
  67:.\Generated_Source\PSoC5/isr_DAS.c ****     /* Set the priority. */
  68:.\Generated_Source\PSoC5/isr_DAS.c ****     isr_DAS_SetPriority((uint8)isr_DAS_INTC_PRIOR_NUMBER);
  69:.\Generated_Source\PSoC5/isr_DAS.c **** 
  70:.\Generated_Source\PSoC5/isr_DAS.c ****     /* Enable it. */
  71:.\Generated_Source\PSoC5/isr_DAS.c ****     isr_DAS_Enable();
  72:.\Generated_Source\PSoC5/isr_DAS.c **** }
  73:.\Generated_Source\PSoC5/isr_DAS.c **** 
  74:.\Generated_Source\PSoC5/isr_DAS.c **** 
  75:.\Generated_Source\PSoC5/isr_DAS.c **** /*******************************************************************************
  76:.\Generated_Source\PSoC5/isr_DAS.c **** * Function Name: isr_DAS_StartEx
  77:.\Generated_Source\PSoC5/isr_DAS.c **** ********************************************************************************
  78:.\Generated_Source\PSoC5/isr_DAS.c **** *
  79:.\Generated_Source\PSoC5/isr_DAS.c **** * Summary:
  80:.\Generated_Source\PSoC5/isr_DAS.c **** *  Set up the interrupt and enable it.
  81:.\Generated_Source\PSoC5/isr_DAS.c **** *
  82:.\Generated_Source\PSoC5/isr_DAS.c **** * Parameters:  
  83:.\Generated_Source\PSoC5/isr_DAS.c **** *   address: Address of the ISR to set in the interrupt vector table.
  84:.\Generated_Source\PSoC5/isr_DAS.c **** *
  85:.\Generated_Source\PSoC5/isr_DAS.c **** * Return:
  86:.\Generated_Source\PSoC5/isr_DAS.c **** *   None
  87:.\Generated_Source\PSoC5/isr_DAS.c **** *
  88:.\Generated_Source\PSoC5/isr_DAS.c **** *******************************************************************************/
ARM GAS  C:\Users\Graziano\AppData\Local\Temp\ccECyNQc.s 			page 3


  89:.\Generated_Source\PSoC5/isr_DAS.c **** void isr_DAS_StartEx(cyisraddress address)
  90:.\Generated_Source\PSoC5/isr_DAS.c **** {
  91:.\Generated_Source\PSoC5/isr_DAS.c ****     /* For all we know the interrupt is active. */
  92:.\Generated_Source\PSoC5/isr_DAS.c ****     isr_DAS_Disable();
  93:.\Generated_Source\PSoC5/isr_DAS.c **** 
  94:.\Generated_Source\PSoC5/isr_DAS.c ****     /* Set the ISR to point to the isr_DAS Interrupt. */
  95:.\Generated_Source\PSoC5/isr_DAS.c ****     isr_DAS_SetVector(address);
  96:.\Generated_Source\PSoC5/isr_DAS.c **** 
  97:.\Generated_Source\PSoC5/isr_DAS.c ****     /* Set the priority. */
  98:.\Generated_Source\PSoC5/isr_DAS.c ****     isr_DAS_SetPriority((uint8)isr_DAS_INTC_PRIOR_NUMBER);
  99:.\Generated_Source\PSoC5/isr_DAS.c **** 
 100:.\Generated_Source\PSoC5/isr_DAS.c ****     /* Enable it. */
 101:.\Generated_Source\PSoC5/isr_DAS.c ****     isr_DAS_Enable();
 102:.\Generated_Source\PSoC5/isr_DAS.c **** }
 103:.\Generated_Source\PSoC5/isr_DAS.c **** 
 104:.\Generated_Source\PSoC5/isr_DAS.c **** 
 105:.\Generated_Source\PSoC5/isr_DAS.c **** /*******************************************************************************
 106:.\Generated_Source\PSoC5/isr_DAS.c **** * Function Name: isr_DAS_Stop
 107:.\Generated_Source\PSoC5/isr_DAS.c **** ********************************************************************************
 108:.\Generated_Source\PSoC5/isr_DAS.c **** *
 109:.\Generated_Source\PSoC5/isr_DAS.c **** * Summary:
 110:.\Generated_Source\PSoC5/isr_DAS.c **** *   Disables and removes the interrupt.
 111:.\Generated_Source\PSoC5/isr_DAS.c **** *
 112:.\Generated_Source\PSoC5/isr_DAS.c **** * Parameters:  
 113:.\Generated_Source\PSoC5/isr_DAS.c **** *
 114:.\Generated_Source\PSoC5/isr_DAS.c **** * Return:
 115:.\Generated_Source\PSoC5/isr_DAS.c **** *   None
 116:.\Generated_Source\PSoC5/isr_DAS.c **** *
 117:.\Generated_Source\PSoC5/isr_DAS.c **** *******************************************************************************/
 118:.\Generated_Source\PSoC5/isr_DAS.c **** void isr_DAS_Stop(void)
 119:.\Generated_Source\PSoC5/isr_DAS.c **** {
 120:.\Generated_Source\PSoC5/isr_DAS.c ****     /* Disable this interrupt. */
 121:.\Generated_Source\PSoC5/isr_DAS.c ****     isr_DAS_Disable();
 122:.\Generated_Source\PSoC5/isr_DAS.c **** 
 123:.\Generated_Source\PSoC5/isr_DAS.c ****     /* Set the ISR to point to the passive one. */
 124:.\Generated_Source\PSoC5/isr_DAS.c ****     isr_DAS_SetVector(&IntDefaultHandler);
 125:.\Generated_Source\PSoC5/isr_DAS.c **** }
 126:.\Generated_Source\PSoC5/isr_DAS.c **** 
 127:.\Generated_Source\PSoC5/isr_DAS.c **** 
 128:.\Generated_Source\PSoC5/isr_DAS.c **** /*******************************************************************************
 129:.\Generated_Source\PSoC5/isr_DAS.c **** * Function Name: isr_DAS_Interrupt
 130:.\Generated_Source\PSoC5/isr_DAS.c **** ********************************************************************************
 131:.\Generated_Source\PSoC5/isr_DAS.c **** *
 132:.\Generated_Source\PSoC5/isr_DAS.c **** * Summary:
 133:.\Generated_Source\PSoC5/isr_DAS.c **** *   The default Interrupt Service Routine for isr_DAS.
 134:.\Generated_Source\PSoC5/isr_DAS.c **** *
 135:.\Generated_Source\PSoC5/isr_DAS.c **** *   Add custom code between the coments to keep the next version of this file
 136:.\Generated_Source\PSoC5/isr_DAS.c **** *   from over writting your code.
 137:.\Generated_Source\PSoC5/isr_DAS.c **** *
 138:.\Generated_Source\PSoC5/isr_DAS.c **** * Parameters:  
 139:.\Generated_Source\PSoC5/isr_DAS.c **** *
 140:.\Generated_Source\PSoC5/isr_DAS.c **** * Return:
 141:.\Generated_Source\PSoC5/isr_DAS.c **** *   None
 142:.\Generated_Source\PSoC5/isr_DAS.c **** *
 143:.\Generated_Source\PSoC5/isr_DAS.c **** *******************************************************************************/
 144:.\Generated_Source\PSoC5/isr_DAS.c **** CY_ISR(isr_DAS_Interrupt)
 145:.\Generated_Source\PSoC5/isr_DAS.c **** {
ARM GAS  C:\Users\Graziano\AppData\Local\Temp\ccECyNQc.s 			page 4


  27              		.loc 1 145 0
  28              		.cfi_startproc
  29              		@ args = 0, pretend = 0, frame = 0
  30              		@ frame_needed = 0, uses_anonymous_args = 0
  31              		@ link register save eliminated.
 146:.\Generated_Source\PSoC5/isr_DAS.c ****     /*  Place your Interrupt code here. */
 147:.\Generated_Source\PSoC5/isr_DAS.c ****     /* `#START isr_DAS_Interrupt` */
 148:.\Generated_Source\PSoC5/isr_DAS.c **** 	
 149:.\Generated_Source\PSoC5/isr_DAS.c **** 	/* Print DAS datas over console */
 150:.\Generated_Source\PSoC5/isr_DAS.c **** 	DAS_printf();
 151:.\Generated_Source\PSoC5/isr_DAS.c **** 	
 152:.\Generated_Source\PSoC5/isr_DAS.c ****     /* `#END` */
 153:.\Generated_Source\PSoC5/isr_DAS.c **** }
  32              		.loc 1 153 0
 150:.\Generated_Source\PSoC5/isr_DAS.c **** 	DAS_printf();
  33              		.loc 1 150 0
  34 0000 FFF7FEBF 		b	DAS_printf
  35              	.LVL0:
  36              		.cfi_endproc
  37              	.LFE3:
  38              		.size	isr_DAS_Interrupt, .-isr_DAS_Interrupt
  39              		.section	.text.isr_DAS_Start,"ax",%progbits
  40              		.align	1
  41              		.global	isr_DAS_Start
  42              		.thumb
  43              		.thumb_func
  44              		.type	isr_DAS_Start, %function
  45              	isr_DAS_Start:
  46              	.LFB0:
  60:.\Generated_Source\PSoC5/isr_DAS.c **** {
  47              		.loc 1 60 0
  48              		.cfi_startproc
  49              		@ args = 0, pretend = 0, frame = 0
  50              		@ frame_needed = 0, uses_anonymous_args = 0
  51              		@ link register save eliminated.
  52              	.LBB22:
  53              	.LBB23:
 154:.\Generated_Source\PSoC5/isr_DAS.c **** 
 155:.\Generated_Source\PSoC5/isr_DAS.c **** 
 156:.\Generated_Source\PSoC5/isr_DAS.c **** /*******************************************************************************
 157:.\Generated_Source\PSoC5/isr_DAS.c **** * Function Name: isr_DAS_SetVector
 158:.\Generated_Source\PSoC5/isr_DAS.c **** ********************************************************************************
 159:.\Generated_Source\PSoC5/isr_DAS.c **** *
 160:.\Generated_Source\PSoC5/isr_DAS.c **** * Summary:
 161:.\Generated_Source\PSoC5/isr_DAS.c **** *   Change the ISR vector for the Interrupt. Note calling isr_DAS_Start
 162:.\Generated_Source\PSoC5/isr_DAS.c **** *   will override any effect this method would have had. To set the vector 
 163:.\Generated_Source\PSoC5/isr_DAS.c **** *   before the component has been started use isr_DAS_StartEx instead.
 164:.\Generated_Source\PSoC5/isr_DAS.c **** *
 165:.\Generated_Source\PSoC5/isr_DAS.c **** * Parameters:
 166:.\Generated_Source\PSoC5/isr_DAS.c **** *   address: Address of the ISR to set in the interrupt vector table.
 167:.\Generated_Source\PSoC5/isr_DAS.c **** *
 168:.\Generated_Source\PSoC5/isr_DAS.c **** * Return:
 169:.\Generated_Source\PSoC5/isr_DAS.c **** *   None
 170:.\Generated_Source\PSoC5/isr_DAS.c **** *
 171:.\Generated_Source\PSoC5/isr_DAS.c **** *******************************************************************************/
 172:.\Generated_Source\PSoC5/isr_DAS.c **** void isr_DAS_SetVector(cyisraddress address)
 173:.\Generated_Source\PSoC5/isr_DAS.c **** {
ARM GAS  C:\Users\Graziano\AppData\Local\Temp\ccECyNQc.s 			page 5


 174:.\Generated_Source\PSoC5/isr_DAS.c ****     cyisraddress * ramVectorTable;
 175:.\Generated_Source\PSoC5/isr_DAS.c **** 
 176:.\Generated_Source\PSoC5/isr_DAS.c ****     ramVectorTable = (cyisraddress *) *CYINT_VECT_TABLE;
 177:.\Generated_Source\PSoC5/isr_DAS.c **** 
 178:.\Generated_Source\PSoC5/isr_DAS.c ****     ramVectorTable[CYINT_IRQ_BASE + (uint32)isr_DAS__INTC_NUMBER] = address;
 179:.\Generated_Source\PSoC5/isr_DAS.c **** }
 180:.\Generated_Source\PSoC5/isr_DAS.c **** 
 181:.\Generated_Source\PSoC5/isr_DAS.c **** 
 182:.\Generated_Source\PSoC5/isr_DAS.c **** /*******************************************************************************
 183:.\Generated_Source\PSoC5/isr_DAS.c **** * Function Name: isr_DAS_GetVector
 184:.\Generated_Source\PSoC5/isr_DAS.c **** ********************************************************************************
 185:.\Generated_Source\PSoC5/isr_DAS.c **** *
 186:.\Generated_Source\PSoC5/isr_DAS.c **** * Summary:
 187:.\Generated_Source\PSoC5/isr_DAS.c **** *   Gets the "address" of the current ISR vector for the Interrupt.
 188:.\Generated_Source\PSoC5/isr_DAS.c **** *
 189:.\Generated_Source\PSoC5/isr_DAS.c **** * Parameters:
 190:.\Generated_Source\PSoC5/isr_DAS.c **** *   None
 191:.\Generated_Source\PSoC5/isr_DAS.c **** *
 192:.\Generated_Source\PSoC5/isr_DAS.c **** * Return:
 193:.\Generated_Source\PSoC5/isr_DAS.c **** *   Address of the ISR in the interrupt vector table.
 194:.\Generated_Source\PSoC5/isr_DAS.c **** *
 195:.\Generated_Source\PSoC5/isr_DAS.c **** *******************************************************************************/
 196:.\Generated_Source\PSoC5/isr_DAS.c **** cyisraddress isr_DAS_GetVector(void)
 197:.\Generated_Source\PSoC5/isr_DAS.c **** {
 198:.\Generated_Source\PSoC5/isr_DAS.c ****     cyisraddress * ramVectorTable;
 199:.\Generated_Source\PSoC5/isr_DAS.c **** 
 200:.\Generated_Source\PSoC5/isr_DAS.c ****     ramVectorTable = (cyisraddress *) *CYINT_VECT_TABLE;
 201:.\Generated_Source\PSoC5/isr_DAS.c **** 
 202:.\Generated_Source\PSoC5/isr_DAS.c ****     return ramVectorTable[CYINT_IRQ_BASE + (uint32)isr_DAS__INTC_NUMBER];
 203:.\Generated_Source\PSoC5/isr_DAS.c **** }
 204:.\Generated_Source\PSoC5/isr_DAS.c **** 
 205:.\Generated_Source\PSoC5/isr_DAS.c **** 
 206:.\Generated_Source\PSoC5/isr_DAS.c **** /*******************************************************************************
 207:.\Generated_Source\PSoC5/isr_DAS.c **** * Function Name: isr_DAS_SetPriority
 208:.\Generated_Source\PSoC5/isr_DAS.c **** ********************************************************************************
 209:.\Generated_Source\PSoC5/isr_DAS.c **** *
 210:.\Generated_Source\PSoC5/isr_DAS.c **** * Summary:
 211:.\Generated_Source\PSoC5/isr_DAS.c **** *   Sets the Priority of the Interrupt. Note calling isr_DAS_Start
 212:.\Generated_Source\PSoC5/isr_DAS.c **** *   or isr_DAS_StartEx will override any effect this method 
 213:.\Generated_Source\PSoC5/isr_DAS.c **** *   would have had. This method should only be called after 
 214:.\Generated_Source\PSoC5/isr_DAS.c **** *   isr_DAS_Start or isr_DAS_StartEx has been called. To set 
 215:.\Generated_Source\PSoC5/isr_DAS.c **** *   the initial priority for the component use the cydwr file in the tool.
 216:.\Generated_Source\PSoC5/isr_DAS.c **** *
 217:.\Generated_Source\PSoC5/isr_DAS.c **** * Parameters:
 218:.\Generated_Source\PSoC5/isr_DAS.c **** *   priority: Priority of the interrupt. 0 - 7, 0 being the highest.
 219:.\Generated_Source\PSoC5/isr_DAS.c **** *
 220:.\Generated_Source\PSoC5/isr_DAS.c **** * Return:
 221:.\Generated_Source\PSoC5/isr_DAS.c **** *   None
 222:.\Generated_Source\PSoC5/isr_DAS.c **** *
 223:.\Generated_Source\PSoC5/isr_DAS.c **** *******************************************************************************/
 224:.\Generated_Source\PSoC5/isr_DAS.c **** void isr_DAS_SetPriority(uint8 priority)
 225:.\Generated_Source\PSoC5/isr_DAS.c **** {
 226:.\Generated_Source\PSoC5/isr_DAS.c ****     *isr_DAS_INTC_PRIOR = priority << 5;
 227:.\Generated_Source\PSoC5/isr_DAS.c **** }
 228:.\Generated_Source\PSoC5/isr_DAS.c **** 
 229:.\Generated_Source\PSoC5/isr_DAS.c **** 
 230:.\Generated_Source\PSoC5/isr_DAS.c **** /*******************************************************************************
ARM GAS  C:\Users\Graziano\AppData\Local\Temp\ccECyNQc.s 			page 6


 231:.\Generated_Source\PSoC5/isr_DAS.c **** * Function Name: isr_DAS_GetPriority
 232:.\Generated_Source\PSoC5/isr_DAS.c **** ********************************************************************************
 233:.\Generated_Source\PSoC5/isr_DAS.c **** *
 234:.\Generated_Source\PSoC5/isr_DAS.c **** * Summary:
 235:.\Generated_Source\PSoC5/isr_DAS.c **** *   Gets the Priority of the Interrupt.
 236:.\Generated_Source\PSoC5/isr_DAS.c **** *
 237:.\Generated_Source\PSoC5/isr_DAS.c **** * Parameters:
 238:.\Generated_Source\PSoC5/isr_DAS.c **** *   None
 239:.\Generated_Source\PSoC5/isr_DAS.c **** *
 240:.\Generated_Source\PSoC5/isr_DAS.c **** * Return:
 241:.\Generated_Source\PSoC5/isr_DAS.c **** *   Priority of the interrupt. 0 - 7, 0 being the highest.
 242:.\Generated_Source\PSoC5/isr_DAS.c **** *
 243:.\Generated_Source\PSoC5/isr_DAS.c **** *******************************************************************************/
 244:.\Generated_Source\PSoC5/isr_DAS.c **** uint8 isr_DAS_GetPriority(void)
 245:.\Generated_Source\PSoC5/isr_DAS.c **** {
 246:.\Generated_Source\PSoC5/isr_DAS.c ****     uint8 priority;
 247:.\Generated_Source\PSoC5/isr_DAS.c **** 
 248:.\Generated_Source\PSoC5/isr_DAS.c **** 
 249:.\Generated_Source\PSoC5/isr_DAS.c ****     priority = *isr_DAS_INTC_PRIOR >> 5;
 250:.\Generated_Source\PSoC5/isr_DAS.c **** 
 251:.\Generated_Source\PSoC5/isr_DAS.c ****     return priority;
 252:.\Generated_Source\PSoC5/isr_DAS.c **** }
 253:.\Generated_Source\PSoC5/isr_DAS.c **** 
 254:.\Generated_Source\PSoC5/isr_DAS.c **** 
 255:.\Generated_Source\PSoC5/isr_DAS.c **** /*******************************************************************************
 256:.\Generated_Source\PSoC5/isr_DAS.c **** * Function Name: isr_DAS_Enable
 257:.\Generated_Source\PSoC5/isr_DAS.c **** ********************************************************************************
 258:.\Generated_Source\PSoC5/isr_DAS.c **** *
 259:.\Generated_Source\PSoC5/isr_DAS.c **** * Summary:
 260:.\Generated_Source\PSoC5/isr_DAS.c **** *   Enables the interrupt.
 261:.\Generated_Source\PSoC5/isr_DAS.c **** *
 262:.\Generated_Source\PSoC5/isr_DAS.c **** * Parameters:
 263:.\Generated_Source\PSoC5/isr_DAS.c **** *   None
 264:.\Generated_Source\PSoC5/isr_DAS.c **** *
 265:.\Generated_Source\PSoC5/isr_DAS.c **** * Return:
 266:.\Generated_Source\PSoC5/isr_DAS.c **** *   None
 267:.\Generated_Source\PSoC5/isr_DAS.c **** *
 268:.\Generated_Source\PSoC5/isr_DAS.c **** *******************************************************************************/
 269:.\Generated_Source\PSoC5/isr_DAS.c **** void isr_DAS_Enable(void)
 270:.\Generated_Source\PSoC5/isr_DAS.c **** {
 271:.\Generated_Source\PSoC5/isr_DAS.c ****     /* Enable the general interrupt. */
 272:.\Generated_Source\PSoC5/isr_DAS.c ****     *isr_DAS_INTC_SET_EN = isr_DAS__INTC_MASK;
 273:.\Generated_Source\PSoC5/isr_DAS.c **** }
 274:.\Generated_Source\PSoC5/isr_DAS.c **** 
 275:.\Generated_Source\PSoC5/isr_DAS.c **** 
 276:.\Generated_Source\PSoC5/isr_DAS.c **** /*******************************************************************************
 277:.\Generated_Source\PSoC5/isr_DAS.c **** * Function Name: isr_DAS_GetState
 278:.\Generated_Source\PSoC5/isr_DAS.c **** ********************************************************************************
 279:.\Generated_Source\PSoC5/isr_DAS.c **** *
 280:.\Generated_Source\PSoC5/isr_DAS.c **** * Summary:
 281:.\Generated_Source\PSoC5/isr_DAS.c **** *   Gets the state (enabled, disabled) of the Interrupt.
 282:.\Generated_Source\PSoC5/isr_DAS.c **** *
 283:.\Generated_Source\PSoC5/isr_DAS.c **** * Parameters:
 284:.\Generated_Source\PSoC5/isr_DAS.c **** *   None
 285:.\Generated_Source\PSoC5/isr_DAS.c **** *
 286:.\Generated_Source\PSoC5/isr_DAS.c **** * Return:
 287:.\Generated_Source\PSoC5/isr_DAS.c **** *   1 if enabled, 0 if disabled.
ARM GAS  C:\Users\Graziano\AppData\Local\Temp\ccECyNQc.s 			page 7


 288:.\Generated_Source\PSoC5/isr_DAS.c **** *
 289:.\Generated_Source\PSoC5/isr_DAS.c **** *******************************************************************************/
 290:.\Generated_Source\PSoC5/isr_DAS.c **** uint8 isr_DAS_GetState(void)
 291:.\Generated_Source\PSoC5/isr_DAS.c **** {
 292:.\Generated_Source\PSoC5/isr_DAS.c ****     /* Get the state of the general interrupt. */
 293:.\Generated_Source\PSoC5/isr_DAS.c ****     return ((*isr_DAS_INTC_SET_EN & (uint32)isr_DAS__INTC_MASK) != 0u) ? 1u:0u;
 294:.\Generated_Source\PSoC5/isr_DAS.c **** }
 295:.\Generated_Source\PSoC5/isr_DAS.c **** 
 296:.\Generated_Source\PSoC5/isr_DAS.c **** 
 297:.\Generated_Source\PSoC5/isr_DAS.c **** /*******************************************************************************
 298:.\Generated_Source\PSoC5/isr_DAS.c **** * Function Name: isr_DAS_Disable
 299:.\Generated_Source\PSoC5/isr_DAS.c **** ********************************************************************************
 300:.\Generated_Source\PSoC5/isr_DAS.c **** *
 301:.\Generated_Source\PSoC5/isr_DAS.c **** * Summary:
 302:.\Generated_Source\PSoC5/isr_DAS.c **** *   Disables the Interrupt.
 303:.\Generated_Source\PSoC5/isr_DAS.c **** *
 304:.\Generated_Source\PSoC5/isr_DAS.c **** * Parameters:
 305:.\Generated_Source\PSoC5/isr_DAS.c **** *   None
 306:.\Generated_Source\PSoC5/isr_DAS.c **** *
 307:.\Generated_Source\PSoC5/isr_DAS.c **** * Return:
 308:.\Generated_Source\PSoC5/isr_DAS.c **** *   None
 309:.\Generated_Source\PSoC5/isr_DAS.c **** *
 310:.\Generated_Source\PSoC5/isr_DAS.c **** *******************************************************************************/
 311:.\Generated_Source\PSoC5/isr_DAS.c **** void isr_DAS_Disable(void)
 312:.\Generated_Source\PSoC5/isr_DAS.c **** {
 313:.\Generated_Source\PSoC5/isr_DAS.c ****     /* Disable the general interrupt. */
 314:.\Generated_Source\PSoC5/isr_DAS.c ****     *isr_DAS_INTC_CLR_EN = isr_DAS__INTC_MASK;
  54              		.loc 1 314 0
  55 0000 064A     		ldr	r2, .L3
  56              	.LBE23:
  57              	.LBE22:
  58              	.LBB25:
  59              	.LBB26:
 176:.\Generated_Source\PSoC5/isr_DAS.c ****     ramVectorTable = (cyisraddress *) *CYINT_VECT_TABLE;
  60              		.loc 1 176 0
  61 0002 0748     		ldr	r0, .L3+4
  62              	.LBE26:
  63              	.LBE25:
  64              	.LBB29:
  65              	.LBB24:
  66              		.loc 1 314 0
  67 0004 1023     		movs	r3, #16
  68 0006 1360     		str	r3, [r2, #0]
  69              	.LVL1:
  70              	.LBE24:
  71              	.LBE29:
  72              	.LBB30:
  73              	.LBB27:
 178:.\Generated_Source\PSoC5/isr_DAS.c ****     ramVectorTable[CYINT_IRQ_BASE + (uint32)isr_DAS__INTC_NUMBER] = address;
  74              		.loc 1 178 0
  75 0008 0649     		ldr	r1, .L3+8
 176:.\Generated_Source\PSoC5/isr_DAS.c ****     ramVectorTable = (cyisraddress *) *CYINT_VECT_TABLE;
  76              		.loc 1 176 0
  77 000a 0268     		ldr	r2, [r0, #0]
  78              	.LVL2:
  79              	.LBE27:
  80              	.LBE30:
ARM GAS  C:\Users\Graziano\AppData\Local\Temp\ccECyNQc.s 			page 8


  81              	.LBB31:
  82              	.LBB32:
 226:.\Generated_Source\PSoC5/isr_DAS.c ****     *isr_DAS_INTC_PRIOR = priority << 5;
  83              		.loc 1 226 0
  84 000c E020     		movs	r0, #224
  85              	.LBE32:
  86              	.LBE31:
  87              	.LBB35:
  88              	.LBB28:
 178:.\Generated_Source\PSoC5/isr_DAS.c ****     ramVectorTable[CYINT_IRQ_BASE + (uint32)isr_DAS__INTC_NUMBER] = address;
  89              		.loc 1 178 0
  90 000e 1165     		str	r1, [r2, #80]
  91              	.LVL3:
  92              	.LBE28:
  93              	.LBE35:
  94              	.LBB36:
  95              	.LBB33:
 226:.\Generated_Source\PSoC5/isr_DAS.c ****     *isr_DAS_INTC_PRIOR = priority << 5;
  96              		.loc 1 226 0
  97 0010 054A     		ldr	r2, .L3+12
  98              	.LVL4:
  99              	.LBE33:
 100              	.LBE36:
 101              	.LBB37:
 102              	.LBB38:
 272:.\Generated_Source\PSoC5/isr_DAS.c ****     *isr_DAS_INTC_SET_EN = isr_DAS__INTC_MASK;
 103              		.loc 1 272 0
 104 0012 A2F54171 		sub	r1, r2, #772
 105              	.LBE38:
 106              	.LBE37:
 107              	.LBB40:
 108              	.LBB34:
 226:.\Generated_Source\PSoC5/isr_DAS.c ****     *isr_DAS_INTC_PRIOR = priority << 5;
 109              		.loc 1 226 0
 110 0016 1070     		strb	r0, [r2, #0]
 111              	.LBE34:
 112              	.LBE40:
 113              	.LBB41:
 114              	.LBB39:
 272:.\Generated_Source\PSoC5/isr_DAS.c ****     *isr_DAS_INTC_SET_EN = isr_DAS__INTC_MASK;
 115              		.loc 1 272 0
 116 0018 0B60     		str	r3, [r1, #0]
 117 001a 7047     		bx	lr
 118              	.L4:
 119              		.align	2
 120              	.L3:
 121 001c 80E100E0 		.word	-536813184
 122 0020 08ED00E0 		.word	-536810232
 123 0024 00000000 		.word	isr_DAS_Interrupt
 124 0028 04E400E0 		.word	-536812540
 125              	.LBE39:
 126              	.LBE41:
 127              		.cfi_endproc
 128              	.LFE0:
 129              		.size	isr_DAS_Start, .-isr_DAS_Start
 130              		.section	.text.isr_DAS_StartEx,"ax",%progbits
 131              		.align	1
ARM GAS  C:\Users\Graziano\AppData\Local\Temp\ccECyNQc.s 			page 9


 132              		.global	isr_DAS_StartEx
 133              		.thumb
 134              		.thumb_func
 135              		.type	isr_DAS_StartEx, %function
 136              	isr_DAS_StartEx:
 137              	.LFB1:
  90:.\Generated_Source\PSoC5/isr_DAS.c **** {
 138              		.loc 1 90 0
 139              		.cfi_startproc
 140              		@ args = 0, pretend = 0, frame = 0
 141              		@ frame_needed = 0, uses_anonymous_args = 0
 142              		@ link register save eliminated.
 143              	.LVL5:
 144              	.LBB42:
 145              	.LBB43:
 146              		.loc 1 314 0
 147 0000 064A     		ldr	r2, .L6
 148              	.LBE43:
 149              	.LBE42:
 150              	.LBB45:
 151              	.LBB46:
 176:.\Generated_Source\PSoC5/isr_DAS.c ****     ramVectorTable = (cyisraddress *) *CYINT_VECT_TABLE;
 152              		.loc 1 176 0
 153 0002 0749     		ldr	r1, .L6+4
 154              	.LBE46:
 155              	.LBE45:
 156              	.LBB49:
 157              	.LBB44:
 158              		.loc 1 314 0
 159 0004 1023     		movs	r3, #16
 160 0006 1360     		str	r3, [r2, #0]
 161              	.LVL6:
 162              	.LBE44:
 163              	.LBE49:
 164              	.LBB50:
 165              	.LBB47:
 176:.\Generated_Source\PSoC5/isr_DAS.c ****     ramVectorTable = (cyisraddress *) *CYINT_VECT_TABLE;
 166              		.loc 1 176 0
 167 0008 0A68     		ldr	r2, [r1, #0]
 168              	.LVL7:
 169              	.LBE47:
 170              	.LBE50:
 171              	.LBB51:
 172              	.LBB52:
 226:.\Generated_Source\PSoC5/isr_DAS.c ****     *isr_DAS_INTC_PRIOR = priority << 5;
 173              		.loc 1 226 0
 174 000a 0649     		ldr	r1, .L6+8
 175              	.LBE52:
 176              	.LBE51:
 177              	.LBB55:
 178              	.LBB48:
 178:.\Generated_Source\PSoC5/isr_DAS.c ****     ramVectorTable[CYINT_IRQ_BASE + (uint32)isr_DAS__INTC_NUMBER] = address;
 179              		.loc 1 178 0
 180 000c 1065     		str	r0, [r2, #80]
 181              	.LVL8:
 182              	.LBE48:
 183              	.LBE55:
ARM GAS  C:\Users\Graziano\AppData\Local\Temp\ccECyNQc.s 			page 10


 184              	.LBB56:
 185              	.LBB53:
 226:.\Generated_Source\PSoC5/isr_DAS.c ****     *isr_DAS_INTC_PRIOR = priority << 5;
 186              		.loc 1 226 0
 187 000e E020     		movs	r0, #224
 188              	.LVL9:
 189              	.LBE53:
 190              	.LBE56:
 191              	.LBB57:
 192              	.LBB58:
 272:.\Generated_Source\PSoC5/isr_DAS.c ****     *isr_DAS_INTC_SET_EN = isr_DAS__INTC_MASK;
 193              		.loc 1 272 0
 194 0010 A1F54172 		sub	r2, r1, #772
 195              	.LVL10:
 196              	.LBE58:
 197              	.LBE57:
 198              	.LBB60:
 199              	.LBB54:
 226:.\Generated_Source\PSoC5/isr_DAS.c ****     *isr_DAS_INTC_PRIOR = priority << 5;
 200              		.loc 1 226 0
 201 0014 0870     		strb	r0, [r1, #0]
 202              	.LBE54:
 203              	.LBE60:
 204              	.LBB61:
 205              	.LBB59:
 272:.\Generated_Source\PSoC5/isr_DAS.c ****     *isr_DAS_INTC_SET_EN = isr_DAS__INTC_MASK;
 206              		.loc 1 272 0
 207 0016 1360     		str	r3, [r2, #0]
 208 0018 7047     		bx	lr
 209              	.L7:
 210 001a 00BF     		.align	2
 211              	.L6:
 212 001c 80E100E0 		.word	-536813184
 213 0020 08ED00E0 		.word	-536810232
 214 0024 04E400E0 		.word	-536812540
 215              	.LBE59:
 216              	.LBE61:
 217              		.cfi_endproc
 218              	.LFE1:
 219              		.size	isr_DAS_StartEx, .-isr_DAS_StartEx
 220              		.section	.text.isr_DAS_Stop,"ax",%progbits
 221              		.align	1
 222              		.global	isr_DAS_Stop
 223              		.thumb
 224              		.thumb_func
 225              		.type	isr_DAS_Stop, %function
 226              	isr_DAS_Stop:
 227              	.LFB2:
 119:.\Generated_Source\PSoC5/isr_DAS.c **** {
 228              		.loc 1 119 0
 229              		.cfi_startproc
 230              		@ args = 0, pretend = 0, frame = 0
 231              		@ frame_needed = 0, uses_anonymous_args = 0
 232              		@ link register save eliminated.
 233              	.LBB62:
 234              	.LBB63:
 235              		.loc 1 314 0
ARM GAS  C:\Users\Graziano\AppData\Local\Temp\ccECyNQc.s 			page 11


 236 0000 034B     		ldr	r3, .L9
 237              	.LBE63:
 238              	.LBE62:
 239              	.LBB65:
 240              	.LBB66:
 176:.\Generated_Source\PSoC5/isr_DAS.c ****     ramVectorTable = (cyisraddress *) *CYINT_VECT_TABLE;
 241              		.loc 1 176 0
 242 0002 0448     		ldr	r0, .L9+4
 243              	.LBE66:
 244              	.LBE65:
 245              	.LBB68:
 246              	.LBB64:
 247              		.loc 1 314 0
 248 0004 1022     		movs	r2, #16
 249 0006 1A60     		str	r2, [r3, #0]
 250              	.LVL11:
 251              	.LBE64:
 252              	.LBE68:
 253              	.LBB69:
 254              	.LBB67:
 176:.\Generated_Source\PSoC5/isr_DAS.c ****     ramVectorTable = (cyisraddress *) *CYINT_VECT_TABLE;
 255              		.loc 1 176 0
 256 0008 0168     		ldr	r1, [r0, #0]
 257              	.LVL12:
 178:.\Generated_Source\PSoC5/isr_DAS.c ****     ramVectorTable[CYINT_IRQ_BASE + (uint32)isr_DAS__INTC_NUMBER] = address;
 258              		.loc 1 178 0
 259 000a 034A     		ldr	r2, .L9+8
 260 000c 0A65     		str	r2, [r1, #80]
 261 000e 7047     		bx	lr
 262              	.L10:
 263              		.align	2
 264              	.L9:
 265 0010 80E100E0 		.word	-536813184
 266 0014 08ED00E0 		.word	-536810232
 267 0018 00000000 		.word	IntDefaultHandler
 268              	.LBE67:
 269              	.LBE69:
 270              		.cfi_endproc
 271              	.LFE2:
 272              		.size	isr_DAS_Stop, .-isr_DAS_Stop
 273              		.section	.text.isr_DAS_SetVector,"ax",%progbits
 274              		.align	1
 275              		.global	isr_DAS_SetVector
 276              		.thumb
 277              		.thumb_func
 278              		.type	isr_DAS_SetVector, %function
 279              	isr_DAS_SetVector:
 280              	.LFB4:
 173:.\Generated_Source\PSoC5/isr_DAS.c **** {
 281              		.loc 1 173 0
 282              		.cfi_startproc
 283              		@ args = 0, pretend = 0, frame = 0
 284              		@ frame_needed = 0, uses_anonymous_args = 0
 285              		@ link register save eliminated.
 286              	.LVL13:
 176:.\Generated_Source\PSoC5/isr_DAS.c ****     ramVectorTable = (cyisraddress *) *CYINT_VECT_TABLE;
 287              		.loc 1 176 0
ARM GAS  C:\Users\Graziano\AppData\Local\Temp\ccECyNQc.s 			page 12


 288 0000 014B     		ldr	r3, .L12
 289 0002 1968     		ldr	r1, [r3, #0]
 290              	.LVL14:
 178:.\Generated_Source\PSoC5/isr_DAS.c ****     ramVectorTable[CYINT_IRQ_BASE + (uint32)isr_DAS__INTC_NUMBER] = address;
 291              		.loc 1 178 0
 292 0004 0865     		str	r0, [r1, #80]
 293 0006 7047     		bx	lr
 294              	.L13:
 295              		.align	2
 296              	.L12:
 297 0008 08ED00E0 		.word	-536810232
 298              		.cfi_endproc
 299              	.LFE4:
 300              		.size	isr_DAS_SetVector, .-isr_DAS_SetVector
 301              		.section	.text.isr_DAS_GetVector,"ax",%progbits
 302              		.align	1
 303              		.global	isr_DAS_GetVector
 304              		.thumb
 305              		.thumb_func
 306              		.type	isr_DAS_GetVector, %function
 307              	isr_DAS_GetVector:
 308              	.LFB5:
 197:.\Generated_Source\PSoC5/isr_DAS.c **** {
 309              		.loc 1 197 0
 310              		.cfi_startproc
 311              		@ args = 0, pretend = 0, frame = 0
 312              		@ frame_needed = 0, uses_anonymous_args = 0
 313              		@ link register save eliminated.
 314              	.LVL15:
 200:.\Generated_Source\PSoC5/isr_DAS.c ****     ramVectorTable = (cyisraddress *) *CYINT_VECT_TABLE;
 315              		.loc 1 200 0
 316 0000 014B     		ldr	r3, .L15
 317              	.LVL16:
 202:.\Generated_Source\PSoC5/isr_DAS.c ****     return ramVectorTable[CYINT_IRQ_BASE + (uint32)isr_DAS__INTC_NUMBER];
 318              		.loc 1 202 0
 319 0002 1868     		ldr	r0, [r3, #0]
 203:.\Generated_Source\PSoC5/isr_DAS.c **** }
 320              		.loc 1 203 0
 321 0004 006D     		ldr	r0, [r0, #80]
 322 0006 7047     		bx	lr
 323              	.L16:
 324              		.align	2
 325              	.L15:
 326 0008 08ED00E0 		.word	-536810232
 327              		.cfi_endproc
 328              	.LFE5:
 329              		.size	isr_DAS_GetVector, .-isr_DAS_GetVector
 330              		.section	.text.isr_DAS_SetPriority,"ax",%progbits
 331              		.align	1
 332              		.global	isr_DAS_SetPriority
 333              		.thumb
 334              		.thumb_func
 335              		.type	isr_DAS_SetPriority, %function
 336              	isr_DAS_SetPriority:
 337              	.LFB6:
 225:.\Generated_Source\PSoC5/isr_DAS.c **** {
 338              		.loc 1 225 0
ARM GAS  C:\Users\Graziano\AppData\Local\Temp\ccECyNQc.s 			page 13


 339              		.cfi_startproc
 340              		@ args = 0, pretend = 0, frame = 0
 341              		@ frame_needed = 0, uses_anonymous_args = 0
 342              		@ link register save eliminated.
 343              	.LVL17:
 226:.\Generated_Source\PSoC5/isr_DAS.c ****     *isr_DAS_INTC_PRIOR = priority << 5;
 344              		.loc 1 226 0
 345 0000 4001     		lsls	r0, r0, #5
 346              	.LVL18:
 347 0002 024B     		ldr	r3, .L18
 348 0004 C1B2     		uxtb	r1, r0
 349 0006 1970     		strb	r1, [r3, #0]
 350 0008 7047     		bx	lr
 351              	.L19:
 352 000a 00BF     		.align	2
 353              	.L18:
 354 000c 04E400E0 		.word	-536812540
 355              		.cfi_endproc
 356              	.LFE6:
 357              		.size	isr_DAS_SetPriority, .-isr_DAS_SetPriority
 358              		.section	.text.isr_DAS_GetPriority,"ax",%progbits
 359              		.align	1
 360              		.global	isr_DAS_GetPriority
 361              		.thumb
 362              		.thumb_func
 363              		.type	isr_DAS_GetPriority, %function
 364              	isr_DAS_GetPriority:
 365              	.LFB7:
 245:.\Generated_Source\PSoC5/isr_DAS.c **** {
 366              		.loc 1 245 0
 367              		.cfi_startproc
 368              		@ args = 0, pretend = 0, frame = 0
 369              		@ frame_needed = 0, uses_anonymous_args = 0
 370              		@ link register save eliminated.
 249:.\Generated_Source\PSoC5/isr_DAS.c ****     priority = *isr_DAS_INTC_PRIOR >> 5;
 371              		.loc 1 249 0
 372 0000 014B     		ldr	r3, .L21
 373 0002 1878     		ldrb	r0, [r3, #0]	@ zero_extendqisi2
 374              	.LVL19:
 252:.\Generated_Source\PSoC5/isr_DAS.c **** }
 375              		.loc 1 252 0
 376 0004 4009     		lsrs	r0, r0, #5
 377              	.LVL20:
 378 0006 7047     		bx	lr
 379              	.L22:
 380              		.align	2
 381              	.L21:
 382 0008 04E400E0 		.word	-536812540
 383              		.cfi_endproc
 384              	.LFE7:
 385              		.size	isr_DAS_GetPriority, .-isr_DAS_GetPriority
 386              		.section	.text.isr_DAS_Enable,"ax",%progbits
 387              		.align	1
 388              		.global	isr_DAS_Enable
 389              		.thumb
 390              		.thumb_func
 391              		.type	isr_DAS_Enable, %function
ARM GAS  C:\Users\Graziano\AppData\Local\Temp\ccECyNQc.s 			page 14


 392              	isr_DAS_Enable:
 393              	.LFB8:
 270:.\Generated_Source\PSoC5/isr_DAS.c **** {
 394              		.loc 1 270 0
 395              		.cfi_startproc
 396              		@ args = 0, pretend = 0, frame = 0
 397              		@ frame_needed = 0, uses_anonymous_args = 0
 398              		@ link register save eliminated.
 272:.\Generated_Source\PSoC5/isr_DAS.c ****     *isr_DAS_INTC_SET_EN = isr_DAS__INTC_MASK;
 399              		.loc 1 272 0
 400 0000 014B     		ldr	r3, .L24
 401 0002 1022     		movs	r2, #16
 402 0004 1A60     		str	r2, [r3, #0]
 403 0006 7047     		bx	lr
 404              	.L25:
 405              		.align	2
 406              	.L24:
 407 0008 00E100E0 		.word	-536813312
 408              		.cfi_endproc
 409              	.LFE8:
 410              		.size	isr_DAS_Enable, .-isr_DAS_Enable
 411              		.section	.text.isr_DAS_GetState,"ax",%progbits
 412              		.align	1
 413              		.global	isr_DAS_GetState
 414              		.thumb
 415              		.thumb_func
 416              		.type	isr_DAS_GetState, %function
 417              	isr_DAS_GetState:
 418              	.LFB9:
 291:.\Generated_Source\PSoC5/isr_DAS.c **** {
 419              		.loc 1 291 0
 420              		.cfi_startproc
 421              		@ args = 0, pretend = 0, frame = 0
 422              		@ frame_needed = 0, uses_anonymous_args = 0
 423              		@ link register save eliminated.
 293:.\Generated_Source\PSoC5/isr_DAS.c ****     return ((*isr_DAS_INTC_SET_EN & (uint32)isr_DAS__INTC_MASK) != 0u) ? 1u:0u;
 424              		.loc 1 293 0
 425 0000 024B     		ldr	r3, .L27
 426 0002 1868     		ldr	r0, [r3, #0]
 294:.\Generated_Source\PSoC5/isr_DAS.c **** }
 427              		.loc 1 294 0
 428 0004 C0F30010 		ubfx	r0, r0, #4, #1
 429 0008 7047     		bx	lr
 430              	.L28:
 431 000a 00BF     		.align	2
 432              	.L27:
 433 000c 00E100E0 		.word	-536813312
 434              		.cfi_endproc
 435              	.LFE9:
 436              		.size	isr_DAS_GetState, .-isr_DAS_GetState
 437              		.section	.text.isr_DAS_Disable,"ax",%progbits
 438              		.align	1
 439              		.global	isr_DAS_Disable
 440              		.thumb
 441              		.thumb_func
 442              		.type	isr_DAS_Disable, %function
 443              	isr_DAS_Disable:
ARM GAS  C:\Users\Graziano\AppData\Local\Temp\ccECyNQc.s 			page 15


 444              	.LFB10:
 312:.\Generated_Source\PSoC5/isr_DAS.c **** {
 445              		.loc 1 312 0
 446              		.cfi_startproc
 447              		@ args = 0, pretend = 0, frame = 0
 448              		@ frame_needed = 0, uses_anonymous_args = 0
 449              		@ link register save eliminated.
 450              		.loc 1 314 0
 451 0000 014B     		ldr	r3, .L30
 452 0002 1022     		movs	r2, #16
 453 0004 1A60     		str	r2, [r3, #0]
 454 0006 7047     		bx	lr
 455              	.L31:
 456              		.align	2
 457              	.L30:
 458 0008 80E100E0 		.word	-536813184
 459              		.cfi_endproc
 460              	.LFE10:
 461              		.size	isr_DAS_Disable, .-isr_DAS_Disable
 462              		.section	.text.isr_DAS_SetPending,"ax",%progbits
 463              		.align	1
 464              		.global	isr_DAS_SetPending
 465              		.thumb
 466              		.thumb_func
 467              		.type	isr_DAS_SetPending, %function
 468              	isr_DAS_SetPending:
 469              	.LFB11:
 315:.\Generated_Source\PSoC5/isr_DAS.c **** }
 316:.\Generated_Source\PSoC5/isr_DAS.c **** 
 317:.\Generated_Source\PSoC5/isr_DAS.c **** 
 318:.\Generated_Source\PSoC5/isr_DAS.c **** /*******************************************************************************
 319:.\Generated_Source\PSoC5/isr_DAS.c **** * Function Name: isr_DAS_SetPending
 320:.\Generated_Source\PSoC5/isr_DAS.c **** ********************************************************************************
 321:.\Generated_Source\PSoC5/isr_DAS.c **** *
 322:.\Generated_Source\PSoC5/isr_DAS.c **** * Summary:
 323:.\Generated_Source\PSoC5/isr_DAS.c **** *   Causes the Interrupt to enter the pending state, a software method of
 324:.\Generated_Source\PSoC5/isr_DAS.c **** *   generating the interrupt.
 325:.\Generated_Source\PSoC5/isr_DAS.c **** *
 326:.\Generated_Source\PSoC5/isr_DAS.c **** * Parameters:
 327:.\Generated_Source\PSoC5/isr_DAS.c **** *   None
 328:.\Generated_Source\PSoC5/isr_DAS.c **** *
 329:.\Generated_Source\PSoC5/isr_DAS.c **** * Return:
 330:.\Generated_Source\PSoC5/isr_DAS.c **** *   None
 331:.\Generated_Source\PSoC5/isr_DAS.c **** *
 332:.\Generated_Source\PSoC5/isr_DAS.c **** *******************************************************************************/
 333:.\Generated_Source\PSoC5/isr_DAS.c **** void isr_DAS_SetPending(void)
 334:.\Generated_Source\PSoC5/isr_DAS.c **** {
 470              		.loc 1 334 0
 471              		.cfi_startproc
 472              		@ args = 0, pretend = 0, frame = 0
 473              		@ frame_needed = 0, uses_anonymous_args = 0
 474              		@ link register save eliminated.
 335:.\Generated_Source\PSoC5/isr_DAS.c ****     *isr_DAS_INTC_SET_PD = isr_DAS__INTC_MASK;
 475              		.loc 1 335 0
 476 0000 014B     		ldr	r3, .L33
 477 0002 1022     		movs	r2, #16
 478 0004 1A60     		str	r2, [r3, #0]
ARM GAS  C:\Users\Graziano\AppData\Local\Temp\ccECyNQc.s 			page 16


 479 0006 7047     		bx	lr
 480              	.L34:
 481              		.align	2
 482              	.L33:
 483 0008 00E200E0 		.word	-536813056
 484              		.cfi_endproc
 485              	.LFE11:
 486              		.size	isr_DAS_SetPending, .-isr_DAS_SetPending
 487              		.section	.text.isr_DAS_ClearPending,"ax",%progbits
 488              		.align	1
 489              		.global	isr_DAS_ClearPending
 490              		.thumb
 491              		.thumb_func
 492              		.type	isr_DAS_ClearPending, %function
 493              	isr_DAS_ClearPending:
 494              	.LFB12:
 336:.\Generated_Source\PSoC5/isr_DAS.c **** }
 337:.\Generated_Source\PSoC5/isr_DAS.c **** 
 338:.\Generated_Source\PSoC5/isr_DAS.c **** 
 339:.\Generated_Source\PSoC5/isr_DAS.c **** /*******************************************************************************
 340:.\Generated_Source\PSoC5/isr_DAS.c **** * Function Name: isr_DAS_ClearPending
 341:.\Generated_Source\PSoC5/isr_DAS.c **** ********************************************************************************
 342:.\Generated_Source\PSoC5/isr_DAS.c **** *
 343:.\Generated_Source\PSoC5/isr_DAS.c **** * Summary:
 344:.\Generated_Source\PSoC5/isr_DAS.c **** *   Clears a pending interrupt.
 345:.\Generated_Source\PSoC5/isr_DAS.c **** *
 346:.\Generated_Source\PSoC5/isr_DAS.c **** * Parameters:
 347:.\Generated_Source\PSoC5/isr_DAS.c **** *   None
 348:.\Generated_Source\PSoC5/isr_DAS.c **** *
 349:.\Generated_Source\PSoC5/isr_DAS.c **** * Return:
 350:.\Generated_Source\PSoC5/isr_DAS.c **** *   None
 351:.\Generated_Source\PSoC5/isr_DAS.c **** *
 352:.\Generated_Source\PSoC5/isr_DAS.c **** *******************************************************************************/
 353:.\Generated_Source\PSoC5/isr_DAS.c **** void isr_DAS_ClearPending(void)
 354:.\Generated_Source\PSoC5/isr_DAS.c **** {
 495              		.loc 1 354 0
 496              		.cfi_startproc
 497              		@ args = 0, pretend = 0, frame = 0
 498              		@ frame_needed = 0, uses_anonymous_args = 0
 499              		@ link register save eliminated.
 355:.\Generated_Source\PSoC5/isr_DAS.c ****     *isr_DAS_INTC_CLR_PD = isr_DAS__INTC_MASK;
 500              		.loc 1 355 0
 501 0000 014B     		ldr	r3, .L36
 502 0002 1022     		movs	r2, #16
 503 0004 1A60     		str	r2, [r3, #0]
 504 0006 7047     		bx	lr
 505              	.L37:
 506              		.align	2
 507              	.L36:
 508 0008 80E200E0 		.word	-536812928
 509              		.cfi_endproc
 510              	.LFE12:
 511              		.size	isr_DAS_ClearPending, .-isr_DAS_ClearPending
 512              		.text
 513              	.Letext0:
 514              		.file 2 "./Generated_Source/PSoC5/cytypes.h"
 515              		.file 3 "./das.h"
ARM GAS  C:\Users\Graziano\AppData\Local\Temp\ccECyNQc.s 			page 17

