ARM GAS  C:\Users\Graziano\AppData\Local\Temp\ccKn6hpn.s 			page 1


   1              		.syntax unified
   2              		.cpu cortex-m3
   3              		.fpu softvfp
   4              		.eabi_attribute 20, 1
   5              		.eabi_attribute 21, 1
   6              		.eabi_attribute 23, 3
   7              		.eabi_attribute 24, 1
   8              		.eabi_attribute 25, 1
   9              		.eabi_attribute 26, 1
  10              		.eabi_attribute 30, 4
  11              		.eabi_attribute 34, 1
  12              		.eabi_attribute 18, 4
  13              		.thumb
  14              		.file	"isr_CTRL.c"
  15              		.text
  16              	.Ltext0:
  17              		.cfi_sections	.debug_frame
  18              		.section	.text.isr_CTRL_Interrupt,"ax",%progbits
  19              		.align	1
  20              		.global	isr_CTRL_Interrupt
  21              		.thumb
  22              		.thumb_func
  23              		.type	isr_CTRL_Interrupt, %function
  24              	isr_CTRL_Interrupt:
  25              	.LFB3:
  26              		.file 1 ".\\Generated_Source\\PSoC5\\isr_CTRL.c"
   1:.\Generated_Source\PSoC5/isr_CTRL.c **** /*******************************************************************************
   2:.\Generated_Source\PSoC5/isr_CTRL.c **** * File Name: isr_CTRL.c  
   3:.\Generated_Source\PSoC5/isr_CTRL.c **** * Version 1.70
   4:.\Generated_Source\PSoC5/isr_CTRL.c **** *
   5:.\Generated_Source\PSoC5/isr_CTRL.c **** *  Description:
   6:.\Generated_Source\PSoC5/isr_CTRL.c **** *   API for controlling the state of an interrupt.
   7:.\Generated_Source\PSoC5/isr_CTRL.c **** *
   8:.\Generated_Source\PSoC5/isr_CTRL.c **** *
   9:.\Generated_Source\PSoC5/isr_CTRL.c **** *  Note:
  10:.\Generated_Source\PSoC5/isr_CTRL.c **** *
  11:.\Generated_Source\PSoC5/isr_CTRL.c **** ********************************************************************************
  12:.\Generated_Source\PSoC5/isr_CTRL.c **** * Copyright 2008-2012, Cypress Semiconductor Corporation.  All rights reserved.
  13:.\Generated_Source\PSoC5/isr_CTRL.c **** * You may use this file only in accordance with the license, terms, conditions, 
  14:.\Generated_Source\PSoC5/isr_CTRL.c **** * disclaimers, and limitations in the end user license agreement accompanying 
  15:.\Generated_Source\PSoC5/isr_CTRL.c **** * the software package with which this file was provided.
  16:.\Generated_Source\PSoC5/isr_CTRL.c **** *******************************************************************************/
  17:.\Generated_Source\PSoC5/isr_CTRL.c **** 
  18:.\Generated_Source\PSoC5/isr_CTRL.c **** 
  19:.\Generated_Source\PSoC5/isr_CTRL.c **** #include <cydevice_trm.h>
  20:.\Generated_Source\PSoC5/isr_CTRL.c **** #include <CyLib.h>
  21:.\Generated_Source\PSoC5/isr_CTRL.c **** #include <isr_CTRL.h>
  22:.\Generated_Source\PSoC5/isr_CTRL.c **** 
  23:.\Generated_Source\PSoC5/isr_CTRL.c **** #if !defined(isr_CTRL__REMOVED) /* Check for removal by optimization */
  24:.\Generated_Source\PSoC5/isr_CTRL.c **** 
  25:.\Generated_Source\PSoC5/isr_CTRL.c **** /*******************************************************************************
  26:.\Generated_Source\PSoC5/isr_CTRL.c **** *  Place your includes, defines and code here 
  27:.\Generated_Source\PSoC5/isr_CTRL.c **** ********************************************************************************/
  28:.\Generated_Source\PSoC5/isr_CTRL.c **** /* `#START isr_CTRL_intc` */
  29:.\Generated_Source\PSoC5/isr_CTRL.c **** 
  30:.\Generated_Source\PSoC5/isr_CTRL.c **** #include <sensor_CTRL.h>
  31:.\Generated_Source\PSoC5/isr_CTRL.c **** #include <motor_CTRL.h>
ARM GAS  C:\Users\Graziano\AppData\Local\Temp\ccKn6hpn.s 			page 2


  32:.\Generated_Source\PSoC5/isr_CTRL.c **** 	
  33:.\Generated_Source\PSoC5/isr_CTRL.c **** extern uint16 isr_START_check_counter;
  34:.\Generated_Source\PSoC5/isr_CTRL.c **** extern uint16 isr_STOP_check_counter;
  35:.\Generated_Source\PSoC5/isr_CTRL.c **** 	
  36:.\Generated_Source\PSoC5/isr_CTRL.c **** /* EXTERNAL Feedback Encoder */
  37:.\Generated_Source\PSoC5/isr_CTRL.c **** extern struct ENCODER pan_feedback_encoder; /* PAN Feedback Encoder Parameters & RT Datas */
  38:.\Generated_Source\PSoC5/isr_CTRL.c **** extern struct ENCODER tilt_feedback_encoder; /* TILT Feedback Encoder Parameters & RT Datas */
  39:.\Generated_Source\PSoC5/isr_CTRL.c ****     
  40:.\Generated_Source\PSoC5/isr_CTRL.c **** /* External Motor Axis 		 */
  41:.\Generated_Source\PSoC5/isr_CTRL.c **** extern struct MOTOR_AXIS pan_axis; 			/* PAN Motor Axis Parameters & RT Datas	*/
  42:.\Generated_Source\PSoC5/isr_CTRL.c **** extern struct MOTOR_AXIS tilt_axis; 		/* TILT Motor Axis Parameters & RT Datas	*/
  43:.\Generated_Source\PSoC5/isr_CTRL.c ****     
  44:.\Generated_Source\PSoC5/isr_CTRL.c **** /* `#END` */
  45:.\Generated_Source\PSoC5/isr_CTRL.c **** 
  46:.\Generated_Source\PSoC5/isr_CTRL.c **** #ifndef CYINT_IRQ_BASE
  47:.\Generated_Source\PSoC5/isr_CTRL.c **** #define CYINT_IRQ_BASE      16
  48:.\Generated_Source\PSoC5/isr_CTRL.c **** #endif /* CYINT_IRQ_BASE */
  49:.\Generated_Source\PSoC5/isr_CTRL.c **** #ifndef CYINT_VECT_TABLE
  50:.\Generated_Source\PSoC5/isr_CTRL.c **** #define CYINT_VECT_TABLE    ((cyisraddress **) CYREG_NVIC_VECT_OFFSET)
  51:.\Generated_Source\PSoC5/isr_CTRL.c **** #endif /* CYINT_VECT_TABLE */
  52:.\Generated_Source\PSoC5/isr_CTRL.c **** 
  53:.\Generated_Source\PSoC5/isr_CTRL.c **** /* Declared in startup, used to set unused interrupts to. */
  54:.\Generated_Source\PSoC5/isr_CTRL.c **** CY_ISR_PROTO(IntDefaultHandler);
  55:.\Generated_Source\PSoC5/isr_CTRL.c **** 
  56:.\Generated_Source\PSoC5/isr_CTRL.c **** 
  57:.\Generated_Source\PSoC5/isr_CTRL.c **** /*******************************************************************************
  58:.\Generated_Source\PSoC5/isr_CTRL.c **** * Function Name: isr_CTRL_Start
  59:.\Generated_Source\PSoC5/isr_CTRL.c **** ********************************************************************************
  60:.\Generated_Source\PSoC5/isr_CTRL.c **** *
  61:.\Generated_Source\PSoC5/isr_CTRL.c **** * Summary:
  62:.\Generated_Source\PSoC5/isr_CTRL.c **** *  Set up the interrupt and enable it.
  63:.\Generated_Source\PSoC5/isr_CTRL.c **** *
  64:.\Generated_Source\PSoC5/isr_CTRL.c **** * Parameters:  
  65:.\Generated_Source\PSoC5/isr_CTRL.c **** *   None
  66:.\Generated_Source\PSoC5/isr_CTRL.c **** *
  67:.\Generated_Source\PSoC5/isr_CTRL.c **** * Return:
  68:.\Generated_Source\PSoC5/isr_CTRL.c **** *   None
  69:.\Generated_Source\PSoC5/isr_CTRL.c **** *
  70:.\Generated_Source\PSoC5/isr_CTRL.c **** *******************************************************************************/
  71:.\Generated_Source\PSoC5/isr_CTRL.c **** void isr_CTRL_Start(void)
  72:.\Generated_Source\PSoC5/isr_CTRL.c **** {
  73:.\Generated_Source\PSoC5/isr_CTRL.c ****     /* For all we know the interrupt is active. */
  74:.\Generated_Source\PSoC5/isr_CTRL.c ****     isr_CTRL_Disable();
  75:.\Generated_Source\PSoC5/isr_CTRL.c **** 
  76:.\Generated_Source\PSoC5/isr_CTRL.c ****     /* Set the ISR to point to the isr_CTRL Interrupt. */
  77:.\Generated_Source\PSoC5/isr_CTRL.c ****     isr_CTRL_SetVector(&isr_CTRL_Interrupt);
  78:.\Generated_Source\PSoC5/isr_CTRL.c **** 
  79:.\Generated_Source\PSoC5/isr_CTRL.c ****     /* Set the priority. */
  80:.\Generated_Source\PSoC5/isr_CTRL.c ****     isr_CTRL_SetPriority((uint8)isr_CTRL_INTC_PRIOR_NUMBER);
  81:.\Generated_Source\PSoC5/isr_CTRL.c **** 
  82:.\Generated_Source\PSoC5/isr_CTRL.c ****     /* Enable it. */
  83:.\Generated_Source\PSoC5/isr_CTRL.c ****     isr_CTRL_Enable();
  84:.\Generated_Source\PSoC5/isr_CTRL.c **** }
  85:.\Generated_Source\PSoC5/isr_CTRL.c **** 
  86:.\Generated_Source\PSoC5/isr_CTRL.c **** 
  87:.\Generated_Source\PSoC5/isr_CTRL.c **** /*******************************************************************************
  88:.\Generated_Source\PSoC5/isr_CTRL.c **** * Function Name: isr_CTRL_StartEx
ARM GAS  C:\Users\Graziano\AppData\Local\Temp\ccKn6hpn.s 			page 3


  89:.\Generated_Source\PSoC5/isr_CTRL.c **** ********************************************************************************
  90:.\Generated_Source\PSoC5/isr_CTRL.c **** *
  91:.\Generated_Source\PSoC5/isr_CTRL.c **** * Summary:
  92:.\Generated_Source\PSoC5/isr_CTRL.c **** *  Set up the interrupt and enable it.
  93:.\Generated_Source\PSoC5/isr_CTRL.c **** *
  94:.\Generated_Source\PSoC5/isr_CTRL.c **** * Parameters:  
  95:.\Generated_Source\PSoC5/isr_CTRL.c **** *   address: Address of the ISR to set in the interrupt vector table.
  96:.\Generated_Source\PSoC5/isr_CTRL.c **** *
  97:.\Generated_Source\PSoC5/isr_CTRL.c **** * Return:
  98:.\Generated_Source\PSoC5/isr_CTRL.c **** *   None
  99:.\Generated_Source\PSoC5/isr_CTRL.c **** *
 100:.\Generated_Source\PSoC5/isr_CTRL.c **** *******************************************************************************/
 101:.\Generated_Source\PSoC5/isr_CTRL.c **** void isr_CTRL_StartEx(cyisraddress address)
 102:.\Generated_Source\PSoC5/isr_CTRL.c **** {
 103:.\Generated_Source\PSoC5/isr_CTRL.c ****     /* For all we know the interrupt is active. */
 104:.\Generated_Source\PSoC5/isr_CTRL.c ****     isr_CTRL_Disable();
 105:.\Generated_Source\PSoC5/isr_CTRL.c **** 
 106:.\Generated_Source\PSoC5/isr_CTRL.c ****     /* Set the ISR to point to the isr_CTRL Interrupt. */
 107:.\Generated_Source\PSoC5/isr_CTRL.c ****     isr_CTRL_SetVector(address);
 108:.\Generated_Source\PSoC5/isr_CTRL.c **** 
 109:.\Generated_Source\PSoC5/isr_CTRL.c ****     /* Set the priority. */
 110:.\Generated_Source\PSoC5/isr_CTRL.c ****     isr_CTRL_SetPriority((uint8)isr_CTRL_INTC_PRIOR_NUMBER);
 111:.\Generated_Source\PSoC5/isr_CTRL.c **** 
 112:.\Generated_Source\PSoC5/isr_CTRL.c ****     /* Enable it. */
 113:.\Generated_Source\PSoC5/isr_CTRL.c ****     isr_CTRL_Enable();
 114:.\Generated_Source\PSoC5/isr_CTRL.c **** }
 115:.\Generated_Source\PSoC5/isr_CTRL.c **** 
 116:.\Generated_Source\PSoC5/isr_CTRL.c **** 
 117:.\Generated_Source\PSoC5/isr_CTRL.c **** /*******************************************************************************
 118:.\Generated_Source\PSoC5/isr_CTRL.c **** * Function Name: isr_CTRL_Stop
 119:.\Generated_Source\PSoC5/isr_CTRL.c **** ********************************************************************************
 120:.\Generated_Source\PSoC5/isr_CTRL.c **** *
 121:.\Generated_Source\PSoC5/isr_CTRL.c **** * Summary:
 122:.\Generated_Source\PSoC5/isr_CTRL.c **** *   Disables and removes the interrupt.
 123:.\Generated_Source\PSoC5/isr_CTRL.c **** *
 124:.\Generated_Source\PSoC5/isr_CTRL.c **** * Parameters:  
 125:.\Generated_Source\PSoC5/isr_CTRL.c **** *
 126:.\Generated_Source\PSoC5/isr_CTRL.c **** * Return:
 127:.\Generated_Source\PSoC5/isr_CTRL.c **** *   None
 128:.\Generated_Source\PSoC5/isr_CTRL.c **** *
 129:.\Generated_Source\PSoC5/isr_CTRL.c **** *******************************************************************************/
 130:.\Generated_Source\PSoC5/isr_CTRL.c **** void isr_CTRL_Stop(void)
 131:.\Generated_Source\PSoC5/isr_CTRL.c **** {
 132:.\Generated_Source\PSoC5/isr_CTRL.c ****     /* Disable this interrupt. */
 133:.\Generated_Source\PSoC5/isr_CTRL.c ****     isr_CTRL_Disable();
 134:.\Generated_Source\PSoC5/isr_CTRL.c **** 
 135:.\Generated_Source\PSoC5/isr_CTRL.c ****     /* Set the ISR to point to the passive one. */
 136:.\Generated_Source\PSoC5/isr_CTRL.c ****     isr_CTRL_SetVector(&IntDefaultHandler);
 137:.\Generated_Source\PSoC5/isr_CTRL.c **** }
 138:.\Generated_Source\PSoC5/isr_CTRL.c **** 
 139:.\Generated_Source\PSoC5/isr_CTRL.c **** 
 140:.\Generated_Source\PSoC5/isr_CTRL.c **** /*******************************************************************************
 141:.\Generated_Source\PSoC5/isr_CTRL.c **** * Function Name: isr_CTRL_Interrupt
 142:.\Generated_Source\PSoC5/isr_CTRL.c **** ********************************************************************************
 143:.\Generated_Source\PSoC5/isr_CTRL.c **** *
 144:.\Generated_Source\PSoC5/isr_CTRL.c **** * Summary:
 145:.\Generated_Source\PSoC5/isr_CTRL.c **** *   The default Interrupt Service Routine for isr_CTRL.
ARM GAS  C:\Users\Graziano\AppData\Local\Temp\ccKn6hpn.s 			page 4


 146:.\Generated_Source\PSoC5/isr_CTRL.c **** *
 147:.\Generated_Source\PSoC5/isr_CTRL.c **** *   Add custom code between the coments to keep the next version of this file
 148:.\Generated_Source\PSoC5/isr_CTRL.c **** *   from over writting your code.
 149:.\Generated_Source\PSoC5/isr_CTRL.c **** *
 150:.\Generated_Source\PSoC5/isr_CTRL.c **** * Parameters:  
 151:.\Generated_Source\PSoC5/isr_CTRL.c **** *
 152:.\Generated_Source\PSoC5/isr_CTRL.c **** * Return:
 153:.\Generated_Source\PSoC5/isr_CTRL.c **** *   None
 154:.\Generated_Source\PSoC5/isr_CTRL.c **** *
 155:.\Generated_Source\PSoC5/isr_CTRL.c **** *******************************************************************************/
 156:.\Generated_Source\PSoC5/isr_CTRL.c **** CY_ISR(isr_CTRL_Interrupt)
 157:.\Generated_Source\PSoC5/isr_CTRL.c **** {
  27              		.loc 1 157 0
  28              		.cfi_startproc
  29              		@ args = 0, pretend = 0, frame = 0
  30              		@ frame_needed = 0, uses_anonymous_args = 0
  31 0000 08B5     		push	{r3, lr}
  32              	.LCFI0:
  33              		.cfi_def_cfa_offset 8
  34              		.cfi_offset 3, -8
  35              		.cfi_offset 14, -4
 158:.\Generated_Source\PSoC5/isr_CTRL.c ****     /*  Place your Interrupt code here. */
 159:.\Generated_Source\PSoC5/isr_CTRL.c ****     /* `#START isr_CTRL_Interrupt` */
 160:.\Generated_Source\PSoC5/isr_CTRL.c **** 	
 161:.\Generated_Source\PSoC5/isr_CTRL.c **** 
 162:.\Generated_Source\PSoC5/isr_CTRL.c **** #if MEASURE_CONTROL_ISR
 163:.\Generated_Source\PSoC5/isr_CTRL.c **** 	Control_Reg_LED_Write(0x00);
 164:.\Generated_Source\PSoC5/isr_CTRL.c **** 	//SET_ON(LED_OK);	/* ON LED OK - MEASUREMENT	POINT*/
 165:.\Generated_Source\PSoC5/isr_CTRL.c **** #endif
 166:.\Generated_Source\PSoC5/isr_CTRL.c **** 	isr_START_check_counter++;	
  36              		.loc 1 166 0
  37 0002 084B     		ldr	r3, .L2
  38 0004 1A88     		ldrh	r2, [r3, #0]
  39 0006 501C     		adds	r0, r2, #1
  40 0008 1880     		strh	r0, [r3, #0]	@ movhi
 167:.\Generated_Source\PSoC5/isr_CTRL.c **** 
 168:.\Generated_Source\PSoC5/isr_CTRL.c **** 	/************************************/
 169:.\Generated_Source\PSoC5/isr_CTRL.c ****     /* GoBee Sensors Sampling & Control */
 170:.\Generated_Source\PSoC5/isr_CTRL.c **** 	/************************************/
 171:.\Generated_Source\PSoC5/isr_CTRL.c ****     sensor_control();
  41              		.loc 1 171 0
  42 000a FFF7FEFF 		bl	sensor_control
  43              	.LVL0:
 172:.\Generated_Source\PSoC5/isr_CTRL.c ****  
 173:.\Generated_Source\PSoC5/isr_CTRL.c **** 	/*************************************/	
 174:.\Generated_Source\PSoC5/isr_CTRL.c ****     /* GoBee Motor Control               */
 175:.\Generated_Source\PSoC5/isr_CTRL.c **** 	/*************************************/	
 176:.\Generated_Source\PSoC5/isr_CTRL.c ****     motor_control(&pan_axis);
  44              		.loc 1 176 0
  45 000e 0648     		ldr	r0, .L2+4
  46 0010 FFF7FEFF 		bl	motor_control
  47              	.LVL1:
 177:.\Generated_Source\PSoC5/isr_CTRL.c ****     motor_control(&tilt_axis);
  48              		.loc 1 177 0
  49 0014 0548     		ldr	r0, .L2+8
  50 0016 FFF7FEFF 		bl	motor_control
  51              	.LVL2:
ARM GAS  C:\Users\Graziano\AppData\Local\Temp\ccKn6hpn.s 			page 5


 178:.\Generated_Source\PSoC5/isr_CTRL.c **** 	
 179:.\Generated_Source\PSoC5/isr_CTRL.c **** 	isr_STOP_check_counter++;
  52              		.loc 1 179 0
  53 001a 0549     		ldr	r1, .L2+12
  54 001c 0B88     		ldrh	r3, [r1, #0]
  55 001e 5A1C     		adds	r2, r3, #1
  56 0020 0A80     		strh	r2, [r1, #0]	@ movhi
  57 0022 08BD     		pop	{r3, pc}
  58              	.L3:
  59              		.align	2
  60              	.L2:
  61 0024 00000000 		.word	isr_START_check_counter
  62 0028 00000000 		.word	pan_axis
  63 002c 00000000 		.word	tilt_axis
  64 0030 00000000 		.word	isr_STOP_check_counter
  65              		.cfi_endproc
  66              	.LFE3:
  67              		.size	isr_CTRL_Interrupt, .-isr_CTRL_Interrupt
  68              		.section	.text.isr_CTRL_Start,"ax",%progbits
  69              		.align	1
  70              		.global	isr_CTRL_Start
  71              		.thumb
  72              		.thumb_func
  73              		.type	isr_CTRL_Start, %function
  74              	isr_CTRL_Start:
  75              	.LFB0:
  72:.\Generated_Source\PSoC5/isr_CTRL.c **** {
  76              		.loc 1 72 0
  77              		.cfi_startproc
  78              		@ args = 0, pretend = 0, frame = 0
  79              		@ frame_needed = 0, uses_anonymous_args = 0
  80              		@ link register save eliminated.
  81              	.LBB22:
  82              	.LBB23:
 180:.\Generated_Source\PSoC5/isr_CTRL.c **** #if MEASURE_CONTROL_ISR
 181:.\Generated_Source\PSoC5/isr_CTRL.c **** 	Control_Reg_LED_Write(0x01);
 182:.\Generated_Source\PSoC5/isr_CTRL.c **** 	//SET_OFF(LED_OK);	/* OFF LED OK - MEASUREMENT	POINT*/
 183:.\Generated_Source\PSoC5/isr_CTRL.c **** #endif
 184:.\Generated_Source\PSoC5/isr_CTRL.c **** 
 185:.\Generated_Source\PSoC5/isr_CTRL.c ****     /* `#END` */
 186:.\Generated_Source\PSoC5/isr_CTRL.c **** }
 187:.\Generated_Source\PSoC5/isr_CTRL.c **** 
 188:.\Generated_Source\PSoC5/isr_CTRL.c **** 
 189:.\Generated_Source\PSoC5/isr_CTRL.c **** /*******************************************************************************
 190:.\Generated_Source\PSoC5/isr_CTRL.c **** * Function Name: isr_CTRL_SetVector
 191:.\Generated_Source\PSoC5/isr_CTRL.c **** ********************************************************************************
 192:.\Generated_Source\PSoC5/isr_CTRL.c **** *
 193:.\Generated_Source\PSoC5/isr_CTRL.c **** * Summary:
 194:.\Generated_Source\PSoC5/isr_CTRL.c **** *   Change the ISR vector for the Interrupt. Note calling isr_CTRL_Start
 195:.\Generated_Source\PSoC5/isr_CTRL.c **** *   will override any effect this method would have had. To set the vector 
 196:.\Generated_Source\PSoC5/isr_CTRL.c **** *   before the component has been started use isr_CTRL_StartEx instead.
 197:.\Generated_Source\PSoC5/isr_CTRL.c **** *
 198:.\Generated_Source\PSoC5/isr_CTRL.c **** * Parameters:
 199:.\Generated_Source\PSoC5/isr_CTRL.c **** *   address: Address of the ISR to set in the interrupt vector table.
 200:.\Generated_Source\PSoC5/isr_CTRL.c **** *
 201:.\Generated_Source\PSoC5/isr_CTRL.c **** * Return:
 202:.\Generated_Source\PSoC5/isr_CTRL.c **** *   None
ARM GAS  C:\Users\Graziano\AppData\Local\Temp\ccKn6hpn.s 			page 6


 203:.\Generated_Source\PSoC5/isr_CTRL.c **** *
 204:.\Generated_Source\PSoC5/isr_CTRL.c **** *******************************************************************************/
 205:.\Generated_Source\PSoC5/isr_CTRL.c **** void isr_CTRL_SetVector(cyisraddress address)
 206:.\Generated_Source\PSoC5/isr_CTRL.c **** {
 207:.\Generated_Source\PSoC5/isr_CTRL.c ****     cyisraddress * ramVectorTable;
 208:.\Generated_Source\PSoC5/isr_CTRL.c **** 
 209:.\Generated_Source\PSoC5/isr_CTRL.c ****     ramVectorTable = (cyisraddress *) *CYINT_VECT_TABLE;
 210:.\Generated_Source\PSoC5/isr_CTRL.c **** 
 211:.\Generated_Source\PSoC5/isr_CTRL.c ****     ramVectorTable[CYINT_IRQ_BASE + (uint32)isr_CTRL__INTC_NUMBER] = address;
 212:.\Generated_Source\PSoC5/isr_CTRL.c **** }
 213:.\Generated_Source\PSoC5/isr_CTRL.c **** 
 214:.\Generated_Source\PSoC5/isr_CTRL.c **** 
 215:.\Generated_Source\PSoC5/isr_CTRL.c **** /*******************************************************************************
 216:.\Generated_Source\PSoC5/isr_CTRL.c **** * Function Name: isr_CTRL_GetVector
 217:.\Generated_Source\PSoC5/isr_CTRL.c **** ********************************************************************************
 218:.\Generated_Source\PSoC5/isr_CTRL.c **** *
 219:.\Generated_Source\PSoC5/isr_CTRL.c **** * Summary:
 220:.\Generated_Source\PSoC5/isr_CTRL.c **** *   Gets the "address" of the current ISR vector for the Interrupt.
 221:.\Generated_Source\PSoC5/isr_CTRL.c **** *
 222:.\Generated_Source\PSoC5/isr_CTRL.c **** * Parameters:
 223:.\Generated_Source\PSoC5/isr_CTRL.c **** *   None
 224:.\Generated_Source\PSoC5/isr_CTRL.c **** *
 225:.\Generated_Source\PSoC5/isr_CTRL.c **** * Return:
 226:.\Generated_Source\PSoC5/isr_CTRL.c **** *   Address of the ISR in the interrupt vector table.
 227:.\Generated_Source\PSoC5/isr_CTRL.c **** *
 228:.\Generated_Source\PSoC5/isr_CTRL.c **** *******************************************************************************/
 229:.\Generated_Source\PSoC5/isr_CTRL.c **** cyisraddress isr_CTRL_GetVector(void)
 230:.\Generated_Source\PSoC5/isr_CTRL.c **** {
 231:.\Generated_Source\PSoC5/isr_CTRL.c ****     cyisraddress * ramVectorTable;
 232:.\Generated_Source\PSoC5/isr_CTRL.c **** 
 233:.\Generated_Source\PSoC5/isr_CTRL.c ****     ramVectorTable = (cyisraddress *) *CYINT_VECT_TABLE;
 234:.\Generated_Source\PSoC5/isr_CTRL.c **** 
 235:.\Generated_Source\PSoC5/isr_CTRL.c ****     return ramVectorTable[CYINT_IRQ_BASE + (uint32)isr_CTRL__INTC_NUMBER];
 236:.\Generated_Source\PSoC5/isr_CTRL.c **** }
 237:.\Generated_Source\PSoC5/isr_CTRL.c **** 
 238:.\Generated_Source\PSoC5/isr_CTRL.c **** 
 239:.\Generated_Source\PSoC5/isr_CTRL.c **** /*******************************************************************************
 240:.\Generated_Source\PSoC5/isr_CTRL.c **** * Function Name: isr_CTRL_SetPriority
 241:.\Generated_Source\PSoC5/isr_CTRL.c **** ********************************************************************************
 242:.\Generated_Source\PSoC5/isr_CTRL.c **** *
 243:.\Generated_Source\PSoC5/isr_CTRL.c **** * Summary:
 244:.\Generated_Source\PSoC5/isr_CTRL.c **** *   Sets the Priority of the Interrupt. Note calling isr_CTRL_Start
 245:.\Generated_Source\PSoC5/isr_CTRL.c **** *   or isr_CTRL_StartEx will override any effect this method 
 246:.\Generated_Source\PSoC5/isr_CTRL.c **** *   would have had. This method should only be called after 
 247:.\Generated_Source\PSoC5/isr_CTRL.c **** *   isr_CTRL_Start or isr_CTRL_StartEx has been called. To set 
 248:.\Generated_Source\PSoC5/isr_CTRL.c **** *   the initial priority for the component use the cydwr file in the tool.
 249:.\Generated_Source\PSoC5/isr_CTRL.c **** *
 250:.\Generated_Source\PSoC5/isr_CTRL.c **** * Parameters:
 251:.\Generated_Source\PSoC5/isr_CTRL.c **** *   priority: Priority of the interrupt. 0 - 7, 0 being the highest.
 252:.\Generated_Source\PSoC5/isr_CTRL.c **** *
 253:.\Generated_Source\PSoC5/isr_CTRL.c **** * Return:
 254:.\Generated_Source\PSoC5/isr_CTRL.c **** *   None
 255:.\Generated_Source\PSoC5/isr_CTRL.c **** *
 256:.\Generated_Source\PSoC5/isr_CTRL.c **** *******************************************************************************/
 257:.\Generated_Source\PSoC5/isr_CTRL.c **** void isr_CTRL_SetPriority(uint8 priority)
 258:.\Generated_Source\PSoC5/isr_CTRL.c **** {
 259:.\Generated_Source\PSoC5/isr_CTRL.c ****     *isr_CTRL_INTC_PRIOR = priority << 5;
ARM GAS  C:\Users\Graziano\AppData\Local\Temp\ccKn6hpn.s 			page 7


 260:.\Generated_Source\PSoC5/isr_CTRL.c **** }
 261:.\Generated_Source\PSoC5/isr_CTRL.c **** 
 262:.\Generated_Source\PSoC5/isr_CTRL.c **** 
 263:.\Generated_Source\PSoC5/isr_CTRL.c **** /*******************************************************************************
 264:.\Generated_Source\PSoC5/isr_CTRL.c **** * Function Name: isr_CTRL_GetPriority
 265:.\Generated_Source\PSoC5/isr_CTRL.c **** ********************************************************************************
 266:.\Generated_Source\PSoC5/isr_CTRL.c **** *
 267:.\Generated_Source\PSoC5/isr_CTRL.c **** * Summary:
 268:.\Generated_Source\PSoC5/isr_CTRL.c **** *   Gets the Priority of the Interrupt.
 269:.\Generated_Source\PSoC5/isr_CTRL.c **** *
 270:.\Generated_Source\PSoC5/isr_CTRL.c **** * Parameters:
 271:.\Generated_Source\PSoC5/isr_CTRL.c **** *   None
 272:.\Generated_Source\PSoC5/isr_CTRL.c **** *
 273:.\Generated_Source\PSoC5/isr_CTRL.c **** * Return:
 274:.\Generated_Source\PSoC5/isr_CTRL.c **** *   Priority of the interrupt. 0 - 7, 0 being the highest.
 275:.\Generated_Source\PSoC5/isr_CTRL.c **** *
 276:.\Generated_Source\PSoC5/isr_CTRL.c **** *******************************************************************************/
 277:.\Generated_Source\PSoC5/isr_CTRL.c **** uint8 isr_CTRL_GetPriority(void)
 278:.\Generated_Source\PSoC5/isr_CTRL.c **** {
 279:.\Generated_Source\PSoC5/isr_CTRL.c ****     uint8 priority;
 280:.\Generated_Source\PSoC5/isr_CTRL.c **** 
 281:.\Generated_Source\PSoC5/isr_CTRL.c **** 
 282:.\Generated_Source\PSoC5/isr_CTRL.c ****     priority = *isr_CTRL_INTC_PRIOR >> 5;
 283:.\Generated_Source\PSoC5/isr_CTRL.c **** 
 284:.\Generated_Source\PSoC5/isr_CTRL.c ****     return priority;
 285:.\Generated_Source\PSoC5/isr_CTRL.c **** }
 286:.\Generated_Source\PSoC5/isr_CTRL.c **** 
 287:.\Generated_Source\PSoC5/isr_CTRL.c **** 
 288:.\Generated_Source\PSoC5/isr_CTRL.c **** /*******************************************************************************
 289:.\Generated_Source\PSoC5/isr_CTRL.c **** * Function Name: isr_CTRL_Enable
 290:.\Generated_Source\PSoC5/isr_CTRL.c **** ********************************************************************************
 291:.\Generated_Source\PSoC5/isr_CTRL.c **** *
 292:.\Generated_Source\PSoC5/isr_CTRL.c **** * Summary:
 293:.\Generated_Source\PSoC5/isr_CTRL.c **** *   Enables the interrupt.
 294:.\Generated_Source\PSoC5/isr_CTRL.c **** *
 295:.\Generated_Source\PSoC5/isr_CTRL.c **** * Parameters:
 296:.\Generated_Source\PSoC5/isr_CTRL.c **** *   None
 297:.\Generated_Source\PSoC5/isr_CTRL.c **** *
 298:.\Generated_Source\PSoC5/isr_CTRL.c **** * Return:
 299:.\Generated_Source\PSoC5/isr_CTRL.c **** *   None
 300:.\Generated_Source\PSoC5/isr_CTRL.c **** *
 301:.\Generated_Source\PSoC5/isr_CTRL.c **** *******************************************************************************/
 302:.\Generated_Source\PSoC5/isr_CTRL.c **** void isr_CTRL_Enable(void)
 303:.\Generated_Source\PSoC5/isr_CTRL.c **** {
 304:.\Generated_Source\PSoC5/isr_CTRL.c ****     /* Enable the general interrupt. */
 305:.\Generated_Source\PSoC5/isr_CTRL.c ****     *isr_CTRL_INTC_SET_EN = isr_CTRL__INTC_MASK;
 306:.\Generated_Source\PSoC5/isr_CTRL.c **** }
 307:.\Generated_Source\PSoC5/isr_CTRL.c **** 
 308:.\Generated_Source\PSoC5/isr_CTRL.c **** 
 309:.\Generated_Source\PSoC5/isr_CTRL.c **** /*******************************************************************************
 310:.\Generated_Source\PSoC5/isr_CTRL.c **** * Function Name: isr_CTRL_GetState
 311:.\Generated_Source\PSoC5/isr_CTRL.c **** ********************************************************************************
 312:.\Generated_Source\PSoC5/isr_CTRL.c **** *
 313:.\Generated_Source\PSoC5/isr_CTRL.c **** * Summary:
 314:.\Generated_Source\PSoC5/isr_CTRL.c **** *   Gets the state (enabled, disabled) of the Interrupt.
 315:.\Generated_Source\PSoC5/isr_CTRL.c **** *
 316:.\Generated_Source\PSoC5/isr_CTRL.c **** * Parameters:
ARM GAS  C:\Users\Graziano\AppData\Local\Temp\ccKn6hpn.s 			page 8


 317:.\Generated_Source\PSoC5/isr_CTRL.c **** *   None
 318:.\Generated_Source\PSoC5/isr_CTRL.c **** *
 319:.\Generated_Source\PSoC5/isr_CTRL.c **** * Return:
 320:.\Generated_Source\PSoC5/isr_CTRL.c **** *   1 if enabled, 0 if disabled.
 321:.\Generated_Source\PSoC5/isr_CTRL.c **** *
 322:.\Generated_Source\PSoC5/isr_CTRL.c **** *******************************************************************************/
 323:.\Generated_Source\PSoC5/isr_CTRL.c **** uint8 isr_CTRL_GetState(void)
 324:.\Generated_Source\PSoC5/isr_CTRL.c **** {
 325:.\Generated_Source\PSoC5/isr_CTRL.c ****     /* Get the state of the general interrupt. */
 326:.\Generated_Source\PSoC5/isr_CTRL.c ****     return ((*isr_CTRL_INTC_SET_EN & (uint32)isr_CTRL__INTC_MASK) != 0u) ? 1u:0u;
 327:.\Generated_Source\PSoC5/isr_CTRL.c **** }
 328:.\Generated_Source\PSoC5/isr_CTRL.c **** 
 329:.\Generated_Source\PSoC5/isr_CTRL.c **** 
 330:.\Generated_Source\PSoC5/isr_CTRL.c **** /*******************************************************************************
 331:.\Generated_Source\PSoC5/isr_CTRL.c **** * Function Name: isr_CTRL_Disable
 332:.\Generated_Source\PSoC5/isr_CTRL.c **** ********************************************************************************
 333:.\Generated_Source\PSoC5/isr_CTRL.c **** *
 334:.\Generated_Source\PSoC5/isr_CTRL.c **** * Summary:
 335:.\Generated_Source\PSoC5/isr_CTRL.c **** *   Disables the Interrupt.
 336:.\Generated_Source\PSoC5/isr_CTRL.c **** *
 337:.\Generated_Source\PSoC5/isr_CTRL.c **** * Parameters:
 338:.\Generated_Source\PSoC5/isr_CTRL.c **** *   None
 339:.\Generated_Source\PSoC5/isr_CTRL.c **** *
 340:.\Generated_Source\PSoC5/isr_CTRL.c **** * Return:
 341:.\Generated_Source\PSoC5/isr_CTRL.c **** *   None
 342:.\Generated_Source\PSoC5/isr_CTRL.c **** *
 343:.\Generated_Source\PSoC5/isr_CTRL.c **** *******************************************************************************/
 344:.\Generated_Source\PSoC5/isr_CTRL.c **** void isr_CTRL_Disable(void)
 345:.\Generated_Source\PSoC5/isr_CTRL.c **** {
 346:.\Generated_Source\PSoC5/isr_CTRL.c ****     /* Disable the general interrupt. */
 347:.\Generated_Source\PSoC5/isr_CTRL.c ****     *isr_CTRL_INTC_CLR_EN = isr_CTRL__INTC_MASK;
  83              		.loc 1 347 0
  84 0000 064A     		ldr	r2, .L5
  85              	.LBE23:
  86              	.LBE22:
  87              	.LBB25:
  88              	.LBB26:
 209:.\Generated_Source\PSoC5/isr_CTRL.c ****     ramVectorTable = (cyisraddress *) *CYINT_VECT_TABLE;
  89              		.loc 1 209 0
  90 0002 0748     		ldr	r0, .L5+4
  91              	.LBE26:
  92              	.LBE25:
  93              	.LBB29:
  94              	.LBB24:
  95              		.loc 1 347 0
  96 0004 0823     		movs	r3, #8
  97 0006 1360     		str	r3, [r2, #0]
  98              	.LVL3:
  99              	.LBE24:
 100              	.LBE29:
 101              	.LBB30:
 102              	.LBB27:
 211:.\Generated_Source\PSoC5/isr_CTRL.c ****     ramVectorTable[CYINT_IRQ_BASE + (uint32)isr_CTRL__INTC_NUMBER] = address;
 103              		.loc 1 211 0
 104 0008 0649     		ldr	r1, .L5+8
 209:.\Generated_Source\PSoC5/isr_CTRL.c ****     ramVectorTable = (cyisraddress *) *CYINT_VECT_TABLE;
 105              		.loc 1 209 0
ARM GAS  C:\Users\Graziano\AppData\Local\Temp\ccKn6hpn.s 			page 9


 106 000a 0268     		ldr	r2, [r0, #0]
 107              	.LVL4:
 108              	.LBE27:
 109              	.LBE30:
 110              	.LBB31:
 111              	.LBB32:
 259:.\Generated_Source\PSoC5/isr_CTRL.c ****     *isr_CTRL_INTC_PRIOR = priority << 5;
 112              		.loc 1 259 0
 113 000c A020     		movs	r0, #160
 114              	.LBE32:
 115              	.LBE31:
 116              	.LBB35:
 117              	.LBB28:
 211:.\Generated_Source\PSoC5/isr_CTRL.c ****     ramVectorTable[CYINT_IRQ_BASE + (uint32)isr_CTRL__INTC_NUMBER] = address;
 118              		.loc 1 211 0
 119 000e D164     		str	r1, [r2, #76]
 120              	.LVL5:
 121              	.LBE28:
 122              	.LBE35:
 123              	.LBB36:
 124              	.LBB33:
 259:.\Generated_Source\PSoC5/isr_CTRL.c ****     *isr_CTRL_INTC_PRIOR = priority << 5;
 125              		.loc 1 259 0
 126 0010 054A     		ldr	r2, .L5+12
 127              	.LVL6:
 128              	.LBE33:
 129              	.LBE36:
 130              	.LBB37:
 131              	.LBB38:
 305:.\Generated_Source\PSoC5/isr_CTRL.c ****     *isr_CTRL_INTC_SET_EN = isr_CTRL__INTC_MASK;
 132              		.loc 1 305 0
 133 0012 0649     		ldr	r1, .L5+16
 134              	.LBE38:
 135              	.LBE37:
 136              	.LBB40:
 137              	.LBB34:
 259:.\Generated_Source\PSoC5/isr_CTRL.c ****     *isr_CTRL_INTC_PRIOR = priority << 5;
 138              		.loc 1 259 0
 139 0014 1070     		strb	r0, [r2, #0]
 140              	.LBE34:
 141              	.LBE40:
 142              	.LBB41:
 143              	.LBB39:
 305:.\Generated_Source\PSoC5/isr_CTRL.c ****     *isr_CTRL_INTC_SET_EN = isr_CTRL__INTC_MASK;
 144              		.loc 1 305 0
 145 0016 0B60     		str	r3, [r1, #0]
 146 0018 7047     		bx	lr
 147              	.L6:
 148 001a 00BF     		.align	2
 149              	.L5:
 150 001c 80E100E0 		.word	-536813184
 151 0020 08ED00E0 		.word	-536810232
 152 0024 00000000 		.word	isr_CTRL_Interrupt
 153 0028 03E400E0 		.word	-536812541
 154 002c 00E100E0 		.word	-536813312
 155              	.LBE39:
 156              	.LBE41:
ARM GAS  C:\Users\Graziano\AppData\Local\Temp\ccKn6hpn.s 			page 10


 157              		.cfi_endproc
 158              	.LFE0:
 159              		.size	isr_CTRL_Start, .-isr_CTRL_Start
 160              		.section	.text.isr_CTRL_StartEx,"ax",%progbits
 161              		.align	1
 162              		.global	isr_CTRL_StartEx
 163              		.thumb
 164              		.thumb_func
 165              		.type	isr_CTRL_StartEx, %function
 166              	isr_CTRL_StartEx:
 167              	.LFB1:
 102:.\Generated_Source\PSoC5/isr_CTRL.c **** {
 168              		.loc 1 102 0
 169              		.cfi_startproc
 170              		@ args = 0, pretend = 0, frame = 0
 171              		@ frame_needed = 0, uses_anonymous_args = 0
 172              		@ link register save eliminated.
 173              	.LVL7:
 174              	.LBB42:
 175              	.LBB43:
 176              		.loc 1 347 0
 177 0000 054A     		ldr	r2, .L8
 178              	.LBE43:
 179              	.LBE42:
 180              	.LBB45:
 181              	.LBB46:
 209:.\Generated_Source\PSoC5/isr_CTRL.c ****     ramVectorTable = (cyisraddress *) *CYINT_VECT_TABLE;
 182              		.loc 1 209 0
 183 0002 0649     		ldr	r1, .L8+4
 184              	.LBE46:
 185              	.LBE45:
 186              	.LBB49:
 187              	.LBB44:
 188              		.loc 1 347 0
 189 0004 0823     		movs	r3, #8
 190 0006 1360     		str	r3, [r2, #0]
 191              	.LVL8:
 192              	.LBE44:
 193              	.LBE49:
 194              	.LBB50:
 195              	.LBB47:
 209:.\Generated_Source\PSoC5/isr_CTRL.c ****     ramVectorTable = (cyisraddress *) *CYINT_VECT_TABLE;
 196              		.loc 1 209 0
 197 0008 0A68     		ldr	r2, [r1, #0]
 198              	.LVL9:
 199              	.LBE47:
 200              	.LBE50:
 201              	.LBB51:
 202              	.LBB52:
 259:.\Generated_Source\PSoC5/isr_CTRL.c ****     *isr_CTRL_INTC_PRIOR = priority << 5;
 203              		.loc 1 259 0
 204 000a 0549     		ldr	r1, .L8+8
 205              	.LBE52:
 206              	.LBE51:
 207              	.LBB54:
 208              	.LBB48:
 211:.\Generated_Source\PSoC5/isr_CTRL.c ****     ramVectorTable[CYINT_IRQ_BASE + (uint32)isr_CTRL__INTC_NUMBER] = address;
ARM GAS  C:\Users\Graziano\AppData\Local\Temp\ccKn6hpn.s 			page 11


 209              		.loc 1 211 0
 210 000c D064     		str	r0, [r2, #76]
 211              	.LVL10:
 212              	.LBE48:
 213              	.LBE54:
 214              	.LBB55:
 215              	.LBB56:
 305:.\Generated_Source\PSoC5/isr_CTRL.c ****     *isr_CTRL_INTC_SET_EN = isr_CTRL__INTC_MASK;
 216              		.loc 1 305 0
 217 000e 054A     		ldr	r2, .L8+12
 218              	.LVL11:
 219              	.LBE56:
 220              	.LBE55:
 221              	.LBB58:
 222              	.LBB53:
 259:.\Generated_Source\PSoC5/isr_CTRL.c ****     *isr_CTRL_INTC_PRIOR = priority << 5;
 223              		.loc 1 259 0
 224 0010 A020     		movs	r0, #160
 225              	.LVL12:
 226 0012 0870     		strb	r0, [r1, #0]
 227              	.LBE53:
 228              	.LBE58:
 229              	.LBB59:
 230              	.LBB57:
 305:.\Generated_Source\PSoC5/isr_CTRL.c ****     *isr_CTRL_INTC_SET_EN = isr_CTRL__INTC_MASK;
 231              		.loc 1 305 0
 232 0014 1360     		str	r3, [r2, #0]
 233 0016 7047     		bx	lr
 234              	.L9:
 235              		.align	2
 236              	.L8:
 237 0018 80E100E0 		.word	-536813184
 238 001c 08ED00E0 		.word	-536810232
 239 0020 03E400E0 		.word	-536812541
 240 0024 00E100E0 		.word	-536813312
 241              	.LBE57:
 242              	.LBE59:
 243              		.cfi_endproc
 244              	.LFE1:
 245              		.size	isr_CTRL_StartEx, .-isr_CTRL_StartEx
 246              		.section	.text.isr_CTRL_Stop,"ax",%progbits
 247              		.align	1
 248              		.global	isr_CTRL_Stop
 249              		.thumb
 250              		.thumb_func
 251              		.type	isr_CTRL_Stop, %function
 252              	isr_CTRL_Stop:
 253              	.LFB2:
 131:.\Generated_Source\PSoC5/isr_CTRL.c **** {
 254              		.loc 1 131 0
 255              		.cfi_startproc
 256              		@ args = 0, pretend = 0, frame = 0
 257              		@ frame_needed = 0, uses_anonymous_args = 0
 258              		@ link register save eliminated.
 259              	.LBB60:
 260              	.LBB61:
 261              		.loc 1 347 0
ARM GAS  C:\Users\Graziano\AppData\Local\Temp\ccKn6hpn.s 			page 12


 262 0000 034B     		ldr	r3, .L11
 263              	.LBE61:
 264              	.LBE60:
 265              	.LBB63:
 266              	.LBB64:
 209:.\Generated_Source\PSoC5/isr_CTRL.c ****     ramVectorTable = (cyisraddress *) *CYINT_VECT_TABLE;
 267              		.loc 1 209 0
 268 0002 0448     		ldr	r0, .L11+4
 269              	.LBE64:
 270              	.LBE63:
 271              	.LBB66:
 272              	.LBB62:
 273              		.loc 1 347 0
 274 0004 0822     		movs	r2, #8
 275 0006 1A60     		str	r2, [r3, #0]
 276              	.LVL13:
 277              	.LBE62:
 278              	.LBE66:
 279              	.LBB67:
 280              	.LBB65:
 209:.\Generated_Source\PSoC5/isr_CTRL.c ****     ramVectorTable = (cyisraddress *) *CYINT_VECT_TABLE;
 281              		.loc 1 209 0
 282 0008 0168     		ldr	r1, [r0, #0]
 283              	.LVL14:
 211:.\Generated_Source\PSoC5/isr_CTRL.c ****     ramVectorTable[CYINT_IRQ_BASE + (uint32)isr_CTRL__INTC_NUMBER] = address;
 284              		.loc 1 211 0
 285 000a 034A     		ldr	r2, .L11+8
 286 000c CA64     		str	r2, [r1, #76]
 287 000e 7047     		bx	lr
 288              	.L12:
 289              		.align	2
 290              	.L11:
 291 0010 80E100E0 		.word	-536813184
 292 0014 08ED00E0 		.word	-536810232
 293 0018 00000000 		.word	IntDefaultHandler
 294              	.LBE65:
 295              	.LBE67:
 296              		.cfi_endproc
 297              	.LFE2:
 298              		.size	isr_CTRL_Stop, .-isr_CTRL_Stop
 299              		.section	.text.isr_CTRL_SetVector,"ax",%progbits
 300              		.align	1
 301              		.global	isr_CTRL_SetVector
 302              		.thumb
 303              		.thumb_func
 304              		.type	isr_CTRL_SetVector, %function
 305              	isr_CTRL_SetVector:
 306              	.LFB4:
 206:.\Generated_Source\PSoC5/isr_CTRL.c **** {
 307              		.loc 1 206 0
 308              		.cfi_startproc
 309              		@ args = 0, pretend = 0, frame = 0
 310              		@ frame_needed = 0, uses_anonymous_args = 0
 311              		@ link register save eliminated.
 312              	.LVL15:
 209:.\Generated_Source\PSoC5/isr_CTRL.c ****     ramVectorTable = (cyisraddress *) *CYINT_VECT_TABLE;
 313              		.loc 1 209 0
ARM GAS  C:\Users\Graziano\AppData\Local\Temp\ccKn6hpn.s 			page 13


 314 0000 014B     		ldr	r3, .L14
 315 0002 1968     		ldr	r1, [r3, #0]
 316              	.LVL16:
 211:.\Generated_Source\PSoC5/isr_CTRL.c ****     ramVectorTable[CYINT_IRQ_BASE + (uint32)isr_CTRL__INTC_NUMBER] = address;
 317              		.loc 1 211 0
 318 0004 C864     		str	r0, [r1, #76]
 319 0006 7047     		bx	lr
 320              	.L15:
 321              		.align	2
 322              	.L14:
 323 0008 08ED00E0 		.word	-536810232
 324              		.cfi_endproc
 325              	.LFE4:
 326              		.size	isr_CTRL_SetVector, .-isr_CTRL_SetVector
 327              		.section	.text.isr_CTRL_GetVector,"ax",%progbits
 328              		.align	1
 329              		.global	isr_CTRL_GetVector
 330              		.thumb
 331              		.thumb_func
 332              		.type	isr_CTRL_GetVector, %function
 333              	isr_CTRL_GetVector:
 334              	.LFB5:
 230:.\Generated_Source\PSoC5/isr_CTRL.c **** {
 335              		.loc 1 230 0
 336              		.cfi_startproc
 337              		@ args = 0, pretend = 0, frame = 0
 338              		@ frame_needed = 0, uses_anonymous_args = 0
 339              		@ link register save eliminated.
 340              	.LVL17:
 233:.\Generated_Source\PSoC5/isr_CTRL.c ****     ramVectorTable = (cyisraddress *) *CYINT_VECT_TABLE;
 341              		.loc 1 233 0
 342 0000 014B     		ldr	r3, .L17
 343              	.LVL18:
 235:.\Generated_Source\PSoC5/isr_CTRL.c ****     return ramVectorTable[CYINT_IRQ_BASE + (uint32)isr_CTRL__INTC_NUMBER];
 344              		.loc 1 235 0
 345 0002 1868     		ldr	r0, [r3, #0]
 236:.\Generated_Source\PSoC5/isr_CTRL.c **** }
 346              		.loc 1 236 0
 347 0004 C06C     		ldr	r0, [r0, #76]
 348 0006 7047     		bx	lr
 349              	.L18:
 350              		.align	2
 351              	.L17:
 352 0008 08ED00E0 		.word	-536810232
 353              		.cfi_endproc
 354              	.LFE5:
 355              		.size	isr_CTRL_GetVector, .-isr_CTRL_GetVector
 356              		.section	.text.isr_CTRL_SetPriority,"ax",%progbits
 357              		.align	1
 358              		.global	isr_CTRL_SetPriority
 359              		.thumb
 360              		.thumb_func
 361              		.type	isr_CTRL_SetPriority, %function
 362              	isr_CTRL_SetPriority:
 363              	.LFB6:
 258:.\Generated_Source\PSoC5/isr_CTRL.c **** {
 364              		.loc 1 258 0
ARM GAS  C:\Users\Graziano\AppData\Local\Temp\ccKn6hpn.s 			page 14


 365              		.cfi_startproc
 366              		@ args = 0, pretend = 0, frame = 0
 367              		@ frame_needed = 0, uses_anonymous_args = 0
 368              		@ link register save eliminated.
 369              	.LVL19:
 259:.\Generated_Source\PSoC5/isr_CTRL.c ****     *isr_CTRL_INTC_PRIOR = priority << 5;
 370              		.loc 1 259 0
 371 0000 4001     		lsls	r0, r0, #5
 372              	.LVL20:
 373 0002 024B     		ldr	r3, .L20
 374 0004 C1B2     		uxtb	r1, r0
 375 0006 1970     		strb	r1, [r3, #0]
 376 0008 7047     		bx	lr
 377              	.L21:
 378 000a 00BF     		.align	2
 379              	.L20:
 380 000c 03E400E0 		.word	-536812541
 381              		.cfi_endproc
 382              	.LFE6:
 383              		.size	isr_CTRL_SetPriority, .-isr_CTRL_SetPriority
 384              		.section	.text.isr_CTRL_GetPriority,"ax",%progbits
 385              		.align	1
 386              		.global	isr_CTRL_GetPriority
 387              		.thumb
 388              		.thumb_func
 389              		.type	isr_CTRL_GetPriority, %function
 390              	isr_CTRL_GetPriority:
 391              	.LFB7:
 278:.\Generated_Source\PSoC5/isr_CTRL.c **** {
 392              		.loc 1 278 0
 393              		.cfi_startproc
 394              		@ args = 0, pretend = 0, frame = 0
 395              		@ frame_needed = 0, uses_anonymous_args = 0
 396              		@ link register save eliminated.
 282:.\Generated_Source\PSoC5/isr_CTRL.c ****     priority = *isr_CTRL_INTC_PRIOR >> 5;
 397              		.loc 1 282 0
 398 0000 014B     		ldr	r3, .L23
 399 0002 1878     		ldrb	r0, [r3, #0]	@ zero_extendqisi2
 400              	.LVL21:
 285:.\Generated_Source\PSoC5/isr_CTRL.c **** }
 401              		.loc 1 285 0
 402 0004 4009     		lsrs	r0, r0, #5
 403              	.LVL22:
 404 0006 7047     		bx	lr
 405              	.L24:
 406              		.align	2
 407              	.L23:
 408 0008 03E400E0 		.word	-536812541
 409              		.cfi_endproc
 410              	.LFE7:
 411              		.size	isr_CTRL_GetPriority, .-isr_CTRL_GetPriority
 412              		.section	.text.isr_CTRL_Enable,"ax",%progbits
 413              		.align	1
 414              		.global	isr_CTRL_Enable
 415              		.thumb
 416              		.thumb_func
 417              		.type	isr_CTRL_Enable, %function
ARM GAS  C:\Users\Graziano\AppData\Local\Temp\ccKn6hpn.s 			page 15


 418              	isr_CTRL_Enable:
 419              	.LFB8:
 303:.\Generated_Source\PSoC5/isr_CTRL.c **** {
 420              		.loc 1 303 0
 421              		.cfi_startproc
 422              		@ args = 0, pretend = 0, frame = 0
 423              		@ frame_needed = 0, uses_anonymous_args = 0
 424              		@ link register save eliminated.
 305:.\Generated_Source\PSoC5/isr_CTRL.c ****     *isr_CTRL_INTC_SET_EN = isr_CTRL__INTC_MASK;
 425              		.loc 1 305 0
 426 0000 014B     		ldr	r3, .L26
 427 0002 0822     		movs	r2, #8
 428 0004 1A60     		str	r2, [r3, #0]
 429 0006 7047     		bx	lr
 430              	.L27:
 431              		.align	2
 432              	.L26:
 433 0008 00E100E0 		.word	-536813312
 434              		.cfi_endproc
 435              	.LFE8:
 436              		.size	isr_CTRL_Enable, .-isr_CTRL_Enable
 437              		.section	.text.isr_CTRL_GetState,"ax",%progbits
 438              		.align	1
 439              		.global	isr_CTRL_GetState
 440              		.thumb
 441              		.thumb_func
 442              		.type	isr_CTRL_GetState, %function
 443              	isr_CTRL_GetState:
 444              	.LFB9:
 324:.\Generated_Source\PSoC5/isr_CTRL.c **** {
 445              		.loc 1 324 0
 446              		.cfi_startproc
 447              		@ args = 0, pretend = 0, frame = 0
 448              		@ frame_needed = 0, uses_anonymous_args = 0
 449              		@ link register save eliminated.
 326:.\Generated_Source\PSoC5/isr_CTRL.c ****     return ((*isr_CTRL_INTC_SET_EN & (uint32)isr_CTRL__INTC_MASK) != 0u) ? 1u:0u;
 450              		.loc 1 326 0
 451 0000 024B     		ldr	r3, .L29
 452 0002 1868     		ldr	r0, [r3, #0]
 327:.\Generated_Source\PSoC5/isr_CTRL.c **** }
 453              		.loc 1 327 0
 454 0004 C0F3C000 		ubfx	r0, r0, #3, #1
 455 0008 7047     		bx	lr
 456              	.L30:
 457 000a 00BF     		.align	2
 458              	.L29:
 459 000c 00E100E0 		.word	-536813312
 460              		.cfi_endproc
 461              	.LFE9:
 462              		.size	isr_CTRL_GetState, .-isr_CTRL_GetState
 463              		.section	.text.isr_CTRL_Disable,"ax",%progbits
 464              		.align	1
 465              		.global	isr_CTRL_Disable
 466              		.thumb
 467              		.thumb_func
 468              		.type	isr_CTRL_Disable, %function
 469              	isr_CTRL_Disable:
ARM GAS  C:\Users\Graziano\AppData\Local\Temp\ccKn6hpn.s 			page 16


 470              	.LFB10:
 345:.\Generated_Source\PSoC5/isr_CTRL.c **** {
 471              		.loc 1 345 0
 472              		.cfi_startproc
 473              		@ args = 0, pretend = 0, frame = 0
 474              		@ frame_needed = 0, uses_anonymous_args = 0
 475              		@ link register save eliminated.
 476              		.loc 1 347 0
 477 0000 014B     		ldr	r3, .L32
 478 0002 0822     		movs	r2, #8
 479 0004 1A60     		str	r2, [r3, #0]
 480 0006 7047     		bx	lr
 481              	.L33:
 482              		.align	2
 483              	.L32:
 484 0008 80E100E0 		.word	-536813184
 485              		.cfi_endproc
 486              	.LFE10:
 487              		.size	isr_CTRL_Disable, .-isr_CTRL_Disable
 488              		.section	.text.isr_CTRL_SetPending,"ax",%progbits
 489              		.align	1
 490              		.global	isr_CTRL_SetPending
 491              		.thumb
 492              		.thumb_func
 493              		.type	isr_CTRL_SetPending, %function
 494              	isr_CTRL_SetPending:
 495              	.LFB11:
 348:.\Generated_Source\PSoC5/isr_CTRL.c **** }
 349:.\Generated_Source\PSoC5/isr_CTRL.c **** 
 350:.\Generated_Source\PSoC5/isr_CTRL.c **** 
 351:.\Generated_Source\PSoC5/isr_CTRL.c **** /*******************************************************************************
 352:.\Generated_Source\PSoC5/isr_CTRL.c **** * Function Name: isr_CTRL_SetPending
 353:.\Generated_Source\PSoC5/isr_CTRL.c **** ********************************************************************************
 354:.\Generated_Source\PSoC5/isr_CTRL.c **** *
 355:.\Generated_Source\PSoC5/isr_CTRL.c **** * Summary:
 356:.\Generated_Source\PSoC5/isr_CTRL.c **** *   Causes the Interrupt to enter the pending state, a software method of
 357:.\Generated_Source\PSoC5/isr_CTRL.c **** *   generating the interrupt.
 358:.\Generated_Source\PSoC5/isr_CTRL.c **** *
 359:.\Generated_Source\PSoC5/isr_CTRL.c **** * Parameters:
 360:.\Generated_Source\PSoC5/isr_CTRL.c **** *   None
 361:.\Generated_Source\PSoC5/isr_CTRL.c **** *
 362:.\Generated_Source\PSoC5/isr_CTRL.c **** * Return:
 363:.\Generated_Source\PSoC5/isr_CTRL.c **** *   None
 364:.\Generated_Source\PSoC5/isr_CTRL.c **** *
 365:.\Generated_Source\PSoC5/isr_CTRL.c **** *******************************************************************************/
 366:.\Generated_Source\PSoC5/isr_CTRL.c **** void isr_CTRL_SetPending(void)
 367:.\Generated_Source\PSoC5/isr_CTRL.c **** {
 496              		.loc 1 367 0
 497              		.cfi_startproc
 498              		@ args = 0, pretend = 0, frame = 0
 499              		@ frame_needed = 0, uses_anonymous_args = 0
 500              		@ link register save eliminated.
 368:.\Generated_Source\PSoC5/isr_CTRL.c ****     *isr_CTRL_INTC_SET_PD = isr_CTRL__INTC_MASK;
 501              		.loc 1 368 0
 502 0000 014B     		ldr	r3, .L35
 503 0002 0822     		movs	r2, #8
 504 0004 1A60     		str	r2, [r3, #0]
ARM GAS  C:\Users\Graziano\AppData\Local\Temp\ccKn6hpn.s 			page 17


 505 0006 7047     		bx	lr
 506              	.L36:
 507              		.align	2
 508              	.L35:
 509 0008 00E200E0 		.word	-536813056
 510              		.cfi_endproc
 511              	.LFE11:
 512              		.size	isr_CTRL_SetPending, .-isr_CTRL_SetPending
 513              		.section	.text.isr_CTRL_ClearPending,"ax",%progbits
 514              		.align	1
 515              		.global	isr_CTRL_ClearPending
 516              		.thumb
 517              		.thumb_func
 518              		.type	isr_CTRL_ClearPending, %function
 519              	isr_CTRL_ClearPending:
 520              	.LFB12:
 369:.\Generated_Source\PSoC5/isr_CTRL.c **** }
 370:.\Generated_Source\PSoC5/isr_CTRL.c **** 
 371:.\Generated_Source\PSoC5/isr_CTRL.c **** 
 372:.\Generated_Source\PSoC5/isr_CTRL.c **** /*******************************************************************************
 373:.\Generated_Source\PSoC5/isr_CTRL.c **** * Function Name: isr_CTRL_ClearPending
 374:.\Generated_Source\PSoC5/isr_CTRL.c **** ********************************************************************************
 375:.\Generated_Source\PSoC5/isr_CTRL.c **** *
 376:.\Generated_Source\PSoC5/isr_CTRL.c **** * Summary:
 377:.\Generated_Source\PSoC5/isr_CTRL.c **** *   Clears a pending interrupt.
 378:.\Generated_Source\PSoC5/isr_CTRL.c **** *
 379:.\Generated_Source\PSoC5/isr_CTRL.c **** * Parameters:
 380:.\Generated_Source\PSoC5/isr_CTRL.c **** *   None
 381:.\Generated_Source\PSoC5/isr_CTRL.c **** *
 382:.\Generated_Source\PSoC5/isr_CTRL.c **** * Return:
 383:.\Generated_Source\PSoC5/isr_CTRL.c **** *   None
 384:.\Generated_Source\PSoC5/isr_CTRL.c **** *
 385:.\Generated_Source\PSoC5/isr_CTRL.c **** *******************************************************************************/
 386:.\Generated_Source\PSoC5/isr_CTRL.c **** void isr_CTRL_ClearPending(void)
 387:.\Generated_Source\PSoC5/isr_CTRL.c **** {
 521              		.loc 1 387 0
 522              		.cfi_startproc
 523              		@ args = 0, pretend = 0, frame = 0
 524              		@ frame_needed = 0, uses_anonymous_args = 0
 525              		@ link register save eliminated.
 388:.\Generated_Source\PSoC5/isr_CTRL.c ****     *isr_CTRL_INTC_CLR_PD = isr_CTRL__INTC_MASK;
 526              		.loc 1 388 0
 527 0000 014B     		ldr	r3, .L38
 528 0002 0822     		movs	r2, #8
 529 0004 1A60     		str	r2, [r3, #0]
 530 0006 7047     		bx	lr
 531              	.L39:
 532              		.align	2
 533              	.L38:
 534 0008 80E200E0 		.word	-536812928
 535              		.cfi_endproc
 536              	.LFE12:
 537              		.size	isr_CTRL_ClearPending, .-isr_CTRL_ClearPending
 538              		.text
 539              	.Letext0:
 540              		.file 2 "./Generated_Source/PSoC5/cytypes.h"
 541              		.file 3 "./sensor_CTRL.h"
ARM GAS  C:\Users\Graziano\AppData\Local\Temp\ccKn6hpn.s 			page 18


 542              		.file 4 "./motor_CTRL.h"