ARM GAS  C:\Users\Graziano\AppData\Local\Temp\ccb19fkF.s 			page 1


   1              		.syntax unified
   2              		.cpu cortex-m3
   3              		.fpu softvfp
   4              		.eabi_attribute 20, 1
   5              		.eabi_attribute 21, 1
   6              		.eabi_attribute 23, 3
   7              		.eabi_attribute 24, 1
   8              		.eabi_attribute 25, 1
   9              		.eabi_attribute 26, 1
  10              		.eabi_attribute 30, 4
  11              		.eabi_attribute 34, 1
  12              		.eabi_attribute 18, 4
  13              		.thumb
  14              		.file	"isr_BUTTON.c"
  15              		.text
  16              	.Ltext0:
  17              		.cfi_sections	.debug_frame
  18              		.section	.text.isr_BUTTON_Interrupt,"ax",%progbits
  19              		.align	1
  20              		.global	isr_BUTTON_Interrupt
  21              		.thumb
  22              		.thumb_func
  23              		.type	isr_BUTTON_Interrupt, %function
  24              	isr_BUTTON_Interrupt:
  25              	.LFB59:
  26              		.file 1 ".\\Generated_Source\\PSoC5\\isr_BUTTON.c"
   1:.\Generated_Source\PSoC5/isr_BUTTON.c **** /*******************************************************************************
   2:.\Generated_Source\PSoC5/isr_BUTTON.c **** * File Name: isr_BUTTON.c  
   3:.\Generated_Source\PSoC5/isr_BUTTON.c **** * Version 1.70
   4:.\Generated_Source\PSoC5/isr_BUTTON.c **** *
   5:.\Generated_Source\PSoC5/isr_BUTTON.c **** *  Description:
   6:.\Generated_Source\PSoC5/isr_BUTTON.c **** *   API for controlling the state of an interrupt.
   7:.\Generated_Source\PSoC5/isr_BUTTON.c **** *
   8:.\Generated_Source\PSoC5/isr_BUTTON.c **** *
   9:.\Generated_Source\PSoC5/isr_BUTTON.c **** *  Note:
  10:.\Generated_Source\PSoC5/isr_BUTTON.c **** *
  11:.\Generated_Source\PSoC5/isr_BUTTON.c **** ********************************************************************************
  12:.\Generated_Source\PSoC5/isr_BUTTON.c **** * Copyright 2008-2012, Cypress Semiconductor Corporation.  All rights reserved.
  13:.\Generated_Source\PSoC5/isr_BUTTON.c **** * You may use this file only in accordance with the license, terms, conditions, 
  14:.\Generated_Source\PSoC5/isr_BUTTON.c **** * disclaimers, and limitations in the end user license agreement accompanying 
  15:.\Generated_Source\PSoC5/isr_BUTTON.c **** * the software package with which this file was provided.
  16:.\Generated_Source\PSoC5/isr_BUTTON.c **** *******************************************************************************/
  17:.\Generated_Source\PSoC5/isr_BUTTON.c **** 
  18:.\Generated_Source\PSoC5/isr_BUTTON.c **** 
  19:.\Generated_Source\PSoC5/isr_BUTTON.c **** #include <cydevice_trm.h>
  20:.\Generated_Source\PSoC5/isr_BUTTON.c **** #include <CyLib.h>
  21:.\Generated_Source\PSoC5/isr_BUTTON.c **** #include <isr_BUTTON.h>
  22:.\Generated_Source\PSoC5/isr_BUTTON.c **** 
  23:.\Generated_Source\PSoC5/isr_BUTTON.c **** #if !defined(isr_BUTTON__REMOVED) /* Check for removal by optimization */
  24:.\Generated_Source\PSoC5/isr_BUTTON.c **** 
  25:.\Generated_Source\PSoC5/isr_BUTTON.c **** /*******************************************************************************
  26:.\Generated_Source\PSoC5/isr_BUTTON.c **** *  Place your includes, defines and code here 
  27:.\Generated_Source\PSoC5/isr_BUTTON.c **** ********************************************************************************/
  28:.\Generated_Source\PSoC5/isr_BUTTON.c **** /* `#START isr_BUTTON_intc` */
  29:.\Generated_Source\PSoC5/isr_BUTTON.c **** 
  30:.\Generated_Source\PSoC5/isr_BUTTON.c **** 	#include <device.h>
  31:.\Generated_Source\PSoC5/isr_BUTTON.c **** 	
ARM GAS  C:\Users\Graziano\AppData\Local\Temp\ccb19fkF.s 			page 2


  32:.\Generated_Source\PSoC5/isr_BUTTON.c **** 	#include <gobee.h>
  33:.\Generated_Source\PSoC5/isr_BUTTON.c **** 	#include <gobeelib.h>
  34:.\Generated_Source\PSoC5/isr_BUTTON.c **** 	#include <motor_CTRL.h>	
  35:.\Generated_Source\PSoC5/isr_BUTTON.c **** 	
  36:.\Generated_Source\PSoC5/isr_BUTTON.c **** 	extern uint8 machine_state;		/*  Gobee Machine State */
  37:.\Generated_Source\PSoC5/isr_BUTTON.c **** 
  38:.\Generated_Source\PSoC5/isr_BUTTON.c **** 	/* GLOBAL MOTOR AXIS STRUCTURES */
  39:.\Generated_Source\PSoC5/isr_BUTTON.c **** 	extern struct MOTOR_AXIS pan_axis;			/* PAN Motor Axis Parameters & R TDatas		*/	
  40:.\Generated_Source\PSoC5/isr_BUTTON.c **** 	
  41:.\Generated_Source\PSoC5/isr_BUTTON.c **** 	uint8 idx;
  42:.\Generated_Source\PSoC5/isr_BUTTON.c **** 	
  43:.\Generated_Source\PSoC5/isr_BUTTON.c **** /* `#END` */
  44:.\Generated_Source\PSoC5/isr_BUTTON.c **** 
  45:.\Generated_Source\PSoC5/isr_BUTTON.c **** #ifndef CYINT_IRQ_BASE
  46:.\Generated_Source\PSoC5/isr_BUTTON.c **** #define CYINT_IRQ_BASE      16
  47:.\Generated_Source\PSoC5/isr_BUTTON.c **** #endif /* CYINT_IRQ_BASE */
  48:.\Generated_Source\PSoC5/isr_BUTTON.c **** #ifndef CYINT_VECT_TABLE
  49:.\Generated_Source\PSoC5/isr_BUTTON.c **** #define CYINT_VECT_TABLE    ((cyisraddress **) CYREG_NVIC_VECT_OFFSET)
  50:.\Generated_Source\PSoC5/isr_BUTTON.c **** #endif /* CYINT_VECT_TABLE */
  51:.\Generated_Source\PSoC5/isr_BUTTON.c **** 
  52:.\Generated_Source\PSoC5/isr_BUTTON.c **** /* Declared in startup, used to set unused interrupts to. */
  53:.\Generated_Source\PSoC5/isr_BUTTON.c **** CY_ISR_PROTO(IntDefaultHandler);
  54:.\Generated_Source\PSoC5/isr_BUTTON.c **** 
  55:.\Generated_Source\PSoC5/isr_BUTTON.c **** 
  56:.\Generated_Source\PSoC5/isr_BUTTON.c **** /*******************************************************************************
  57:.\Generated_Source\PSoC5/isr_BUTTON.c **** * Function Name: isr_BUTTON_Start
  58:.\Generated_Source\PSoC5/isr_BUTTON.c **** ********************************************************************************
  59:.\Generated_Source\PSoC5/isr_BUTTON.c **** *
  60:.\Generated_Source\PSoC5/isr_BUTTON.c **** * Summary:
  61:.\Generated_Source\PSoC5/isr_BUTTON.c **** *  Set up the interrupt and enable it.
  62:.\Generated_Source\PSoC5/isr_BUTTON.c **** *
  63:.\Generated_Source\PSoC5/isr_BUTTON.c **** * Parameters:  
  64:.\Generated_Source\PSoC5/isr_BUTTON.c **** *   None
  65:.\Generated_Source\PSoC5/isr_BUTTON.c **** *
  66:.\Generated_Source\PSoC5/isr_BUTTON.c **** * Return:
  67:.\Generated_Source\PSoC5/isr_BUTTON.c **** *   None
  68:.\Generated_Source\PSoC5/isr_BUTTON.c **** *
  69:.\Generated_Source\PSoC5/isr_BUTTON.c **** *******************************************************************************/
  70:.\Generated_Source\PSoC5/isr_BUTTON.c **** void isr_BUTTON_Start(void)
  71:.\Generated_Source\PSoC5/isr_BUTTON.c **** {
  72:.\Generated_Source\PSoC5/isr_BUTTON.c ****     /* For all we know the interrupt is active. */
  73:.\Generated_Source\PSoC5/isr_BUTTON.c ****     isr_BUTTON_Disable();
  74:.\Generated_Source\PSoC5/isr_BUTTON.c **** 
  75:.\Generated_Source\PSoC5/isr_BUTTON.c ****     /* Set the ISR to point to the isr_BUTTON Interrupt. */
  76:.\Generated_Source\PSoC5/isr_BUTTON.c ****     isr_BUTTON_SetVector(&isr_BUTTON_Interrupt);
  77:.\Generated_Source\PSoC5/isr_BUTTON.c **** 
  78:.\Generated_Source\PSoC5/isr_BUTTON.c ****     /* Set the priority. */
  79:.\Generated_Source\PSoC5/isr_BUTTON.c ****     isr_BUTTON_SetPriority((uint8)isr_BUTTON_INTC_PRIOR_NUMBER);
  80:.\Generated_Source\PSoC5/isr_BUTTON.c **** 
  81:.\Generated_Source\PSoC5/isr_BUTTON.c ****     /* Enable it. */
  82:.\Generated_Source\PSoC5/isr_BUTTON.c ****     isr_BUTTON_Enable();
  83:.\Generated_Source\PSoC5/isr_BUTTON.c **** }
  84:.\Generated_Source\PSoC5/isr_BUTTON.c **** 
  85:.\Generated_Source\PSoC5/isr_BUTTON.c **** 
  86:.\Generated_Source\PSoC5/isr_BUTTON.c **** /*******************************************************************************
  87:.\Generated_Source\PSoC5/isr_BUTTON.c **** * Function Name: isr_BUTTON_StartEx
  88:.\Generated_Source\PSoC5/isr_BUTTON.c **** ********************************************************************************
ARM GAS  C:\Users\Graziano\AppData\Local\Temp\ccb19fkF.s 			page 3


  89:.\Generated_Source\PSoC5/isr_BUTTON.c **** *
  90:.\Generated_Source\PSoC5/isr_BUTTON.c **** * Summary:
  91:.\Generated_Source\PSoC5/isr_BUTTON.c **** *  Set up the interrupt and enable it.
  92:.\Generated_Source\PSoC5/isr_BUTTON.c **** *
  93:.\Generated_Source\PSoC5/isr_BUTTON.c **** * Parameters:  
  94:.\Generated_Source\PSoC5/isr_BUTTON.c **** *   address: Address of the ISR to set in the interrupt vector table.
  95:.\Generated_Source\PSoC5/isr_BUTTON.c **** *
  96:.\Generated_Source\PSoC5/isr_BUTTON.c **** * Return:
  97:.\Generated_Source\PSoC5/isr_BUTTON.c **** *   None
  98:.\Generated_Source\PSoC5/isr_BUTTON.c **** *
  99:.\Generated_Source\PSoC5/isr_BUTTON.c **** *******************************************************************************/
 100:.\Generated_Source\PSoC5/isr_BUTTON.c **** void isr_BUTTON_StartEx(cyisraddress address)
 101:.\Generated_Source\PSoC5/isr_BUTTON.c **** {
 102:.\Generated_Source\PSoC5/isr_BUTTON.c ****     /* For all we know the interrupt is active. */
 103:.\Generated_Source\PSoC5/isr_BUTTON.c ****     isr_BUTTON_Disable();
 104:.\Generated_Source\PSoC5/isr_BUTTON.c **** 
 105:.\Generated_Source\PSoC5/isr_BUTTON.c ****     /* Set the ISR to point to the isr_BUTTON Interrupt. */
 106:.\Generated_Source\PSoC5/isr_BUTTON.c ****     isr_BUTTON_SetVector(address);
 107:.\Generated_Source\PSoC5/isr_BUTTON.c **** 
 108:.\Generated_Source\PSoC5/isr_BUTTON.c ****     /* Set the priority. */
 109:.\Generated_Source\PSoC5/isr_BUTTON.c ****     isr_BUTTON_SetPriority((uint8)isr_BUTTON_INTC_PRIOR_NUMBER);
 110:.\Generated_Source\PSoC5/isr_BUTTON.c **** 
 111:.\Generated_Source\PSoC5/isr_BUTTON.c ****     /* Enable it. */
 112:.\Generated_Source\PSoC5/isr_BUTTON.c ****     isr_BUTTON_Enable();
 113:.\Generated_Source\PSoC5/isr_BUTTON.c **** }
 114:.\Generated_Source\PSoC5/isr_BUTTON.c **** 
 115:.\Generated_Source\PSoC5/isr_BUTTON.c **** 
 116:.\Generated_Source\PSoC5/isr_BUTTON.c **** /*******************************************************************************
 117:.\Generated_Source\PSoC5/isr_BUTTON.c **** * Function Name: isr_BUTTON_Stop
 118:.\Generated_Source\PSoC5/isr_BUTTON.c **** ********************************************************************************
 119:.\Generated_Source\PSoC5/isr_BUTTON.c **** *
 120:.\Generated_Source\PSoC5/isr_BUTTON.c **** * Summary:
 121:.\Generated_Source\PSoC5/isr_BUTTON.c **** *   Disables and removes the interrupt.
 122:.\Generated_Source\PSoC5/isr_BUTTON.c **** *
 123:.\Generated_Source\PSoC5/isr_BUTTON.c **** * Parameters:  
 124:.\Generated_Source\PSoC5/isr_BUTTON.c **** *
 125:.\Generated_Source\PSoC5/isr_BUTTON.c **** * Return:
 126:.\Generated_Source\PSoC5/isr_BUTTON.c **** *   None
 127:.\Generated_Source\PSoC5/isr_BUTTON.c **** *
 128:.\Generated_Source\PSoC5/isr_BUTTON.c **** *******************************************************************************/
 129:.\Generated_Source\PSoC5/isr_BUTTON.c **** void isr_BUTTON_Stop(void)
 130:.\Generated_Source\PSoC5/isr_BUTTON.c **** {
 131:.\Generated_Source\PSoC5/isr_BUTTON.c ****     /* Disable this interrupt. */
 132:.\Generated_Source\PSoC5/isr_BUTTON.c ****     isr_BUTTON_Disable();
 133:.\Generated_Source\PSoC5/isr_BUTTON.c **** 
 134:.\Generated_Source\PSoC5/isr_BUTTON.c ****     /* Set the ISR to point to the passive one. */
 135:.\Generated_Source\PSoC5/isr_BUTTON.c ****     isr_BUTTON_SetVector(&IntDefaultHandler);
 136:.\Generated_Source\PSoC5/isr_BUTTON.c **** }
 137:.\Generated_Source\PSoC5/isr_BUTTON.c **** 
 138:.\Generated_Source\PSoC5/isr_BUTTON.c **** 
 139:.\Generated_Source\PSoC5/isr_BUTTON.c **** /*******************************************************************************
 140:.\Generated_Source\PSoC5/isr_BUTTON.c **** * Function Name: isr_BUTTON_Interrupt
 141:.\Generated_Source\PSoC5/isr_BUTTON.c **** ********************************************************************************
 142:.\Generated_Source\PSoC5/isr_BUTTON.c **** *
 143:.\Generated_Source\PSoC5/isr_BUTTON.c **** * Summary:
 144:.\Generated_Source\PSoC5/isr_BUTTON.c **** *   The default Interrupt Service Routine for isr_BUTTON.
 145:.\Generated_Source\PSoC5/isr_BUTTON.c **** *
ARM GAS  C:\Users\Graziano\AppData\Local\Temp\ccb19fkF.s 			page 4


 146:.\Generated_Source\PSoC5/isr_BUTTON.c **** *   Add custom code between the coments to keep the next version of this file
 147:.\Generated_Source\PSoC5/isr_BUTTON.c **** *   from over writting your code.
 148:.\Generated_Source\PSoC5/isr_BUTTON.c **** *
 149:.\Generated_Source\PSoC5/isr_BUTTON.c **** * Parameters:  
 150:.\Generated_Source\PSoC5/isr_BUTTON.c **** *
 151:.\Generated_Source\PSoC5/isr_BUTTON.c **** * Return:
 152:.\Generated_Source\PSoC5/isr_BUTTON.c **** *   None
 153:.\Generated_Source\PSoC5/isr_BUTTON.c **** *
 154:.\Generated_Source\PSoC5/isr_BUTTON.c **** *******************************************************************************/
 155:.\Generated_Source\PSoC5/isr_BUTTON.c **** CY_ISR(isr_BUTTON_Interrupt)
 156:.\Generated_Source\PSoC5/isr_BUTTON.c **** {
  27              		.loc 1 156 0
  28              		.cfi_startproc
  29              		@ args = 0, pretend = 0, frame = 0
  30              		@ frame_needed = 0, uses_anonymous_args = 0
  31 0000 10B5     		push	{r4, lr}
  32              	.LCFI0:
  33              		.cfi_def_cfa_offset 8
  34              		.cfi_offset 4, -8
  35              		.cfi_offset 14, -4
 157:.\Generated_Source\PSoC5/isr_BUTTON.c ****     /*  Place your Interrupt code here. */
 158:.\Generated_Source\PSoC5/isr_BUTTON.c ****     /* `#START isr_BUTTON_Interrupt` */
 159:.\Generated_Source\PSoC5/isr_BUTTON.c **** 	
 160:.\Generated_Source\PSoC5/isr_BUTTON.c **** 	if (machine_state == GOBEE_ENERGIZED)
  36              		.loc 1 160 0
  37 0002 1B4C     		ldr	r4, .L8
  38 0004 2378     		ldrb	r3, [r4, #0]	@ zero_extendqisi2
  39 0006 052B     		cmp	r3, #5
  40 0008 0FD1     		bne	.L2
  41              	.LBB24:
  42              	.LBB25:
 161:.\Generated_Source\PSoC5/isr_BUTTON.c **** 	{
 162:.\Generated_Source\PSoC5/isr_BUTTON.c **** 		Control_Reg_BUZ_Write(BUZZER_ON);	/* buzzer on			*/
  43              		.loc 1 162 0
  44 000a 0120     		movs	r0, #1
  45 000c FFF7FEFF 		bl	Control_Reg_BUZ_Write
  46              	.LVL0:
 163:.\Generated_Source\PSoC5/isr_BUTTON.c **** 		CyDelay(250);						/* 250msec sec delay	*/
  47              		.loc 1 163 0
  48 0010 FA20     		movs	r0, #250
  49 0012 FFF7FEFF 		bl	CyDelay
  50              	.LVL1:
 164:.\Generated_Source\PSoC5/isr_BUTTON.c **** 		Control_Reg_BUZ_Write(BUZZER_OFF);	/* buzzer off			*/
  51              		.loc 1 164 0
  52 0016 0020     		movs	r0, #0
  53 0018 FFF7FEFF 		bl	Control_Reg_BUZ_Write
  54              	.LVL2:
 165:.\Generated_Source\PSoC5/isr_BUTTON.c **** 		
 166:.\Generated_Source\PSoC5/isr_BUTTON.c **** 		machine_state = GOBEE_DEENERGIZED;
 167:.\Generated_Source\PSoC5/isr_BUTTON.c **** 		mototor_sleep(&pan_axis);
  55              		.loc 1 167 0
  56 001c 1548     		ldr	r0, .L8+4
 166:.\Generated_Source\PSoC5/isr_BUTTON.c **** 		machine_state = GOBEE_DEENERGIZED;
  57              		.loc 1 166 0
  58 001e 0622     		movs	r2, #6
  59 0020 2270     		strb	r2, [r4, #0]
  60              	.LBE25:
ARM GAS  C:\Users\Graziano\AppData\Local\Temp\ccb19fkF.s 			page 5


  61              	.LBE24:
 168:.\Generated_Source\PSoC5/isr_BUTTON.c **** 	}
 169:.\Generated_Source\PSoC5/isr_BUTTON.c **** 	else if (machine_state == GOBEE_DEENERGIZED)
 170:.\Generated_Source\PSoC5/isr_BUTTON.c **** 	{
 171:.\Generated_Source\PSoC5/isr_BUTTON.c ****  		for (idx = 0; idx < 3; idx++)
 172:.\Generated_Source\PSoC5/isr_BUTTON.c ****  		{			
 173:.\Generated_Source\PSoC5/isr_BUTTON.c **** 			Control_Reg_BUZ_Write(BUZZER_ON);	/* buzzer on			*/
 174:.\Generated_Source\PSoC5/isr_BUTTON.c **** 			CyDelay(80);						/* 250msec sec delay	*/
 175:.\Generated_Source\PSoC5/isr_BUTTON.c **** 			Control_Reg_BUZ_Write(BUZZER_OFF);	/* buzzer off			*/
 176:.\Generated_Source\PSoC5/isr_BUTTON.c **** 			CyDelay(30);						/* 125msec sec delay	*/			
 177:.\Generated_Source\PSoC5/isr_BUTTON.c **** 		}	
 178:.\Generated_Source\PSoC5/isr_BUTTON.c **** 		
 179:.\Generated_Source\PSoC5/isr_BUTTON.c **** 		machine_state = GOBEE_ENERGIZED;			
 180:.\Generated_Source\PSoC5/isr_BUTTON.c **** 		mototor_energize(&pan_axis);		
 181:.\Generated_Source\PSoC5/isr_BUTTON.c **** 	}	
 182:.\Generated_Source\PSoC5/isr_BUTTON.c **** 	
 183:.\Generated_Source\PSoC5/isr_BUTTON.c ****     /* `#END` */
 184:.\Generated_Source\PSoC5/isr_BUTTON.c **** }
  62              		.loc 1 184 0
  63 0022 BDE81040 		pop	{r4, lr}
  64              	.LBB27:
  65              	.LBB26:
 167:.\Generated_Source\PSoC5/isr_BUTTON.c **** 		mototor_sleep(&pan_axis);
  66              		.loc 1 167 0
  67 0026 FFF7FEBF 		b	mototor_sleep
  68              	.LVL3:
  69              	.L2:
  70              	.LBE26:
  71              	.LBE27:
 169:.\Generated_Source\PSoC5/isr_BUTTON.c **** 	else if (machine_state == GOBEE_DEENERGIZED)
  72              		.loc 1 169 0
  73 002a 062B     		cmp	r3, #6
  74 002c 1ED1     		bne	.L1
 171:.\Generated_Source\PSoC5/isr_BUTTON.c ****  		for (idx = 0; idx < 3; idx++)
  75              		.loc 1 171 0
  76 002e 1248     		ldr	r0, .L8+8
  77 0030 0022     		movs	r2, #0
  78 0032 0270     		strb	r2, [r0, #0]
  79              	.L4:
 171:.\Generated_Source\PSoC5/isr_BUTTON.c ****  		for (idx = 0; idx < 3; idx++)
  80              		.loc 1 171 0 is_stmt 0 discriminator 1
  81 0034 104C     		ldr	r4, .L8+8
  82 0036 2178     		ldrb	r1, [r4, #0]	@ zero_extendqisi2
  83 0038 0229     		cmp	r1, #2
  84 003a 0FD8     		bhi	.L7
  85              	.L5:
 173:.\Generated_Source\PSoC5/isr_BUTTON.c **** 			Control_Reg_BUZ_Write(BUZZER_ON);	/* buzzer on			*/
  86              		.loc 1 173 0 is_stmt 1 discriminator 2
  87 003c 0120     		movs	r0, #1
  88 003e FFF7FEFF 		bl	Control_Reg_BUZ_Write
  89              	.LVL4:
 174:.\Generated_Source\PSoC5/isr_BUTTON.c **** 			CyDelay(80);						/* 250msec sec delay	*/
  90              		.loc 1 174 0 discriminator 2
  91 0042 5020     		movs	r0, #80
  92 0044 FFF7FEFF 		bl	CyDelay
  93              	.LVL5:
 175:.\Generated_Source\PSoC5/isr_BUTTON.c **** 			Control_Reg_BUZ_Write(BUZZER_OFF);	/* buzzer off			*/
ARM GAS  C:\Users\Graziano\AppData\Local\Temp\ccb19fkF.s 			page 6


  94              		.loc 1 175 0 discriminator 2
  95 0048 0020     		movs	r0, #0
  96 004a FFF7FEFF 		bl	Control_Reg_BUZ_Write
  97              	.LVL6:
 176:.\Generated_Source\PSoC5/isr_BUTTON.c **** 			CyDelay(30);						/* 125msec sec delay	*/			
  98              		.loc 1 176 0 discriminator 2
  99 004e 1E20     		movs	r0, #30
 100 0050 FFF7FEFF 		bl	CyDelay
 101              	.LVL7:
 171:.\Generated_Source\PSoC5/isr_BUTTON.c ****  		for (idx = 0; idx < 3; idx++)
 102              		.loc 1 171 0 discriminator 2
 103 0054 2078     		ldrb	r0, [r4, #0]	@ zero_extendqisi2
 104 0056 411C     		adds	r1, r0, #1
 105 0058 2170     		strb	r1, [r4, #0]
 106 005a EBE7     		b	.L4
 107              	.L7:
 179:.\Generated_Source\PSoC5/isr_BUTTON.c **** 		machine_state = GOBEE_ENERGIZED;			
 108              		.loc 1 179 0
 109 005c 044B     		ldr	r3, .L8
 180:.\Generated_Source\PSoC5/isr_BUTTON.c **** 		mototor_energize(&pan_axis);		
 110              		.loc 1 180 0
 111 005e 0548     		ldr	r0, .L8+4
 179:.\Generated_Source\PSoC5/isr_BUTTON.c **** 		machine_state = GOBEE_ENERGIZED;			
 112              		.loc 1 179 0
 113 0060 0522     		movs	r2, #5
 114 0062 1A70     		strb	r2, [r3, #0]
 115              		.loc 1 184 0
 116 0064 BDE81040 		pop	{r4, lr}
 180:.\Generated_Source\PSoC5/isr_BUTTON.c **** 		mototor_energize(&pan_axis);		
 117              		.loc 1 180 0
 118 0068 FFF7FEBF 		b	mototor_energize
 119              	.LVL8:
 120              	.L1:
 121 006c 10BD     		pop	{r4, pc}
 122              	.L9:
 123 006e 00BF     		.align	2
 124              	.L8:
 125 0070 00000000 		.word	machine_state
 126 0074 00000000 		.word	pan_axis
 127 0078 00000000 		.word	idx
 128              		.cfi_endproc
 129              	.LFE59:
 130              		.size	isr_BUTTON_Interrupt, .-isr_BUTTON_Interrupt
 131              		.section	.text.isr_BUTTON_Start,"ax",%progbits
 132              		.align	1
 133              		.global	isr_BUTTON_Start
 134              		.thumb
 135              		.thumb_func
 136              		.type	isr_BUTTON_Start, %function
 137              	isr_BUTTON_Start:
 138              	.LFB56:
  71:.\Generated_Source\PSoC5/isr_BUTTON.c **** {
 139              		.loc 1 71 0
 140              		.cfi_startproc
 141              		@ args = 0, pretend = 0, frame = 0
 142              		@ frame_needed = 0, uses_anonymous_args = 0
 143              		@ link register save eliminated.
ARM GAS  C:\Users\Graziano\AppData\Local\Temp\ccb19fkF.s 			page 7


 144              	.LBB28:
 145              	.LBB29:
 185:.\Generated_Source\PSoC5/isr_BUTTON.c **** 
 186:.\Generated_Source\PSoC5/isr_BUTTON.c **** 
 187:.\Generated_Source\PSoC5/isr_BUTTON.c **** /*******************************************************************************
 188:.\Generated_Source\PSoC5/isr_BUTTON.c **** * Function Name: isr_BUTTON_SetVector
 189:.\Generated_Source\PSoC5/isr_BUTTON.c **** ********************************************************************************
 190:.\Generated_Source\PSoC5/isr_BUTTON.c **** *
 191:.\Generated_Source\PSoC5/isr_BUTTON.c **** * Summary:
 192:.\Generated_Source\PSoC5/isr_BUTTON.c **** *   Change the ISR vector for the Interrupt. Note calling isr_BUTTON_Start
 193:.\Generated_Source\PSoC5/isr_BUTTON.c **** *   will override any effect this method would have had. To set the vector 
 194:.\Generated_Source\PSoC5/isr_BUTTON.c **** *   before the component has been started use isr_BUTTON_StartEx instead.
 195:.\Generated_Source\PSoC5/isr_BUTTON.c **** *
 196:.\Generated_Source\PSoC5/isr_BUTTON.c **** * Parameters:
 197:.\Generated_Source\PSoC5/isr_BUTTON.c **** *   address: Address of the ISR to set in the interrupt vector table.
 198:.\Generated_Source\PSoC5/isr_BUTTON.c **** *
 199:.\Generated_Source\PSoC5/isr_BUTTON.c **** * Return:
 200:.\Generated_Source\PSoC5/isr_BUTTON.c **** *   None
 201:.\Generated_Source\PSoC5/isr_BUTTON.c **** *
 202:.\Generated_Source\PSoC5/isr_BUTTON.c **** *******************************************************************************/
 203:.\Generated_Source\PSoC5/isr_BUTTON.c **** void isr_BUTTON_SetVector(cyisraddress address)
 204:.\Generated_Source\PSoC5/isr_BUTTON.c **** {
 205:.\Generated_Source\PSoC5/isr_BUTTON.c ****     cyisraddress * ramVectorTable;
 206:.\Generated_Source\PSoC5/isr_BUTTON.c **** 
 207:.\Generated_Source\PSoC5/isr_BUTTON.c ****     ramVectorTable = (cyisraddress *) *CYINT_VECT_TABLE;
 208:.\Generated_Source\PSoC5/isr_BUTTON.c **** 
 209:.\Generated_Source\PSoC5/isr_BUTTON.c ****     ramVectorTable[CYINT_IRQ_BASE + (uint32)isr_BUTTON__INTC_NUMBER] = address;
 210:.\Generated_Source\PSoC5/isr_BUTTON.c **** }
 211:.\Generated_Source\PSoC5/isr_BUTTON.c **** 
 212:.\Generated_Source\PSoC5/isr_BUTTON.c **** 
 213:.\Generated_Source\PSoC5/isr_BUTTON.c **** /*******************************************************************************
 214:.\Generated_Source\PSoC5/isr_BUTTON.c **** * Function Name: isr_BUTTON_GetVector
 215:.\Generated_Source\PSoC5/isr_BUTTON.c **** ********************************************************************************
 216:.\Generated_Source\PSoC5/isr_BUTTON.c **** *
 217:.\Generated_Source\PSoC5/isr_BUTTON.c **** * Summary:
 218:.\Generated_Source\PSoC5/isr_BUTTON.c **** *   Gets the "address" of the current ISR vector for the Interrupt.
 219:.\Generated_Source\PSoC5/isr_BUTTON.c **** *
 220:.\Generated_Source\PSoC5/isr_BUTTON.c **** * Parameters:
 221:.\Generated_Source\PSoC5/isr_BUTTON.c **** *   None
 222:.\Generated_Source\PSoC5/isr_BUTTON.c **** *
 223:.\Generated_Source\PSoC5/isr_BUTTON.c **** * Return:
 224:.\Generated_Source\PSoC5/isr_BUTTON.c **** *   Address of the ISR in the interrupt vector table.
 225:.\Generated_Source\PSoC5/isr_BUTTON.c **** *
 226:.\Generated_Source\PSoC5/isr_BUTTON.c **** *******************************************************************************/
 227:.\Generated_Source\PSoC5/isr_BUTTON.c **** cyisraddress isr_BUTTON_GetVector(void)
 228:.\Generated_Source\PSoC5/isr_BUTTON.c **** {
 229:.\Generated_Source\PSoC5/isr_BUTTON.c ****     cyisraddress * ramVectorTable;
 230:.\Generated_Source\PSoC5/isr_BUTTON.c **** 
 231:.\Generated_Source\PSoC5/isr_BUTTON.c ****     ramVectorTable = (cyisraddress *) *CYINT_VECT_TABLE;
 232:.\Generated_Source\PSoC5/isr_BUTTON.c **** 
 233:.\Generated_Source\PSoC5/isr_BUTTON.c ****     return ramVectorTable[CYINT_IRQ_BASE + (uint32)isr_BUTTON__INTC_NUMBER];
 234:.\Generated_Source\PSoC5/isr_BUTTON.c **** }
 235:.\Generated_Source\PSoC5/isr_BUTTON.c **** 
 236:.\Generated_Source\PSoC5/isr_BUTTON.c **** 
 237:.\Generated_Source\PSoC5/isr_BUTTON.c **** /*******************************************************************************
 238:.\Generated_Source\PSoC5/isr_BUTTON.c **** * Function Name: isr_BUTTON_SetPriority
 239:.\Generated_Source\PSoC5/isr_BUTTON.c **** ********************************************************************************
ARM GAS  C:\Users\Graziano\AppData\Local\Temp\ccb19fkF.s 			page 8


 240:.\Generated_Source\PSoC5/isr_BUTTON.c **** *
 241:.\Generated_Source\PSoC5/isr_BUTTON.c **** * Summary:
 242:.\Generated_Source\PSoC5/isr_BUTTON.c **** *   Sets the Priority of the Interrupt. Note calling isr_BUTTON_Start
 243:.\Generated_Source\PSoC5/isr_BUTTON.c **** *   or isr_BUTTON_StartEx will override any effect this method 
 244:.\Generated_Source\PSoC5/isr_BUTTON.c **** *   would have had. This method should only be called after 
 245:.\Generated_Source\PSoC5/isr_BUTTON.c **** *   isr_BUTTON_Start or isr_BUTTON_StartEx has been called. To set 
 246:.\Generated_Source\PSoC5/isr_BUTTON.c **** *   the initial priority for the component use the cydwr file in the tool.
 247:.\Generated_Source\PSoC5/isr_BUTTON.c **** *
 248:.\Generated_Source\PSoC5/isr_BUTTON.c **** * Parameters:
 249:.\Generated_Source\PSoC5/isr_BUTTON.c **** *   priority: Priority of the interrupt. 0 - 7, 0 being the highest.
 250:.\Generated_Source\PSoC5/isr_BUTTON.c **** *
 251:.\Generated_Source\PSoC5/isr_BUTTON.c **** * Return:
 252:.\Generated_Source\PSoC5/isr_BUTTON.c **** *   None
 253:.\Generated_Source\PSoC5/isr_BUTTON.c **** *
 254:.\Generated_Source\PSoC5/isr_BUTTON.c **** *******************************************************************************/
 255:.\Generated_Source\PSoC5/isr_BUTTON.c **** void isr_BUTTON_SetPriority(uint8 priority)
 256:.\Generated_Source\PSoC5/isr_BUTTON.c **** {
 257:.\Generated_Source\PSoC5/isr_BUTTON.c ****     *isr_BUTTON_INTC_PRIOR = priority << 5;
 258:.\Generated_Source\PSoC5/isr_BUTTON.c **** }
 259:.\Generated_Source\PSoC5/isr_BUTTON.c **** 
 260:.\Generated_Source\PSoC5/isr_BUTTON.c **** 
 261:.\Generated_Source\PSoC5/isr_BUTTON.c **** /*******************************************************************************
 262:.\Generated_Source\PSoC5/isr_BUTTON.c **** * Function Name: isr_BUTTON_GetPriority
 263:.\Generated_Source\PSoC5/isr_BUTTON.c **** ********************************************************************************
 264:.\Generated_Source\PSoC5/isr_BUTTON.c **** *
 265:.\Generated_Source\PSoC5/isr_BUTTON.c **** * Summary:
 266:.\Generated_Source\PSoC5/isr_BUTTON.c **** *   Gets the Priority of the Interrupt.
 267:.\Generated_Source\PSoC5/isr_BUTTON.c **** *
 268:.\Generated_Source\PSoC5/isr_BUTTON.c **** * Parameters:
 269:.\Generated_Source\PSoC5/isr_BUTTON.c **** *   None
 270:.\Generated_Source\PSoC5/isr_BUTTON.c **** *
 271:.\Generated_Source\PSoC5/isr_BUTTON.c **** * Return:
 272:.\Generated_Source\PSoC5/isr_BUTTON.c **** *   Priority of the interrupt. 0 - 7, 0 being the highest.
 273:.\Generated_Source\PSoC5/isr_BUTTON.c **** *
 274:.\Generated_Source\PSoC5/isr_BUTTON.c **** *******************************************************************************/
 275:.\Generated_Source\PSoC5/isr_BUTTON.c **** uint8 isr_BUTTON_GetPriority(void)
 276:.\Generated_Source\PSoC5/isr_BUTTON.c **** {
 277:.\Generated_Source\PSoC5/isr_BUTTON.c ****     uint8 priority;
 278:.\Generated_Source\PSoC5/isr_BUTTON.c **** 
 279:.\Generated_Source\PSoC5/isr_BUTTON.c **** 
 280:.\Generated_Source\PSoC5/isr_BUTTON.c ****     priority = *isr_BUTTON_INTC_PRIOR >> 5;
 281:.\Generated_Source\PSoC5/isr_BUTTON.c **** 
 282:.\Generated_Source\PSoC5/isr_BUTTON.c ****     return priority;
 283:.\Generated_Source\PSoC5/isr_BUTTON.c **** }
 284:.\Generated_Source\PSoC5/isr_BUTTON.c **** 
 285:.\Generated_Source\PSoC5/isr_BUTTON.c **** 
 286:.\Generated_Source\PSoC5/isr_BUTTON.c **** /*******************************************************************************
 287:.\Generated_Source\PSoC5/isr_BUTTON.c **** * Function Name: isr_BUTTON_Enable
 288:.\Generated_Source\PSoC5/isr_BUTTON.c **** ********************************************************************************
 289:.\Generated_Source\PSoC5/isr_BUTTON.c **** *
 290:.\Generated_Source\PSoC5/isr_BUTTON.c **** * Summary:
 291:.\Generated_Source\PSoC5/isr_BUTTON.c **** *   Enables the interrupt.
 292:.\Generated_Source\PSoC5/isr_BUTTON.c **** *
 293:.\Generated_Source\PSoC5/isr_BUTTON.c **** * Parameters:
 294:.\Generated_Source\PSoC5/isr_BUTTON.c **** *   None
 295:.\Generated_Source\PSoC5/isr_BUTTON.c **** *
 296:.\Generated_Source\PSoC5/isr_BUTTON.c **** * Return:
ARM GAS  C:\Users\Graziano\AppData\Local\Temp\ccb19fkF.s 			page 9


 297:.\Generated_Source\PSoC5/isr_BUTTON.c **** *   None
 298:.\Generated_Source\PSoC5/isr_BUTTON.c **** *
 299:.\Generated_Source\PSoC5/isr_BUTTON.c **** *******************************************************************************/
 300:.\Generated_Source\PSoC5/isr_BUTTON.c **** void isr_BUTTON_Enable(void)
 301:.\Generated_Source\PSoC5/isr_BUTTON.c **** {
 302:.\Generated_Source\PSoC5/isr_BUTTON.c ****     /* Enable the general interrupt. */
 303:.\Generated_Source\PSoC5/isr_BUTTON.c ****     *isr_BUTTON_INTC_SET_EN = isr_BUTTON__INTC_MASK;
 304:.\Generated_Source\PSoC5/isr_BUTTON.c **** }
 305:.\Generated_Source\PSoC5/isr_BUTTON.c **** 
 306:.\Generated_Source\PSoC5/isr_BUTTON.c **** 
 307:.\Generated_Source\PSoC5/isr_BUTTON.c **** /*******************************************************************************
 308:.\Generated_Source\PSoC5/isr_BUTTON.c **** * Function Name: isr_BUTTON_GetState
 309:.\Generated_Source\PSoC5/isr_BUTTON.c **** ********************************************************************************
 310:.\Generated_Source\PSoC5/isr_BUTTON.c **** *
 311:.\Generated_Source\PSoC5/isr_BUTTON.c **** * Summary:
 312:.\Generated_Source\PSoC5/isr_BUTTON.c **** *   Gets the state (enabled, disabled) of the Interrupt.
 313:.\Generated_Source\PSoC5/isr_BUTTON.c **** *
 314:.\Generated_Source\PSoC5/isr_BUTTON.c **** * Parameters:
 315:.\Generated_Source\PSoC5/isr_BUTTON.c **** *   None
 316:.\Generated_Source\PSoC5/isr_BUTTON.c **** *
 317:.\Generated_Source\PSoC5/isr_BUTTON.c **** * Return:
 318:.\Generated_Source\PSoC5/isr_BUTTON.c **** *   1 if enabled, 0 if disabled.
 319:.\Generated_Source\PSoC5/isr_BUTTON.c **** *
 320:.\Generated_Source\PSoC5/isr_BUTTON.c **** *******************************************************************************/
 321:.\Generated_Source\PSoC5/isr_BUTTON.c **** uint8 isr_BUTTON_GetState(void)
 322:.\Generated_Source\PSoC5/isr_BUTTON.c **** {
 323:.\Generated_Source\PSoC5/isr_BUTTON.c ****     /* Get the state of the general interrupt. */
 324:.\Generated_Source\PSoC5/isr_BUTTON.c ****     return ((*isr_BUTTON_INTC_SET_EN & (uint32)isr_BUTTON__INTC_MASK) != 0u) ? 1u:0u;
 325:.\Generated_Source\PSoC5/isr_BUTTON.c **** }
 326:.\Generated_Source\PSoC5/isr_BUTTON.c **** 
 327:.\Generated_Source\PSoC5/isr_BUTTON.c **** 
 328:.\Generated_Source\PSoC5/isr_BUTTON.c **** /*******************************************************************************
 329:.\Generated_Source\PSoC5/isr_BUTTON.c **** * Function Name: isr_BUTTON_Disable
 330:.\Generated_Source\PSoC5/isr_BUTTON.c **** ********************************************************************************
 331:.\Generated_Source\PSoC5/isr_BUTTON.c **** *
 332:.\Generated_Source\PSoC5/isr_BUTTON.c **** * Summary:
 333:.\Generated_Source\PSoC5/isr_BUTTON.c **** *   Disables the Interrupt.
 334:.\Generated_Source\PSoC5/isr_BUTTON.c **** *
 335:.\Generated_Source\PSoC5/isr_BUTTON.c **** * Parameters:
 336:.\Generated_Source\PSoC5/isr_BUTTON.c **** *   None
 337:.\Generated_Source\PSoC5/isr_BUTTON.c **** *
 338:.\Generated_Source\PSoC5/isr_BUTTON.c **** * Return:
 339:.\Generated_Source\PSoC5/isr_BUTTON.c **** *   None
 340:.\Generated_Source\PSoC5/isr_BUTTON.c **** *
 341:.\Generated_Source\PSoC5/isr_BUTTON.c **** *******************************************************************************/
 342:.\Generated_Source\PSoC5/isr_BUTTON.c **** void isr_BUTTON_Disable(void)
 343:.\Generated_Source\PSoC5/isr_BUTTON.c **** {
 344:.\Generated_Source\PSoC5/isr_BUTTON.c ****     /* Disable the general interrupt. */
 345:.\Generated_Source\PSoC5/isr_BUTTON.c ****     *isr_BUTTON_INTC_CLR_EN = isr_BUTTON__INTC_MASK;
 146              		.loc 1 345 0
 147 0000 064A     		ldr	r2, .L11
 148              	.LBE29:
 149              	.LBE28:
 150              	.LBB31:
 151              	.LBB32:
 207:.\Generated_Source\PSoC5/isr_BUTTON.c ****     ramVectorTable = (cyisraddress *) *CYINT_VECT_TABLE;
 152              		.loc 1 207 0
ARM GAS  C:\Users\Graziano\AppData\Local\Temp\ccb19fkF.s 			page 10


 153 0002 0748     		ldr	r0, .L11+4
 154              	.LBE32:
 155              	.LBE31:
 156              	.LBB35:
 157              	.LBB30:
 158              		.loc 1 345 0
 159 0004 0423     		movs	r3, #4
 160 0006 1360     		str	r3, [r2, #0]
 161              	.LVL9:
 162              	.LBE30:
 163              	.LBE35:
 164              	.LBB36:
 165              	.LBB33:
 209:.\Generated_Source\PSoC5/isr_BUTTON.c ****     ramVectorTable[CYINT_IRQ_BASE + (uint32)isr_BUTTON__INTC_NUMBER] = address;
 166              		.loc 1 209 0
 167 0008 0649     		ldr	r1, .L11+8
 207:.\Generated_Source\PSoC5/isr_BUTTON.c ****     ramVectorTable = (cyisraddress *) *CYINT_VECT_TABLE;
 168              		.loc 1 207 0
 169 000a 0268     		ldr	r2, [r0, #0]
 170              	.LVL10:
 171              	.LBE33:
 172              	.LBE36:
 173              	.LBB37:
 174              	.LBB38:
 257:.\Generated_Source\PSoC5/isr_BUTTON.c ****     *isr_BUTTON_INTC_PRIOR = priority << 5;
 175              		.loc 1 257 0
 176 000c E020     		movs	r0, #224
 177              	.LBE38:
 178              	.LBE37:
 179              	.LBB41:
 180              	.LBB34:
 209:.\Generated_Source\PSoC5/isr_BUTTON.c ****     ramVectorTable[CYINT_IRQ_BASE + (uint32)isr_BUTTON__INTC_NUMBER] = address;
 181              		.loc 1 209 0
 182 000e 9164     		str	r1, [r2, #72]
 183              	.LVL11:
 184              	.LBE34:
 185              	.LBE41:
 186              	.LBB42:
 187              	.LBB39:
 257:.\Generated_Source\PSoC5/isr_BUTTON.c ****     *isr_BUTTON_INTC_PRIOR = priority << 5;
 188              		.loc 1 257 0
 189 0010 054A     		ldr	r2, .L11+12
 190              	.LVL12:
 191              	.LBE39:
 192              	.LBE42:
 193              	.LBB43:
 194              	.LBB44:
 303:.\Generated_Source\PSoC5/isr_BUTTON.c ****     *isr_BUTTON_INTC_SET_EN = isr_BUTTON__INTC_MASK;
 195              		.loc 1 303 0
 196 0012 0649     		ldr	r1, .L11+16
 197              	.LBE44:
 198              	.LBE43:
 199              	.LBB46:
 200              	.LBB40:
 257:.\Generated_Source\PSoC5/isr_BUTTON.c ****     *isr_BUTTON_INTC_PRIOR = priority << 5;
 201              		.loc 1 257 0
 202 0014 1070     		strb	r0, [r2, #0]
ARM GAS  C:\Users\Graziano\AppData\Local\Temp\ccb19fkF.s 			page 11


 203              	.LBE40:
 204              	.LBE46:
 205              	.LBB47:
 206              	.LBB45:
 303:.\Generated_Source\PSoC5/isr_BUTTON.c ****     *isr_BUTTON_INTC_SET_EN = isr_BUTTON__INTC_MASK;
 207              		.loc 1 303 0
 208 0016 0B60     		str	r3, [r1, #0]
 209 0018 7047     		bx	lr
 210              	.L12:
 211 001a 00BF     		.align	2
 212              	.L11:
 213 001c 80E100E0 		.word	-536813184
 214 0020 08ED00E0 		.word	-536810232
 215 0024 00000000 		.word	isr_BUTTON_Interrupt
 216 0028 02E400E0 		.word	-536812542
 217 002c 00E100E0 		.word	-536813312
 218              	.LBE45:
 219              	.LBE47:
 220              		.cfi_endproc
 221              	.LFE56:
 222              		.size	isr_BUTTON_Start, .-isr_BUTTON_Start
 223              		.section	.text.isr_BUTTON_StartEx,"ax",%progbits
 224              		.align	1
 225              		.global	isr_BUTTON_StartEx
 226              		.thumb
 227              		.thumb_func
 228              		.type	isr_BUTTON_StartEx, %function
 229              	isr_BUTTON_StartEx:
 230              	.LFB57:
 101:.\Generated_Source\PSoC5/isr_BUTTON.c **** {
 231              		.loc 1 101 0
 232              		.cfi_startproc
 233              		@ args = 0, pretend = 0, frame = 0
 234              		@ frame_needed = 0, uses_anonymous_args = 0
 235              		@ link register save eliminated.
 236              	.LVL13:
 237              	.LBB48:
 238              	.LBB49:
 239              		.loc 1 345 0
 240 0000 054A     		ldr	r2, .L14
 241              	.LBE49:
 242              	.LBE48:
 243              	.LBB51:
 244              	.LBB52:
 207:.\Generated_Source\PSoC5/isr_BUTTON.c ****     ramVectorTable = (cyisraddress *) *CYINT_VECT_TABLE;
 245              		.loc 1 207 0
 246 0002 0649     		ldr	r1, .L14+4
 247              	.LBE52:
 248              	.LBE51:
 249              	.LBB55:
 250              	.LBB50:
 251              		.loc 1 345 0
 252 0004 0423     		movs	r3, #4
 253 0006 1360     		str	r3, [r2, #0]
 254              	.LVL14:
 255              	.LBE50:
 256              	.LBE55:
ARM GAS  C:\Users\Graziano\AppData\Local\Temp\ccb19fkF.s 			page 12


 257              	.LBB56:
 258              	.LBB53:
 207:.\Generated_Source\PSoC5/isr_BUTTON.c ****     ramVectorTable = (cyisraddress *) *CYINT_VECT_TABLE;
 259              		.loc 1 207 0
 260 0008 0A68     		ldr	r2, [r1, #0]
 261              	.LVL15:
 262              	.LBE53:
 263              	.LBE56:
 264              	.LBB57:
 265              	.LBB58:
 257:.\Generated_Source\PSoC5/isr_BUTTON.c ****     *isr_BUTTON_INTC_PRIOR = priority << 5;
 266              		.loc 1 257 0
 267 000a 0549     		ldr	r1, .L14+8
 268              	.LBE58:
 269              	.LBE57:
 270              	.LBB60:
 271              	.LBB54:
 209:.\Generated_Source\PSoC5/isr_BUTTON.c ****     ramVectorTable[CYINT_IRQ_BASE + (uint32)isr_BUTTON__INTC_NUMBER] = address;
 272              		.loc 1 209 0
 273 000c 9064     		str	r0, [r2, #72]
 274              	.LVL16:
 275              	.LBE54:
 276              	.LBE60:
 277              	.LBB61:
 278              	.LBB62:
 303:.\Generated_Source\PSoC5/isr_BUTTON.c ****     *isr_BUTTON_INTC_SET_EN = isr_BUTTON__INTC_MASK;
 279              		.loc 1 303 0
 280 000e 054A     		ldr	r2, .L14+12
 281              	.LVL17:
 282              	.LBE62:
 283              	.LBE61:
 284              	.LBB64:
 285              	.LBB59:
 257:.\Generated_Source\PSoC5/isr_BUTTON.c ****     *isr_BUTTON_INTC_PRIOR = priority << 5;
 286              		.loc 1 257 0
 287 0010 E020     		movs	r0, #224
 288              	.LVL18:
 289 0012 0870     		strb	r0, [r1, #0]
 290              	.LBE59:
 291              	.LBE64:
 292              	.LBB65:
 293              	.LBB63:
 303:.\Generated_Source\PSoC5/isr_BUTTON.c ****     *isr_BUTTON_INTC_SET_EN = isr_BUTTON__INTC_MASK;
 294              		.loc 1 303 0
 295 0014 1360     		str	r3, [r2, #0]
 296 0016 7047     		bx	lr
 297              	.L15:
 298              		.align	2
 299              	.L14:
 300 0018 80E100E0 		.word	-536813184
 301 001c 08ED00E0 		.word	-536810232
 302 0020 02E400E0 		.word	-536812542
 303 0024 00E100E0 		.word	-536813312
 304              	.LBE63:
 305              	.LBE65:
 306              		.cfi_endproc
 307              	.LFE57:
ARM GAS  C:\Users\Graziano\AppData\Local\Temp\ccb19fkF.s 			page 13


 308              		.size	isr_BUTTON_StartEx, .-isr_BUTTON_StartEx
 309              		.section	.text.isr_BUTTON_Stop,"ax",%progbits
 310              		.align	1
 311              		.global	isr_BUTTON_Stop
 312              		.thumb
 313              		.thumb_func
 314              		.type	isr_BUTTON_Stop, %function
 315              	isr_BUTTON_Stop:
 316              	.LFB58:
 130:.\Generated_Source\PSoC5/isr_BUTTON.c **** {
 317              		.loc 1 130 0
 318              		.cfi_startproc
 319              		@ args = 0, pretend = 0, frame = 0
 320              		@ frame_needed = 0, uses_anonymous_args = 0
 321              		@ link register save eliminated.
 322              	.LBB66:
 323              	.LBB67:
 324              		.loc 1 345 0
 325 0000 034B     		ldr	r3, .L17
 326              	.LBE67:
 327              	.LBE66:
 328              	.LBB69:
 329              	.LBB70:
 207:.\Generated_Source\PSoC5/isr_BUTTON.c ****     ramVectorTable = (cyisraddress *) *CYINT_VECT_TABLE;
 330              		.loc 1 207 0
 331 0002 0448     		ldr	r0, .L17+4
 332              	.LBE70:
 333              	.LBE69:
 334              	.LBB72:
 335              	.LBB68:
 336              		.loc 1 345 0
 337 0004 0422     		movs	r2, #4
 338 0006 1A60     		str	r2, [r3, #0]
 339              	.LVL19:
 340              	.LBE68:
 341              	.LBE72:
 342              	.LBB73:
 343              	.LBB71:
 207:.\Generated_Source\PSoC5/isr_BUTTON.c ****     ramVectorTable = (cyisraddress *) *CYINT_VECT_TABLE;
 344              		.loc 1 207 0
 345 0008 0168     		ldr	r1, [r0, #0]
 346              	.LVL20:
 209:.\Generated_Source\PSoC5/isr_BUTTON.c ****     ramVectorTable[CYINT_IRQ_BASE + (uint32)isr_BUTTON__INTC_NUMBER] = address;
 347              		.loc 1 209 0
 348 000a 034A     		ldr	r2, .L17+8
 349 000c 8A64     		str	r2, [r1, #72]
 350 000e 7047     		bx	lr
 351              	.L18:
 352              		.align	2
 353              	.L17:
 354 0010 80E100E0 		.word	-536813184
 355 0014 08ED00E0 		.word	-536810232
 356 0018 00000000 		.word	IntDefaultHandler
 357              	.LBE71:
 358              	.LBE73:
 359              		.cfi_endproc
 360              	.LFE58:
ARM GAS  C:\Users\Graziano\AppData\Local\Temp\ccb19fkF.s 			page 14


 361              		.size	isr_BUTTON_Stop, .-isr_BUTTON_Stop
 362              		.section	.text.isr_BUTTON_SetVector,"ax",%progbits
 363              		.align	1
 364              		.global	isr_BUTTON_SetVector
 365              		.thumb
 366              		.thumb_func
 367              		.type	isr_BUTTON_SetVector, %function
 368              	isr_BUTTON_SetVector:
 369              	.LFB60:
 204:.\Generated_Source\PSoC5/isr_BUTTON.c **** {
 370              		.loc 1 204 0
 371              		.cfi_startproc
 372              		@ args = 0, pretend = 0, frame = 0
 373              		@ frame_needed = 0, uses_anonymous_args = 0
 374              		@ link register save eliminated.
 375              	.LVL21:
 207:.\Generated_Source\PSoC5/isr_BUTTON.c ****     ramVectorTable = (cyisraddress *) *CYINT_VECT_TABLE;
 376              		.loc 1 207 0
 377 0000 014B     		ldr	r3, .L20
 378 0002 1968     		ldr	r1, [r3, #0]
 379              	.LVL22:
 209:.\Generated_Source\PSoC5/isr_BUTTON.c ****     ramVectorTable[CYINT_IRQ_BASE + (uint32)isr_BUTTON__INTC_NUMBER] = address;
 380              		.loc 1 209 0
 381 0004 8864     		str	r0, [r1, #72]
 382 0006 7047     		bx	lr
 383              	.L21:
 384              		.align	2
 385              	.L20:
 386 0008 08ED00E0 		.word	-536810232
 387              		.cfi_endproc
 388              	.LFE60:
 389              		.size	isr_BUTTON_SetVector, .-isr_BUTTON_SetVector
 390              		.section	.text.isr_BUTTON_GetVector,"ax",%progbits
 391              		.align	1
 392              		.global	isr_BUTTON_GetVector
 393              		.thumb
 394              		.thumb_func
 395              		.type	isr_BUTTON_GetVector, %function
 396              	isr_BUTTON_GetVector:
 397              	.LFB61:
 228:.\Generated_Source\PSoC5/isr_BUTTON.c **** {
 398              		.loc 1 228 0
 399              		.cfi_startproc
 400              		@ args = 0, pretend = 0, frame = 0
 401              		@ frame_needed = 0, uses_anonymous_args = 0
 402              		@ link register save eliminated.
 403              	.LVL23:
 231:.\Generated_Source\PSoC5/isr_BUTTON.c ****     ramVectorTable = (cyisraddress *) *CYINT_VECT_TABLE;
 404              		.loc 1 231 0
 405 0000 014B     		ldr	r3, .L23
 406              	.LVL24:
 233:.\Generated_Source\PSoC5/isr_BUTTON.c ****     return ramVectorTable[CYINT_IRQ_BASE + (uint32)isr_BUTTON__INTC_NUMBER];
 407              		.loc 1 233 0
 408 0002 1868     		ldr	r0, [r3, #0]
 234:.\Generated_Source\PSoC5/isr_BUTTON.c **** }
 409              		.loc 1 234 0
 410 0004 806C     		ldr	r0, [r0, #72]
ARM GAS  C:\Users\Graziano\AppData\Local\Temp\ccb19fkF.s 			page 15


 411 0006 7047     		bx	lr
 412              	.L24:
 413              		.align	2
 414              	.L23:
 415 0008 08ED00E0 		.word	-536810232
 416              		.cfi_endproc
 417              	.LFE61:
 418              		.size	isr_BUTTON_GetVector, .-isr_BUTTON_GetVector
 419              		.section	.text.isr_BUTTON_SetPriority,"ax",%progbits
 420              		.align	1
 421              		.global	isr_BUTTON_SetPriority
 422              		.thumb
 423              		.thumb_func
 424              		.type	isr_BUTTON_SetPriority, %function
 425              	isr_BUTTON_SetPriority:
 426              	.LFB62:
 256:.\Generated_Source\PSoC5/isr_BUTTON.c **** {
 427              		.loc 1 256 0
 428              		.cfi_startproc
 429              		@ args = 0, pretend = 0, frame = 0
 430              		@ frame_needed = 0, uses_anonymous_args = 0
 431              		@ link register save eliminated.
 432              	.LVL25:
 257:.\Generated_Source\PSoC5/isr_BUTTON.c ****     *isr_BUTTON_INTC_PRIOR = priority << 5;
 433              		.loc 1 257 0
 434 0000 4001     		lsls	r0, r0, #5
 435              	.LVL26:
 436 0002 024B     		ldr	r3, .L26
 437 0004 C1B2     		uxtb	r1, r0
 438 0006 1970     		strb	r1, [r3, #0]
 439 0008 7047     		bx	lr
 440              	.L27:
 441 000a 00BF     		.align	2
 442              	.L26:
 443 000c 02E400E0 		.word	-536812542
 444              		.cfi_endproc
 445              	.LFE62:
 446              		.size	isr_BUTTON_SetPriority, .-isr_BUTTON_SetPriority
 447              		.section	.text.isr_BUTTON_GetPriority,"ax",%progbits
 448              		.align	1
 449              		.global	isr_BUTTON_GetPriority
 450              		.thumb
 451              		.thumb_func
 452              		.type	isr_BUTTON_GetPriority, %function
 453              	isr_BUTTON_GetPriority:
 454              	.LFB63:
 276:.\Generated_Source\PSoC5/isr_BUTTON.c **** {
 455              		.loc 1 276 0
 456              		.cfi_startproc
 457              		@ args = 0, pretend = 0, frame = 0
 458              		@ frame_needed = 0, uses_anonymous_args = 0
 459              		@ link register save eliminated.
 280:.\Generated_Source\PSoC5/isr_BUTTON.c ****     priority = *isr_BUTTON_INTC_PRIOR >> 5;
 460              		.loc 1 280 0
 461 0000 014B     		ldr	r3, .L29
 462 0002 1878     		ldrb	r0, [r3, #0]	@ zero_extendqisi2
 463              	.LVL27:
ARM GAS  C:\Users\Graziano\AppData\Local\Temp\ccb19fkF.s 			page 16


 283:.\Generated_Source\PSoC5/isr_BUTTON.c **** }
 464              		.loc 1 283 0
 465 0004 4009     		lsrs	r0, r0, #5
 466              	.LVL28:
 467 0006 7047     		bx	lr
 468              	.L30:
 469              		.align	2
 470              	.L29:
 471 0008 02E400E0 		.word	-536812542
 472              		.cfi_endproc
 473              	.LFE63:
 474              		.size	isr_BUTTON_GetPriority, .-isr_BUTTON_GetPriority
 475              		.section	.text.isr_BUTTON_Enable,"ax",%progbits
 476              		.align	1
 477              		.global	isr_BUTTON_Enable
 478              		.thumb
 479              		.thumb_func
 480              		.type	isr_BUTTON_Enable, %function
 481              	isr_BUTTON_Enable:
 482              	.LFB64:
 301:.\Generated_Source\PSoC5/isr_BUTTON.c **** {
 483              		.loc 1 301 0
 484              		.cfi_startproc
 485              		@ args = 0, pretend = 0, frame = 0
 486              		@ frame_needed = 0, uses_anonymous_args = 0
 487              		@ link register save eliminated.
 303:.\Generated_Source\PSoC5/isr_BUTTON.c ****     *isr_BUTTON_INTC_SET_EN = isr_BUTTON__INTC_MASK;
 488              		.loc 1 303 0
 489 0000 014B     		ldr	r3, .L32
 490 0002 0422     		movs	r2, #4
 491 0004 1A60     		str	r2, [r3, #0]
 492 0006 7047     		bx	lr
 493              	.L33:
 494              		.align	2
 495              	.L32:
 496 0008 00E100E0 		.word	-536813312
 497              		.cfi_endproc
 498              	.LFE64:
 499              		.size	isr_BUTTON_Enable, .-isr_BUTTON_Enable
 500              		.section	.text.isr_BUTTON_GetState,"ax",%progbits
 501              		.align	1
 502              		.global	isr_BUTTON_GetState
 503              		.thumb
 504              		.thumb_func
 505              		.type	isr_BUTTON_GetState, %function
 506              	isr_BUTTON_GetState:
 507              	.LFB65:
 322:.\Generated_Source\PSoC5/isr_BUTTON.c **** {
 508              		.loc 1 322 0
 509              		.cfi_startproc
 510              		@ args = 0, pretend = 0, frame = 0
 511              		@ frame_needed = 0, uses_anonymous_args = 0
 512              		@ link register save eliminated.
 324:.\Generated_Source\PSoC5/isr_BUTTON.c ****     return ((*isr_BUTTON_INTC_SET_EN & (uint32)isr_BUTTON__INTC_MASK) != 0u) ? 1u:0u;
 513              		.loc 1 324 0
 514 0000 024B     		ldr	r3, .L35
 515 0002 1868     		ldr	r0, [r3, #0]
ARM GAS  C:\Users\Graziano\AppData\Local\Temp\ccb19fkF.s 			page 17


 325:.\Generated_Source\PSoC5/isr_BUTTON.c **** }
 516              		.loc 1 325 0
 517 0004 C0F38000 		ubfx	r0, r0, #2, #1
 518 0008 7047     		bx	lr
 519              	.L36:
 520 000a 00BF     		.align	2
 521              	.L35:
 522 000c 00E100E0 		.word	-536813312
 523              		.cfi_endproc
 524              	.LFE65:
 525              		.size	isr_BUTTON_GetState, .-isr_BUTTON_GetState
 526              		.section	.text.isr_BUTTON_Disable,"ax",%progbits
 527              		.align	1
 528              		.global	isr_BUTTON_Disable
 529              		.thumb
 530              		.thumb_func
 531              		.type	isr_BUTTON_Disable, %function
 532              	isr_BUTTON_Disable:
 533              	.LFB66:
 343:.\Generated_Source\PSoC5/isr_BUTTON.c **** {
 534              		.loc 1 343 0
 535              		.cfi_startproc
 536              		@ args = 0, pretend = 0, frame = 0
 537              		@ frame_needed = 0, uses_anonymous_args = 0
 538              		@ link register save eliminated.
 539              		.loc 1 345 0
 540 0000 014B     		ldr	r3, .L38
 541 0002 0422     		movs	r2, #4
 542 0004 1A60     		str	r2, [r3, #0]
 543 0006 7047     		bx	lr
 544              	.L39:
 545              		.align	2
 546              	.L38:
 547 0008 80E100E0 		.word	-536813184
 548              		.cfi_endproc
 549              	.LFE66:
 550              		.size	isr_BUTTON_Disable, .-isr_BUTTON_Disable
 551              		.section	.text.isr_BUTTON_SetPending,"ax",%progbits
 552              		.align	1
 553              		.global	isr_BUTTON_SetPending
 554              		.thumb
 555              		.thumb_func
 556              		.type	isr_BUTTON_SetPending, %function
 557              	isr_BUTTON_SetPending:
 558              	.LFB67:
 346:.\Generated_Source\PSoC5/isr_BUTTON.c **** }
 347:.\Generated_Source\PSoC5/isr_BUTTON.c **** 
 348:.\Generated_Source\PSoC5/isr_BUTTON.c **** 
 349:.\Generated_Source\PSoC5/isr_BUTTON.c **** /*******************************************************************************
 350:.\Generated_Source\PSoC5/isr_BUTTON.c **** * Function Name: isr_BUTTON_SetPending
 351:.\Generated_Source\PSoC5/isr_BUTTON.c **** ********************************************************************************
 352:.\Generated_Source\PSoC5/isr_BUTTON.c **** *
 353:.\Generated_Source\PSoC5/isr_BUTTON.c **** * Summary:
 354:.\Generated_Source\PSoC5/isr_BUTTON.c **** *   Causes the Interrupt to enter the pending state, a software method of
 355:.\Generated_Source\PSoC5/isr_BUTTON.c **** *   generating the interrupt.
 356:.\Generated_Source\PSoC5/isr_BUTTON.c **** *
 357:.\Generated_Source\PSoC5/isr_BUTTON.c **** * Parameters:
ARM GAS  C:\Users\Graziano\AppData\Local\Temp\ccb19fkF.s 			page 18


 358:.\Generated_Source\PSoC5/isr_BUTTON.c **** *   None
 359:.\Generated_Source\PSoC5/isr_BUTTON.c **** *
 360:.\Generated_Source\PSoC5/isr_BUTTON.c **** * Return:
 361:.\Generated_Source\PSoC5/isr_BUTTON.c **** *   None
 362:.\Generated_Source\PSoC5/isr_BUTTON.c **** *
 363:.\Generated_Source\PSoC5/isr_BUTTON.c **** *******************************************************************************/
 364:.\Generated_Source\PSoC5/isr_BUTTON.c **** void isr_BUTTON_SetPending(void)
 365:.\Generated_Source\PSoC5/isr_BUTTON.c **** {
 559              		.loc 1 365 0
 560              		.cfi_startproc
 561              		@ args = 0, pretend = 0, frame = 0
 562              		@ frame_needed = 0, uses_anonymous_args = 0
 563              		@ link register save eliminated.
 366:.\Generated_Source\PSoC5/isr_BUTTON.c ****     *isr_BUTTON_INTC_SET_PD = isr_BUTTON__INTC_MASK;
 564              		.loc 1 366 0
 565 0000 014B     		ldr	r3, .L41
 566 0002 0422     		movs	r2, #4
 567 0004 1A60     		str	r2, [r3, #0]
 568 0006 7047     		bx	lr
 569              	.L42:
 570              		.align	2
 571              	.L41:
 572 0008 00E200E0 		.word	-536813056
 573              		.cfi_endproc
 574              	.LFE67:
 575              		.size	isr_BUTTON_SetPending, .-isr_BUTTON_SetPending
 576              		.section	.text.isr_BUTTON_ClearPending,"ax",%progbits
 577              		.align	1
 578              		.global	isr_BUTTON_ClearPending
 579              		.thumb
 580              		.thumb_func
 581              		.type	isr_BUTTON_ClearPending, %function
 582              	isr_BUTTON_ClearPending:
 583              	.LFB68:
 367:.\Generated_Source\PSoC5/isr_BUTTON.c **** }
 368:.\Generated_Source\PSoC5/isr_BUTTON.c **** 
 369:.\Generated_Source\PSoC5/isr_BUTTON.c **** 
 370:.\Generated_Source\PSoC5/isr_BUTTON.c **** /*******************************************************************************
 371:.\Generated_Source\PSoC5/isr_BUTTON.c **** * Function Name: isr_BUTTON_ClearPending
 372:.\Generated_Source\PSoC5/isr_BUTTON.c **** ********************************************************************************
 373:.\Generated_Source\PSoC5/isr_BUTTON.c **** *
 374:.\Generated_Source\PSoC5/isr_BUTTON.c **** * Summary:
 375:.\Generated_Source\PSoC5/isr_BUTTON.c **** *   Clears a pending interrupt.
 376:.\Generated_Source\PSoC5/isr_BUTTON.c **** *
 377:.\Generated_Source\PSoC5/isr_BUTTON.c **** * Parameters:
 378:.\Generated_Source\PSoC5/isr_BUTTON.c **** *   None
 379:.\Generated_Source\PSoC5/isr_BUTTON.c **** *
 380:.\Generated_Source\PSoC5/isr_BUTTON.c **** * Return:
 381:.\Generated_Source\PSoC5/isr_BUTTON.c **** *   None
 382:.\Generated_Source\PSoC5/isr_BUTTON.c **** *
 383:.\Generated_Source\PSoC5/isr_BUTTON.c **** *******************************************************************************/
 384:.\Generated_Source\PSoC5/isr_BUTTON.c **** void isr_BUTTON_ClearPending(void)
 385:.\Generated_Source\PSoC5/isr_BUTTON.c **** {
 584              		.loc 1 385 0
 585              		.cfi_startproc
 586              		@ args = 0, pretend = 0, frame = 0
 587              		@ frame_needed = 0, uses_anonymous_args = 0
ARM GAS  C:\Users\Graziano\AppData\Local\Temp\ccb19fkF.s 			page 19


 588              		@ link register save eliminated.
 386:.\Generated_Source\PSoC5/isr_BUTTON.c ****     *isr_BUTTON_INTC_CLR_PD = isr_BUTTON__INTC_MASK;
 589              		.loc 1 386 0
 590 0000 014B     		ldr	r3, .L44
 591 0002 0422     		movs	r2, #4
 592 0004 1A60     		str	r2, [r3, #0]
 593 0006 7047     		bx	lr
 594              	.L45:
 595              		.align	2
 596              	.L44:
 597 0008 80E200E0 		.word	-536812928
 598              		.cfi_endproc
 599              	.LFE68:
 600              		.size	isr_BUTTON_ClearPending, .-isr_BUTTON_ClearPending
 601              		.comm	idx,1,1
 602              		.comm	gobee_vparam,0,1
 603              		.text
 604              	.Letext0:
 605              		.file 2 "c:\\program files (x86)\\cypress\\psoc creator\\3.0\\psoc creator\\import\\gnu_cs\\arm\\4
 606              		.file 3 "./Generated_Source/PSoC5/cytypes.h"
 607              		.file 4 "./gobee.h"
 608              		.file 5 "./Generated_Source/PSoC5/core_cm3.h"
 609              		.file 6 "./Generated_Source/PSoC5/Control_Reg_BUZ.h"
 610              		.file 7 "./Generated_Source/PSoC5/CyLib.h"
 611              		.file 8 "./motor_CTRL.h"