ARM GAS  C:\Users\Graziano\AppData\Local\Temp\cckdhHJd.s 			page 1


   1              		.syntax unified
   2              		.cpu cortex-m3
   3              		.fpu softvfp
   4              		.eabi_attribute 20, 1
   5              		.eabi_attribute 21, 1
   6              		.eabi_attribute 23, 3
   7              		.eabi_attribute 24, 1
   8              		.eabi_attribute 25, 1
   9              		.eabi_attribute 26, 1
  10              		.eabi_attribute 30, 4
  11              		.eabi_attribute 34, 1
  12              		.eabi_attribute 18, 4
  13              		.thumb
  14              		.file	"ITG-3701.c"
  15              		.text
  16              	.Ltext0:
  17              		.cfi_sections	.debug_frame
  18              		.section	.text.ITG3701_ReadByte,"ax",%progbits
  19              		.align	1
  20              		.global	ITG3701_ReadByte
  21              		.thumb
  22              		.thumb_func
  23              		.type	ITG3701_ReadByte, %function
  24              	ITG3701_ReadByte:
  25              	.LFB56:
  26              		.file 1 ".\\ITG-3701.c"
   1:.\ITG-3701.c  **** /* ========================================
   2:.\ITG-3701.c  ****  *
   3:.\ITG-3701.c  ****  * Copyright YOUR COMPANY, THE YEAR
   4:.\ITG-3701.c  ****  * All Rights Reserved
   5:.\ITG-3701.c  ****  * UNPUBLISHED, LICENSED SOFTWARE.
   6:.\ITG-3701.c  ****  *
   7:.\ITG-3701.c  ****  * CONFIDENTIAL AND PROPRIETARY INFORMATION
   8:.\ITG-3701.c  ****  * WHICH IS THE PROPERTY OF your company.
   9:.\ITG-3701.c  ****  *
  10:.\ITG-3701.c  ****  * ========================================
  11:.\ITG-3701.c  **** */
  12:.\ITG-3701.c  **** 
  13:.\ITG-3701.c  **** /* PSOC Include Files */
  14:.\ITG-3701.c  **** #include <device.h>
  15:.\ITG-3701.c  **** #include <math.h>
  16:.\ITG-3701.c  **** #include <stdio.h>
  17:.\ITG-3701.c  **** 
  18:.\ITG-3701.c  **** /* This PRJ Include Files */
  19:.\ITG-3701.c  **** #include <ITG-3701.h>
  20:.\ITG-3701.c  **** 
  21:.\ITG-3701.c  **** // Specify Gyro Sensor Parameters
  22:.\ITG-3701.c  **** uint8 Gscale = GFS_4000DPS; 	// gyro full scale
  23:.\ITG-3701.c  **** uint8 Godr   = GODR_190Hz;   	// gyro data sample rate
  24:.\ITG-3701.c  **** uint8 Gbw    = GBW_highest;     // gyro data bandwidth
  25:.\ITG-3701.c  **** float gRes;      				// scale resolutions per LSB for the sensors
  26:.\ITG-3701.c  **** 
  27:.\ITG-3701.c  **** int16 gyroCount[3];  			// Stores the 16-bit signed gyro output
  28:.\ITG-3701.c  **** float gx, gy, gz; 				// variables to hold latest sensor data values 
  29:.\ITG-3701.c  **** float gyroBias[3] = {0, 0, 0}; 	// Bias corrections for gyro, accelerometer, and magnetometer
  30:.\ITG-3701.c  **** float temperature;          	// Stores the ITG3701yro internal chip temperature in degrees Celsius
  31:.\ITG-3701.c  **** 
ARM GAS  C:\Users\Graziano\AppData\Local\Temp\cckdhHJd.s 			page 2


  32:.\ITG-3701.c  **** uint8 dummy;
  33:.\ITG-3701.c  **** 
  34:.\ITG-3701.c  **** uint8 ITG3701_ReadByte(uint8 slaveAddress, uint8 registerAddress)
  35:.\ITG-3701.c  **** {
  27              		.loc 1 35 0
  28              		.cfi_startproc
  29              		@ args = 0, pretend = 0, frame = 0
  30              		@ frame_needed = 0, uses_anonymous_args = 0
  31              		@ link register save eliminated.
  32              	.LVL0:
  36:.\ITG-3701.c  **** 	uint8 belbyte;
  37:.\ITG-3701.c  **** 	uint8 error_status __attribute__ ((unused));
  38:.\ITG-3701.c  **** 	
  39:.\ITG-3701.c  **** #if ITG_3701_ENABLED	
  40:.\ITG-3701.c  **** 	error_status = I2C_ITG3701_MasterSendStart(slaveAddress, I2C_ITG3701_WRITE_XFER_MODE);
  41:.\ITG-3701.c  **** 	
  42:.\ITG-3701.c  **** //	if (error_status == I2C_ITG3701_MSTR_NO_ERROR)
  43:.\ITG-3701.c  **** //	{
  44:.\ITG-3701.c  **** 		//ACK from Slave?
  45:.\ITG-3701.c  **** 		//CyDelay(1);
  46:.\ITG-3701.c  **** 		I2C_ITG3701_MasterWriteByte(registerAddress);
  47:.\ITG-3701.c  **** 		//ACK from Slave?
  48:.\ITG-3701.c  **** 		//CyDelay(1);	
  49:.\ITG-3701.c  **** 		I2C_ITG3701_MasterSendRestart(slaveAddress, I2C_ITG3701_READ_XFER_MODE);
  50:.\ITG-3701.c  **** 		//ACK from Slave?
  51:.\ITG-3701.c  **** 		//CyDelay(1);	
  52:.\ITG-3701.c  **** 		belbyte = I2C_ITG3701_MasterReadByte(I2C_ITG3701_NAK_DATA);	
  53:.\ITG-3701.c  **** 		//CyDelay(1);	
  54:.\ITG-3701.c  **** 		I2C_ITG3701_MasterSendStop();
  55:.\ITG-3701.c  **** #endif		
  56:.\ITG-3701.c  **** 		return belbyte;
  57:.\ITG-3701.c  **** //	}
  58:.\ITG-3701.c  **** //	else
  59:.\ITG-3701.c  **** //	{
  60:.\ITG-3701.c  **** //		return error_status;
  61:.\ITG-3701.c  **** //	}
  62:.\ITG-3701.c  **** }
  33              		.loc 1 62 0
  34 0000 0020     		movs	r0, #0
  35              	.LVL1:
  36 0002 7047     		bx	lr
  37              		.cfi_endproc
  38              	.LFE56:
  39              		.size	ITG3701_ReadByte, .-ITG3701_ReadByte
  40              		.section	.text.ITG3701_ReadBytes,"ax",%progbits
  41              		.align	1
  42              		.global	ITG3701_ReadBytes
  43              		.thumb
  44              		.thumb_func
  45              		.type	ITG3701_ReadBytes, %function
  46              	ITG3701_ReadBytes:
  47              	.LFB57:
  63:.\ITG-3701.c  **** 
  64:.\ITG-3701.c  **** void ITG3701_ReadBytes(uint8 slaveAddress, uint8 registerAddress, uint8 count, uint8 * dest)
  65:.\ITG-3701.c  **** {  
  48              		.loc 1 65 0
  49              		.cfi_startproc
ARM GAS  C:\Users\Graziano\AppData\Local\Temp\cckdhHJd.s 			page 3


  50              		@ args = 0, pretend = 0, frame = 0
  51              		@ frame_needed = 0, uses_anonymous_args = 0
  52              		@ link register save eliminated.
  53              	.LVL2:
  54 0000 7047     		bx	lr
  55              		.cfi_endproc
  56              	.LFE57:
  57              		.size	ITG3701_ReadBytes, .-ITG3701_ReadBytes
  58              		.section	.text.ITG3701_WriteByte,"ax",%progbits
  59              		.align	1
  60              		.global	ITG3701_WriteByte
  61              		.thumb
  62              		.thumb_func
  63              		.type	ITG3701_WriteByte, %function
  64              	ITG3701_WriteByte:
  65              	.LFB58:
  66:.\ITG-3701.c  **** //	Wire.beginTransmission(address);   // Initialize the Tx buffer
  67:.\ITG-3701.c  **** //	Wire.write(0x80 | subAddress);     // Put slave register address in Tx buffer, include 0x80 for 
  68:.\ITG-3701.c  **** //	Wire.endTransmission(I2C_NOSTOP);  // Send the Tx buffer, but send a restart to keep connection 
  69:.\ITG-3701.c  **** ////	Wire.endTransmission(false);       // Send the Tx buffer, but send a restart to keep connectio
  70:.\ITG-3701.c  **** //	uint8_t i = 0;
  71:.\ITG-3701.c  **** ////        Wire.requestFrom(address, count);  // Read bytes from slave register address 
  72:.\ITG-3701.c  **** //        Wire.requestFrom(address, (size_t) count);  // Read bytes from slave register address 
  73:.\ITG-3701.c  **** //	while (Wire.available()) {
  74:.\ITG-3701.c  **** //        dest[i++] = Wire.read(); }         // Put read results in the Rx buffer
  75:.\ITG-3701.c  **** 
  76:.\ITG-3701.c  **** #if ITG_3701_ENABLED	
  77:.\ITG-3701.c  **** 	uint8 i = 0;	
  78:.\ITG-3701.c  **** 	
  79:.\ITG-3701.c  **** 	I2C_ITG3701_MasterSendStart(slaveAddress, I2C_ITG3701_WRITE_XFER_MODE);
  80:.\ITG-3701.c  **** 	//ACK from Slave?
  81:.\ITG-3701.c  **** 	I2C_ITG3701_MasterWriteByte(registerAddress);
  82:.\ITG-3701.c  **** 	//ACK from Slave?
  83:.\ITG-3701.c  **** 	I2C_ITG3701_MasterSendRestart(slaveAddress, I2C_ITG3701_READ_XFER_MODE);
  84:.\ITG-3701.c  **** 	//ACK from Slave?	
  85:.\ITG-3701.c  **** 	while(count>2)
  86:.\ITG-3701.c  **** 	{
  87:.\ITG-3701.c  **** 		dest[i++] = I2C_ITG3701_MasterReadByte(I2C_ITG3701_ACK_DATA); 	//after reading from the slave, th
  88:.\ITG-3701.c  **** 		count--;	
  89:.\ITG-3701.c  **** 	}
  90:.\ITG-3701.c  **** 	dest[i] = I2C_ITG3701_MasterReadByte(I2C_ITG3701_NAK_DATA);			//after last read, the master sends 
  91:.\ITG-3701.c  **** 	I2C_ITG3701_MasterSendStop();
  92:.\ITG-3701.c  **** #endif	
  93:.\ITG-3701.c  **** }
  94:.\ITG-3701.c  **** 
  95:.\ITG-3701.c  **** 
  96:.\ITG-3701.c  **** void ITG3701_WriteByte(uint8 address, uint8 registerAddress, uint8 data_byte)
  97:.\ITG-3701.c  **** {	
  66              		.loc 1 97 0
  67              		.cfi_startproc
  68              		@ args = 0, pretend = 0, frame = 0
  69              		@ frame_needed = 0, uses_anonymous_args = 0
  70              		@ link register save eliminated.
  71              	.LVL3:
  72 0000 7047     		bx	lr
  73              		.cfi_endproc
  74              	.LFE58:
ARM GAS  C:\Users\Graziano\AppData\Local\Temp\cckdhHJd.s 			page 4


  75              		.size	ITG3701_WriteByte, .-ITG3701_WriteByte
  76              		.section	.text.getGres,"ax",%progbits
  77              		.align	1
  78              		.global	getGres
  79              		.thumb
  80              		.thumb_func
  81              		.type	getGres, %function
  82              	getGres:
  83              	.LFB59:
  98:.\ITG-3701.c  **** //	Wire.beginTransmission(address);  // Initialize the Tx buffer
  99:.\ITG-3701.c  **** //	Wire.write(subAddress);           // Put slave register address in Tx buffer
 100:.\ITG-3701.c  **** //	Wire.write(data);                 // Put data in Tx buffer
 101:.\ITG-3701.c  **** //	Wire.endTransmission();           // Send the Tx buffer
 102:.\ITG-3701.c  **** 
 103:.\ITG-3701.c  **** #if ITG_3701_ENABLED	
 104:.\ITG-3701.c  **** 	I2C_ITG3701_MasterSendStart(address, I2C_ITG3701_WRITE_XFER_MODE);
 105:.\ITG-3701.c  **** 	//ACK from Slave?
 106:.\ITG-3701.c  **** 	I2C_ITG3701_MasterWriteByte(registerAddress);
 107:.\ITG-3701.c  **** 	//ACK from Slave?
 108:.\ITG-3701.c  **** 	I2C_ITG3701_MasterWriteByte(data_byte);
 109:.\ITG-3701.c  **** 	//ACK from Slave?	
 110:.\ITG-3701.c  **** 	I2C_ITG3701_MasterSendStop();	
 111:.\ITG-3701.c  **** #endif	
 112:.\ITG-3701.c  **** }
 113:.\ITG-3701.c  **** 
 114:.\ITG-3701.c  **** 
 115:.\ITG-3701.c  **** //======================================================
 116:.\ITG-3701.c  **** //====== Set of useful function to access gyroscope data
 117:.\ITG-3701.c  **** //======================================================
 118:.\ITG-3701.c  **** void getGres()
 119:.\ITG-3701.c  **** {
  84              		.loc 1 119 0
  85              		.cfi_startproc
  86              		@ args = 0, pretend = 0, frame = 0
  87              		@ frame_needed = 0, uses_anonymous_args = 0
  88              		@ link register save eliminated.
 120:.\ITG-3701.c  **** 	switch (Gscale)
  89              		.loc 1 120 0
  90 0000 084B     		ldr	r3, .L13
  91 0002 1878     		ldrb	r0, [r3, #0]	@ zero_extendqisi2
  92 0004 0328     		cmp	r0, #3
  93 0006 0CD8     		bhi	.L4
  94 0008 DFE800F0 		tbb	[pc, r0]
  95              	.L10:
  96 000c 02       		.byte	(.L6-.L10)/2
  97 000d 04       		.byte	(.L7-.L10)/2
  98 000e 06       		.byte	(.L8-.L10)/2
  99 000f 08       		.byte	(.L9-.L10)/2
 100              		.align	1
 101              	.L6:
 121:.\ITG-3701.c  **** 	{
 122:.\ITG-3701.c  **** 	 	// Possible gyro scales (and their register bit settings) are:
 123:.\ITG-3701.c  **** 		// 500 DPS (00), 1000 DPS (01), 2000 DPS (10) and 4000 DPS  (11). 
 124:.\ITG-3701.c  **** 	    case GFS_500DPS:
 125:.\ITG-3701.c  **** 	          gRes = 500.0/32768.0;
 102              		.loc 1 125 0
 103 0010 054A     		ldr	r2, .L13+4
ARM GAS  C:\Users\Graziano\AppData\Local\Temp\cckdhHJd.s 			page 5


 104 0012 04E0     		b	.L11
 105              	.L7:
 126:.\ITG-3701.c  **** 	          break;
 127:.\ITG-3701.c  **** 	    case GFS_1000DPS:
 128:.\ITG-3701.c  **** 	          gRes = 1000.0/32768.0;
 106              		.loc 1 128 0
 107 0014 054A     		ldr	r2, .L13+8
 108 0016 02E0     		b	.L11
 109              	.L8:
 129:.\ITG-3701.c  **** 	          break;
 130:.\ITG-3701.c  **** 	    case GFS_2000DPS:
 131:.\ITG-3701.c  **** 	          gRes = 2000.0/32768.0;
 110              		.loc 1 131 0
 111 0018 054A     		ldr	r2, .L13+12
 112 001a 00E0     		b	.L11
 113              	.L9:
 132:.\ITG-3701.c  **** 	          break;
 133:.\ITG-3701.c  **** 	    case GFS_4000DPS:
 134:.\ITG-3701.c  **** 	          gRes = 4000.0/32768.0;
 114              		.loc 1 134 0
 115 001c 054A     		ldr	r2, .L13+16
 116              	.L11:
 117 001e 0649     		ldr	r1, .L13+20
 118 0020 0A60     		str	r2, [r1, #0]	@ float
 119              	.L4:
 120 0022 7047     		bx	lr
 121              	.L14:
 122              		.align	2
 123              	.L13:
 124 0024 00000000 		.word	.LANCHOR0
 125 0028 00007A3C 		.word	1014628352
 126 002c 0000FA3C 		.word	1023016960
 127 0030 00007A3D 		.word	1031405568
 128 0034 0000FA3D 		.word	1039794176
 129 0038 00000000 		.word	gRes
 130              		.cfi_endproc
 131              	.LFE59:
 132              		.size	getGres, .-getGres
 133              		.section	.text.readGyroData,"ax",%progbits
 134              		.align	1
 135              		.global	readGyroData
 136              		.thumb
 137              		.thumb_func
 138              		.type	readGyroData, %function
 139              	readGyroData:
 140              	.LFB60:
 135:.\ITG-3701.c  **** 	          break;
 136:.\ITG-3701.c  ****   	}
 137:.\ITG-3701.c  **** }
 138:.\ITG-3701.c  **** 
 139:.\ITG-3701.c  **** 
 140:.\ITG-3701.c  **** void readGyroData(int16_t * destination)
 141:.\ITG-3701.c  **** {
 141              		.loc 1 141 0
 142              		.cfi_startproc
 143              		@ args = 0, pretend = 0, frame = 8
 144              		@ frame_needed = 0, uses_anonymous_args = 0
ARM GAS  C:\Users\Graziano\AppData\Local\Temp\cckdhHJd.s 			page 6


 145              		@ link register save eliminated.
 146              	.LVL4:
 147 0000 82B0     		sub	sp, sp, #8
 148              	.LCFI0:
 149              		.cfi_def_cfa_offset 8
 150              	.LVL5:
 142:.\ITG-3701.c  ****   uint8_t rawData[6];  // x/y/z gyro register data stored here
 143:.\ITG-3701.c  ****   ITG3701_ReadBytes(ITG3701_ADDRESS, ITG3701_GYRO_XOUT_H, 6, &rawData[0]);  // Read the six raw dat
 144:.\ITG-3701.c  **** 																			//   into data array
 145:.\ITG-3701.c  ****   destination[0] = ((int16_t)rawData[0] << 8) | rawData[1] ;  				// Turn the MSB and LSB into a si
 151              		.loc 1 145 0
 152 0002 9DF80020 		ldrb	r2, [sp, #0]	@ zero_extendqisi2
 153 0006 9DF80130 		ldrb	r3, [sp, #1]	@ zero_extendqisi2
 154 000a 43EA0221 		orr	r1, r3, r2, lsl #8
 146:.\ITG-3701.c  ****   destination[1] = ((int16_t)rawData[2] << 8) | rawData[3] ;  
 155              		.loc 1 146 0
 156 000e 9DF80220 		ldrb	r2, [sp, #2]	@ zero_extendqisi2
 157 0012 9DF80330 		ldrb	r3, [sp, #3]	@ zero_extendqisi2
 145:.\ITG-3701.c  ****   destination[0] = ((int16_t)rawData[0] << 8) | rawData[1] ;  				// Turn the MSB and LSB into a si
 158              		.loc 1 145 0
 159 0016 0180     		strh	r1, [r0, #0]	@ movhi
 160              		.loc 1 146 0
 161 0018 43EA0221 		orr	r1, r3, r2, lsl #8
 147:.\ITG-3701.c  ****   destination[2] = ((int16_t)rawData[4] << 8) | rawData[5] ; 
 162              		.loc 1 147 0
 163 001c 9DF80420 		ldrb	r2, [sp, #4]	@ zero_extendqisi2
 164 0020 9DF80530 		ldrb	r3, [sp, #5]	@ zero_extendqisi2
 146:.\ITG-3701.c  ****   destination[1] = ((int16_t)rawData[2] << 8) | rawData[3] ;  
 165              		.loc 1 146 0
 166 0024 4180     		strh	r1, [r0, #2]	@ movhi
 167              		.loc 1 147 0
 168 0026 43EA0221 		orr	r1, r3, r2, lsl #8
 169 002a 8180     		strh	r1, [r0, #4]	@ movhi
 148:.\ITG-3701.c  **** }
 170              		.loc 1 148 0
 171 002c 02B0     		add	sp, sp, #8
 172 002e 7047     		bx	lr
 173              		.cfi_endproc
 174              	.LFE60:
 175              		.size	readGyroData, .-readGyroData
 176              		.section	.text.initITG3701,"ax",%progbits
 177              		.align	1
 178              		.global	initITG3701
 179              		.thumb
 180              		.thumb_func
 181              		.type	initITG3701, %function
 182              	initITG3701:
 183              	.LFB61:
 149:.\ITG-3701.c  **** 
 150:.\ITG-3701.c  **** void initITG3701(void)
 151:.\ITG-3701.c  **** {  
 184              		.loc 1 151 0
 185              		.cfi_startproc
 186              		@ args = 0, pretend = 0, frame = 0
 187              		@ frame_needed = 0, uses_anonymous_args = 0
 188              	.LVL6:
 189 0000 08B5     		push	{r3, lr}
ARM GAS  C:\Users\Graziano\AppData\Local\Temp\cckdhHJd.s 			page 7


 190              	.LCFI1:
 191              		.cfi_def_cfa_offset 8
 192              		.cfi_offset 3, -8
 193              		.cfi_offset 14, -4
 152:.\ITG-3701.c  ****  // wake up device
 153:.\ITG-3701.c  ****   ITG3701_WriteByte(ITG3701_ADDRESS, ITG3701_PWR_MGMT_1, 0x00); // Clear sleep mode bit (6), enable
 154:.\ITG-3701.c  ****   CyDelay(100); // Wait for all registers to reset 
 194              		.loc 1 154 0
 195 0002 6420     		movs	r0, #100
 196 0004 FFF7FEFF 		bl	CyDelay
 197              	.LVL7:
 155:.\ITG-3701.c  **** 
 156:.\ITG-3701.c  ****  // get stable time source
 157:.\ITG-3701.c  ****   ITG3701_WriteByte(ITG3701_ADDRESS, ITG3701_PWR_MGMT_1, 0x01);  // Auto select clock source to be 
 158:.\ITG-3701.c  ****   CyDelay(200); 
 198              		.loc 1 158 0
 199 0008 C820     		movs	r0, #200
 200 000a FFF7FEFF 		bl	CyDelay
 201              	.LVL8:
 159:.\ITG-3701.c  ****   
 160:.\ITG-3701.c  ****  // Configure Gyro and Thermometer
 161:.\ITG-3701.c  ****  // Disable FSYNC and set thermometer and gyro bandwidth to 41 and 42 Hz, respectively; 
 162:.\ITG-3701.c  ****  // minimum delay time for this setting is 5.9 ms, which means sensor fusion update rates cannot
 163:.\ITG-3701.c  ****  // be higher than 1 / 0.0059 = 170 Hz
 164:.\ITG-3701.c  ****  // DLPF_CFG = bits 2:0 = 011; this limits the sample rate to 1000 Hz for both
 165:.\ITG-3701.c  ****  // With the ITG3701, it is possible to get gyro sample rates of 32 kHz (!), 8 kHz, or 1 kHz
 166:.\ITG-3701.c  ****   ITG3701_WriteByte(ITG3701_ADDRESS, ITG3701_CONFIG, 0x03);  
 167:.\ITG-3701.c  **** 
 168:.\ITG-3701.c  ****  // Set sample rate = gyroscope output rate/(1 + SMPLRT_DIV)
 169:.\ITG-3701.c  ****   ITG3701_WriteByte(ITG3701_ADDRESS, ITG3701_SMPLRT_DIV, 0x04);  // Use a 200 Hz rate; a rate consi
 170:.\ITG-3701.c  ****                                     // determined inset in CONFIG above
 171:.\ITG-3701.c  ****  
 172:.\ITG-3701.c  ****  // Set gyroscope full scale range
 173:.\ITG-3701.c  ****  // Range selects FS_SEL and AFS_SEL are 0 - 3, so 2-bit values are left-shifted into positions 4:3
 174:.\ITG-3701.c  ****   uint8_t c = ITG3701_ReadByte(ITG3701_ADDRESS, ITG3701_GYRO_CONFIG);
 175:.\ITG-3701.c  **** //  writeRegister(GYRO_CONFIG, c & ~0xE0); // Clear self-test bits [7:5] 
 176:.\ITG-3701.c  ****   ITG3701_WriteByte(ITG3701_ADDRESS, ITG3701_GYRO_CONFIG, c & ~0x02); // Clear Fchoice bits [1:0] 
 177:.\ITG-3701.c  ****   ITG3701_WriteByte(ITG3701_ADDRESS, ITG3701_GYRO_CONFIG, c & ~0x18); // Clear AFS bits [4:3]
 178:.\ITG-3701.c  ****   ITG3701_WriteByte(ITG3701_ADDRESS, ITG3701_GYRO_CONFIG, c | Gscale << 3); // Set full scale range
 179:.\ITG-3701.c  ****  // writeRegister(GYRO_CONFIG, c | 0x00); // Set Fchoice for the gyro to 11 by writing its inverse 
 180:.\ITG-3701.c  **** 
 181:.\ITG-3701.c  ****  // Configure Interrupts and Bypass Enable
 182:.\ITG-3701.c  ****   // Set interrupt pin active high, push-pull, hold interrupt pin level HIGH until interrupt cleare
 183:.\ITG-3701.c  ****   // clear on read of INT_STATUS, and enable I2C_BYPASS_EN so additional chips 
 184:.\ITG-3701.c  ****   // can join the I2C bus and all can be controlled by the Arduino as master
 185:.\ITG-3701.c  ****    ITG3701_WriteByte(ITG3701_ADDRESS, ITG3701_INT_PIN_CFG, 0x20);    
 186:.\ITG-3701.c  ****    ITG3701_WriteByte(ITG3701_ADDRESS, ITG3701_INT_ENABLE, 0x01);  // Enable data ready (bit 0) inte
 187:.\ITG-3701.c  ****    CyDelay(100);
 202              		.loc 1 187 0
 203 000e 6420     		movs	r0, #100
 188:.\ITG-3701.c  **** }
 204              		.loc 1 188 0
 205 0010 BDE80840 		pop	{r3, lr}
 187:.\ITG-3701.c  ****    CyDelay(100);
 206              		.loc 1 187 0
 207 0014 FFF7FEBF 		b	CyDelay
 208              	.LVL9:
ARM GAS  C:\Users\Graziano\AppData\Local\Temp\cckdhHJd.s 			page 8


 209              		.cfi_endproc
 210              	.LFE61:
 211              		.size	initITG3701, .-initITG3701
 212              		.global	__aeabi_i2f
 213              		.global	__aeabi_fmul
 214              		.section	.text.gyrocalITG3701,"ax",%progbits
 215              		.align	1
 216              		.global	gyrocalITG3701
 217              		.thumb
 218              		.thumb_func
 219              		.type	gyrocalITG3701, %function
 220              	gyrocalITG3701:
 221              	.LFB62:
 189:.\ITG-3701.c  **** 
 190:.\ITG-3701.c  **** 
 191:.\ITG-3701.c  **** // Function which accumulates gyro data after device initialization. It calculates the average
 192:.\ITG-3701.c  **** // of the at-rest readings and then loads the resulting offsets into gyro bias registers.
 193:.\ITG-3701.c  **** void gyrocalITG3701(float * dest1)
 194:.\ITG-3701.c  **** {  
 222              		.loc 1 194 0
 223              		.cfi_startproc
 224              		@ args = 0, pretend = 0, frame = 0
 225              		@ frame_needed = 0, uses_anonymous_args = 0
 226              	.LVL10:
 227 0000 38B5     		push	{r3, r4, r5, lr}
 228              	.LCFI2:
 229              		.cfi_def_cfa_offset 16
 230              		.cfi_offset 3, -16
 231              		.cfi_offset 4, -12
 232              		.cfi_offset 5, -8
 233              		.cfi_offset 14, -4
 234              		.loc 1 194 0
 235 0002 0446     		mov	r4, r0
 195:.\ITG-3701.c  ****   uint8_t data[6]; // data array to hold gyro x, y, z, data
 196:.\ITG-3701.c  ****   uint16_t ii, packet_count;
 197:.\ITG-3701.c  ****   uint16_t fifo_count __attribute__ ((unused));
 198:.\ITG-3701.c  ****   int32_t gyro_bias[3]  = {0, 0, 0};
 199:.\ITG-3701.c  ****   
 200:.\ITG-3701.c  ****  // reset device
 201:.\ITG-3701.c  ****   ITG3701_WriteByte(ITG3701_ADDRESS, ITG3701_PWR_MGMT_1, 0x80); // Write a one to bit 7 reset bit; 
 202:.\ITG-3701.c  ****   CyDelay(100);
 236              		.loc 1 202 0
 237 0004 6420     		movs	r0, #100
 238              	.LVL11:
 239 0006 FFF7FEFF 		bl	CyDelay
 240              	.LVL12:
 203:.\ITG-3701.c  ****    
 204:.\ITG-3701.c  ****  // get stable time source; Auto select clock source to be PLL gyroscope reference if ready 
 205:.\ITG-3701.c  ****  // else use the internal oscillator, bits 2:0 = 001
 206:.\ITG-3701.c  ****   ITG3701_WriteByte(ITG3701_ADDRESS, ITG3701_PWR_MGMT_1, 0x01);  
 207:.\ITG-3701.c  ****   ITG3701_WriteByte(ITG3701_ADDRESS, ITG3701_PWR_MGMT_2, 0x00);
 208:.\ITG-3701.c  ****   CyDelay(200);                                    
 241              		.loc 1 208 0
 242 000a C820     		movs	r0, #200
 243 000c FFF7FEFF 		bl	CyDelay
 244              	.LVL13:
 209:.\ITG-3701.c  **** 
ARM GAS  C:\Users\Graziano\AppData\Local\Temp\cckdhHJd.s 			page 9


 210:.\ITG-3701.c  **** 	// Configure device for bias calculation
 211:.\ITG-3701.c  ****   ITG3701_WriteByte(ITG3701_ADDRESS, ITG3701_INT_ENABLE, 0x00);   // Disable all interrupts
 212:.\ITG-3701.c  ****   ITG3701_WriteByte(ITG3701_ADDRESS, ITG3701_FIFO_EN, 0x00);      // Disable FIFO
 213:.\ITG-3701.c  ****   ITG3701_WriteByte(ITG3701_ADDRESS, ITG3701_PWR_MGMT_1, 0x00);   // Turn on internal clock source
 214:.\ITG-3701.c  ****   ITG3701_WriteByte(ITG3701_ADDRESS, ITG3701_USER_CTRL, 0x00);    // Disable FIFO 
 215:.\ITG-3701.c  ****   ITG3701_WriteByte(ITG3701_ADDRESS, ITG3701_USER_CTRL, 0x04);    // Reset FIFO 
 216:.\ITG-3701.c  ****   CyDelay(15);
 245              		.loc 1 216 0
 246 0010 0F20     		movs	r0, #15
 247 0012 FFF7FEFF 		bl	CyDelay
 248              	.LVL14:
 217:.\ITG-3701.c  ****   
 218:.\ITG-3701.c  **** //	// Configure ITG3701 gyro for bias calculation
 219:.\ITG-3701.c  **** //  ITG3701_WriteByte(ITG3701_ADDRESS, ITG3701_CONFIG, 0x01);      // Set low-pass filter to 184 Hz
 220:.\ITG-3701.c  **** //  ITG3701_WriteByte(ITG3701_ADDRESS, ITG3701_SMPLRT_DIV, 0x00);  // Set sample rate to 1 kHz
 221:.\ITG-3701.c  **** //  ITG3701_WriteByte(ITG3701_ADDRESS, ITG3701_GYRO_CONFIG, 0x00); // Set gyro full-scale to 500 de
 222:.\ITG-3701.c  ****  
 223:.\ITG-3701.c  ****   // Configure FIFO to capture accelerometer and gyro data for bias calculation
 224:.\ITG-3701.c  ****   ITG3701_WriteByte(ITG3701_ADDRESS, ITG3701_USER_CTRL, 0x40);   // Enable FIFO  
 225:.\ITG-3701.c  ****   ITG3701_WriteByte(ITG3701_ADDRESS, ITG3701_FIFO_EN, 0x70);     // Enable gyro sensors for FIFO  (
 226:.\ITG-3701.c  ****   CyDelay(100); // accumulate 80 samples in 80 milliseconds = 480 bytes
 249              		.loc 1 226 0
 250 0016 6420     		movs	r0, #100
 251 0018 FFF7FEFF 		bl	CyDelay
 252              	.LVL15:
 253              	.LBB55:
 227:.\ITG-3701.c  **** 
 228:.\ITG-3701.c  ****   // At end of sample accumulation, turn off FIFO sensor read
 229:.\ITG-3701.c  ****   ITG3701_WriteByte(ITG3701_ADDRESS, ITG3701_FIFO_EN, 0x00);        // Disable gyro sensors for FIF
 230:.\ITG-3701.c  ****   ITG3701_ReadBytes(ITG3701_ADDRESS, ITG3701_FIFO_COUNTH, 2, &data[0]); // read FIFO sample count
 231:.\ITG-3701.c  ****   fifo_count = (uint16_t)((uint16_t)data[0] << 8) | data[1];
 232:.\ITG-3701.c  **** //  packet_count = fifo_count/6; // How many sets of full gyro data for averaging
 233:.\ITG-3701.c  ****   packet_count = 128; // How many sets of full gyro data for averaging
 234:.\ITG-3701.c  **** 
 235:.\ITG-3701.c  ****   for (ii = 0; ii < packet_count; ii++)
 236:.\ITG-3701.c  **** 	{
 237:.\ITG-3701.c  **** 	    int16_t gyro_temp[3] = {0, 0, 0};
 238:.\ITG-3701.c  **** 		//    readBytes(ITG3701_ADDRESS, ITG3701_FIFO_R_W, 6, &data[0]); // read data for averaging
 239:.\ITG-3701.c  **** 	    ITG3701_ReadBytes(ITG3701_ADDRESS, ITG3701_GYRO_XOUT_H, 6, &data[0]); // read data for averagi
 240:.\ITG-3701.c  **** 	    gyro_temp[0]  = (int16_t) (((int16_t)data[0] << 8) | data[1]) ;
 241:.\ITG-3701.c  **** 	    gyro_temp[1]  = (int16_t) (((int16_t)data[2] << 8) | data[3]) ;
 242:.\ITG-3701.c  **** 	    gyro_temp[2]  = (int16_t) (((int16_t)data[4] << 8) | data[5]) ;
 243:.\ITG-3701.c  **** 	    
 244:.\ITG-3701.c  **** 	    gyro_bias[0]  += (int32_t) gyro_temp[0];
 245:.\ITG-3701.c  **** 	    gyro_bias[1]  += (int32_t) gyro_temp[1];
 246:.\ITG-3701.c  **** 	    gyro_bias[2]  += (int32_t) gyro_temp[2];
 254              		.loc 1 246 0
 255 001c 8025     		movs	r5, #128
 256              	.LVL16:
 257              	.L18:
 258 001e 013D     		subs	r5, r5, #1
 247:.\ITG-3701.c  **** 	    CyDelay(5);
 259              		.loc 1 247 0 discriminator 2
 260 0020 0520     		movs	r0, #5
 261 0022 ADB2     		uxth	r5, r5
 262 0024 FFF7FEFF 		bl	CyDelay
 263              	.LVL17:
ARM GAS  C:\Users\Graziano\AppData\Local\Temp\cckdhHJd.s 			page 10


 264              	.LBE55:
 235:.\ITG-3701.c  ****   for (ii = 0; ii < packet_count; ii++)
 265              		.loc 1 235 0 discriminator 2
 266 0028 002D     		cmp	r5, #0
 267 002a F8D1     		bne	.L18
 268              	.LVL18:
 248:.\ITG-3701.c  **** 	}
 249:.\ITG-3701.c  **** 	
 250:.\ITG-3701.c  ****     gyro_bias[0]  /= (int32_t) packet_count;
 251:.\ITG-3701.c  ****     gyro_bias[1]  /= (int32_t) packet_count;
 252:.\ITG-3701.c  ****     gyro_bias[2]  /= (int32_t) packet_count;
 253:.\ITG-3701.c  ****       
 254:.\ITG-3701.c  **** 	// Construct the gyro biases for push to the hardware gyro bias registers, which are reset to zero
 255:.\ITG-3701.c  ****   	data[0] = (-gyro_bias[0]  >> 8) & 0xFF;  
 256:.\ITG-3701.c  ****   	data[1] = (-gyro_bias[0])       & 0xFF; // Biases are additive, so change sign on calculated ave
 257:.\ITG-3701.c  ****   	data[2] = (-gyro_bias[1]  >> 8) & 0xFF;
 258:.\ITG-3701.c  ****   	data[3] = (-gyro_bias[1])       & 0xFF;
 259:.\ITG-3701.c  ****   	data[4] = (-gyro_bias[2]  >> 8) & 0xFF;
 260:.\ITG-3701.c  ****   	data[5] = (-gyro_bias[2])       & 0xFF;
 261:.\ITG-3701.c  ****   
 262:.\ITG-3701.c  **** 	// Push gyro biases to hardware registers
 263:.\ITG-3701.c  **** 	//  writeByte(ITG3701_ADDRESS, ITG3701_XG_OFFS_USRH, data[0]);
 264:.\ITG-3701.c  **** 	//  writeByte(ITG3701_ADDRESS, ITG3701_XG_OFFS_USRL, data[1]);
 265:.\ITG-3701.c  **** 	//  writeByte(ITG3701_ADDRESS, ITG3701_YG_OFFS_USRH, data[2]);
 266:.\ITG-3701.c  **** 	//  writeByte(ITG3701_ADDRESS, ITG3701_YG_OFFS_USRL, data[3]);
 267:.\ITG-3701.c  **** 	//  writeByte(ITG3701_ADDRESS, ITG3701_ZG_OFFS_USRH, data[4]);
 268:.\ITG-3701.c  **** 	//  writeByte(ITG3701_ADDRESS, ITG3701_ZG_OFFS_USRL, data[5]);
 269:.\ITG-3701.c  ****   
 270:.\ITG-3701.c  **** 	// Output scaled gyro biases for display in the main program
 271:.\ITG-3701.c  **** 	dest1[0] = (float) gyro_bias[0]*gRes;  
 269              		.loc 1 271 0
 270 002c 0B4D     		ldr	r5, .L20
 271 002e 0020     		movs	r0, #0
 272 0030 FFF7FEFF 		bl	__aeabi_i2f
 273              	.LVL19:
 274 0034 2968     		ldr	r1, [r5, #0]	@ float
 275 0036 FFF7FEFF 		bl	__aeabi_fmul
 276              	.LVL20:
 277 003a 2060     		str	r0, [r4, #0]	@ float
 272:.\ITG-3701.c  **** 	dest1[1] = (float) gyro_bias[1]*gRes;
 278              		.loc 1 272 0
 279 003c 2D68     		ldr	r5, [r5, #0]	@ float
 280 003e 0020     		movs	r0, #0
 281 0040 FFF7FEFF 		bl	__aeabi_i2f
 282              	.LVL21:
 283 0044 2946     		mov	r1, r5
 284 0046 FFF7FEFF 		bl	__aeabi_fmul
 285              	.LVL22:
 286 004a 6060     		str	r0, [r4, #4]	@ float
 273:.\ITG-3701.c  **** 	dest1[2] = (float) gyro_bias[2]*gRes;
 287              		.loc 1 273 0
 288 004c 0020     		movs	r0, #0
 289 004e FFF7FEFF 		bl	__aeabi_i2f
 290              	.LVL23:
 291 0052 2946     		mov	r1, r5
 292 0054 FFF7FEFF 		bl	__aeabi_fmul
 293              	.LVL24:
ARM GAS  C:\Users\Graziano\AppData\Local\Temp\cckdhHJd.s 			page 11


 294 0058 A060     		str	r0, [r4, #8]	@ float
 295 005a 38BD     		pop	{r3, r4, r5, pc}
 296              	.L21:
 297              		.align	2
 298              	.L20:
 299 005c 00000000 		.word	gRes
 300              		.cfi_endproc
 301              	.LFE62:
 302              		.size	gyrocalITG3701, .-gyrocalITG3701
 303              		.global	__aeabi_fdiv
 304              		.global	__aeabi_f2d
 305              		.global	__aeabi_fsub
 306              		.section	.text.ITG3701_test,"ax",%progbits
 307              		.align	1
 308              		.global	ITG3701_test
 309              		.thumb
 310              		.thumb_func
 311              		.type	ITG3701_test, %function
 312              	ITG3701_test:
 313              	.LFB63:
 274:.\ITG-3701.c  **** }
 275:.\ITG-3701.c  **** 
 276:.\ITG-3701.c  **** 
 277:.\ITG-3701.c  **** 
 278:.\ITG-3701.c  **** void ITG3701_test(void)
 279:.\ITG-3701.c  **** {
 314              		.loc 1 279 0
 315              		.cfi_startproc
 316              		@ args = 0, pretend = 0, frame = 0
 317              		@ frame_needed = 0, uses_anonymous_args = 0
 318              	.LVL25:
 319 0000 7FB5     		push	{r0, r1, r2, r3, r4, r5, r6, lr}
 320              	.LCFI3:
 321              		.cfi_def_cfa_offset 32
 322              		.cfi_offset 0, -32
 323              		.cfi_offset 1, -28
 324              		.cfi_offset 2, -24
 325              		.cfi_offset 3, -20
 326              		.cfi_offset 4, -16
 327              		.cfi_offset 5, -12
 328              		.cfi_offset 6, -8
 329              		.cfi_offset 14, -4
 280:.\ITG-3701.c  **** 	uint8 index;
 281:.\ITG-3701.c  **** 	
 282:.\ITG-3701.c  **** 	// Verify HW connection
 283:.\ITG-3701.c  **** 	dummy = ITG3701_ReadByte(ITG3701_ADDRESS, ITG3701_WHO_AM_I);  // Read WHO_AM_I register for ITG370
 330              		.loc 1 283 0
 331 0002 1D4B     		ldr	r3, .L29
 332 0004 0021     		movs	r1, #0
 284:.\ITG-3701.c  ****   	printf("ITG3701 gyro; I AM 0x%02X (should be 0x68)\r\n",(uint16)dummy);
 333              		.loc 1 284 0
 334 0006 1D48     		ldr	r0, .L29+4
 283:.\ITG-3701.c  **** 	dummy = ITG3701_ReadByte(ITG3701_ADDRESS, ITG3701_WHO_AM_I);  // Read WHO_AM_I register for ITG370
 335              		.loc 1 283 0
 336 0008 1970     		strb	r1, [r3, #0]
 337              		.loc 1 284 0
 338 000a FFF7FEFF 		bl	printf
ARM GAS  C:\Users\Graziano\AppData\Local\Temp\cckdhHJd.s 			page 12


 339              	.LVL26:
 285:.\ITG-3701.c  **** 	CyDelay(1);
 340              		.loc 1 285 0
 341 000e 0120     		movs	r0, #1
 342 0010 FFF7FEFF 		bl	CyDelay
 343              	.LVL27:
 286:.\ITG-3701.c  **** 	
 287:.\ITG-3701.c  **** 	// Initialize ITG-3701 gyro
 288:.\ITG-3701.c  **** 	initITG3701();
 344              		.loc 1 288 0
 345 0014 FFF7FEFF 		bl	initITG3701
 346              	.LVL28:
 289:.\ITG-3701.c  **** 
 290:.\ITG-3701.c  ****     // Calibrate gyro loading biases in bias registers
 291:.\ITG-3701.c  ****     gyrocalITG3701(gyroBias);
 347              		.loc 1 291 0
 348 0018 1948     		ldr	r0, .L29+8
 349 001a FFF7FEFF 		bl	gyrocalITG3701
 350              	.LVL29:
 292:.\ITG-3701.c  **** 
 293:.\ITG-3701.c  **** 	// get sensor resolutions, only need to do this once (calculates gRes)
 294:.\ITG-3701.c  ****    	getGres();	
 351              		.loc 1 294 0
 352 001e FFF7FEFF 		bl	getGres
 353              	.LVL30:
 295:.\ITG-3701.c  ****    	printf("ITG3701 gyro sensitivity is %1.4f LSB/dps\r\n", (float)1.0/(gRes));
 354              		.loc 1 295 0
 355 0022 1849     		ldr	r1, .L29+12
 356 0024 4FF07E50 		mov	r0, #1065353216
 357 0028 0968     		ldr	r1, [r1, #0]	@ float
 358 002a FFF7FEFF 		bl	__aeabi_fdiv
 359              	.LVL31:
 360 002e FFF7FEFF 		bl	__aeabi_f2d
 361              	.LVL32:
 362 0032 0246     		mov	r2, r0
 363 0034 0B46     		mov	r3, r1
 364 0036 1448     		ldr	r0, .L29+16
 365 0038 FFF7FEFF 		bl	printf
 366              	.LVL33:
 367 003c 1426     		movs	r6, #20
 368              	.LVL34:
 369              	.L23:
 296:.\ITG-3701.c  **** 	
 297:.\ITG-3701.c  **** 	for(index=0;index<20;index++)
 298:.\ITG-3701.c  **** 	{
 299:.\ITG-3701.c  **** 		if (ITG3701_ReadByte(ITG3701_ADDRESS, ITG3701_INT_STATUS) & 0x01)  // check if new gyro data is r
 300:.\ITG-3701.c  **** 		{
 301:.\ITG-3701.c  **** 			readGyroData(gyroCount);  // Read the x/y/z adc values
 302:.\ITG-3701.c  **** 
 303:.\ITG-3701.c  **** 		    // Calculate the gyro value into actual degrees per second
 304:.\ITG-3701.c  **** 		    gx = (float)gyroCount[0]*gRes - gyroBias[0];  // get actual gyro value, this depends on scale
 305:.\ITG-3701.c  **** 		    gy = (float)gyroCount[1]*gRes - gyroBias[1];  
 306:.\ITG-3701.c  **** 		    gz = (float)gyroCount[2]*gRes - gyroBias[2]; 
 307:.\ITG-3701.c  **** 		}
 308:.\ITG-3701.c  **** 		printf("ITG3701 gx=%1.4f gy=%1.4f gz=%1.4f\r\n",(float)gx, (float)gy, (float)gz);
 370              		.loc 1 308 0
 371 003e 1348     		ldr	r0, .L29+20
ARM GAS  C:\Users\Graziano\AppData\Local\Temp\cckdhHJd.s 			page 13


 372 0040 013E     		subs	r6, r6, #1
 373 0042 0068     		ldr	r0, [r0, #0]	@ float
 374 0044 FFF7FEFF 		bl	__aeabi_f2d
 375              	.LVL35:
 376 0048 114A     		ldr	r2, .L29+24
 377 004a 0446     		mov	r4, r0
 378 004c 1068     		ldr	r0, [r2, #0]	@ float
 379 004e 0D46     		mov	r5, r1
 380 0050 FFF7FEFF 		bl	__aeabi_f2d
 381              	.LVL36:
 382 0054 CDE90001 		strd	r0, [sp]
 383 0058 0E4B     		ldr	r3, .L29+28
 384 005a 1868     		ldr	r0, [r3, #0]	@ float
 385 005c FFF7FEFF 		bl	__aeabi_f2d
 386              	.LVL37:
 387 0060 2246     		mov	r2, r4
 388 0062 CDE90201 		strd	r0, [sp, #8]
 389 0066 2B46     		mov	r3, r5
 390 0068 0B48     		ldr	r0, .L29+32
 391 006a FFF7FEFF 		bl	printf
 392              	.LVL38:
 297:.\ITG-3701.c  **** 	for(index=0;index<20;index++)
 393              		.loc 1 297 0
 394 006e 16F0FF06 		ands	r6, r6, #255
 395 0072 E4D1     		bne	.L23
 309:.\ITG-3701.c  **** 	}
 310:.\ITG-3701.c  **** }
 396              		.loc 1 310 0
 397 0074 7FBD     		pop	{r0, r1, r2, r3, r4, r5, r6, pc}
 398              	.L30:
 399 0076 00BF     		.align	2
 400              	.L29:
 401 0078 00000000 		.word	dummy
 402 007c 00000000 		.word	.LC0
 403 0080 00000000 		.word	.LANCHOR1
 404 0084 00000000 		.word	gRes
 405 0088 2D000000 		.word	.LC1
 406 008c 00000000 		.word	gx
 407 0090 00000000 		.word	gy
 408 0094 00000000 		.word	gz
 409 0098 59000000 		.word	.LC2
 410              		.cfi_endproc
 411              	.LFE63:
 412              		.size	ITG3701_test, .-ITG3701_test
 413              		.comm	dummy,1,1
 414              		.comm	temperature,4,4
 415              		.global	gyroBias
 416              		.comm	gz,4,4
 417              		.comm	gy,4,4
 418              		.comm	gx,4,4
 419              		.comm	gyroCount,6,2
 420              		.comm	gRes,4,4
 421              		.global	Gbw
 422              		.global	Godr
 423              		.global	Gscale
 424              		.section	.rodata.str1.1,"aMS",%progbits,1
 425              	.LC0:
ARM GAS  C:\Users\Graziano\AppData\Local\Temp\cckdhHJd.s 			page 14


 426 0000 49544733 		.ascii	"ITG3701 gyro; I AM 0x%02X (should be 0x68)\015\012\000"
 426      37303120 
 426      6779726F 
 426      3B204920 
 426      414D2030 
 427              	.LC1:
 428 002d 49544733 		.ascii	"ITG3701 gyro sensitivity is %1.4f LSB/dps\015\012\000"
 428      37303120 
 428      6779726F 
 428      2073656E 
 428      73697469 
 429              	.LC2:
 430 0059 49544733 		.ascii	"ITG3701 gx=%1.4f gy=%1.4f gz=%1.4f\015\012\000"
 430      37303120 
 430      67783D25 
 430      312E3466 
 430      2067793D 
 431              		.data
 432              		.set	.LANCHOR0,. + 0
 433              		.type	Gscale, %object
 434              		.size	Gscale, 1
 435              	Gscale:
 436 0000 03       		.byte	3
 437              		.type	Gbw, %object
 438              		.size	Gbw, 1
 439              	Gbw:
 440 0001 03       		.byte	3
 441              		.type	Godr, %object
 442              		.size	Godr, 1
 443              	Godr:
 444 0002 01       		.byte	1
 445              		.bss
 446              		.align	2
 447              		.set	.LANCHOR1,. + 0
 448              		.type	gyroBias, %object
 449              		.size	gyroBias, 12
 450              	gyroBias:
 451 0000 00000000 		.space	12
 451      00000000 
 451      00000000 
 452              		.text
 453              	.Letext0:
 454              		.file 2 "c:\\program files (x86)\\cypress\\psoc creator\\3.0\\psoc creator\\import\\gnu_cs\\arm\\4
 455              		.file 3 "./Generated_Source/PSoC5/cytypes.h"
 456              		.file 4 "./ITG-3701.h"
 457              		.file 5 "./Generated_Source/PSoC5/core_cm3.h"
 458              		.file 6 "./Generated_Source/PSoC5/CyLib.h"
 459              		.file 7 "c:\\program files (x86)\\cypress\\psoc creator\\3.0\\psoc creator\\import\\gnu_cs\\arm\\4