ARM GAS  C:\Users\Graziano\AppData\Local\Temp\ccSp2HWP.s 			page 1


   1              		.syntax unified
   2              		.cpu cortex-m3
   3              		.fpu softvfp
   4              		.eabi_attribute 20, 1
   5              		.eabi_attribute 21, 1
   6              		.eabi_attribute 23, 3
   7              		.eabi_attribute 24, 1
   8              		.eabi_attribute 25, 1
   9              		.eabi_attribute 26, 1
  10              		.eabi_attribute 30, 4
  11              		.eabi_attribute 34, 1
  12              		.eabi_attribute 18, 4
  13              		.thumb
  14              		.file	"motor_CTRL.c"
  15              		.text
  16              	.Ltext0:
  17              		.cfi_sections	.debug_frame
  18              		.global	__aeabi_i2f
  19              		.global	__aeabi_fmul
  20              		.global	__aeabi_fsub
  21              		.global	__aeabi_fcmpgt
  22              		.global	__aeabi_fcmplt
  23              		.global	__aeabi_fadd
  24              		.global	__aeabi_f2uiz
  25              		.section	.text.AnalogShowPan,"ax",%progbits
  26              		.align	1
  27              		.global	AnalogShowPan
  28              		.thumb
  29              		.thumb_func
  30              		.type	AnalogShowPan, %function
  31              	AnalogShowPan:
  32              	.LFB56:
  33              		.file 1 ".\\motor_CTRL.c"
   1:.\motor_CTRL.c **** /* ========================================
   2:.\motor_CTRL.c ****  *
   3:.\motor_CTRL.c ****  * Copyright Logic brainstorm, 2015
   4:.\motor_CTRL.c ****  * All Rights Reserved
   5:.\motor_CTRL.c ****  * UNPUBLISHED, LICENSED SOFTWARE.
   6:.\motor_CTRL.c ****  *
   7:.\motor_CTRL.c ****  * CONFIDENTIAL AND PROPRIETARY INFORMATION
   8:.\motor_CTRL.c ****  * WHICH IS THE PROPERTY OF your company.
   9:.\motor_CTRL.c ****  *
  10:.\motor_CTRL.c ****  * ========================================
  11:.\motor_CTRL.c **** */
  12:.\motor_CTRL.c **** 
  13:.\motor_CTRL.c **** #include <device.h>
  14:.\motor_CTRL.c **** #include <gobee.h>
  15:.\motor_CTRL.c **** #include <gobeelib.h>
  16:.\motor_CTRL.c **** #include <math.h>
  17:.\motor_CTRL.c **** #include <estimators.h>
  18:.\motor_CTRL.c **** #include <pid_lib.h>
  19:.\motor_CTRL.c **** #include <mover.h>
  20:.\motor_CTRL.c **** #include <motor_CTRL.h>
  21:.\motor_CTRL.c **** 
  22:.\motor_CTRL.c **** /* External Gobee Machine State */
  23:.\motor_CTRL.c **** extern uint8 machine_state;			/* Initial Machine State = POWERON 					*/
  24:.\motor_CTRL.c **** 									/* Machine States = [POWERON | OPERATIVE | FAULT]	*/
ARM GAS  C:\Users\Graziano\AppData\Local\Temp\ccSp2HWP.s 			page 2


  25:.\motor_CTRL.c **** 
  26:.\motor_CTRL.c **** extern uint8 machine_state_backup;	/* machine state backup var for test mode			*/
  27:.\motor_CTRL.c **** 
  28:.\motor_CTRL.c **** 
  29:.\motor_CTRL.c **** /* External GoBee Parameters */
  30:.\motor_CTRL.c **** extern struct GOBEE_PARAMS gobee_param;
  31:.\motor_CTRL.c **** 
  32:.\motor_CTRL.c **** /* EXTERNAL Feedback Encoders */
  33:.\motor_CTRL.c **** extern struct ENCODER pan_feedback_encoder;  /* PAN  Feedback Encoder Parameters & RT Datas */
  34:.\motor_CTRL.c **** extern struct ENCODER tilt_feedback_encoder; /* TILT Feedback Encoder Parameters & RT Datas */
  35:.\motor_CTRL.c **** 
  36:.\motor_CTRL.c **** /* External Motor Axis 		 */
  37:.\motor_CTRL.c **** extern struct MOTOR_AXIS pan_axis; 			/* PAN Motor Axis Parameters & RT Datas	    */
  38:.\motor_CTRL.c **** extern struct MOTOR_AXIS tilt_axis; 		/* TILT Motor Axis Parameters & RT Datas	*/
  39:.\motor_CTRL.c **** 
  40:.\motor_CTRL.c **** /* EXTERN MOVER PATH Array */
  41:.\motor_CTRL.c **** /* 16 paths 			   */
  42:.\motor_CTRL.c **** extern path_type path[PATH_N_MAX];		/* path array structure 	*/
  43:.\motor_CTRL.c **** extern mover_type mover;				/* mover structure			*/
  44:.\motor_CTRL.c **** 
  45:.\motor_CTRL.c **** //extern uint8  mover_trapezoid_index;
  46:.\motor_CTRL.c **** //extern uint32 mover_ticks;
  47:.\motor_CTRL.c **** //extern double mover_remainder_double;	/* mover remainder [double steps]	*/
  48:.\motor_CTRL.c **** //extern int32  mover_steps;				/* mover steps		   [steps]		*/
  49:.\motor_CTRL.c **** //extern int32  mover_steps_integral;		/* mover steps integral [steps]		*/
  50:.\motor_CTRL.c **** //extern uint8  mover_path_to_move;		/* global mover path to move number	*/
  51:.\motor_CTRL.c **** 
  52:.\motor_CTRL.c **** /* extern Analog External ADXRS646 gyroscope vars) */
  53:.\motor_CTRL.c **** extern struct ANALOG_GYRO agyro;
  54:.\motor_CTRL.c **** 
  55:.\motor_CTRL.c **** /* extern Sensor ADC array */
  56:.\motor_CTRL.c **** extern int16 AdcValue[ADC_MUX_LENGHT];
  57:.\motor_CTRL.c **** 
  58:.\motor_CTRL.c **** /* extern anapos vars */
  59:.\motor_CTRL.c **** extern float anapos;					/* Analog Position Output(t) 				*/
  60:.\motor_CTRL.c **** extern int32 anapos_offset;				/* Analog Position Output Offset			*/
  61:.\motor_CTRL.c **** //extern int16 anapos_bef;				/* Analog Position Output(t-1) 				*/
  62:.\motor_CTRL.c **** 
  63:.\motor_CTRL.c **** 
  64:.\motor_CTRL.c **** /********************************************************************/
  65:.\motor_CTRL.c **** /* ANAPOS OR ANAVEL SHOW											*/
  66:.\motor_CTRL.c **** /* DAC_ANAOUT <-- Selected ENCODER	* Gain_ANAOUT					*/
  67:.\motor_CTRL.c **** /*			  <-- d/dt(Selected ENCODER) * Gain_ANAOUT				*/
  68:.\motor_CTRL.c **** /********************************************************************/
  69:.\motor_CTRL.c **** void AnalogShowPan()
  70:.\motor_CTRL.c **** {
  34              		.loc 1 70 0
  35              		.cfi_startproc
  36              		@ args = 0, pretend = 0, frame = 0
  37              		@ frame_needed = 0, uses_anonymous_args = 0
  38 0000 38B5     		push	{r3, r4, r5, lr}
  39              	.LCFI0:
  40              		.cfi_def_cfa_offset 16
  41              		.cfi_offset 3, -16
  42              		.cfi_offset 4, -12
  43              		.cfi_offset 5, -8
  44              		.cfi_offset 14, -4
ARM GAS  C:\Users\Graziano\AppData\Local\Temp\ccSp2HWP.s 			page 3


  71:.\motor_CTRL.c **** 	/* ANAPOS Selection based on *paxis (pan, tilt or roll?) and color (backslash or slave?)	*/
  72:.\motor_CTRL.c **** 
  73:.\motor_CTRL.c **** 	if (pan_axis.param.color == SLAVE_ENC_POS)
  45              		.loc 1 73 0
  46 0002 3C4C     		ldr	r4, .L23
  47 0004 3C4D     		ldr	r5, .L23+4
  48 0006 94F82430 		ldrb	r3, [r4, #36]	@ zero_extendqisi2
  49 000a 012B     		cmp	r3, #1
  50 000c 07D1     		bne	.L2
  74:.\motor_CTRL.c **** 	{
  75:.\motor_CTRL.c **** 		anapos = pan_axis.param.Gain_ANAOUT.fnum*(float)(pan_feedback_encoder.position - anapos_offset);
  51              		.loc 1 75 0
  52 000e 3B48     		ldr	r0, .L23+8
  53 0010 3B4A     		ldr	r2, .L23+12
  54 0012 0168     		ldr	r1, [r0, #0]
  55 0014 1368     		ldr	r3, [r2, #0]
  56 0016 C81A     		subs	r0, r1, r3
  57 0018 FFF7FEFF 		bl	__aeabi_i2f
  58              	.LVL0:
  59 001c 0AE0     		b	.L18
  60              	.L2:
  76:.\motor_CTRL.c **** 	}
  77:.\motor_CTRL.c **** 	else if (pan_axis.param.color == SLAVE_ENC_VEL)
  61              		.loc 1 77 0
  62 001e 022B     		cmp	r3, #2
  63 0020 0ED1     		bne	.L4
  78:.\motor_CTRL.c **** 	{
  79:.\motor_CTRL.c **** 		anapos = pan_axis.param.Gain_ANAOUT.fnum*(float)(pan_feedback_encoder.velocity - anapos_offset);
  64              		.loc 1 79 0
  65 0022 374A     		ldr	r2, .L23+12
  66 0024 1068     		ldr	r0, [r2, #0]
  67 0026 FFF7FEFF 		bl	__aeabi_i2f
  68              	.LVL1:
  69 002a 344B     		ldr	r3, .L23+8
  70 002c 0146     		mov	r1, r0
  71 002e 5868     		ldr	r0, [r3, #4]	@ float
  72              	.L20:
  73 0030 FFF7FEFF 		bl	__aeabi_fsub
  74              	.LVL2:
  75              	.L18:
  76 0034 0146     		mov	r1, r0
  77 0036 206A     		ldr	r0, [r4, #32]	@ float
  78              	.L19:
  79 0038 FFF7FEFF 		bl	__aeabi_fmul
  80              	.LVL3:
  81 003c 2860     		str	r0, [r5, #0]	@ float
  82 003e 3BE0     		b	.L3
  83              	.L4:
  80:.\motor_CTRL.c **** 	}	
  81:.\motor_CTRL.c **** 	else if (pan_axis.param.color == ASTIM_IN)
  84              		.loc 1 81 0
  85 0040 032B     		cmp	r3, #3
  86 0042 02D1     		bne	.L5
  82:.\motor_CTRL.c **** 	{
  83:.\motor_CTRL.c **** 		//anapos = pan_axis.param.Gain_ANAOUT.fnum*(pan_axis.mc.Float_ASTIM - (float)anapos_offset);
  84:.\motor_CTRL.c **** 		anapos = pan_axis.param.Gain_ANAOUT.fnum*pan_axis.mc.Float_ASTIM;
  87              		.loc 1 84 0
ARM GAS  C:\Users\Graziano\AppData\Local\Temp\ccSp2HWP.s 			page 4


  88 0044 206A     		ldr	r0, [r4, #32]	@ float
  89 0046 216D     		ldr	r1, [r4, #80]	@ float
  90 0048 F6E7     		b	.L19
  91              	.L5:
  85:.\motor_CTRL.c **** 		
  86:.\motor_CTRL.c **** 	}
  87:.\motor_CTRL.c **** 	else if (pan_axis.param.color == CTRL_ERROR)
  92              		.loc 1 87 0
  93 004a 042B     		cmp	r3, #4
  94 004c 06D1     		bne	.L6
  88:.\motor_CTRL.c **** 	{
  89:.\motor_CTRL.c **** 		anapos = pan_axis.param.Gain_ANAOUT.fnum*(pan_axis.mc.error - (float)anapos_offset);	
  95              		.loc 1 89 0
  96 004e 2C49     		ldr	r1, .L23+12
  97 0050 0868     		ldr	r0, [r1, #0]
  98 0052 FFF7FEFF 		bl	__aeabi_i2f
  99              	.LVL4:
 100 0056 0146     		mov	r1, r0
 101 0058 E06A     		ldr	r0, [r4, #44]	@ float
 102 005a E9E7     		b	.L20
 103              	.L6:
  90:.\motor_CTRL.c **** 	}
  91:.\motor_CTRL.c **** 	else if (pan_axis.param.color == CTRL_DERROR)
 104              		.loc 1 91 0
 105 005c 052B     		cmp	r3, #5
 106 005e 06D1     		bne	.L7
  92:.\motor_CTRL.c **** 	{
  93:.\motor_CTRL.c **** 		anapos = pan_axis.param.Gain_ANAOUT.fnum*(pan_axis.mc.derror - (float)anapos_offset);	
 107              		.loc 1 93 0
 108 0060 2748     		ldr	r0, .L23+12
 109 0062 0068     		ldr	r0, [r0, #0]
 110 0064 FFF7FEFF 		bl	__aeabi_i2f
 111              	.LVL5:
 112 0068 0146     		mov	r1, r0
 113 006a A06B     		ldr	r0, [r4, #56]	@ float
 114 006c E0E7     		b	.L20
 115              	.L7:
  94:.\motor_CTRL.c **** 	}
  95:.\motor_CTRL.c **** 	else if (pan_axis.param.color == CTRL_IERROR)
 116              		.loc 1 95 0
 117 006e 062B     		cmp	r3, #6
 118 0070 06D1     		bne	.L8
  96:.\motor_CTRL.c **** 	{
  97:.\motor_CTRL.c **** 		anapos = pan_axis.param.Gain_ANAOUT.fnum*(pan_axis.mc.ierror - (float)anapos_offset);	
 119              		.loc 1 97 0
 120 0072 234B     		ldr	r3, .L23+12
 121 0074 1868     		ldr	r0, [r3, #0]
 122 0076 FFF7FEFF 		bl	__aeabi_i2f
 123              	.LVL6:
 124 007a 0146     		mov	r1, r0
 125 007c 606B     		ldr	r0, [r4, #52]	@ float
 126 007e D7E7     		b	.L20
 127              	.L8:
  98:.\motor_CTRL.c **** 	}
  99:.\motor_CTRL.c **** 	else if (pan_axis.param.color == CTRL_CV)
 128              		.loc 1 99 0
 129 0080 082B     		cmp	r3, #8
ARM GAS  C:\Users\Graziano\AppData\Local\Temp\ccSp2HWP.s 			page 5


 130 0082 01D1     		bne	.L9
 100:.\motor_CTRL.c **** 	{
 101:.\motor_CTRL.c **** 		anapos = pan_axis.mc.ctrl_var * 128/MOTOR_PWM_PERIOD_HALF;	//fixed 4Vpp Output at PWM MAX	
 131              		.loc 1 101 0
 132 0084 606C     		ldr	r0, [r4, #68]	@ float
 133 0086 0EE0     		b	.L21
 134              	.L9:
 102:.\motor_CTRL.c **** 	}	
 103:.\motor_CTRL.c **** 	else if (pan_axis.param.color == GYRO_RATE)
 135              		.loc 1 103 0
 136 0088 3BB9     		cbnz	r3, .L10
 104:.\motor_CTRL.c **** 	{
 105:.\motor_CTRL.c **** 		anapos = pan_axis.param.Gain_ANAOUT.fnum*(agyro.rate - (float)anapos_offset);			
 137              		.loc 1 105 0
 138 008a 1D49     		ldr	r1, .L23+12
 139 008c 0868     		ldr	r0, [r1, #0]
 140 008e FFF7FEFF 		bl	__aeabi_i2f
 141              	.LVL7:
 142 0092 1C4A     		ldr	r2, .L23+16
 143 0094 0146     		mov	r1, r0
 144 0096 9068     		ldr	r0, [r2, #8]	@ float
 145 0098 CAE7     		b	.L20
 146              	.L10:
 106:.\motor_CTRL.c **** 	}	
 107:.\motor_CTRL.c **** 	else if (pan_axis.param.color == CTRL_AZIERROR)
 147              		.loc 1 107 0
 148 009a 072B     		cmp	r3, #7
 149 009c 0AD1     		bne	.L11
 108:.\motor_CTRL.c **** 	{
 109:.\motor_CTRL.c **** 		anapos = pan_axis.param.Kif.fnum * pan_axis.mc.ierror * 128/MOTOR_PWM_PERIOD_HALF;	//fixed 4Vpp O
 150              		.loc 1 109 0
 151 009e 6069     		ldr	r0, [r4, #20]	@ float
 152 00a0 616B     		ldr	r1, [r4, #52]	@ float
 153 00a2 FFF7FEFF 		bl	__aeabi_fmul
 154              	.LVL8:
 155              	.L21:
 156 00a6 4FF08641 		mov	r1, #1124073472
 157 00aa FFF7FEFF 		bl	__aeabi_fmul
 158              	.LVL9:
 159 00ae 4FF06A51 		mov	r1, #981467136
 160 00b2 C1E7     		b	.L19
 161              	.L11:
 110:.\motor_CTRL.c **** 	}		
 111:.\motor_CTRL.c **** 
 112:.\motor_CTRL.c **** 	else
 113:.\motor_CTRL.c **** 	{
 114:.\motor_CTRL.c **** 		anapos = 0;	/* Internal Firmware Error */
 162              		.loc 1 114 0
 163 00b4 0020     		movs	r0, #0
 164 00b6 2860     		str	r0, [r5, #0]	@ float
 165              	.L3:
 115:.\motor_CTRL.c **** 	}
 116:.\motor_CTRL.c **** 			
 117:.\motor_CTRL.c **** 		/* anapos 8 bit saturation */
 118:.\motor_CTRL.c **** 		if (anapos>127)
 166              		.loc 1 118 0
 167 00b8 0F4D     		ldr	r5, .L23+4
ARM GAS  C:\Users\Graziano\AppData\Local\Temp\ccSp2HWP.s 			page 6


 168 00ba 134C     		ldr	r4, .L23+20
 169 00bc 2868     		ldr	r0, [r5, #0]	@ float
 170 00be 2146     		mov	r1, r4
 171 00c0 FFF7FEFF 		bl	__aeabi_fcmpgt
 172              	.LVL10:
 173 00c4 00B1     		cbz	r0, .L12
 119:.\motor_CTRL.c **** 		{
 120:.\motor_CTRL.c **** 			anapos = 127;
 174              		.loc 1 120 0
 175 00c6 2C60     		str	r4, [r5, #0]	@ float
 176              	.L12:
 121:.\motor_CTRL.c **** 		}
 122:.\motor_CTRL.c **** 		if (anapos < -127)
 177              		.loc 1 122 0
 178 00c8 104C     		ldr	r4, .L23+24
 179 00ca 2868     		ldr	r0, [r5, #0]	@ float
 180 00cc 2146     		mov	r1, r4
 181 00ce FFF7FEFF 		bl	__aeabi_fcmplt
 182              	.LVL11:
 183 00d2 08B1     		cbz	r0, .L14
 123:.\motor_CTRL.c **** 		{
 124:.\motor_CTRL.c **** 			anapos = -127;
 184              		.loc 1 124 0
 185 00d4 0848     		ldr	r0, .L23+4
 186 00d6 0460     		str	r4, [r0, #0]	@ float
 187              	.L14:
 125:.\motor_CTRL.c **** 		}
 126:.\motor_CTRL.c **** 		
 127:.\motor_CTRL.c **** 		VDAC8_ANAPOS_SetValue((uint8)(anapos+128));		/* Anapos DAC Refresh <-- position(t)		*/	
 188              		.loc 1 127 0
 189 00d8 0749     		ldr	r1, .L23+4
 190 00da 0868     		ldr	r0, [r1, #0]	@ float
 191 00dc 4FF08641 		mov	r1, #1124073472
 192 00e0 FFF7FEFF 		bl	__aeabi_fadd
 193              	.LVL12:
 194 00e4 FFF7FEFF 		bl	__aeabi_f2uiz
 195              	.LVL13:
 196 00e8 C0B2     		uxtb	r0, r0
 128:.\motor_CTRL.c **** }
 197              		.loc 1 128 0
 198 00ea BDE83840 		pop	{r3, r4, r5, lr}
 127:.\motor_CTRL.c **** 		VDAC8_ANAPOS_SetValue((uint8)(anapos+128));		/* Anapos DAC Refresh <-- position(t)		*/	
 199              		.loc 1 127 0
 200 00ee FFF7FEBF 		b	VDAC8_ANAPOS_SetValue
 201              	.LVL14:
 202              	.L24:
 203 00f2 00BF     		.align	2
 204              	.L23:
 205 00f4 00000000 		.word	pan_axis
 206 00f8 00000000 		.word	anapos
 207 00fc 00000000 		.word	pan_feedback_encoder
 208 0100 00000000 		.word	anapos_offset
 209 0104 00000000 		.word	agyro
 210 0108 0000FE42 		.word	1123942400
 211 010c 0000FEC2 		.word	-1023541248
 212              		.cfi_endproc
 213              	.LFE56:
ARM GAS  C:\Users\Graziano\AppData\Local\Temp\ccSp2HWP.s 			page 7


 214              		.size	AnalogShowPan, .-AnalogShowPan
 215              		.global	__aeabi_f2d
 216              		.global	__aeabi_dmul
 217              		.global	__aeabi_d2f
 218              		.global	__aeabi_fcmpge
 219              		.global	__aeabi_fcmple
 220              		.section	.text.motor_control,"ax",%progbits
 221              		.align	1
 222              		.global	motor_control
 223              		.thumb
 224              		.thumb_func
 225              		.type	motor_control, %function
 226              	motor_control:
 227              	.LFB57:
 129:.\motor_CTRL.c **** 
 130:.\motor_CTRL.c **** 
 131:.\motor_CTRL.c **** /************************************************/
 132:.\motor_CTRL.c **** /*** AXIS MOTOR CONTROL CODE       			  ***/
 133:.\motor_CTRL.c **** /************************************************/
 134:.\motor_CTRL.c **** /* *paxis = [&pan_axis, &roll_axis]				*/
 135:.\motor_CTRL.c **** /************************************************/
 136:.\motor_CTRL.c **** void motor_control(struct MOTOR_AXIS *paxis)
 137:.\motor_CTRL.c **** {
 228              		.loc 1 137 0
 229              		.cfi_startproc
 230              		@ args = 0, pretend = 0, frame = 0
 231              		@ frame_needed = 0, uses_anonymous_args = 0
 232              	.LVL15:
 233 0000 F8B5     		push	{r3, r4, r5, r6, r7, lr}
 234              	.LCFI1:
 235              		.cfi_def_cfa_offset 24
 236              		.cfi_offset 3, -24
 237              		.cfi_offset 4, -20
 238              		.cfi_offset 5, -16
 239              		.cfi_offset 6, -12
 240              		.cfi_offset 7, -8
 241              		.cfi_offset 14, -4
 242              		.loc 1 137 0
 243 0002 0446     		mov	r4, r0
 138:.\motor_CTRL.c **** 	/********************************/
 139:.\motor_CTRL.c **** 	/* Analog SHOW			        */
 140:.\motor_CTRL.c ****     /* Solo PAN per adesso          */
 141:.\motor_CTRL.c **** 	/********************************/
 142:.\motor_CTRL.c ****     AnalogShowPan();
 244              		.loc 1 142 0
 245 0004 FFF7FEFF 		bl	AnalogShowPan
 246              	.LVL16:
 143:.\motor_CTRL.c ****     
 144:.\motor_CTRL.c **** 	/********************************/
 145:.\motor_CTRL.c **** 	/* current(t) Sampling			*/
 146:.\motor_CTRL.c **** 	/********************************/
 147:.\motor_CTRL.c **** 	if (paxis == &pan_axis)
 247              		.loc 1 147 0
 248 0008 714B     		ldr	r3, .L52+8
 249 000a 9C42     		cmp	r4, r3
 250 000c 1DD1     		bne	.L26
 148:.\motor_CTRL.c **** 	{	
ARM GAS  C:\Users\Graziano\AppData\Local\Temp\ccSp2HWP.s 			page 8


 149:.\motor_CTRL.c **** 		//-----------------------------------------------------------------------------------------------
 150:.\motor_CTRL.c **** 		// Rsense R63 = 0,27 // 0,27 = 0,135[Ohm] --> ItripMAX = 0,2 / 0,135 = 1,48A <= IMAX
 151:.\motor_CTRL.c **** 		// R50= 24,9k; R51=1k --> Analog Gain = 25,9
 152:.\motor_CTRL.c **** 		// R35, R41, R46, C64: REMOVE
 153:.\motor_CTRL.c **** 		// TP21 --> pin 3 U17 (Katode of D7): CONNECT
 154:.\motor_CTRL.c **** 		//-----------------------------------------------------------------------------------------------
 155:.\motor_CTRL.c **** 		// Rsense = 0,135[Ohm]; Analog Gain = 25,9; --> V[ADC] = 0,135[Ohm] * 1,48 [A] * 25,9 = 5,17[V] (
 156:.\motor_CTRL.c **** 		// --> I[mA] = (1500[mA]/4096) * (ADC_Count + 2048)
 157:.\motor_CTRL.c **** 		pan_axis.mc.current = (float)(AdcValue[SENSE_IPAN] + ADC_CURR_ZERO_OFFSET) * 0.366211;		/* [mA] *
 251              		.loc 1 157 0
 252 000e 714B     		ldr	r3, .L52+12
 158:.\motor_CTRL.c **** 	}
 159:.\motor_CTRL.c ****     else if (paxis == &tilt_axis)
 160:.\motor_CTRL.c **** 	{	
 161:.\motor_CTRL.c **** 		//-----------------------------------------------------------------------------------------------
 162:.\motor_CTRL.c **** 		// Rsense = 0,135[Ohm]; Analog Gain = 25,9; --> V[ADC] = 0,135[Ohm] * 1,48 [A] * 25,9 = 5,17[V] (
 163:.\motor_CTRL.c **** 		// --> I[mA] = (1500[mA]/4096) * (ADC_Count + 2048)
 164:.\motor_CTRL.c **** 		tilt_axis.mc.current = (float)(AdcValue[SENSE_ITILT] + ADC_CURR_ZERO_OFFSET) * 0.366211;		/* [mA]
 165:.\motor_CTRL.c **** 	}    
 166:.\motor_CTRL.c ****         
 167:.\motor_CTRL.c **** 	/********************************/
 168:.\motor_CTRL.c **** 	/* SlaveEncoder(t) Sampling		*/
 169:.\motor_CTRL.c **** 	/********************************/
 170:.\motor_CTRL.c **** 	if (paxis == &pan_axis)
 171:.\motor_CTRL.c **** 	{
 172:.\motor_CTRL.c **** 		/* Feedback Encoder PositionSampling	*/	
 173:.\motor_CTRL.c **** 		pan_feedback_encoder.position = QuadDec_PAN_GetCounter();								/* Position(t)   [step] 	*/
 253              		.loc 1 173 0
 254 0010 714D     		ldr	r5, .L52+16
 157:.\motor_CTRL.c **** 		pan_axis.mc.current = (float)(AdcValue[SENSE_IPAN] + ADC_CURR_ZERO_OFFSET) * 0.366211;		/* [mA] *
 255              		.loc 1 157 0
 256 0012 B3F90000 		ldrsh	r0, [r3, #0]
 257 0016 00F50060 		add	r0, r0, #2048
 258 001a FFF7FEFF 		bl	__aeabi_i2f
 259              	.LVL17:
 260 001e FFF7FEFF 		bl	__aeabi_f2d
 261              	.LVL18:
 262 0022 69A3     		adr	r3, .L52
 263 0024 D3E90023 		ldrd	r2, [r3]
 264 0028 FFF7FEFF 		bl	__aeabi_dmul
 265              	.LVL19:
 266 002c FFF7FEFF 		bl	__aeabi_d2f
 267              	.LVL20:
 268 0030 E064     		str	r0, [r4, #76]	@ float
 269              		.loc 1 173 0
 270 0032 FFF7FEFF 		bl	QuadDec_PAN_GetCounter
 271              	.LVL21:
 272 0036 0646     		mov	r6, r0
 273 0038 2860     		str	r0, [r5, #0]
 174:.\motor_CTRL.c **** 		
 175:.\motor_CTRL.c **** 		pan_feedback_encoder.angle = pan_feedback_encoder.position /
 274              		.loc 1 175 0
 275 003a 2869     		ldr	r0, [r5, #16]
 276 003c 96FBF0F0 		sdiv	r0, r6, r0
 277 0040 FFF7FEFF 		bl	__aeabi_i2f
 278              	.LVL22:
 279 0044 A860     		str	r0, [r5, #8]	@ float
ARM GAS  C:\Users\Graziano\AppData\Local\Temp\ccSp2HWP.s 			page 9


 176:.\motor_CTRL.c **** 									 pan_feedback_encoder.parameter.resolution;
 177:.\motor_CTRL.c ****         
 178:.\motor_CTRL.c **** 		/* Feedback Encoder Velocity Sampling */
 179:.\motor_CTRL.c **** 		//pan_feedback_encoder.velocity = VelocityEstimator(pan_feedback_encoder.position); /* Velocity(t
 180:.\motor_CTRL.c **** 		pan_feedback_encoder.velocity = VelocityEstimatorII(pan_feedback_encoder.position); /* Velocity(t
 280              		.loc 1 180 0
 281 0046 3046     		mov	r0, r6
 282 0048 1FE0     		b	.L48
 283              	.L26:
 159:.\motor_CTRL.c ****     else if (paxis == &tilt_axis)
 284              		.loc 1 159 0
 285 004a 6448     		ldr	r0, .L52+20
 286 004c 8442     		cmp	r4, r0
 287 004e 2CD1     		bne	.L27
 164:.\motor_CTRL.c **** 		tilt_axis.mc.current = (float)(AdcValue[SENSE_ITILT] + ADC_CURR_ZERO_OFFSET) * 0.366211;		/* [mA]
 288              		.loc 1 164 0
 289 0050 604B     		ldr	r3, .L52+12
 181:.\motor_CTRL.c **** 	}	
 182:.\motor_CTRL.c ****     else if (paxis == &tilt_axis)
 183:.\motor_CTRL.c ****     {
 184:.\motor_CTRL.c ****  		/* Feedback Encoder PositionSampling	*/	
 185:.\motor_CTRL.c **** 		tilt_feedback_encoder.position = QuadDec_TILT_GetCounter();								/* Position(t)   [step] 	*/
 290              		.loc 1 185 0
 291 0052 634D     		ldr	r5, .L52+24
 164:.\motor_CTRL.c **** 		tilt_axis.mc.current = (float)(AdcValue[SENSE_ITILT] + ADC_CURR_ZERO_OFFSET) * 0.366211;		/* [mA]
 292              		.loc 1 164 0
 293 0054 B3F90200 		ldrsh	r0, [r3, #2]
 294 0058 00F50060 		add	r0, r0, #2048
 295 005c FFF7FEFF 		bl	__aeabi_i2f
 296              	.LVL23:
 297 0060 FFF7FEFF 		bl	__aeabi_f2d
 298              	.LVL24:
 299 0064 58A3     		adr	r3, .L52
 300 0066 D3E90023 		ldrd	r2, [r3]
 301 006a FFF7FEFF 		bl	__aeabi_dmul
 302              	.LVL25:
 303 006e FFF7FEFF 		bl	__aeabi_d2f
 304              	.LVL26:
 305 0072 E064     		str	r0, [r4, #76]	@ float
 306              		.loc 1 185 0
 307 0074 FFF7FEFF 		bl	QuadDec_TILT_GetCounter
 308              	.LVL27:
 186:.\motor_CTRL.c **** 		
 187:.\motor_CTRL.c **** 		tilt_feedback_encoder.angle = tilt_feedback_encoder.position /
 309              		.loc 1 187 0
 310 0078 2B69     		ldr	r3, [r5, #16]
 185:.\motor_CTRL.c **** 		tilt_feedback_encoder.position = QuadDec_TILT_GetCounter();								/* Position(t)   [step] 	*/
 311              		.loc 1 185 0
 312 007a 2860     		str	r0, [r5, #0]
 313              		.loc 1 187 0
 314 007c 90FBF3F0 		sdiv	r0, r0, r3
 315 0080 FFF7FEFF 		bl	__aeabi_i2f
 316              	.LVL28:
 188:.\motor_CTRL.c **** 									  tilt_feedback_encoder.parameter.resolution;     
 189:.\motor_CTRL.c **** 		
 190:.\motor_CTRL.c ****         /* Feedback Encoder Velocity Sampling */
 191:.\motor_CTRL.c **** 		//tilt_feedback_encoder.velocity = VelocityEstimator(pan_feedback_encoder.position); /* Velocity(
ARM GAS  C:\Users\Graziano\AppData\Local\Temp\ccSp2HWP.s 			page 10


 192:.\motor_CTRL.c **** 		tilt_feedback_encoder.velocity = VelocityEstimatorII(pan_feedback_encoder.position); /* Velocity(
 317              		.loc 1 192 0
 318 0084 544B     		ldr	r3, .L52+16
 187:.\motor_CTRL.c **** 		tilt_feedback_encoder.angle = tilt_feedback_encoder.position /
 319              		.loc 1 187 0
 320 0086 A860     		str	r0, [r5, #8]	@ float
 321              		.loc 1 192 0
 322 0088 1868     		ldr	r0, [r3, #0]
 323              	.L48:
 324 008a FFF7FEFF 		bl	VelocityEstimatorII
 325              	.LVL29:
 193:.\motor_CTRL.c ****     }
 194:.\motor_CTRL.c **** 		
 195:.\motor_CTRL.c **** 	/****************************************************************************/
 196:.\motor_CTRL.c **** 	/* e(t) Calculus #1: Feedback Selection	(DIRECT LOS)	   					*/
 197:.\motor_CTRL.c **** 	/****************************************************************************/
 198:.\motor_CTRL.c **** 	if (paxis == &pan_axis)
 199:.\motor_CTRL.c **** 	{
 200:.\motor_CTRL.c **** 		(*paxis).mc.error = -pan_feedback_encoder.position;
 201:.\motor_CTRL.c **** 	}
 202:.\motor_CTRL.c ****     else if (paxis == &tilt_axis)
 203:.\motor_CTRL.c **** 	{
 204:.\motor_CTRL.c **** 		(*paxis).mc.error = -tilt_feedback_encoder.position;
 326              		.loc 1 204 0
 327 008e 2968     		ldr	r1, [r5, #0]
 192:.\motor_CTRL.c **** 		tilt_feedback_encoder.velocity = VelocityEstimatorII(pan_feedback_encoder.position); /* Velocity(
 328              		.loc 1 192 0
 329 0090 6860     		str	r0, [r5, #4]	@ float
 330              		.loc 1 204 0
 331 0092 4842     		negs	r0, r1
 332 0094 FFF7FEFF 		bl	__aeabi_i2f
 333              	.LVL30:
 334 0098 0546     		mov	r5, r0
 205:.\motor_CTRL.c **** 	}
 206:.\motor_CTRL.c **** 
 207:.\motor_CTRL.c **** 	/****************************************************************************/
 208:.\motor_CTRL.c **** 	/* e(t) Calculus #2: Mover Input											*/
 209:.\motor_CTRL.c **** 	/****************************************************************************/
 210:.\motor_CTRL.c **** 	if (paxis == &pan_axis)
 211:.\motor_CTRL.c **** 	{	
 212:.\motor_CTRL.c **** //		if (mover.status == MOVER_STARTED)
 213:.\motor_CTRL.c **** //		{
 214:.\motor_CTRL.c **** //			mover.steps = MoverGeneratedSteps(&path[mover.path_to_move], mover.ticks);		 /* Mover Generate
 215:.\motor_CTRL.c **** //			(*paxis).mc.master_enc_position = (*paxis).mc.master_enc_position + mover.steps; /* master_enc
 216:.\motor_CTRL.c **** //			mover.steps_integral = mover.steps_integral + mover.steps;
 217:.\motor_CTRL.c **** //			mover.ticks++;																	 /* Mover ticks Increment			*/
 218:.\motor_CTRL.c **** //		}  
 219:.\motor_CTRL.c **** 		(*paxis).mc.error = (*paxis).mc.error + (float)(*paxis).mc.master_enc_position;		 /* e(t) update	
 220:.\motor_CTRL.c **** 	}
 221:.\motor_CTRL.c **** 	else if (paxis == &tilt_axis)
 222:.\motor_CTRL.c **** 	{
 223:.\motor_CTRL.c **** //		if (mover.status == MOVER_STARTED)
 224:.\motor_CTRL.c **** //		{			
 225:.\motor_CTRL.c **** //			mover.steps = MoverGeneratedSteps(&path[mover.path_to_move], mover.ticks);		 /* Mover Generate
 226:.\motor_CTRL.c **** //			(*paxis).mc.master_enc_position = (*paxis).mc.master_enc_position + mover.steps; /* master_enc
 227:.\motor_CTRL.c **** //			mover.steps_integral = mover.steps_integral + mover.steps;
 228:.\motor_CTRL.c **** //			mover.ticks++;																	 /* Mover ticks Increment			*/
ARM GAS  C:\Users\Graziano\AppData\Local\Temp\ccSp2HWP.s 			page 11


 229:.\motor_CTRL.c **** //		}  
 230:.\motor_CTRL.c **** 		(*paxis).mc.error = (*paxis).mc.error + (float)(*paxis).mc.master_enc_position;		 /* e(t) update	
 335              		.loc 1 230 0
 336 009a A06A     		ldr	r0, [r4, #40]
 337 009c FFF7FEFF 		bl	__aeabi_i2f
 338              	.LVL31:
 339 00a0 0146     		mov	r1, r0
 340 00a2 2846     		mov	r0, r5
 341 00a4 FFF7FEFF 		bl	__aeabi_fadd
 342              	.LVL32:
 343 00a8 E062     		str	r0, [r4, #44]	@ float
 344              	.L27:
 231:.\motor_CTRL.c **** 	}
 232:.\motor_CTRL.c **** 	
 233:.\motor_CTRL.c **** //	/****************************************/
 234:.\motor_CTRL.c **** //	/* e(t) = e(t) Deadband Ratioing 		*/
 235:.\motor_CTRL.c **** //	/****************************************/
 236:.\motor_CTRL.c **** //	if (fabs((*paxis).mc.error) >= (double)(*paxis).param.deadband.fnum)
 237:.\motor_CTRL.c **** //	{
 238:.\motor_CTRL.c **** //		(*paxis).mc.deadband_factor = 1.0;
 239:.\motor_CTRL.c **** //	}
 240:.\motor_CTRL.c **** //	else
 241:.\motor_CTRL.c **** //	{
 242:.\motor_CTRL.c **** //		(*paxis).mc.deadband_factor = fabs((*paxis).mc.error) / (*paxis).param.deadband.fnum;
 243:.\motor_CTRL.c **** //	}
 244:.\motor_CTRL.c **** //	
 245:.\motor_CTRL.c **** //	(*paxis).mc.error = (*paxis).mc.error * (*paxis).mc.deadband_factor;
 246:.\motor_CTRL.c **** 	
 247:.\motor_CTRL.c **** 	/************************************************************************/
 248:.\motor_CTRL.c **** 	/* d/dt(error)  Calculus												*/
 249:.\motor_CTRL.c **** 	/*   d/dt(error) = error(t) - error(t-1)       							*/
 250:.\motor_CTRL.c **** 	/************************************************************************/	
 251:.\motor_CTRL.c **** 	(*paxis).mc.derror = (*paxis).mc.error - (*paxis).mc.error_bef;
 345              		.loc 1 251 0
 346 00aa E76A     		ldr	r7, [r4, #44]	@ float
 347 00ac 216B     		ldr	r1, [r4, #48]	@ float
 348 00ae 3846     		mov	r0, r7
 349 00b0 FFF7FEFF 		bl	__aeabi_fsub
 350              	.LVL33:
 252:.\motor_CTRL.c **** 	(*paxis).mc.error_bef = (*paxis).mc.error;	
 253:.\motor_CTRL.c **** 	
 254:.\motor_CTRL.c **** 	
 255:.\motor_CTRL.c **** #if ASTIM_CALC_INLOOP
 256:.\motor_CTRL.c **** 	/********************************************************************************************/
 257:.\motor_CTRL.c **** 	/* WARNING!!!: AUTOSTIM VELOCITY (CONTROLLER INPUT)   										*/
 258:.\motor_CTRL.c **** 	/********************************************************************************************/
 259:.\motor_CTRL.c **** 	/*																							*/
 260:.\motor_CTRL.c **** 	/*							          -----------------------	  -------    				*/
 261:.\motor_CTRL.c **** 	/*   (0..4V)  CTRL_IN [V] --> (+) --> |* 4096[lsb]*4[V]/5[V]| --> |*Kopf| --> Float_ASTIM	*/
 262:.\motor_CTRL.c **** 	/*							   ^       ----------------------	  -------					*/
 263:.\motor_CTRL.c **** 	/*							   |															*/
 264:.\motor_CTRL.c **** 	/* 							  410 (offset)													*/
 265:.\motor_CTRL.c **** 	/* 																							*/
 266:.\motor_CTRL.c **** 	/* 	 Float_ASTIM(t) --->(+)---> e(t)														*/
 267:.\motor_CTRL.c **** 	/*					     ^																	*/
 268:.\motor_CTRL.c **** 	/*					     |																	*/
 269:.\motor_CTRL.c **** 	/*				         |------ -(gyro feedback(t))										*/
ARM GAS  C:\Users\Graziano\AppData\Local\Temp\ccSp2HWP.s 			page 12


 270:.\motor_CTRL.c **** 	/*																							*/
 271:.\motor_CTRL.c **** 	/*   (Float_ASTIM)peak = Vinpp[V] * 410[lsb/V] * Kopf										*/
 272:.\motor_CTRL.c **** 	/*																							*/
 273:.\motor_CTRL.c **** 	/********************************************************************************************/
 274:.\motor_CTRL.c **** 	if ((paxis == &pan_axis))
 351              		.loc 1 274 0
 352 00b4 464A     		ldr	r2, .L52+8
 251:.\motor_CTRL.c **** 	(*paxis).mc.derror = (*paxis).mc.error - (*paxis).mc.error_bef;
 353              		.loc 1 251 0
 354 00b6 A063     		str	r0, [r4, #56]	@ float
 355              		.loc 1 274 0
 356 00b8 9442     		cmp	r4, r2
 252:.\motor_CTRL.c **** 	(*paxis).mc.error_bef = (*paxis).mc.error;	
 357              		.loc 1 252 0
 358 00ba 2763     		str	r7, [r4, #48]	@ float
 359              		.loc 1 274 0
 360 00bc 48D1     		bne	.L29
 275:.\motor_CTRL.c **** 	{	
 276:.\motor_CTRL.c **** 		(*paxis).mc.Float_ASTIM = ((float)(AdcValue[CTRL_IN_ASTIM_1]) + 410) * (*paxis).param.Kopf.fnum;
 361              		.loc 1 276 0
 362 00be 454D     		ldr	r5, .L52+12
 363 00c0 B5F90C00 		ldrsh	r0, [r5, #12]
 364 00c4 FFF7FEFF 		bl	__aeabi_i2f
 365              	.LVL34:
 366 00c8 4649     		ldr	r1, .L52+28
 367 00ca FFF7FEFF 		bl	__aeabi_fadd
 368              	.LVL35:
 369 00ce E169     		ldr	r1, [r4, #28]	@ float
 370 00d0 FFF7FEFF 		bl	__aeabi_fmul
 371              	.LVL36:
 277:.\motor_CTRL.c **** 
 278:.\motor_CTRL.c **** 		/* Sgancio Zero Cross dall'autostimolo */
 279:.\motor_CTRL.c **** 		if ((*paxis).vparam.astim_type == NO_ASTIM)
 372              		.loc 1 279 0
 373 00d4 2678     		ldrb	r6, [r4, #0]	@ zero_extendqisi2
 276:.\motor_CTRL.c **** 		(*paxis).mc.Float_ASTIM = ((float)(AdcValue[CTRL_IN_ASTIM_1]) + 410) * (*paxis).param.Kopf.fnum;
 374              		.loc 1 276 0
 375 00d6 0546     		mov	r5, r0
 376 00d8 2065     		str	r0, [r4, #80]	@ float
 377              		.loc 1 279 0
 378 00da AEB9     		cbnz	r6, .L30
 280:.\motor_CTRL.c **** 		{
 281:.\motor_CTRL.c **** 			if ((*paxis).mc.astim_ZCsync == ASTIM_ZC_SYNC_OK)
 379              		.loc 1 281 0
 380 00dc 94F85430 		ldrb	r3, [r4, #84]	@ zero_extendqisi2
 381 00e0 052B     		cmp	r3, #5
 382 00e2 11D1     		bne	.L30
 282:.\motor_CTRL.c **** 			{
 283:.\motor_CTRL.c **** 				if (((*paxis).mc.Float_ASTIM >= 50) || ((*paxis).mc.Float_ASTIM <= -50))
 383              		.loc 1 283 0
 384 00e4 4049     		ldr	r1, .L52+32
 385 00e6 FFF7FEFF 		bl	__aeabi_fcmpge
 386              	.LVL37:
 387 00ea 20B9     		cbnz	r0, .L31
 388              		.loc 1 283 0 is_stmt 0 discriminator 1
 389 00ec 2846     		mov	r0, r5
 390 00ee 3F49     		ldr	r1, .L52+36
ARM GAS  C:\Users\Graziano\AppData\Local\Temp\ccSp2HWP.s 			page 13


 391 00f0 FFF7FEFF 		bl	__aeabi_fcmple
 392              	.LVL38:
 393 00f4 30B1     		cbz	r0, .L47
 394              	.L31:
 284:.\motor_CTRL.c **** 				{
 285:.\motor_CTRL.c **** 					(*paxis).mc.error = (*paxis).mc.error + (*paxis).mc.Float_ASTIM;		/* Velocity Stimulus Input *
 395              		.loc 1 285 0 is_stmt 1
 396 00f6 2946     		mov	r1, r5
 397 00f8 3846     		mov	r0, r7
 398 00fa FFF7FEFF 		bl	__aeabi_fadd
 399              	.LVL39:
 400 00fe 3449     		ldr	r1, .L52+8
 401 0100 C862     		str	r0, [r1, #44]	@ float
 402 0102 01E0     		b	.L30
 403              	.L47:
 286:.\motor_CTRL.c **** 				}
 287:.\motor_CTRL.c **** 				else
 288:.\motor_CTRL.c **** 				{
 289:.\motor_CTRL.c **** 					(*paxis).mc.astim_ZCsync = ASTIM_ZC_SYNC_TODO;
 404              		.loc 1 289 0
 405 0104 84F85460 		strb	r6, [r4, #84]
 406              	.L30:
 290:.\motor_CTRL.c **** 				}
 291:.\motor_CTRL.c **** 			}
 292:.\motor_CTRL.c **** 		}
 293:.\motor_CTRL.c **** 
 294:.\motor_CTRL.c **** 		/* Aggancio Zero Cross all'autostimolo (sine e tria) */
 295:.\motor_CTRL.c **** 		if (((*paxis).vparam.astim_type == SINE_ASTIM) || ((*paxis).vparam.astim_type == TRIANGLE_ASTIM))
 407              		.loc 1 295 0
 408 0108 701E     		subs	r0, r6, #1
 409 010a 0128     		cmp	r0, #1
 410 010c 18D8     		bhi	.L34
 296:.\motor_CTRL.c **** 		{
 297:.\motor_CTRL.c **** 			if ((((*paxis).mc.Float_ASTIM > 0) && ((*paxis).mc.Float_ASTIM <= 10)) || ((*paxis).mc.astim_ZCs
 411              		.loc 1 297 0
 412 010e 2846     		mov	r0, r5
 413 0110 0021     		movs	r1, #0
 414 0112 FFF7FEFF 		bl	__aeabi_fcmpgt
 415              	.LVL40:
 416 0116 20B1     		cbz	r0, .L35
 417              		.loc 1 297 0 is_stmt 0 discriminator 1
 418 0118 2846     		mov	r0, r5
 419 011a 3549     		ldr	r1, .L52+40
 420 011c FFF7FEFF 		bl	__aeabi_fcmple
 421              	.LVL41:
 422 0120 20B9     		cbnz	r0, .L37
 423              	.L35:
 424              		.loc 1 297 0 discriminator 2
 425 0122 2B4A     		ldr	r2, .L52+8
 426 0124 92F85430 		ldrb	r3, [r2, #84]	@ zero_extendqisi2
 427 0128 052B     		cmp	r3, #5
 428 012a 11D1     		bne	.L29
 429              	.L37:
 298:.\motor_CTRL.c **** 			{
 299:.\motor_CTRL.c **** 				(*paxis).mc.error = (*paxis).mc.error + (*paxis).mc.Float_ASTIM;	/* Velocity Stimulus Input 			
 430              		.loc 1 299 0 is_stmt 1
 431 012c 284E     		ldr	r6, .L52+8
ARM GAS  C:\Users\Graziano\AppData\Local\Temp\ccSp2HWP.s 			page 14


 432 012e 2946     		mov	r1, r5
 433 0130 F06A     		ldr	r0, [r6, #44]	@ float
 434 0132 FFF7FEFF 		bl	__aeabi_fadd
 435              	.LVL42:
 300:.\motor_CTRL.c **** 				(*paxis).mc.astim_ZCsync = ASTIM_ZC_SYNC_OK;
 436              		.loc 1 300 0
 437 0136 0521     		movs	r1, #5
 299:.\motor_CTRL.c **** 				(*paxis).mc.error = (*paxis).mc.error + (*paxis).mc.Float_ASTIM;	/* Velocity Stimulus Input 			
 438              		.loc 1 299 0
 439 0138 F062     		str	r0, [r6, #44]	@ float
 440              		.loc 1 300 0
 441 013a 86F85410 		strb	r1, [r6, #84]
 442 013e 07E0     		b	.L29
 443              	.L34:
 301:.\motor_CTRL.c **** 			}
 302:.\motor_CTRL.c **** 		}
 303:.\motor_CTRL.c **** 
 304:.\motor_CTRL.c **** 		/* Aggancio immediato all'autostimolo (square) */		
 305:.\motor_CTRL.c **** 		if ((*paxis).vparam.astim_type == SQUARE_ASTIM)
 444              		.loc 1 305 0
 445 0140 032E     		cmp	r6, #3
 446 0142 05D1     		bne	.L29
 306:.\motor_CTRL.c **** 		{
 307:.\motor_CTRL.c **** 			(*paxis).mc.error = (*paxis).mc.error + (*paxis).mc.Float_ASTIM;	/* Velocity Stimulus Input 				
 447              		.loc 1 307 0
 448 0144 224E     		ldr	r6, .L52+8
 449 0146 2946     		mov	r1, r5
 450 0148 F06A     		ldr	r0, [r6, #44]	@ float
 451 014a FFF7FEFF 		bl	__aeabi_fadd
 452              	.LVL43:
 453 014e F062     		str	r0, [r6, #44]	@ float
 454              	.L29:
 308:.\motor_CTRL.c **** 		}
 309:.\motor_CTRL.c **** 	}
 310:.\motor_CTRL.c **** #endif	
 311:.\motor_CTRL.c **** 
 312:.\motor_CTRL.c **** 	/****************************************************************************/
 313:.\motor_CTRL.c **** 	/* PID Calculus										   						*/
 314:.\motor_CTRL.c **** 	/* 	  cv(t) =   PID(e(t)) + Autostimulus									*/
 315:.\motor_CTRL.c **** 	/****************************************************************************/
 316:.\motor_CTRL.c **** 	/* cv(t) = SAT_cvS(Kp * e(t) + Kd * (e(t) - e(t-1)) + Ki * Ksi_Saturated(integral(e(t))) 	*/
 317:.\motor_CTRL.c **** 	/* 11 bit saturation --> cvS=MOTOR_PWM_PERIOD_HALF											*/	
 318:.\motor_CTRL.c **** 	(*paxis).mc.ctrl_var = fpSpid_k2(paxis, MOTOR_PWM_PERIOD_HALF);
 455              		.loc 1 318 0
 456 0150 4FF48061 		mov	r1, #1024
 457 0154 2046     		mov	r0, r4
 458 0156 FFF7FEFF 		bl	fpSpid_k2
 459              	.LVL44:
 319:.\motor_CTRL.c **** 	
 320:.\motor_CTRL.c **** 	
 321:.\motor_CTRL.c **** 	/****************************************************************************/
 322:.\motor_CTRL.c **** 	/* CONTROL VAR PWM refreshing: BASED ON POLARITY							*/
 323:.\motor_CTRL.c **** 	/****************************************************************************/
 324:.\motor_CTRL.c **** 	if ((*paxis).param.polarity == 0)
 460              		.loc 1 324 0
 461 015a 227A     		ldrb	r2, [r4, #8]	@ zero_extendqisi2
 318:.\motor_CTRL.c **** 	(*paxis).mc.ctrl_var = fpSpid_k2(paxis, MOTOR_PWM_PERIOD_HALF);
ARM GAS  C:\Users\Graziano\AppData\Local\Temp\ccSp2HWP.s 			page 15


 462              		.loc 1 318 0
 463 015c 0146     		mov	r1, r0
 464 015e 6064     		str	r0, [r4, #68]	@ float
 465              		.loc 1 324 0
 466 0160 22B9     		cbnz	r2, .L40
 325:.\motor_CTRL.c **** 	{
 326:.\motor_CTRL.c **** 		(*paxis).mc.pwm_var = (uint16)((*paxis).mc.ctrl_var + MOTOR_PWM_PERIOD_HALF);			
 467              		.loc 1 326 0
 468 0162 4FF08941 		mov	r1, #1149239296
 469 0166 FFF7FEFF 		bl	__aeabi_fadd
 470              	.LVL45:
 471 016a 03E0     		b	.L49
 472              	.L40:
 327:.\motor_CTRL.c **** 	}
 328:.\motor_CTRL.c **** 	else
 329:.\motor_CTRL.c **** 	{			
 330:.\motor_CTRL.c **** 		(*paxis).mc.pwm_var = (uint16)(MOTOR_PWM_PERIOD_HALF - (*paxis).mc.ctrl_var);
 473              		.loc 1 330 0
 474 016c 4FF08940 		mov	r0, #1149239296
 475 0170 FFF7FEFF 		bl	__aeabi_fsub
 476              	.LVL46:
 477              	.L49:
 478 0174 FFF7FEFF 		bl	__aeabi_f2uiz
 479              	.LVL47:
 331:.\motor_CTRL.c **** 	}
 332:.\motor_CTRL.c **** 	
 333:.\motor_CTRL.c **** 	
 334:.\motor_CTRL.c **** 	/****************************************************************************/
 335:.\motor_CTRL.c **** 	/* PWM MOTOR Output (11.5bit)												*/
 336:.\motor_CTRL.c **** 	/****************************************************************************/
 337:.\motor_CTRL.c **** 	if (paxis == &pan_axis)
 480              		.loc 1 337 0
 481 0178 154B     		ldr	r3, .L52+8
 330:.\motor_CTRL.c **** 		(*paxis).mc.pwm_var = (uint16)(MOTOR_PWM_PERIOD_HALF - (*paxis).mc.ctrl_var);
 482              		.loc 1 330 0
 483 017a A4F84800 		strh	r0, [r4, #72]	@ movhi
 484              		.loc 1 337 0
 485 017e 9C42     		cmp	r4, r3
 486 0180 0BD1     		bne	.L42
 338:.\motor_CTRL.c **** 	{
 339:.\motor_CTRL.c **** 		if (machine_state == GOBEE_TEST) 
 487              		.loc 1 339 0
 488 0182 1C49     		ldr	r1, .L52+44
 489 0184 0A78     		ldrb	r2, [r1, #0]	@ zero_extendqisi2
 490 0186 022A     		cmp	r2, #2
 340:.\motor_CTRL.c **** 		{
 341:.\motor_CTRL.c **** 			PWM_MOTOR_PAN_WriteCompare((int16)pan_axis.mc.pwm_test_var);
 491              		.loc 1 341 0
 492 0188 0CBF     		ite	eq
 493 018a B4F84A00 		ldrheq	r0, [r4, #74]
 342:.\motor_CTRL.c **** 		}
 343:.\motor_CTRL.c **** 		else
 344:.\motor_CTRL.c **** 		{
 345:.\motor_CTRL.c **** 			PWM_MOTOR_PAN_WriteCompare((int16)pan_axis.mc.pwm_var);
 494              		.loc 1 345 0
 495 018e B4F84800 		ldrhne	r0, [r4, #72]
 346:.\motor_CTRL.c **** 		}
ARM GAS  C:\Users\Graziano\AppData\Local\Temp\ccSp2HWP.s 			page 16


 347:.\motor_CTRL.c **** 	}
 348:.\motor_CTRL.c ****     else if (paxis == &tilt_axis)
 349:.\motor_CTRL.c **** 	{
 350:.\motor_CTRL.c **** 		if (machine_state == GOBEE_TEST) 
 351:.\motor_CTRL.c **** 		{
 352:.\motor_CTRL.c **** 			PWM_MOTOR_TILT_WriteCompare((int16)tilt_axis.mc.pwm_test_var);
 353:.\motor_CTRL.c **** 		}
 354:.\motor_CTRL.c **** 		else
 355:.\motor_CTRL.c **** 		{
 356:.\motor_CTRL.c **** 			PWM_MOTOR_TILT_WriteCompare((int16)tilt_axis.mc.pwm_var);
 357:.\motor_CTRL.c **** 		}
 358:.\motor_CTRL.c **** 	}
 359:.\motor_CTRL.c **** 	else		/* Firmware Internal Error */
 360:.\motor_CTRL.c **** 	{
 361:.\motor_CTRL.c **** 		PWM_MOTOR_PAN_WriteCompare(MOTOR_PWM_PERIOD_HALF);
 362:.\motor_CTRL.c **** 		PWM_MOTOR_TILT_WriteCompare(MOTOR_PWM_PERIOD_HALF);
 363:.\motor_CTRL.c **** 	}			
 364:.\motor_CTRL.c **** }
 496              		.loc 1 364 0
 497 0192 BDE8F840 		pop	{r3, r4, r5, r6, r7, lr}
 345:.\motor_CTRL.c **** 			PWM_MOTOR_PAN_WriteCompare((int16)pan_axis.mc.pwm_var);
 498              		.loc 1 345 0
 499 0196 FFF7FEBF 		b	PWM_MOTOR_PAN_WriteCompare
 500              	.LVL48:
 501              	.L42:
 348:.\motor_CTRL.c ****     else if (paxis == &tilt_axis)
 502              		.loc 1 348 0
 503 019a 1049     		ldr	r1, .L52+20
 504 019c 8C42     		cmp	r4, r1
 505 019e 08D1     		bne	.L44
 350:.\motor_CTRL.c **** 		if (machine_state == GOBEE_TEST) 
 506              		.loc 1 350 0
 507 01a0 144A     		ldr	r2, .L52+44
 508 01a2 1378     		ldrb	r3, [r2, #0]	@ zero_extendqisi2
 509 01a4 022B     		cmp	r3, #2
 352:.\motor_CTRL.c **** 			PWM_MOTOR_TILT_WriteCompare((int16)tilt_axis.mc.pwm_test_var);
 510              		.loc 1 352 0
 511 01a6 0CBF     		ite	eq
 512 01a8 B4F84A00 		ldrheq	r0, [r4, #74]
 356:.\motor_CTRL.c **** 			PWM_MOTOR_TILT_WriteCompare((int16)tilt_axis.mc.pwm_var);
 513              		.loc 1 356 0
 514 01ac B4F84800 		ldrhne	r0, [r4, #72]
 515 01b0 05E0     		b	.L51
 516              	.L44:
 361:.\motor_CTRL.c **** 		PWM_MOTOR_PAN_WriteCompare(MOTOR_PWM_PERIOD_HALF);
 517              		.loc 1 361 0
 518 01b2 4FF48060 		mov	r0, #1024
 519 01b6 FFF7FEFF 		bl	PWM_MOTOR_PAN_WriteCompare
 520              	.LVL49:
 362:.\motor_CTRL.c **** 		PWM_MOTOR_TILT_WriteCompare(MOTOR_PWM_PERIOD_HALF);
 521              		.loc 1 362 0
 522 01ba 4FF48060 		mov	r0, #1024
 523              	.L51:
 524              		.loc 1 364 0
 525 01be BDE8F840 		pop	{r3, r4, r5, r6, r7, lr}
 362:.\motor_CTRL.c **** 		PWM_MOTOR_TILT_WriteCompare(MOTOR_PWM_PERIOD_HALF);
 526              		.loc 1 362 0
ARM GAS  C:\Users\Graziano\AppData\Local\Temp\ccSp2HWP.s 			page 17


 527 01c2 FFF7FEBF 		b	PWM_MOTOR_TILT_WriteCompare
 528              	.LVL50:
 529              	.L53:
 530 01c6 00BF     		.align	3
 531              	.L52:
 532 01c8 83DE1B43 		.word	1125899907
 533 01cc 0070D73F 		.word	1071083520
 534 01d0 00000000 		.word	pan_axis
 535 01d4 00000000 		.word	AdcValue
 536 01d8 00000000 		.word	pan_feedback_encoder
 537 01dc 00000000 		.word	tilt_axis
 538 01e0 00000000 		.word	tilt_feedback_encoder
 539 01e4 0000CD43 		.word	1137508352
 540 01e8 00004842 		.word	1112014848
 541 01ec 000048C2 		.word	-1035468800
 542 01f0 00002041 		.word	1092616192
 543 01f4 00000000 		.word	machine_state
 544              		.cfi_endproc
 545              	.LFE57:
 546              		.size	motor_control, .-motor_control
 547              		.section	.text.motor_init,"ax",%progbits
 548              		.align	1
 549              		.global	motor_init
 550              		.thumb
 551              		.thumb_func
 552              		.type	motor_init, %function
 553              	motor_init:
 554              	.LFB58:
 365:.\motor_CTRL.c **** 	
 366:.\motor_CTRL.c **** void motor_init(struct MOTOR_AXIS *paxis)
 367:.\motor_CTRL.c **** {
 555              		.loc 1 367 0
 556              		.cfi_startproc
 557              		@ args = 0, pretend = 0, frame = 0
 558              		@ frame_needed = 0, uses_anonymous_args = 0
 559              		@ link register save eliminated.
 560              	.LVL51:
 368:.\motor_CTRL.c **** 	(*paxis).mc.error = 0;
 561              		.loc 1 368 0
 562 0000 0023     		movs	r3, #0
 369:.\motor_CTRL.c **** 	
 370:.\motor_CTRL.c **** 	(*paxis).mc.master_enc_position = 0;
 563              		.loc 1 370 0
 564 0002 0021     		movs	r1, #0
 368:.\motor_CTRL.c **** 	(*paxis).mc.error = 0;
 565              		.loc 1 368 0
 566 0004 C362     		str	r3, [r0, #44]	@ float
 567              		.loc 1 370 0
 568 0006 8162     		str	r1, [r0, #40]
 569 0008 7047     		bx	lr
 570              		.cfi_endproc
 571              	.LFE58:
 572              		.size	motor_init, .-motor_init
 573              		.section	.text.mototor_energize,"ax",%progbits
 574              		.align	1
 575              		.global	mototor_energize
 576              		.thumb
ARM GAS  C:\Users\Graziano\AppData\Local\Temp\ccSp2HWP.s 			page 18


 577              		.thumb_func
 578              		.type	mototor_energize, %function
 579              	mototor_energize:
 580              	.LFB59:
 371:.\motor_CTRL.c **** }
 372:.\motor_CTRL.c **** 
 373:.\motor_CTRL.c **** void mototor_energize(struct MOTOR_AXIS *paxis)
 374:.\motor_CTRL.c **** {
 581              		.loc 1 374 0
 582              		.cfi_startproc
 583              		@ args = 0, pretend = 0, frame = 0
 584              		@ frame_needed = 0, uses_anonymous_args = 0
 585              		@ link register save eliminated.
 586              	.LVL52:
 375:.\motor_CTRL.c **** 	if ((paxis == &pan_axis) || (paxis == &tilt_axis))
 587              		.loc 1 375 0
 588 0000 044B     		ldr	r3, .L58
 589 0002 9842     		cmp	r0, r3
 590 0004 02D0     		beq	.L56
 591              		.loc 1 375 0 is_stmt 0 discriminator 1
 592 0006 0449     		ldr	r1, .L58+4
 593 0008 8842     		cmp	r0, r1
 594 000a 02D1     		bne	.L55
 595              	.L56:
 376:.\motor_CTRL.c **** 	{
 377:.\motor_CTRL.c **** 		Control_Reg_MOTOR_Write(0x01);
 596              		.loc 1 377 0 is_stmt 1
 597 000c 0120     		movs	r0, #1
 598              	.LVL53:
 378:.\motor_CTRL.c **** 	}
 379:.\motor_CTRL.c **** }
 599              		.loc 1 379 0
 377:.\motor_CTRL.c **** 		Control_Reg_MOTOR_Write(0x01);
 600              		.loc 1 377 0
 601 000e FFF7FEBF 		b	Control_Reg_MOTOR_Write
 602              	.LVL54:
 603              	.L55:
 604 0012 7047     		bx	lr
 605              	.L59:
 606              		.align	2
 607              	.L58:
 608 0014 00000000 		.word	pan_axis
 609 0018 00000000 		.word	tilt_axis
 610              		.cfi_endproc
 611              	.LFE59:
 612              		.size	mototor_energize, .-mototor_energize
 613              		.section	.text.mototor_sleep,"ax",%progbits
 614              		.align	1
 615              		.global	mototor_sleep
 616              		.thumb
 617              		.thumb_func
 618              		.type	mototor_sleep, %function
 619              	mototor_sleep:
 620              	.LFB60:
 380:.\motor_CTRL.c **** 
 381:.\motor_CTRL.c **** 
 382:.\motor_CTRL.c **** void mototor_sleep(struct MOTOR_AXIS *paxis)
ARM GAS  C:\Users\Graziano\AppData\Local\Temp\ccSp2HWP.s 			page 19


 383:.\motor_CTRL.c **** {
 621              		.loc 1 383 0
 622              		.cfi_startproc
 623              		@ args = 0, pretend = 0, frame = 0
 624              		@ frame_needed = 0, uses_anonymous_args = 0
 625              		@ link register save eliminated.
 626              	.LVL55:
 384:.\motor_CTRL.c **** 	if ((paxis == &pan_axis) || (paxis == &tilt_axis))
 627              		.loc 1 384 0
 628 0000 044B     		ldr	r3, .L63
 629 0002 9842     		cmp	r0, r3
 630 0004 02D0     		beq	.L61
 631              		.loc 1 384 0 is_stmt 0 discriminator 1
 632 0006 0449     		ldr	r1, .L63+4
 633 0008 8842     		cmp	r0, r1
 634 000a 02D1     		bne	.L60
 635              	.L61:
 385:.\motor_CTRL.c **** 	{
 386:.\motor_CTRL.c **** 		Control_Reg_MOTOR_Write(0x00);
 636              		.loc 1 386 0 is_stmt 1
 637 000c 0020     		movs	r0, #0
 638              	.LVL56:
 387:.\motor_CTRL.c **** 	}
 388:.\motor_CTRL.c **** }
 639              		.loc 1 388 0
 386:.\motor_CTRL.c **** 		Control_Reg_MOTOR_Write(0x00);
 640              		.loc 1 386 0
 641 000e FFF7FEBF 		b	Control_Reg_MOTOR_Write
 642              	.LVL57:
 643              	.L60:
 644 0012 7047     		bx	lr
 645              	.L64:
 646              		.align	2
 647              	.L63:
 648 0014 00000000 		.word	pan_axis
 649 0018 00000000 		.word	tilt_axis
 650              		.cfi_endproc
 651              	.LFE60:
 652              		.size	mototor_sleep, .-mototor_sleep
 653              		.comm	gobee_vparam,0,1
 654              		.text
 655              	.Letext0:
 656              		.file 2 "c:\\program files (x86)\\cypress\\psoc creator\\3.0\\psoc creator\\import\\gnu_cs\\arm\\4
 657              		.file 3 "./Generated_Source/PSoC5/cytypes.h"
 658              		.file 4 "./gobee.h"
 659              		.file 5 "./Generated_Source/PSoC5/core_cm3.h"
 660              		.file 6 "./Generated_Source/PSoC5/QuadDec_PAN.h"
 661              		.file 7 "./Generated_Source/PSoC5/QuadDec_TILT.h"
 662              		.file 8 "./estimators.h"
 663              		.file 9 "./pid_lib.h"
 664              		.file 10 "./Generated_Source/PSoC5/VDAC8_ANAPOS.h"
 665              		.file 11 "./Generated_Source/PSoC5/PWM_MOTOR_PAN.h"
 666              		.file 12 "./Generated_Source/PSoC5/PWM_MOTOR_TILT.h"
 667              		.file 13 "./Generated_Source/PSoC5/Control_Reg_MOTOR.h"