ARM GAS  C:\Users\Graziano\AppData\Local\Temp\ccLIIWzU.s 			page 1


   1              		.syntax unified
   2              		.cpu cortex-m3
   3              		.fpu softvfp
   4              		.eabi_attribute 20, 1
   5              		.eabi_attribute 21, 1
   6              		.eabi_attribute 23, 3
   7              		.eabi_attribute 24, 1
   8              		.eabi_attribute 25, 1
   9              		.eabi_attribute 26, 1
  10              		.eabi_attribute 30, 4
  11              		.eabi_attribute 34, 1
  12              		.eabi_attribute 18, 4
  13              		.thumb
  14              		.file	"PGA_ASTIM.c"
  15              		.text
  16              	.Ltext0:
  17              		.cfi_sections	.debug_frame
  18              		.section	.text.PGA_ASTIM_Enable,"ax",%progbits
  19              		.align	1
  20              		.global	PGA_ASTIM_Enable
  21              		.thumb
  22              		.thumb_func
  23              		.type	PGA_ASTIM_Enable, %function
  24              	PGA_ASTIM_Enable:
  25              	.LFB1:
  26              		.file 1 ".\\Generated_Source\\PSoC5\\PGA_ASTIM.c"
   1:.\Generated_Source\PSoC5/PGA_ASTIM.c **** /*******************************************************************************
   2:.\Generated_Source\PSoC5/PGA_ASTIM.c **** * File Name: PGA_ASTIM.c  
   3:.\Generated_Source\PSoC5/PGA_ASTIM.c **** * Version 2.0
   4:.\Generated_Source\PSoC5/PGA_ASTIM.c **** *
   5:.\Generated_Source\PSoC5/PGA_ASTIM.c **** * Description:
   6:.\Generated_Source\PSoC5/PGA_ASTIM.c **** *  This file provides the source code to the API for the PGA 
   7:.\Generated_Source\PSoC5/PGA_ASTIM.c **** *  User Module.
   8:.\Generated_Source\PSoC5/PGA_ASTIM.c **** *
   9:.\Generated_Source\PSoC5/PGA_ASTIM.c **** * Note:
  10:.\Generated_Source\PSoC5/PGA_ASTIM.c **** *
  11:.\Generated_Source\PSoC5/PGA_ASTIM.c **** ********************************************************************************
  12:.\Generated_Source\PSoC5/PGA_ASTIM.c **** * Copyright 2008-2012, Cypress Semiconductor Corporation.  All rights reserved.
  13:.\Generated_Source\PSoC5/PGA_ASTIM.c **** * You may use this file only in accordance with the license, terms, conditions, 
  14:.\Generated_Source\PSoC5/PGA_ASTIM.c **** * disclaimers, and limitations in the end user license agreement accompanying 
  15:.\Generated_Source\PSoC5/PGA_ASTIM.c **** * the software package with which this file was provided.
  16:.\Generated_Source\PSoC5/PGA_ASTIM.c **** *******************************************************************************/
  17:.\Generated_Source\PSoC5/PGA_ASTIM.c **** 
  18:.\Generated_Source\PSoC5/PGA_ASTIM.c **** #include "PGA_ASTIM.h"
  19:.\Generated_Source\PSoC5/PGA_ASTIM.c **** 
  20:.\Generated_Source\PSoC5/PGA_ASTIM.c **** #if (!CY_PSOC5A)
  21:.\Generated_Source\PSoC5/PGA_ASTIM.c ****     #if (CYDEV_VARIABLE_VDDA == 1u)
  22:.\Generated_Source\PSoC5/PGA_ASTIM.c ****         #include "CyScBoostClk.h"
  23:.\Generated_Source\PSoC5/PGA_ASTIM.c ****     #endif /* (CYDEV_VARIABLE_VDDA == 1u) */
  24:.\Generated_Source\PSoC5/PGA_ASTIM.c **** #endif /* (!CY_PSOC5A) */
  25:.\Generated_Source\PSoC5/PGA_ASTIM.c **** 
  26:.\Generated_Source\PSoC5/PGA_ASTIM.c **** #if (CY_PSOC5A)
  27:.\Generated_Source\PSoC5/PGA_ASTIM.c ****     static PGA_ASTIM_BACKUP_STRUCT  PGA_ASTIM_P5backup;
  28:.\Generated_Source\PSoC5/PGA_ASTIM.c **** #endif /* (CY_ PSOC5A) */
  29:.\Generated_Source\PSoC5/PGA_ASTIM.c **** 
  30:.\Generated_Source\PSoC5/PGA_ASTIM.c **** uint8 PGA_ASTIM_initVar = 0u;
  31:.\Generated_Source\PSoC5/PGA_ASTIM.c **** 
ARM GAS  C:\Users\Graziano\AppData\Local\Temp\ccLIIWzU.s 			page 2


  32:.\Generated_Source\PSoC5/PGA_ASTIM.c **** 
  33:.\Generated_Source\PSoC5/PGA_ASTIM.c **** /*******************************************************************************   
  34:.\Generated_Source\PSoC5/PGA_ASTIM.c **** * Function Name: PGA_ASTIM_Init
  35:.\Generated_Source\PSoC5/PGA_ASTIM.c **** ********************************************************************************
  36:.\Generated_Source\PSoC5/PGA_ASTIM.c **** *
  37:.\Generated_Source\PSoC5/PGA_ASTIM.c **** * Summary:
  38:.\Generated_Source\PSoC5/PGA_ASTIM.c **** *  Initialize component's parameters to the parameters set by user in the 
  39:.\Generated_Source\PSoC5/PGA_ASTIM.c **** *  customizer of the component placed onto schematic. Usually called in 
  40:.\Generated_Source\PSoC5/PGA_ASTIM.c **** *  PGA_ASTIM_Start().
  41:.\Generated_Source\PSoC5/PGA_ASTIM.c **** *
  42:.\Generated_Source\PSoC5/PGA_ASTIM.c **** * Parameters:
  43:.\Generated_Source\PSoC5/PGA_ASTIM.c **** *  void
  44:.\Generated_Source\PSoC5/PGA_ASTIM.c **** *
  45:.\Generated_Source\PSoC5/PGA_ASTIM.c **** * Return:
  46:.\Generated_Source\PSoC5/PGA_ASTIM.c **** *  void
  47:.\Generated_Source\PSoC5/PGA_ASTIM.c **** *
  48:.\Generated_Source\PSoC5/PGA_ASTIM.c **** *******************************************************************************/
  49:.\Generated_Source\PSoC5/PGA_ASTIM.c **** void PGA_ASTIM_Init(void) 
  50:.\Generated_Source\PSoC5/PGA_ASTIM.c **** {
  51:.\Generated_Source\PSoC5/PGA_ASTIM.c ****     /* Set PGA mode */
  52:.\Generated_Source\PSoC5/PGA_ASTIM.c ****     PGA_ASTIM_CR0_REG = PGA_ASTIM_MODE_PGA;      
  53:.\Generated_Source\PSoC5/PGA_ASTIM.c ****     /* Set non-inverting PGA mode and reference mode */
  54:.\Generated_Source\PSoC5/PGA_ASTIM.c ****     PGA_ASTIM_CR1_REG |= PGA_ASTIM_PGA_NINV;  
  55:.\Generated_Source\PSoC5/PGA_ASTIM.c ****     /* Set default gain and ref mode */
  56:.\Generated_Source\PSoC5/PGA_ASTIM.c ****     PGA_ASTIM_CR2_REG = PGA_ASTIM_VREF_MODE;
  57:.\Generated_Source\PSoC5/PGA_ASTIM.c ****     /* Set gain and compensation */
  58:.\Generated_Source\PSoC5/PGA_ASTIM.c ****     PGA_ASTIM_SetGain(PGA_ASTIM_DEFAULT_GAIN);
  59:.\Generated_Source\PSoC5/PGA_ASTIM.c ****     /* Set power */
  60:.\Generated_Source\PSoC5/PGA_ASTIM.c ****     PGA_ASTIM_SetPower(PGA_ASTIM_DEFAULT_POWER);
  61:.\Generated_Source\PSoC5/PGA_ASTIM.c **** }
  62:.\Generated_Source\PSoC5/PGA_ASTIM.c **** 
  63:.\Generated_Source\PSoC5/PGA_ASTIM.c **** 
  64:.\Generated_Source\PSoC5/PGA_ASTIM.c **** /*******************************************************************************   
  65:.\Generated_Source\PSoC5/PGA_ASTIM.c **** * Function Name: PGA_ASTIM_Enable
  66:.\Generated_Source\PSoC5/PGA_ASTIM.c **** ********************************************************************************
  67:.\Generated_Source\PSoC5/PGA_ASTIM.c **** *
  68:.\Generated_Source\PSoC5/PGA_ASTIM.c **** * Summary:
  69:.\Generated_Source\PSoC5/PGA_ASTIM.c **** *  Enables the PGA block operation.
  70:.\Generated_Source\PSoC5/PGA_ASTIM.c **** *
  71:.\Generated_Source\PSoC5/PGA_ASTIM.c **** * Parameters:
  72:.\Generated_Source\PSoC5/PGA_ASTIM.c **** *  void
  73:.\Generated_Source\PSoC5/PGA_ASTIM.c **** *
  74:.\Generated_Source\PSoC5/PGA_ASTIM.c **** * Return:
  75:.\Generated_Source\PSoC5/PGA_ASTIM.c **** *  void
  76:.\Generated_Source\PSoC5/PGA_ASTIM.c **** *
  77:.\Generated_Source\PSoC5/PGA_ASTIM.c **** *******************************************************************************/
  78:.\Generated_Source\PSoC5/PGA_ASTIM.c **** void PGA_ASTIM_Enable(void) 
  79:.\Generated_Source\PSoC5/PGA_ASTIM.c **** {
  27              		.loc 1 79 0
  28              		.cfi_startproc
  29              		@ args = 0, pretend = 0, frame = 0
  30              		@ frame_needed = 0, uses_anonymous_args = 0
  31              		@ link register save eliminated.
  80:.\Generated_Source\PSoC5/PGA_ASTIM.c ****     /* This is to restore the value of register CR1 and CR2 which is saved 
  81:.\Generated_Source\PSoC5/PGA_ASTIM.c ****       in prior to the modifications in stop() API */
  82:.\Generated_Source\PSoC5/PGA_ASTIM.c ****     #if (CY_PSOC5A)
  83:.\Generated_Source\PSoC5/PGA_ASTIM.c ****         if(PGA_ASTIM_P5backup.enableState == 1u)
ARM GAS  C:\Users\Graziano\AppData\Local\Temp\ccLIIWzU.s 			page 3


  84:.\Generated_Source\PSoC5/PGA_ASTIM.c ****         {
  85:.\Generated_Source\PSoC5/PGA_ASTIM.c ****             PGA_ASTIM_CR1_REG = PGA_ASTIM_P5backup.scCR1Reg;
  86:.\Generated_Source\PSoC5/PGA_ASTIM.c ****             PGA_ASTIM_CR2_REG = PGA_ASTIM_P5backup.scCR2Reg;
  87:.\Generated_Source\PSoC5/PGA_ASTIM.c ****             PGA_ASTIM_P5backup.enableState = 0u;
  88:.\Generated_Source\PSoC5/PGA_ASTIM.c ****         }
  89:.\Generated_Source\PSoC5/PGA_ASTIM.c ****     #endif /* CY_PSOC5A */   
  90:.\Generated_Source\PSoC5/PGA_ASTIM.c **** 
  91:.\Generated_Source\PSoC5/PGA_ASTIM.c ****     /* Enable power to the Amp in Active mode*/
  92:.\Generated_Source\PSoC5/PGA_ASTIM.c ****     PGA_ASTIM_PM_ACT_CFG_REG |= PGA_ASTIM_ACT_PWR_EN;
  32              		.loc 1 92 0
  33 0000 074B     		ldr	r3, .L2
  34 0002 1A78     		ldrb	r2, [r3, #0]	@ zero_extendqisi2
  35 0004 42F00400 		orr	r0, r2, #4
  36 0008 1870     		strb	r0, [r3, #0]
  93:.\Generated_Source\PSoC5/PGA_ASTIM.c **** 
  94:.\Generated_Source\PSoC5/PGA_ASTIM.c ****     /* Enable power to the Amp in Alternative Active mode*/
  95:.\Generated_Source\PSoC5/PGA_ASTIM.c ****     PGA_ASTIM_PM_STBY_CFG_REG |= PGA_ASTIM_STBY_PWR_EN;
  37              		.loc 1 95 0
  38 000a 197C     		ldrb	r1, [r3, #16]	@ zero_extendqisi2
  39 000c 41F00402 		orr	r2, r1, #4
  40 0010 1A74     		strb	r2, [r3, #16]
  96:.\Generated_Source\PSoC5/PGA_ASTIM.c ****     
  97:.\Generated_Source\PSoC5/PGA_ASTIM.c ****     PGA_ASTIM_PUMP_CR1_REG |= PGA_ASTIM_PUMP_CR1_SC_CLKSEL;
  41              		.loc 1 97 0
  42 0012 044B     		ldr	r3, .L2+4
  43 0014 1878     		ldrb	r0, [r3, #0]	@ zero_extendqisi2
  44 0016 40F08001 		orr	r1, r0, #128
  45 001a 1970     		strb	r1, [r3, #0]
  46 001c 7047     		bx	lr
  47              	.L3:
  48 001e 00BF     		.align	2
  49              	.L2:
  50 0020 A9430040 		.word	1073759145
  51 0024 77580040 		.word	1073764471
  52              		.cfi_endproc
  53              	.LFE1:
  54              		.size	PGA_ASTIM_Enable, .-PGA_ASTIM_Enable
  55              		.section	.text.PGA_ASTIM_Stop,"ax",%progbits
  56              		.align	1
  57              		.global	PGA_ASTIM_Stop
  58              		.thumb
  59              		.thumb_func
  60              		.type	PGA_ASTIM_Stop, %function
  61              	PGA_ASTIM_Stop:
  62              	.LFB3:
  98:.\Generated_Source\PSoC5/PGA_ASTIM.c ****     
  99:.\Generated_Source\PSoC5/PGA_ASTIM.c ****     #if (!CY_PSOC5A)
 100:.\Generated_Source\PSoC5/PGA_ASTIM.c ****         #if (CYDEV_VARIABLE_VDDA == 1u)
 101:.\Generated_Source\PSoC5/PGA_ASTIM.c ****             if(CyScPumpEnabled == 1u)
 102:.\Generated_Source\PSoC5/PGA_ASTIM.c ****             {
 103:.\Generated_Source\PSoC5/PGA_ASTIM.c ****                 PGA_ASTIM_BSTCLK_REG &= (uint8)(~PGA_ASTIM_BST_CLK_INDEX_MASK);
 104:.\Generated_Source\PSoC5/PGA_ASTIM.c ****                 PGA_ASTIM_BSTCLK_REG |= PGA_ASTIM_BST_CLK_EN | CyScBoostClk__INDEX;
 105:.\Generated_Source\PSoC5/PGA_ASTIM.c ****                 PGA_ASTIM_SC_MISC_REG |= PGA_ASTIM_PUMP_FORCE;
 106:.\Generated_Source\PSoC5/PGA_ASTIM.c ****                 CyScBoostClk_Start();
 107:.\Generated_Source\PSoC5/PGA_ASTIM.c ****             }
 108:.\Generated_Source\PSoC5/PGA_ASTIM.c ****             else
 109:.\Generated_Source\PSoC5/PGA_ASTIM.c ****             {
ARM GAS  C:\Users\Graziano\AppData\Local\Temp\ccLIIWzU.s 			page 4


 110:.\Generated_Source\PSoC5/PGA_ASTIM.c ****                 PGA_ASTIM_BSTCLK_REG &= (uint8)(~PGA_ASTIM_BST_CLK_EN);
 111:.\Generated_Source\PSoC5/PGA_ASTIM.c ****                 PGA_ASTIM_SC_MISC_REG &= (uint8)(~PGA_ASTIM_PUMP_FORCE);
 112:.\Generated_Source\PSoC5/PGA_ASTIM.c ****             }
 113:.\Generated_Source\PSoC5/PGA_ASTIM.c ****         #endif /* (CYDEV_VARIABLE_VDDA == 1u) */
 114:.\Generated_Source\PSoC5/PGA_ASTIM.c ****     #endif /* (!CY_PSOC5A) */
 115:.\Generated_Source\PSoC5/PGA_ASTIM.c **** }
 116:.\Generated_Source\PSoC5/PGA_ASTIM.c **** 
 117:.\Generated_Source\PSoC5/PGA_ASTIM.c **** 
 118:.\Generated_Source\PSoC5/PGA_ASTIM.c **** /*******************************************************************************
 119:.\Generated_Source\PSoC5/PGA_ASTIM.c **** * Function Name: PGA_ASTIM_Start
 120:.\Generated_Source\PSoC5/PGA_ASTIM.c **** ********************************************************************************
 121:.\Generated_Source\PSoC5/PGA_ASTIM.c **** *
 122:.\Generated_Source\PSoC5/PGA_ASTIM.c **** * Summary:
 123:.\Generated_Source\PSoC5/PGA_ASTIM.c **** *  The start function initializes the PGA with the default values and sets
 124:.\Generated_Source\PSoC5/PGA_ASTIM.c **** *  the power to the given level. A power level of 0, is same as executing
 125:.\Generated_Source\PSoC5/PGA_ASTIM.c **** *  the stop function.
 126:.\Generated_Source\PSoC5/PGA_ASTIM.c **** *
 127:.\Generated_Source\PSoC5/PGA_ASTIM.c **** * Parameters:
 128:.\Generated_Source\PSoC5/PGA_ASTIM.c **** *  void
 129:.\Generated_Source\PSoC5/PGA_ASTIM.c **** *
 130:.\Generated_Source\PSoC5/PGA_ASTIM.c **** * Return:
 131:.\Generated_Source\PSoC5/PGA_ASTIM.c **** *  void
 132:.\Generated_Source\PSoC5/PGA_ASTIM.c **** *
 133:.\Generated_Source\PSoC5/PGA_ASTIM.c **** *******************************************************************************/
 134:.\Generated_Source\PSoC5/PGA_ASTIM.c **** void PGA_ASTIM_Start(void) 
 135:.\Generated_Source\PSoC5/PGA_ASTIM.c **** {
 136:.\Generated_Source\PSoC5/PGA_ASTIM.c **** 
 137:.\Generated_Source\PSoC5/PGA_ASTIM.c ****     /* This is to restore the value of register CR1 and CR2 which is saved 
 138:.\Generated_Source\PSoC5/PGA_ASTIM.c ****       in prior to the modification in stop() API */
 139:.\Generated_Source\PSoC5/PGA_ASTIM.c **** 
 140:.\Generated_Source\PSoC5/PGA_ASTIM.c ****     if(PGA_ASTIM_initVar == 0u)
 141:.\Generated_Source\PSoC5/PGA_ASTIM.c ****     {
 142:.\Generated_Source\PSoC5/PGA_ASTIM.c ****         PGA_ASTIM_Init();
 143:.\Generated_Source\PSoC5/PGA_ASTIM.c ****         PGA_ASTIM_initVar = 1u;
 144:.\Generated_Source\PSoC5/PGA_ASTIM.c ****     }
 145:.\Generated_Source\PSoC5/PGA_ASTIM.c **** 
 146:.\Generated_Source\PSoC5/PGA_ASTIM.c ****     PGA_ASTIM_Enable();
 147:.\Generated_Source\PSoC5/PGA_ASTIM.c **** }
 148:.\Generated_Source\PSoC5/PGA_ASTIM.c **** 
 149:.\Generated_Source\PSoC5/PGA_ASTIM.c **** 
 150:.\Generated_Source\PSoC5/PGA_ASTIM.c **** /*******************************************************************************
 151:.\Generated_Source\PSoC5/PGA_ASTIM.c **** * Function Name: PGA_ASTIM_Stop
 152:.\Generated_Source\PSoC5/PGA_ASTIM.c **** ********************************************************************************
 153:.\Generated_Source\PSoC5/PGA_ASTIM.c **** *
 154:.\Generated_Source\PSoC5/PGA_ASTIM.c **** * Summary:
 155:.\Generated_Source\PSoC5/PGA_ASTIM.c **** *  Powers down amplifier to lowest power state.
 156:.\Generated_Source\PSoC5/PGA_ASTIM.c **** *
 157:.\Generated_Source\PSoC5/PGA_ASTIM.c **** * Parameters:
 158:.\Generated_Source\PSoC5/PGA_ASTIM.c **** *  void
 159:.\Generated_Source\PSoC5/PGA_ASTIM.c **** *
 160:.\Generated_Source\PSoC5/PGA_ASTIM.c **** * Return:
 161:.\Generated_Source\PSoC5/PGA_ASTIM.c **** *  void
 162:.\Generated_Source\PSoC5/PGA_ASTIM.c **** *
 163:.\Generated_Source\PSoC5/PGA_ASTIM.c **** *******************************************************************************/
 164:.\Generated_Source\PSoC5/PGA_ASTIM.c **** void PGA_ASTIM_Stop(void) 
 165:.\Generated_Source\PSoC5/PGA_ASTIM.c **** { 
  63              		.loc 1 165 0
ARM GAS  C:\Users\Graziano\AppData\Local\Temp\ccLIIWzU.s 			page 5


  64              		.cfi_startproc
  65              		@ args = 0, pretend = 0, frame = 0
  66              		@ frame_needed = 0, uses_anonymous_args = 0
  67              		@ link register save eliminated.
 166:.\Generated_Source\PSoC5/PGA_ASTIM.c ****     /* Disble power to the Amp in Active mode template */
 167:.\Generated_Source\PSoC5/PGA_ASTIM.c ****     PGA_ASTIM_PM_ACT_CFG_REG &= (uint8)(~PGA_ASTIM_ACT_PWR_EN);
  68              		.loc 1 167 0
  69 0000 044B     		ldr	r3, .L5
  70 0002 1A78     		ldrb	r2, [r3, #0]	@ zero_extendqisi2
  71 0004 02F0FB00 		and	r0, r2, #251
  72 0008 1870     		strb	r0, [r3, #0]
 168:.\Generated_Source\PSoC5/PGA_ASTIM.c **** 
 169:.\Generated_Source\PSoC5/PGA_ASTIM.c ****     /* Disble power to the Amp in Alternative Active mode template */
 170:.\Generated_Source\PSoC5/PGA_ASTIM.c ****     PGA_ASTIM_PM_STBY_CFG_REG &= (uint8)(~PGA_ASTIM_STBY_PWR_EN);
  73              		.loc 1 170 0
  74 000a 197C     		ldrb	r1, [r3, #16]	@ zero_extendqisi2
  75 000c 01F0FB02 		and	r2, r1, #251
  76 0010 1A74     		strb	r2, [r3, #16]
  77 0012 7047     		bx	lr
  78              	.L6:
  79              		.align	2
  80              	.L5:
  81 0014 A9430040 		.word	1073759145
  82              		.cfi_endproc
  83              	.LFE3:
  84              		.size	PGA_ASTIM_Stop, .-PGA_ASTIM_Stop
  85              		.section	.text.PGA_ASTIM_SetPower,"ax",%progbits
  86              		.align	1
  87              		.global	PGA_ASTIM_SetPower
  88              		.thumb
  89              		.thumb_func
  90              		.type	PGA_ASTIM_SetPower, %function
  91              	PGA_ASTIM_SetPower:
  92              	.LFB4:
 171:.\Generated_Source\PSoC5/PGA_ASTIM.c **** 
 172:.\Generated_Source\PSoC5/PGA_ASTIM.c ****     #if (!CY_PSOC5A)
 173:.\Generated_Source\PSoC5/PGA_ASTIM.c ****         #if (CYDEV_VARIABLE_VDDA == 1u)
 174:.\Generated_Source\PSoC5/PGA_ASTIM.c ****             PGA_ASTIM_BSTCLK_REG &= (uint8)(~PGA_ASTIM_BST_CLK_EN);
 175:.\Generated_Source\PSoC5/PGA_ASTIM.c ****             /* Disable pumps only if there aren't any SC block in use */
 176:.\Generated_Source\PSoC5/PGA_ASTIM.c ****             if ((PGA_ASTIM_PM_ACT_CFG_REG & PGA_ASTIM_PM_ACT_CFG_MASK) == 0u)
 177:.\Generated_Source\PSoC5/PGA_ASTIM.c ****             {
 178:.\Generated_Source\PSoC5/PGA_ASTIM.c ****                 PGA_ASTIM_SC_MISC_REG &= (uint8)(~PGA_ASTIM_PUMP_FORCE);
 179:.\Generated_Source\PSoC5/PGA_ASTIM.c ****                 PGA_ASTIM_PUMP_CR1_REG &= (uint8)(~PGA_ASTIM_PUMP_CR1_SC_CLKSEL);
 180:.\Generated_Source\PSoC5/PGA_ASTIM.c ****                 CyScBoostClk_Stop();
 181:.\Generated_Source\PSoC5/PGA_ASTIM.c ****             }
 182:.\Generated_Source\PSoC5/PGA_ASTIM.c ****         #endif /* CYDEV_VARIABLE_VDDA == 1u */
 183:.\Generated_Source\PSoC5/PGA_ASTIM.c ****     #endif /* (CY_PSOC3 || CY_PSOC5LP) */
 184:.\Generated_Source\PSoC5/PGA_ASTIM.c **** 
 185:.\Generated_Source\PSoC5/PGA_ASTIM.c ****     /* This sets PGA in zero current mode and output routes are valid */
 186:.\Generated_Source\PSoC5/PGA_ASTIM.c ****     #if (CY_PSOC5A)
 187:.\Generated_Source\PSoC5/PGA_ASTIM.c ****         PGA_ASTIM_P5backup.scCR1Reg = PGA_ASTIM_CR1_REG;
 188:.\Generated_Source\PSoC5/PGA_ASTIM.c ****         PGA_ASTIM_P5backup.scCR2Reg = PGA_ASTIM_CR2_REG;
 189:.\Generated_Source\PSoC5/PGA_ASTIM.c ****         PGA_ASTIM_CR1_REG = 0x00u;
 190:.\Generated_Source\PSoC5/PGA_ASTIM.c ****         PGA_ASTIM_CR2_REG = 0x00u;
 191:.\Generated_Source\PSoC5/PGA_ASTIM.c ****         PGA_ASTIM_P5backup.enableState = 1u;
 192:.\Generated_Source\PSoC5/PGA_ASTIM.c ****     #endif /* CY_PSOC5A */
 193:.\Generated_Source\PSoC5/PGA_ASTIM.c **** }
ARM GAS  C:\Users\Graziano\AppData\Local\Temp\ccLIIWzU.s 			page 6


 194:.\Generated_Source\PSoC5/PGA_ASTIM.c **** 
 195:.\Generated_Source\PSoC5/PGA_ASTIM.c **** 
 196:.\Generated_Source\PSoC5/PGA_ASTIM.c **** /*******************************************************************************
 197:.\Generated_Source\PSoC5/PGA_ASTIM.c **** * Function Name: PGA_ASTIM_SetPower
 198:.\Generated_Source\PSoC5/PGA_ASTIM.c **** ********************************************************************************
 199:.\Generated_Source\PSoC5/PGA_ASTIM.c **** *
 200:.\Generated_Source\PSoC5/PGA_ASTIM.c **** * Summary:
 201:.\Generated_Source\PSoC5/PGA_ASTIM.c **** *  Set the power of the PGA.
 202:.\Generated_Source\PSoC5/PGA_ASTIM.c **** *
 203:.\Generated_Source\PSoC5/PGA_ASTIM.c **** * Parameters:
 204:.\Generated_Source\PSoC5/PGA_ASTIM.c **** *  power: Sets power level between (0) and (3) high power
 205:.\Generated_Source\PSoC5/PGA_ASTIM.c **** *
 206:.\Generated_Source\PSoC5/PGA_ASTIM.c **** * Return:
 207:.\Generated_Source\PSoC5/PGA_ASTIM.c **** *  void
 208:.\Generated_Source\PSoC5/PGA_ASTIM.c **** *
 209:.\Generated_Source\PSoC5/PGA_ASTIM.c **** *******************************************************************************/
 210:.\Generated_Source\PSoC5/PGA_ASTIM.c **** void PGA_ASTIM_SetPower(uint8 power) 
 211:.\Generated_Source\PSoC5/PGA_ASTIM.c **** {
  93              		.loc 1 211 0
  94              		.cfi_startproc
  95              		@ args = 0, pretend = 0, frame = 0
  96              		@ frame_needed = 0, uses_anonymous_args = 0
  97              		@ link register save eliminated.
  98              	.LVL0:
 212:.\Generated_Source\PSoC5/PGA_ASTIM.c ****     uint8 tmpCR;
 213:.\Generated_Source\PSoC5/PGA_ASTIM.c **** 
 214:.\Generated_Source\PSoC5/PGA_ASTIM.c ****     tmpCR = PGA_ASTIM_CR1_REG & (uint8)(~PGA_ASTIM_DRIVE_MASK);
  99              		.loc 1 214 0
 100 0000 044B     		ldr	r3, .L8
 215:.\Generated_Source\PSoC5/PGA_ASTIM.c ****     tmpCR |= (power & PGA_ASTIM_DRIVE_MASK);
 101              		.loc 1 215 0
 102 0002 00F00300 		and	r0, r0, #3
 103              	.LVL1:
 214:.\Generated_Source\PSoC5/PGA_ASTIM.c ****     tmpCR = PGA_ASTIM_CR1_REG & (uint8)(~PGA_ASTIM_DRIVE_MASK);
 104              		.loc 1 214 0
 105 0006 1A78     		ldrb	r2, [r3, #0]	@ zero_extendqisi2
 106 0008 02F0FC01 		and	r1, r2, #252
 107              	.LVL2:
 108              		.loc 1 215 0
 109 000c 0143     		orrs	r1, r1, r0
 110              	.LVL3:
 216:.\Generated_Source\PSoC5/PGA_ASTIM.c ****     PGA_ASTIM_CR1_REG = tmpCR;  
 111              		.loc 1 216 0
 112 000e 1970     		strb	r1, [r3, #0]
 113 0010 7047     		bx	lr
 114              	.L9:
 115 0012 00BF     		.align	2
 116              	.L8:
 117 0014 09580040 		.word	1073764361
 118              		.cfi_endproc
 119              	.LFE4:
 120              		.size	PGA_ASTIM_SetPower, .-PGA_ASTIM_SetPower
 121              		.section	.text.PGA_ASTIM_SetGain,"ax",%progbits
 122              		.align	1
 123              		.global	PGA_ASTIM_SetGain
 124              		.thumb
 125              		.thumb_func
ARM GAS  C:\Users\Graziano\AppData\Local\Temp\ccLIIWzU.s 			page 7


 126              		.type	PGA_ASTIM_SetGain, %function
 127              	PGA_ASTIM_SetGain:
 128              	.LFB5:
 217:.\Generated_Source\PSoC5/PGA_ASTIM.c **** }
 218:.\Generated_Source\PSoC5/PGA_ASTIM.c **** 
 219:.\Generated_Source\PSoC5/PGA_ASTIM.c **** 
 220:.\Generated_Source\PSoC5/PGA_ASTIM.c **** /*******************************************************************************
 221:.\Generated_Source\PSoC5/PGA_ASTIM.c **** * Function Name: PGA_ASTIM_SetGain
 222:.\Generated_Source\PSoC5/PGA_ASTIM.c **** ********************************************************************************
 223:.\Generated_Source\PSoC5/PGA_ASTIM.c **** *
 224:.\Generated_Source\PSoC5/PGA_ASTIM.c **** * Summary:
 225:.\Generated_Source\PSoC5/PGA_ASTIM.c **** *  This function sets values of the input and feedback resistors to set a 
 226:.\Generated_Source\PSoC5/PGA_ASTIM.c **** *  specific gain of the amplifier.
 227:.\Generated_Source\PSoC5/PGA_ASTIM.c **** *
 228:.\Generated_Source\PSoC5/PGA_ASTIM.c **** * Parameters:
 229:.\Generated_Source\PSoC5/PGA_ASTIM.c **** *  gain: Gain value of PGA (See header file for gain values.)
 230:.\Generated_Source\PSoC5/PGA_ASTIM.c **** *
 231:.\Generated_Source\PSoC5/PGA_ASTIM.c **** * Return:
 232:.\Generated_Source\PSoC5/PGA_ASTIM.c **** *  void 
 233:.\Generated_Source\PSoC5/PGA_ASTIM.c **** *
 234:.\Generated_Source\PSoC5/PGA_ASTIM.c **** *******************************************************************************/
 235:.\Generated_Source\PSoC5/PGA_ASTIM.c **** void PGA_ASTIM_SetGain(uint8 gain) 
 236:.\Generated_Source\PSoC5/PGA_ASTIM.c **** {
 129              		.loc 1 236 0
 130              		.cfi_startproc
 131              		@ args = 0, pretend = 0, frame = 24
 132              		@ frame_needed = 0, uses_anonymous_args = 0
 133              	.LVL4:
 134 0000 10B5     		push	{r4, lr}
 135              	.LCFI0:
 136              		.cfi_def_cfa_offset 8
 137              		.cfi_offset 4, -8
 138              		.cfi_offset 14, -4
 237:.\Generated_Source\PSoC5/PGA_ASTIM.c ****     /* Constant array for gain settings */
 238:.\Generated_Source\PSoC5/PGA_ASTIM.c ****     const uint8 PGA_ASTIM_GainArray[9] = { 
 139              		.loc 1 238 0
 140 0002 1B4A     		ldr	r2, .L13
 236:.\Generated_Source\PSoC5/PGA_ASTIM.c **** {
 141              		.loc 1 236 0
 142 0004 86B0     		sub	sp, sp, #24
 143              	.LCFI1:
 144              		.cfi_def_cfa_offset 32
 145              		.loc 1 238 0
 146 0006 5168     		ldr	r1, [r2, #4]	@ unaligned
 236:.\Generated_Source\PSoC5/PGA_ASTIM.c **** {
 147              		.loc 1 236 0
 148 0008 0446     		mov	r4, r0
 149              		.loc 1 238 0
 150 000a 1068     		ldr	r0, [r2, #0]	@ unaligned
 151              	.LVL5:
 152 000c 6B46     		mov	r3, sp
 153 000e 03C3     		stmia	r3!, {r0, r1}
 154 0010 117A     		ldrb	r1, [r2, #8]	@ zero_extendqisi2
 239:.\Generated_Source\PSoC5/PGA_ASTIM.c ****         (PGA_ASTIM_RVAL_0K   | PGA_ASTIM_R20_40B_40K | PGA_ASTIM_BIAS_LOW), /* G=1  */
 240:.\Generated_Source\PSoC5/PGA_ASTIM.c ****         (PGA_ASTIM_RVAL_40K  | PGA_ASTIM_R20_40B_40K | PGA_ASTIM_BIAS_LOW), /* G=2  */
 241:.\Generated_Source\PSoC5/PGA_ASTIM.c ****         (PGA_ASTIM_RVAL_120K | PGA_ASTIM_R20_40B_40K | PGA_ASTIM_BIAS_LOW), /* G=4  */
 242:.\Generated_Source\PSoC5/PGA_ASTIM.c ****         (PGA_ASTIM_RVAL_280K | PGA_ASTIM_R20_40B_40K | PGA_ASTIM_BIAS_LOW), /* G=8  */
ARM GAS  C:\Users\Graziano\AppData\Local\Temp\ccLIIWzU.s 			page 8


 243:.\Generated_Source\PSoC5/PGA_ASTIM.c ****         (PGA_ASTIM_RVAL_600K | PGA_ASTIM_R20_40B_40K | PGA_ASTIM_BIAS_LOW), /* G=16 */
 244:.\Generated_Source\PSoC5/PGA_ASTIM.c ****         (PGA_ASTIM_RVAL_460K | PGA_ASTIM_R20_40B_40K | PGA_ASTIM_BIAS_LOW), /* G=24, Sets Rin as 20
 245:.\Generated_Source\PSoC5/PGA_ASTIM.c ****         (PGA_ASTIM_RVAL_620K | PGA_ASTIM_R20_40B_20K | PGA_ASTIM_BIAS_LOW), /* G=32 */
 246:.\Generated_Source\PSoC5/PGA_ASTIM.c ****         (PGA_ASTIM_RVAL_470K | PGA_ASTIM_R20_40B_20K | PGA_ASTIM_BIAS_LOW), /* G=48, Sets Rin as 10
 247:.\Generated_Source\PSoC5/PGA_ASTIM.c ****         (PGA_ASTIM_RVAL_490K | PGA_ASTIM_R20_40B_20K | PGA_ASTIM_BIAS_LOW)  /* G=50, Sets Rin as 10
 248:.\Generated_Source\PSoC5/PGA_ASTIM.c ****     };
 249:.\Generated_Source\PSoC5/PGA_ASTIM.c ****     
 250:.\Generated_Source\PSoC5/PGA_ASTIM.c ****     /* Constant array for gain compenstion settings */
 251:.\Generated_Source\PSoC5/PGA_ASTIM.c ****     const uint8 PGA_ASTIM_GainComp[9] = { 
 155              		.loc 1 251 0
 156 0012 52F8090F 		ldr	r0, [r2, #9]!	@ unaligned
 238:.\Generated_Source\PSoC5/PGA_ASTIM.c ****     const uint8 PGA_ASTIM_GainArray[9] = { 
 157              		.loc 1 238 0
 158 0016 1970     		strb	r1, [r3, #0]
 159              		.loc 1 251 0
 160 0018 5168     		ldr	r1, [r2, #4]	@ unaligned
 161 001a 03AB     		add	r3, sp, #12
 162 001c 03C3     		stmia	r3!, {r0, r1}
 163 001e 107A     		ldrb	r0, [r2, #8]	@ zero_extendqisi2
 252:.\Generated_Source\PSoC5/PGA_ASTIM.c ****         ( PGA_ASTIM_COMP_4P35PF  | (uint8)( PGA_ASTIM_REDC_00 >> 2 )), /* G=1  */
 253:.\Generated_Source\PSoC5/PGA_ASTIM.c ****         ( PGA_ASTIM_COMP_4P35PF  | (uint8)( PGA_ASTIM_REDC_01 >> 2 )), /* G=2  */
 254:.\Generated_Source\PSoC5/PGA_ASTIM.c ****         ( PGA_ASTIM_COMP_3P0PF   | (uint8)( PGA_ASTIM_REDC_01 >> 2 )), /* G=4  */
 255:.\Generated_Source\PSoC5/PGA_ASTIM.c ****         ( PGA_ASTIM_COMP_3P0PF   | (uint8)( PGA_ASTIM_REDC_01 >> 2 )), /* G=8  */
 256:.\Generated_Source\PSoC5/PGA_ASTIM.c ****         ( PGA_ASTIM_COMP_3P6PF   | (uint8)( PGA_ASTIM_REDC_01 >> 2 )), /* G=16 */
 257:.\Generated_Source\PSoC5/PGA_ASTIM.c ****         ( PGA_ASTIM_COMP_3P6PF   | (uint8)( PGA_ASTIM_REDC_11 >> 2 )), /* G=24 */
 258:.\Generated_Source\PSoC5/PGA_ASTIM.c ****         ( PGA_ASTIM_COMP_3P6PF   | (uint8)( PGA_ASTIM_REDC_11 >> 2 )), /* G=32 */
 259:.\Generated_Source\PSoC5/PGA_ASTIM.c ****         ( PGA_ASTIM_COMP_3P6PF   | (uint8)( PGA_ASTIM_REDC_00 >> 2 )), /* G=48 */
 260:.\Generated_Source\PSoC5/PGA_ASTIM.c ****         ( PGA_ASTIM_COMP_3P6PF   | (uint8)( PGA_ASTIM_REDC_00 >> 2 ))  /* G=50 */
 261:.\Generated_Source\PSoC5/PGA_ASTIM.c ****     };
 262:.\Generated_Source\PSoC5/PGA_ASTIM.c ****     
 263:.\Generated_Source\PSoC5/PGA_ASTIM.c ****     /* Only set new gain if it is a valid gain */
 264:.\Generated_Source\PSoC5/PGA_ASTIM.c ****     if( gain <= PGA_ASTIM_GAIN_MAX)
 164              		.loc 1 264 0
 165 0020 082C     		cmp	r4, #8
 251:.\Generated_Source\PSoC5/PGA_ASTIM.c ****     const uint8 PGA_ASTIM_GainComp[9] = { 
 166              		.loc 1 251 0
 167 0022 1870     		strb	r0, [r3, #0]
 168              		.loc 1 264 0
 169 0024 21D8     		bhi	.L10
 265:.\Generated_Source\PSoC5/PGA_ASTIM.c ****     {
 266:.\Generated_Source\PSoC5/PGA_ASTIM.c ****         /* Clear resistors, redc, and bias */
 267:.\Generated_Source\PSoC5/PGA_ASTIM.c ****         PGA_ASTIM_CR2_REG &= (uint8)(~(PGA_ASTIM_RVAL_MASK | PGA_ASTIM_R20_40B_MASK | 
 170              		.loc 1 267 0
 171 0026 134B     		ldr	r3, .L13+4
 172 0028 1A78     		ldrb	r2, [r3, #0]	@ zero_extendqisi2
 173 002a 02F08001 		and	r1, r2, #128
 174 002e C8B2     		uxtb	r0, r1
 268:.\Generated_Source\PSoC5/PGA_ASTIM.c ****                                 PGA_ASTIM_REDC_MASK | PGA_ASTIM_BIAS_MASK ));
 269:.\Generated_Source\PSoC5/PGA_ASTIM.c **** 
 270:.\Generated_Source\PSoC5/PGA_ASTIM.c ****         /* Set gain value resistors, redc comp, and bias */
 271:.\Generated_Source\PSoC5/PGA_ASTIM.c ****         PGA_ASTIM_CR2_REG |= (PGA_ASTIM_GainArray[gain] |
 175              		.loc 1 271 0
 176 0030 06AA     		add	r2, sp, #24
 267:.\Generated_Source\PSoC5/PGA_ASTIM.c ****         PGA_ASTIM_CR2_REG &= (uint8)(~(PGA_ASTIM_RVAL_MASK | PGA_ASTIM_R20_40B_MASK | 
 177              		.loc 1 267 0
 178 0032 1870     		strb	r0, [r3, #0]
 179              		.loc 1 271 0
ARM GAS  C:\Users\Graziano\AppData\Local\Temp\ccLIIWzU.s 			page 9


 180 0034 1019     		adds	r0, r2, r4
 181 0036 1978     		ldrb	r1, [r3, #0]	@ zero_extendqisi2
 182 0038 10F8182C 		ldrb	r2, [r0, #-24]	@ zero_extendqisi2
 183 003c 0A43     		orrs	r2, r2, r1
 272:.\Generated_Source\PSoC5/PGA_ASTIM.c ****                                 ((uint8)(PGA_ASTIM_GainComp[gain] << 2 ) & PGA_ASTIM_REDC_MASK));
 184              		.loc 1 272 0
 185 003e 10F80C1C 		ldrb	r1, [r0, #-12]	@ zero_extendqisi2
 186 0042 8900     		lsls	r1, r1, #2
 271:.\Generated_Source\PSoC5/PGA_ASTIM.c ****         PGA_ASTIM_CR2_REG |= (PGA_ASTIM_GainArray[gain] |
 187              		.loc 1 271 0
 188 0044 01F00C01 		and	r1, r1, #12
 189 0048 0A43     		orrs	r2, r2, r1
 190 004a 1A70     		strb	r2, [r3, #0]
 273:.\Generated_Source\PSoC5/PGA_ASTIM.c **** 
 274:.\Generated_Source\PSoC5/PGA_ASTIM.c ****         /* Clear sc_comp  */
 275:.\Generated_Source\PSoC5/PGA_ASTIM.c ****         PGA_ASTIM_CR1_REG &= (uint8)(~PGA_ASTIM_COMP_MASK);
 191              		.loc 1 275 0
 192 004c 13F8012C 		ldrb	r2, [r3, #-1]	@ zero_extendqisi2
 193 0050 02F0F301 		and	r1, r2, #243
 194 0054 03F8011C 		strb	r1, [r3, #-1]
 276:.\Generated_Source\PSoC5/PGA_ASTIM.c ****         /* Set sc_comp  */
 277:.\Generated_Source\PSoC5/PGA_ASTIM.c ****         PGA_ASTIM_CR1_REG |= ( PGA_ASTIM_GainComp[gain] | PGA_ASTIM_COMP_MASK );
 195              		.loc 1 277 0
 196 0058 13F8012C 		ldrb	r2, [r3, #-1]	@ zero_extendqisi2
 197 005c 10F80C0C 		ldrb	r0, [r0, #-12]	@ zero_extendqisi2
 198 0060 42F00C02 		orr	r2, r2, #12
 199 0064 0243     		orrs	r2, r2, r0
 200 0066 03F8012C 		strb	r2, [r3, #-1]
 201              	.L10:
 278:.\Generated_Source\PSoC5/PGA_ASTIM.c ****     }
 279:.\Generated_Source\PSoC5/PGA_ASTIM.c **** }
 202              		.loc 1 279 0
 203 006a 06B0     		add	sp, sp, #24
 204 006c 10BD     		pop	{r4, pc}
 205              	.L14:
 206 006e 00BF     		.align	2
 207              	.L13:
 208 0070 00000000 		.word	.LANCHOR0
 209 0074 0A580040 		.word	1073764362
 210              		.cfi_endproc
 211              	.LFE5:
 212              		.size	PGA_ASTIM_SetGain, .-PGA_ASTIM_SetGain
 213              		.section	.text.PGA_ASTIM_Init,"ax",%progbits
 214              		.align	1
 215              		.global	PGA_ASTIM_Init
 216              		.thumb
 217              		.thumb_func
 218              		.type	PGA_ASTIM_Init, %function
 219              	PGA_ASTIM_Init:
 220              	.LFB0:
  50:.\Generated_Source\PSoC5/PGA_ASTIM.c **** {
 221              		.loc 1 50 0
 222              		.cfi_startproc
 223              		@ args = 0, pretend = 0, frame = 0
 224              		@ frame_needed = 0, uses_anonymous_args = 0
 225 0000 08B5     		push	{r3, lr}
 226              	.LCFI2:
ARM GAS  C:\Users\Graziano\AppData\Local\Temp\ccLIIWzU.s 			page 10


 227              		.cfi_def_cfa_offset 8
 228              		.cfi_offset 3, -8
 229              		.cfi_offset 14, -4
  52:.\Generated_Source\PSoC5/PGA_ASTIM.c ****     PGA_ASTIM_CR0_REG = PGA_ASTIM_MODE_PGA;      
 230              		.loc 1 52 0
 231 0002 084B     		ldr	r3, .L16
 232 0004 0C22     		movs	r2, #12
 233 0006 1A70     		strb	r2, [r3, #0]
  54:.\Generated_Source\PSoC5/PGA_ASTIM.c ****     PGA_ASTIM_CR1_REG |= PGA_ASTIM_PGA_NINV;  
 234              		.loc 1 54 0
 235 0008 5878     		ldrb	r0, [r3, #1]	@ zero_extendqisi2
 236 000a 40F02001 		orr	r1, r0, #32
  56:.\Generated_Source\PSoC5/PGA_ASTIM.c ****     PGA_ASTIM_CR2_REG = PGA_ASTIM_VREF_MODE;
 237              		.loc 1 56 0
 238 000e 0020     		movs	r0, #0
  54:.\Generated_Source\PSoC5/PGA_ASTIM.c ****     PGA_ASTIM_CR1_REG |= PGA_ASTIM_PGA_NINV;  
 239              		.loc 1 54 0
 240 0010 5970     		strb	r1, [r3, #1]
  56:.\Generated_Source\PSoC5/PGA_ASTIM.c ****     PGA_ASTIM_CR2_REG = PGA_ASTIM_VREF_MODE;
 241              		.loc 1 56 0
 242 0012 9870     		strb	r0, [r3, #2]
  58:.\Generated_Source\PSoC5/PGA_ASTIM.c ****     PGA_ASTIM_SetGain(PGA_ASTIM_DEFAULT_GAIN);
 243              		.loc 1 58 0
 244 0014 FFF7FEFF 		bl	PGA_ASTIM_SetGain
 245              	.LVL6:
  60:.\Generated_Source\PSoC5/PGA_ASTIM.c ****     PGA_ASTIM_SetPower(PGA_ASTIM_DEFAULT_POWER);
 246              		.loc 1 60 0
 247 0018 0120     		movs	r0, #1
  61:.\Generated_Source\PSoC5/PGA_ASTIM.c **** }
 248              		.loc 1 61 0
 249 001a BDE80840 		pop	{r3, lr}
  60:.\Generated_Source\PSoC5/PGA_ASTIM.c ****     PGA_ASTIM_SetPower(PGA_ASTIM_DEFAULT_POWER);
 250              		.loc 1 60 0
 251 001e FFF7FEBF 		b	PGA_ASTIM_SetPower
 252              	.LVL7:
 253              	.L17:
 254 0022 00BF     		.align	2
 255              	.L16:
 256 0024 08580040 		.word	1073764360
 257              		.cfi_endproc
 258              	.LFE0:
 259              		.size	PGA_ASTIM_Init, .-PGA_ASTIM_Init
 260              		.section	.text.PGA_ASTIM_Start,"ax",%progbits
 261              		.align	1
 262              		.global	PGA_ASTIM_Start
 263              		.thumb
 264              		.thumb_func
 265              		.type	PGA_ASTIM_Start, %function
 266              	PGA_ASTIM_Start:
 267              	.LFB2:
 135:.\Generated_Source\PSoC5/PGA_ASTIM.c **** {
 268              		.loc 1 135 0
 269              		.cfi_startproc
 270              		@ args = 0, pretend = 0, frame = 0
 271              		@ frame_needed = 0, uses_anonymous_args = 0
 272 0000 10B5     		push	{r4, lr}
 273              	.LCFI3:
ARM GAS  C:\Users\Graziano\AppData\Local\Temp\ccLIIWzU.s 			page 11


 274              		.cfi_def_cfa_offset 8
 275              		.cfi_offset 4, -8
 276              		.cfi_offset 14, -4
 140:.\Generated_Source\PSoC5/PGA_ASTIM.c ****     if(PGA_ASTIM_initVar == 0u)
 277              		.loc 1 140 0
 278 0002 054C     		ldr	r4, .L20
 279 0004 2378     		ldrb	r3, [r4, #0]	@ zero_extendqisi2
 280 0006 1BB9     		cbnz	r3, .L19
 142:.\Generated_Source\PSoC5/PGA_ASTIM.c ****         PGA_ASTIM_Init();
 281              		.loc 1 142 0
 282 0008 FFF7FEFF 		bl	PGA_ASTIM_Init
 283              	.LVL8:
 143:.\Generated_Source\PSoC5/PGA_ASTIM.c ****         PGA_ASTIM_initVar = 1u;
 284              		.loc 1 143 0
 285 000c 0120     		movs	r0, #1
 286 000e 2070     		strb	r0, [r4, #0]
 287              	.L19:
 147:.\Generated_Source\PSoC5/PGA_ASTIM.c **** }
 288              		.loc 1 147 0
 289 0010 BDE81040 		pop	{r4, lr}
 146:.\Generated_Source\PSoC5/PGA_ASTIM.c ****     PGA_ASTIM_Enable();
 290              		.loc 1 146 0
 291 0014 FFF7FEBF 		b	PGA_ASTIM_Enable
 292              	.LVL9:
 293              	.L21:
 294              		.align	2
 295              	.L20:
 296 0018 00000000 		.word	.LANCHOR1
 297              		.cfi_endproc
 298              	.LFE2:
 299              		.size	PGA_ASTIM_Start, .-PGA_ASTIM_Start
 300              		.global	PGA_ASTIM_initVar
 301              		.section	.rodata
 302              		.set	.LANCHOR0,. + 0
 303              	.LC0:
 304 0000 01       		.byte	1
 305 0001 11       		.byte	17
 306 0002 21       		.byte	33
 307 0003 31       		.byte	49
 308 0004 41       		.byte	65
 309 0005 61       		.byte	97
 310 0006 53       		.byte	83
 311 0007 63       		.byte	99
 312 0008 73       		.byte	115
 313              	.LC1:
 314 0009 08       		.byte	8
 315 000a 09       		.byte	9
 316 000b 01       		.byte	1
 317 000c 01       		.byte	1
 318 000d 05       		.byte	5
 319 000e 07       		.byte	7
 320 000f 07       		.byte	7
 321 0010 04       		.byte	4
 322 0011 04       		.byte	4
 323              		.bss
 324              		.set	.LANCHOR1,. + 0
 325              		.type	PGA_ASTIM_initVar, %object
ARM GAS  C:\Users\Graziano\AppData\Local\Temp\ccLIIWzU.s 			page 12


 326              		.size	PGA_ASTIM_initVar, 1
 327              	PGA_ASTIM_initVar:
 328 0000 00       		.space	1
 329              		.text
 330              	.Letext0:
 331              		.file 2 ".\\Generated_Source\\PSoC5\\cytypes.h"