ARM GAS  C:\Users\Graziano\AppData\Local\Temp\ccxs7yXP.s 			page 1


   1              		.syntax unified
   2              		.cpu cortex-m3
   3              		.fpu softvfp
   4              		.eabi_attribute 20, 1
   5              		.eabi_attribute 21, 1
   6              		.eabi_attribute 23, 3
   7              		.eabi_attribute 24, 1
   8              		.eabi_attribute 25, 1
   9              		.eabi_attribute 26, 1
  10              		.eabi_attribute 30, 4
  11              		.eabi_attribute 34, 1
  12              		.eabi_attribute 18, 4
  13              		.thumb
  14              		.file	"PWM_MOTOR_TILT.c"
  15              		.text
  16              	.Ltext0:
  17              		.cfi_sections	.debug_frame
  18              		.section	.text.PWM_MOTOR_TILT_Enable,"ax",%progbits
  19              		.align	1
  20              		.global	PWM_MOTOR_TILT_Enable
  21              		.thumb
  22              		.thumb_func
  23              		.type	PWM_MOTOR_TILT_Enable, %function
  24              	PWM_MOTOR_TILT_Enable:
  25              	.LFB2:
  26              		.file 1 ".\\Generated_Source\\PSoC5\\PWM_MOTOR_TILT.c"
   1:.\Generated_Source\PSoC5/PWM_MOTOR_TILT.c **** /*******************************************************************************
   2:.\Generated_Source\PSoC5/PWM_MOTOR_TILT.c **** * File Name: PWM_MOTOR_TILT.c  
   3:.\Generated_Source\PSoC5/PWM_MOTOR_TILT.c **** * Version 3.0
   4:.\Generated_Source\PSoC5/PWM_MOTOR_TILT.c **** *
   5:.\Generated_Source\PSoC5/PWM_MOTOR_TILT.c **** * Description:
   6:.\Generated_Source\PSoC5/PWM_MOTOR_TILT.c **** *  The PWM User Module consist of an 8 or 16-bit counter with two 8 or 16-bit
   7:.\Generated_Source\PSoC5/PWM_MOTOR_TILT.c **** *  comparitors. Each instance of this user module is capable of generating
   8:.\Generated_Source\PSoC5/PWM_MOTOR_TILT.c **** *  two PWM outputs with the same period. The pulse width is selectable between
   9:.\Generated_Source\PSoC5/PWM_MOTOR_TILT.c **** *  1 and 255/65535. The period is selectable between 2 and 255/65536 clocks. 
  10:.\Generated_Source\PSoC5/PWM_MOTOR_TILT.c **** *  The compare value output may be configured to be active when the present 
  11:.\Generated_Source\PSoC5/PWM_MOTOR_TILT.c **** *  counter is less than or less than/equal to the compare value.
  12:.\Generated_Source\PSoC5/PWM_MOTOR_TILT.c **** *  A terminal count output is also provided. It generates a pulse one clock
  13:.\Generated_Source\PSoC5/PWM_MOTOR_TILT.c **** *  width wide when the counter is equal to zero.
  14:.\Generated_Source\PSoC5/PWM_MOTOR_TILT.c **** *
  15:.\Generated_Source\PSoC5/PWM_MOTOR_TILT.c **** * Note:
  16:.\Generated_Source\PSoC5/PWM_MOTOR_TILT.c **** *
  17:.\Generated_Source\PSoC5/PWM_MOTOR_TILT.c **** *******************************************************************************
  18:.\Generated_Source\PSoC5/PWM_MOTOR_TILT.c **** * Copyright 2008-2012, Cypress Semiconductor Corporation.  All rights reserved.
  19:.\Generated_Source\PSoC5/PWM_MOTOR_TILT.c **** * You may use this file only in accordance with the license, terms, conditions, 
  20:.\Generated_Source\PSoC5/PWM_MOTOR_TILT.c **** * disclaimers, and limitations in the end user license agreement accompanying 
  21:.\Generated_Source\PSoC5/PWM_MOTOR_TILT.c **** * the software package with which this file was provided.
  22:.\Generated_Source\PSoC5/PWM_MOTOR_TILT.c **** ********************************************************************************/
  23:.\Generated_Source\PSoC5/PWM_MOTOR_TILT.c **** 
  24:.\Generated_Source\PSoC5/PWM_MOTOR_TILT.c **** #include "cytypes.h"
  25:.\Generated_Source\PSoC5/PWM_MOTOR_TILT.c **** #include "PWM_MOTOR_TILT.h"
  26:.\Generated_Source\PSoC5/PWM_MOTOR_TILT.c **** 
  27:.\Generated_Source\PSoC5/PWM_MOTOR_TILT.c **** uint8 PWM_MOTOR_TILT_initVar = 0u;
  28:.\Generated_Source\PSoC5/PWM_MOTOR_TILT.c **** 
  29:.\Generated_Source\PSoC5/PWM_MOTOR_TILT.c **** 
  30:.\Generated_Source\PSoC5/PWM_MOTOR_TILT.c **** /*******************************************************************************
  31:.\Generated_Source\PSoC5/PWM_MOTOR_TILT.c **** * Function Name: PWM_MOTOR_TILT_Start
ARM GAS  C:\Users\Graziano\AppData\Local\Temp\ccxs7yXP.s 			page 2


  32:.\Generated_Source\PSoC5/PWM_MOTOR_TILT.c **** ********************************************************************************
  33:.\Generated_Source\PSoC5/PWM_MOTOR_TILT.c **** *
  34:.\Generated_Source\PSoC5/PWM_MOTOR_TILT.c **** * Summary:
  35:.\Generated_Source\PSoC5/PWM_MOTOR_TILT.c **** *  The start function initializes the pwm with the default values, the 
  36:.\Generated_Source\PSoC5/PWM_MOTOR_TILT.c **** *  enables the counter to begin counting.  It does not enable interrupts,
  37:.\Generated_Source\PSoC5/PWM_MOTOR_TILT.c **** *  the EnableInt command should be called if interrupt generation is required.
  38:.\Generated_Source\PSoC5/PWM_MOTOR_TILT.c **** *
  39:.\Generated_Source\PSoC5/PWM_MOTOR_TILT.c **** * Parameters:  
  40:.\Generated_Source\PSoC5/PWM_MOTOR_TILT.c **** *  None  
  41:.\Generated_Source\PSoC5/PWM_MOTOR_TILT.c **** *
  42:.\Generated_Source\PSoC5/PWM_MOTOR_TILT.c **** * Return: 
  43:.\Generated_Source\PSoC5/PWM_MOTOR_TILT.c **** *  None
  44:.\Generated_Source\PSoC5/PWM_MOTOR_TILT.c **** *
  45:.\Generated_Source\PSoC5/PWM_MOTOR_TILT.c **** * Global variables:
  46:.\Generated_Source\PSoC5/PWM_MOTOR_TILT.c **** *  PWM_MOTOR_TILT_initVar: Is modified when this function is called for the 
  47:.\Generated_Source\PSoC5/PWM_MOTOR_TILT.c **** *   first time. Is used to ensure that initialization happens only once.
  48:.\Generated_Source\PSoC5/PWM_MOTOR_TILT.c **** *
  49:.\Generated_Source\PSoC5/PWM_MOTOR_TILT.c **** *******************************************************************************/
  50:.\Generated_Source\PSoC5/PWM_MOTOR_TILT.c **** void PWM_MOTOR_TILT_Start(void) 
  51:.\Generated_Source\PSoC5/PWM_MOTOR_TILT.c **** {
  52:.\Generated_Source\PSoC5/PWM_MOTOR_TILT.c ****     /* If not Initialized then initialize all required hardware and software */
  53:.\Generated_Source\PSoC5/PWM_MOTOR_TILT.c ****     if(PWM_MOTOR_TILT_initVar == 0u)
  54:.\Generated_Source\PSoC5/PWM_MOTOR_TILT.c ****     {
  55:.\Generated_Source\PSoC5/PWM_MOTOR_TILT.c ****         PWM_MOTOR_TILT_Init();
  56:.\Generated_Source\PSoC5/PWM_MOTOR_TILT.c ****         PWM_MOTOR_TILT_initVar = 1u;
  57:.\Generated_Source\PSoC5/PWM_MOTOR_TILT.c ****     }
  58:.\Generated_Source\PSoC5/PWM_MOTOR_TILT.c ****     PWM_MOTOR_TILT_Enable();
  59:.\Generated_Source\PSoC5/PWM_MOTOR_TILT.c **** 
  60:.\Generated_Source\PSoC5/PWM_MOTOR_TILT.c **** }
  61:.\Generated_Source\PSoC5/PWM_MOTOR_TILT.c **** 
  62:.\Generated_Source\PSoC5/PWM_MOTOR_TILT.c **** 
  63:.\Generated_Source\PSoC5/PWM_MOTOR_TILT.c **** /*******************************************************************************
  64:.\Generated_Source\PSoC5/PWM_MOTOR_TILT.c **** * Function Name: PWM_MOTOR_TILT_Init
  65:.\Generated_Source\PSoC5/PWM_MOTOR_TILT.c **** ********************************************************************************
  66:.\Generated_Source\PSoC5/PWM_MOTOR_TILT.c **** *
  67:.\Generated_Source\PSoC5/PWM_MOTOR_TILT.c **** * Summary:
  68:.\Generated_Source\PSoC5/PWM_MOTOR_TILT.c **** *  Initialize component's parameters to the parameters set by user in the 
  69:.\Generated_Source\PSoC5/PWM_MOTOR_TILT.c **** *  customizer of the component placed onto schematic. Usually called in 
  70:.\Generated_Source\PSoC5/PWM_MOTOR_TILT.c **** *  PWM_MOTOR_TILT_Start().
  71:.\Generated_Source\PSoC5/PWM_MOTOR_TILT.c **** *
  72:.\Generated_Source\PSoC5/PWM_MOTOR_TILT.c **** * Parameters:  
  73:.\Generated_Source\PSoC5/PWM_MOTOR_TILT.c **** *  None
  74:.\Generated_Source\PSoC5/PWM_MOTOR_TILT.c **** *
  75:.\Generated_Source\PSoC5/PWM_MOTOR_TILT.c **** * Return: 
  76:.\Generated_Source\PSoC5/PWM_MOTOR_TILT.c **** *  None
  77:.\Generated_Source\PSoC5/PWM_MOTOR_TILT.c **** *
  78:.\Generated_Source\PSoC5/PWM_MOTOR_TILT.c **** *******************************************************************************/
  79:.\Generated_Source\PSoC5/PWM_MOTOR_TILT.c **** void PWM_MOTOR_TILT_Init(void) 
  80:.\Generated_Source\PSoC5/PWM_MOTOR_TILT.c **** {
  81:.\Generated_Source\PSoC5/PWM_MOTOR_TILT.c ****     #if (PWM_MOTOR_TILT_UsingFixedFunction || PWM_MOTOR_TILT_UseControl)
  82:.\Generated_Source\PSoC5/PWM_MOTOR_TILT.c ****         uint8 ctrl;
  83:.\Generated_Source\PSoC5/PWM_MOTOR_TILT.c ****     #endif /* (PWM_MOTOR_TILT_UsingFixedFunction || PWM_MOTOR_TILT_UseControl) */
  84:.\Generated_Source\PSoC5/PWM_MOTOR_TILT.c ****     
  85:.\Generated_Source\PSoC5/PWM_MOTOR_TILT.c ****     #if(!PWM_MOTOR_TILT_UsingFixedFunction) 
  86:.\Generated_Source\PSoC5/PWM_MOTOR_TILT.c ****         #if(PWM_MOTOR_TILT_UseStatus)
  87:.\Generated_Source\PSoC5/PWM_MOTOR_TILT.c ****             /* Interrupt State Backup for Critical Region*/
  88:.\Generated_Source\PSoC5/PWM_MOTOR_TILT.c ****             uint8 PWM_MOTOR_TILT_interruptState;
ARM GAS  C:\Users\Graziano\AppData\Local\Temp\ccxs7yXP.s 			page 3


  89:.\Generated_Source\PSoC5/PWM_MOTOR_TILT.c ****         #endif /* (PWM_MOTOR_TILT_UseStatus) */
  90:.\Generated_Source\PSoC5/PWM_MOTOR_TILT.c ****     #endif /* (!PWM_MOTOR_TILT_UsingFixedFunction) */
  91:.\Generated_Source\PSoC5/PWM_MOTOR_TILT.c ****     
  92:.\Generated_Source\PSoC5/PWM_MOTOR_TILT.c ****     #if (PWM_MOTOR_TILT_UsingFixedFunction)
  93:.\Generated_Source\PSoC5/PWM_MOTOR_TILT.c ****         /* You are allowed to write the compare value (FF only) */
  94:.\Generated_Source\PSoC5/PWM_MOTOR_TILT.c ****         PWM_MOTOR_TILT_CONTROL |= PWM_MOTOR_TILT_CFG0_MODE;
  95:.\Generated_Source\PSoC5/PWM_MOTOR_TILT.c ****         #if (PWM_MOTOR_TILT_DeadBand2_4)
  96:.\Generated_Source\PSoC5/PWM_MOTOR_TILT.c ****             PWM_MOTOR_TILT_CONTROL |= PWM_MOTOR_TILT_CFG0_DB;
  97:.\Generated_Source\PSoC5/PWM_MOTOR_TILT.c ****         #endif /* (PWM_MOTOR_TILT_DeadBand2_4) */
  98:.\Generated_Source\PSoC5/PWM_MOTOR_TILT.c ****                 
  99:.\Generated_Source\PSoC5/PWM_MOTOR_TILT.c ****         ctrl = PWM_MOTOR_TILT_CONTROL3 & ((uint8 )(~PWM_MOTOR_TILT_CTRL_CMPMODE1_MASK));
 100:.\Generated_Source\PSoC5/PWM_MOTOR_TILT.c ****         PWM_MOTOR_TILT_CONTROL3 = ctrl | PWM_MOTOR_TILT_DEFAULT_COMPARE1_MODE;
 101:.\Generated_Source\PSoC5/PWM_MOTOR_TILT.c ****         
 102:.\Generated_Source\PSoC5/PWM_MOTOR_TILT.c ****          /* Clear and Set SYNCTC and SYNCCMP bits of RT1 register */
 103:.\Generated_Source\PSoC5/PWM_MOTOR_TILT.c ****         PWM_MOTOR_TILT_RT1 &= ((uint8)(~PWM_MOTOR_TILT_RT1_MASK));
 104:.\Generated_Source\PSoC5/PWM_MOTOR_TILT.c ****         PWM_MOTOR_TILT_RT1 |= PWM_MOTOR_TILT_SYNC;     
 105:.\Generated_Source\PSoC5/PWM_MOTOR_TILT.c ****                 
 106:.\Generated_Source\PSoC5/PWM_MOTOR_TILT.c ****         /*Enable DSI Sync all all inputs of the PWM*/
 107:.\Generated_Source\PSoC5/PWM_MOTOR_TILT.c ****         PWM_MOTOR_TILT_RT1 &= ((uint8)(~PWM_MOTOR_TILT_SYNCDSI_MASK));
 108:.\Generated_Source\PSoC5/PWM_MOTOR_TILT.c ****         PWM_MOTOR_TILT_RT1 |= PWM_MOTOR_TILT_SYNCDSI_EN;
 109:.\Generated_Source\PSoC5/PWM_MOTOR_TILT.c ****        
 110:.\Generated_Source\PSoC5/PWM_MOTOR_TILT.c ****     #elif (PWM_MOTOR_TILT_UseControl)
 111:.\Generated_Source\PSoC5/PWM_MOTOR_TILT.c ****         /* Set the default compare mode defined in the parameter */
 112:.\Generated_Source\PSoC5/PWM_MOTOR_TILT.c ****         ctrl = PWM_MOTOR_TILT_CONTROL & ((uint8)(~PWM_MOTOR_TILT_CTRL_CMPMODE2_MASK)) & ((uint8)(~P
 113:.\Generated_Source\PSoC5/PWM_MOTOR_TILT.c ****         PWM_MOTOR_TILT_CONTROL = ctrl | PWM_MOTOR_TILT_DEFAULT_COMPARE2_MODE | 
 114:.\Generated_Source\PSoC5/PWM_MOTOR_TILT.c ****                                    PWM_MOTOR_TILT_DEFAULT_COMPARE1_MODE;
 115:.\Generated_Source\PSoC5/PWM_MOTOR_TILT.c ****     #endif /* (PWM_MOTOR_TILT_UsingFixedFunction) */
 116:.\Generated_Source\PSoC5/PWM_MOTOR_TILT.c ****         
 117:.\Generated_Source\PSoC5/PWM_MOTOR_TILT.c ****     #if (!PWM_MOTOR_TILT_UsingFixedFunction)
 118:.\Generated_Source\PSoC5/PWM_MOTOR_TILT.c ****         #if (PWM_MOTOR_TILT_Resolution == 8)
 119:.\Generated_Source\PSoC5/PWM_MOTOR_TILT.c ****             /* Set FIFO 0 to 1 byte register for period*/
 120:.\Generated_Source\PSoC5/PWM_MOTOR_TILT.c ****             PWM_MOTOR_TILT_AUX_CONTROLDP0 |= (PWM_MOTOR_TILT_AUX_CTRL_FIFO0_CLR);
 121:.\Generated_Source\PSoC5/PWM_MOTOR_TILT.c ****         #else /* (PWM_MOTOR_TILT_Resolution == 16)*/
 122:.\Generated_Source\PSoC5/PWM_MOTOR_TILT.c ****             /* Set FIFO 0 to 1 byte register for period */
 123:.\Generated_Source\PSoC5/PWM_MOTOR_TILT.c ****             PWM_MOTOR_TILT_AUX_CONTROLDP0 |= (PWM_MOTOR_TILT_AUX_CTRL_FIFO0_CLR);
 124:.\Generated_Source\PSoC5/PWM_MOTOR_TILT.c ****             PWM_MOTOR_TILT_AUX_CONTROLDP1 |= (PWM_MOTOR_TILT_AUX_CTRL_FIFO0_CLR);
 125:.\Generated_Source\PSoC5/PWM_MOTOR_TILT.c ****         #endif /* (PWM_MOTOR_TILT_Resolution == 8) */
 126:.\Generated_Source\PSoC5/PWM_MOTOR_TILT.c **** 
 127:.\Generated_Source\PSoC5/PWM_MOTOR_TILT.c ****         PWM_MOTOR_TILT_WriteCounter(PWM_MOTOR_TILT_INIT_PERIOD_VALUE);
 128:.\Generated_Source\PSoC5/PWM_MOTOR_TILT.c ****     #endif /* (!PWM_MOTOR_TILT_UsingFixedFunction) */
 129:.\Generated_Source\PSoC5/PWM_MOTOR_TILT.c ****         
 130:.\Generated_Source\PSoC5/PWM_MOTOR_TILT.c ****     PWM_MOTOR_TILT_WritePeriod(PWM_MOTOR_TILT_INIT_PERIOD_VALUE);
 131:.\Generated_Source\PSoC5/PWM_MOTOR_TILT.c **** 
 132:.\Generated_Source\PSoC5/PWM_MOTOR_TILT.c ****         #if (PWM_MOTOR_TILT_UseOneCompareMode)
 133:.\Generated_Source\PSoC5/PWM_MOTOR_TILT.c ****             PWM_MOTOR_TILT_WriteCompare(PWM_MOTOR_TILT_INIT_COMPARE_VALUE1);
 134:.\Generated_Source\PSoC5/PWM_MOTOR_TILT.c ****         #else
 135:.\Generated_Source\PSoC5/PWM_MOTOR_TILT.c ****             PWM_MOTOR_TILT_WriteCompare1(PWM_MOTOR_TILT_INIT_COMPARE_VALUE1);
 136:.\Generated_Source\PSoC5/PWM_MOTOR_TILT.c ****             PWM_MOTOR_TILT_WriteCompare2(PWM_MOTOR_TILT_INIT_COMPARE_VALUE2);
 137:.\Generated_Source\PSoC5/PWM_MOTOR_TILT.c ****         #endif /* (PWM_MOTOR_TILT_UseOneCompareMode) */
 138:.\Generated_Source\PSoC5/PWM_MOTOR_TILT.c ****         
 139:.\Generated_Source\PSoC5/PWM_MOTOR_TILT.c ****         #if (PWM_MOTOR_TILT_KillModeMinTime)
 140:.\Generated_Source\PSoC5/PWM_MOTOR_TILT.c ****             PWM_MOTOR_TILT_WriteKillTime(PWM_MOTOR_TILT_MinimumKillTime);
 141:.\Generated_Source\PSoC5/PWM_MOTOR_TILT.c ****         #endif /* (PWM_MOTOR_TILT_KillModeMinTime) */
 142:.\Generated_Source\PSoC5/PWM_MOTOR_TILT.c ****         
 143:.\Generated_Source\PSoC5/PWM_MOTOR_TILT.c ****         #if (PWM_MOTOR_TILT_DeadBandUsed)
 144:.\Generated_Source\PSoC5/PWM_MOTOR_TILT.c ****             PWM_MOTOR_TILT_WriteDeadTime(PWM_MOTOR_TILT_INIT_DEAD_TIME);
 145:.\Generated_Source\PSoC5/PWM_MOTOR_TILT.c ****         #endif /* (PWM_MOTOR_TILT_DeadBandUsed) */
ARM GAS  C:\Users\Graziano\AppData\Local\Temp\ccxs7yXP.s 			page 4


 146:.\Generated_Source\PSoC5/PWM_MOTOR_TILT.c **** 
 147:.\Generated_Source\PSoC5/PWM_MOTOR_TILT.c ****     #if (PWM_MOTOR_TILT_UseStatus || PWM_MOTOR_TILT_UsingFixedFunction)
 148:.\Generated_Source\PSoC5/PWM_MOTOR_TILT.c ****         PWM_MOTOR_TILT_SetInterruptMode(PWM_MOTOR_TILT_INIT_INTERRUPTS_MODE);
 149:.\Generated_Source\PSoC5/PWM_MOTOR_TILT.c ****     #endif /* (PWM_MOTOR_TILT_UseStatus || PWM_MOTOR_TILT_UsingFixedFunction) */
 150:.\Generated_Source\PSoC5/PWM_MOTOR_TILT.c ****         
 151:.\Generated_Source\PSoC5/PWM_MOTOR_TILT.c ****     #if (PWM_MOTOR_TILT_UsingFixedFunction)
 152:.\Generated_Source\PSoC5/PWM_MOTOR_TILT.c ****         /* Globally Enable the Fixed Function Block chosen */
 153:.\Generated_Source\PSoC5/PWM_MOTOR_TILT.c ****         PWM_MOTOR_TILT_GLOBAL_ENABLE |= PWM_MOTOR_TILT_BLOCK_EN_MASK;
 154:.\Generated_Source\PSoC5/PWM_MOTOR_TILT.c ****         /* Set the Interrupt source to come from the status register */
 155:.\Generated_Source\PSoC5/PWM_MOTOR_TILT.c ****         PWM_MOTOR_TILT_CONTROL2 |= PWM_MOTOR_TILT_CTRL2_IRQ_SEL;
 156:.\Generated_Source\PSoC5/PWM_MOTOR_TILT.c ****     #else
 157:.\Generated_Source\PSoC5/PWM_MOTOR_TILT.c ****         #if(PWM_MOTOR_TILT_UseStatus)
 158:.\Generated_Source\PSoC5/PWM_MOTOR_TILT.c ****             
 159:.\Generated_Source\PSoC5/PWM_MOTOR_TILT.c ****             /* CyEnterCriticalRegion and CyExitCriticalRegion are used to mark following region cri
 160:.\Generated_Source\PSoC5/PWM_MOTOR_TILT.c ****             /* Enter Critical Region*/
 161:.\Generated_Source\PSoC5/PWM_MOTOR_TILT.c ****             PWM_MOTOR_TILT_interruptState = CyEnterCriticalSection();
 162:.\Generated_Source\PSoC5/PWM_MOTOR_TILT.c ****             /* Use the interrupt output of the status register for IRQ output */
 163:.\Generated_Source\PSoC5/PWM_MOTOR_TILT.c ****             PWM_MOTOR_TILT_STATUS_AUX_CTRL |= PWM_MOTOR_TILT_STATUS_ACTL_INT_EN_MASK;
 164:.\Generated_Source\PSoC5/PWM_MOTOR_TILT.c ****             
 165:.\Generated_Source\PSoC5/PWM_MOTOR_TILT.c ****              /* Exit Critical Region*/
 166:.\Generated_Source\PSoC5/PWM_MOTOR_TILT.c ****             CyExitCriticalSection(PWM_MOTOR_TILT_interruptState);
 167:.\Generated_Source\PSoC5/PWM_MOTOR_TILT.c ****             
 168:.\Generated_Source\PSoC5/PWM_MOTOR_TILT.c ****             /* Clear the FIFO to enable the PWM_MOTOR_TILT_STATUS_FIFOFULL
 169:.\Generated_Source\PSoC5/PWM_MOTOR_TILT.c ****                    bit to be set on FIFO full. */
 170:.\Generated_Source\PSoC5/PWM_MOTOR_TILT.c ****             PWM_MOTOR_TILT_ClearFIFO();
 171:.\Generated_Source\PSoC5/PWM_MOTOR_TILT.c ****         #endif /* (PWM_MOTOR_TILT_UseStatus) */
 172:.\Generated_Source\PSoC5/PWM_MOTOR_TILT.c ****     #endif /* (PWM_MOTOR_TILT_UsingFixedFunction) */
 173:.\Generated_Source\PSoC5/PWM_MOTOR_TILT.c **** }
 174:.\Generated_Source\PSoC5/PWM_MOTOR_TILT.c **** 
 175:.\Generated_Source\PSoC5/PWM_MOTOR_TILT.c **** 
 176:.\Generated_Source\PSoC5/PWM_MOTOR_TILT.c **** /*******************************************************************************
 177:.\Generated_Source\PSoC5/PWM_MOTOR_TILT.c **** * Function Name: PWM_MOTOR_TILT_Enable
 178:.\Generated_Source\PSoC5/PWM_MOTOR_TILT.c **** ********************************************************************************
 179:.\Generated_Source\PSoC5/PWM_MOTOR_TILT.c **** *
 180:.\Generated_Source\PSoC5/PWM_MOTOR_TILT.c **** * Summary: 
 181:.\Generated_Source\PSoC5/PWM_MOTOR_TILT.c **** *  Enables the PWM block operation
 182:.\Generated_Source\PSoC5/PWM_MOTOR_TILT.c **** *
 183:.\Generated_Source\PSoC5/PWM_MOTOR_TILT.c **** * Parameters:  
 184:.\Generated_Source\PSoC5/PWM_MOTOR_TILT.c **** *  None
 185:.\Generated_Source\PSoC5/PWM_MOTOR_TILT.c **** *
 186:.\Generated_Source\PSoC5/PWM_MOTOR_TILT.c **** * Return: 
 187:.\Generated_Source\PSoC5/PWM_MOTOR_TILT.c **** *  None
 188:.\Generated_Source\PSoC5/PWM_MOTOR_TILT.c **** *
 189:.\Generated_Source\PSoC5/PWM_MOTOR_TILT.c **** * Side Effects: 
 190:.\Generated_Source\PSoC5/PWM_MOTOR_TILT.c **** *  This works only if software enable mode is chosen
 191:.\Generated_Source\PSoC5/PWM_MOTOR_TILT.c **** *
 192:.\Generated_Source\PSoC5/PWM_MOTOR_TILT.c **** *******************************************************************************/
 193:.\Generated_Source\PSoC5/PWM_MOTOR_TILT.c **** void PWM_MOTOR_TILT_Enable(void) 
 194:.\Generated_Source\PSoC5/PWM_MOTOR_TILT.c **** {
  27              		.loc 1 194 0
  28              		.cfi_startproc
  29              		@ args = 0, pretend = 0, frame = 0
  30              		@ frame_needed = 0, uses_anonymous_args = 0
  31              		@ link register save eliminated.
 195:.\Generated_Source\PSoC5/PWM_MOTOR_TILT.c ****     /* Globally Enable the Fixed Function Block chosen */
 196:.\Generated_Source\PSoC5/PWM_MOTOR_TILT.c ****     #if (PWM_MOTOR_TILT_UsingFixedFunction)
 197:.\Generated_Source\PSoC5/PWM_MOTOR_TILT.c ****         PWM_MOTOR_TILT_GLOBAL_ENABLE |= PWM_MOTOR_TILT_BLOCK_EN_MASK;
ARM GAS  C:\Users\Graziano\AppData\Local\Temp\ccxs7yXP.s 			page 5


  32              		.loc 1 197 0
  33 0000 074B     		ldr	r3, .L2
  34 0002 1A78     		ldrb	r2, [r3, #0]	@ zero_extendqisi2
  35 0004 42F00400 		orr	r0, r2, #4
  36 0008 1870     		strb	r0, [r3, #0]
 198:.\Generated_Source\PSoC5/PWM_MOTOR_TILT.c ****         PWM_MOTOR_TILT_GLOBAL_STBY_ENABLE |= PWM_MOTOR_TILT_BLOCK_STBY_EN_MASK;
  37              		.loc 1 198 0
  38 000a 197C     		ldrb	r1, [r3, #16]	@ zero_extendqisi2
  39 000c 41F00402 		orr	r2, r1, #4
  40 0010 1A74     		strb	r2, [r3, #16]
 199:.\Generated_Source\PSoC5/PWM_MOTOR_TILT.c ****     #endif /* (PWM_MOTOR_TILT_UsingFixedFunction) */
 200:.\Generated_Source\PSoC5/PWM_MOTOR_TILT.c ****     
 201:.\Generated_Source\PSoC5/PWM_MOTOR_TILT.c ****     /* Enable the PWM from the control register  */
 202:.\Generated_Source\PSoC5/PWM_MOTOR_TILT.c ****     #if (PWM_MOTOR_TILT_UseControl || PWM_MOTOR_TILT_UsingFixedFunction)
 203:.\Generated_Source\PSoC5/PWM_MOTOR_TILT.c ****         PWM_MOTOR_TILT_CONTROL |= PWM_MOTOR_TILT_CTRL_ENABLE;
  41              		.loc 1 203 0
  42 0012 044B     		ldr	r3, .L2+4
  43 0014 1878     		ldrb	r0, [r3, #0]	@ zero_extendqisi2
  44 0016 40F00101 		orr	r1, r0, #1
  45 001a 1970     		strb	r1, [r3, #0]
  46 001c 7047     		bx	lr
  47              	.L3:
  48 001e 00BF     		.align	2
  49              	.L2:
  50 0020 A3430040 		.word	1073759139
  51 0024 184F0040 		.word	1073762072
  52              		.cfi_endproc
  53              	.LFE2:
  54              		.size	PWM_MOTOR_TILT_Enable, .-PWM_MOTOR_TILT_Enable
  55              		.section	.text.PWM_MOTOR_TILT_Stop,"ax",%progbits
  56              		.align	1
  57              		.global	PWM_MOTOR_TILT_Stop
  58              		.thumb
  59              		.thumb_func
  60              		.type	PWM_MOTOR_TILT_Stop, %function
  61              	PWM_MOTOR_TILT_Stop:
  62              	.LFB3:
 204:.\Generated_Source\PSoC5/PWM_MOTOR_TILT.c ****     #endif /* (PWM_MOTOR_TILT_UseControl || PWM_MOTOR_TILT_UsingFixedFunction) */
 205:.\Generated_Source\PSoC5/PWM_MOTOR_TILT.c **** }
 206:.\Generated_Source\PSoC5/PWM_MOTOR_TILT.c **** 
 207:.\Generated_Source\PSoC5/PWM_MOTOR_TILT.c **** 
 208:.\Generated_Source\PSoC5/PWM_MOTOR_TILT.c **** /*******************************************************************************
 209:.\Generated_Source\PSoC5/PWM_MOTOR_TILT.c **** * Function Name: PWM_MOTOR_TILT_Stop
 210:.\Generated_Source\PSoC5/PWM_MOTOR_TILT.c **** ********************************************************************************
 211:.\Generated_Source\PSoC5/PWM_MOTOR_TILT.c **** *
 212:.\Generated_Source\PSoC5/PWM_MOTOR_TILT.c **** * Summary:
 213:.\Generated_Source\PSoC5/PWM_MOTOR_TILT.c **** *  The stop function halts the PWM, but does not change any modes or disable
 214:.\Generated_Source\PSoC5/PWM_MOTOR_TILT.c **** *  interrupts.
 215:.\Generated_Source\PSoC5/PWM_MOTOR_TILT.c **** *
 216:.\Generated_Source\PSoC5/PWM_MOTOR_TILT.c **** * Parameters:  
 217:.\Generated_Source\PSoC5/PWM_MOTOR_TILT.c **** *  None  
 218:.\Generated_Source\PSoC5/PWM_MOTOR_TILT.c **** *
 219:.\Generated_Source\PSoC5/PWM_MOTOR_TILT.c **** * Return: 
 220:.\Generated_Source\PSoC5/PWM_MOTOR_TILT.c **** *  None
 221:.\Generated_Source\PSoC5/PWM_MOTOR_TILT.c **** *
 222:.\Generated_Source\PSoC5/PWM_MOTOR_TILT.c **** * Side Effects:
 223:.\Generated_Source\PSoC5/PWM_MOTOR_TILT.c **** *  If the Enable mode is set to Hardware only then this function
ARM GAS  C:\Users\Graziano\AppData\Local\Temp\ccxs7yXP.s 			page 6


 224:.\Generated_Source\PSoC5/PWM_MOTOR_TILT.c **** *  has no effect on the operation of the PWM
 225:.\Generated_Source\PSoC5/PWM_MOTOR_TILT.c **** *
 226:.\Generated_Source\PSoC5/PWM_MOTOR_TILT.c **** *******************************************************************************/
 227:.\Generated_Source\PSoC5/PWM_MOTOR_TILT.c **** void PWM_MOTOR_TILT_Stop(void) 
 228:.\Generated_Source\PSoC5/PWM_MOTOR_TILT.c **** {
  63              		.loc 1 228 0
  64              		.cfi_startproc
  65              		@ args = 0, pretend = 0, frame = 0
  66              		@ frame_needed = 0, uses_anonymous_args = 0
  67              		@ link register save eliminated.
 229:.\Generated_Source\PSoC5/PWM_MOTOR_TILT.c ****     #if (PWM_MOTOR_TILT_UseControl || PWM_MOTOR_TILT_UsingFixedFunction)
 230:.\Generated_Source\PSoC5/PWM_MOTOR_TILT.c ****         PWM_MOTOR_TILT_CONTROL &= ((uint8)(~PWM_MOTOR_TILT_CTRL_ENABLE));
  68              		.loc 1 230 0
  69 0000 074B     		ldr	r3, .L5
 231:.\Generated_Source\PSoC5/PWM_MOTOR_TILT.c ****     #endif /* (PWM_MOTOR_TILT_UseControl || PWM_MOTOR_TILT_UsingFixedFunction) */
 232:.\Generated_Source\PSoC5/PWM_MOTOR_TILT.c ****     
 233:.\Generated_Source\PSoC5/PWM_MOTOR_TILT.c ****     /* Globally disable the Fixed Function Block chosen */
 234:.\Generated_Source\PSoC5/PWM_MOTOR_TILT.c ****     #if (PWM_MOTOR_TILT_UsingFixedFunction)
 235:.\Generated_Source\PSoC5/PWM_MOTOR_TILT.c ****         PWM_MOTOR_TILT_GLOBAL_ENABLE &= ((uint8)(~PWM_MOTOR_TILT_BLOCK_EN_MASK));
  70              		.loc 1 235 0
  71 0002 0849     		ldr	r1, .L5+4
 230:.\Generated_Source\PSoC5/PWM_MOTOR_TILT.c ****         PWM_MOTOR_TILT_CONTROL &= ((uint8)(~PWM_MOTOR_TILT_CTRL_ENABLE));
  72              		.loc 1 230 0
  73 0004 1A78     		ldrb	r2, [r3, #0]	@ zero_extendqisi2
  74 0006 02F0FE00 		and	r0, r2, #254
  75 000a 1870     		strb	r0, [r3, #0]
  76              		.loc 1 235 0
  77 000c 0B78     		ldrb	r3, [r1, #0]	@ zero_extendqisi2
  78 000e 03F0FB02 		and	r2, r3, #251
  79 0012 0A70     		strb	r2, [r1, #0]
 236:.\Generated_Source\PSoC5/PWM_MOTOR_TILT.c ****         PWM_MOTOR_TILT_GLOBAL_STBY_ENABLE &= ((uint8)(~PWM_MOTOR_TILT_BLOCK_STBY_EN_MASK));
  80              		.loc 1 236 0
  81 0014 087C     		ldrb	r0, [r1, #16]	@ zero_extendqisi2
  82 0016 00F0FB03 		and	r3, r0, #251
  83 001a 0B74     		strb	r3, [r1, #16]
  84 001c 7047     		bx	lr
  85              	.L6:
  86 001e 00BF     		.align	2
  87              	.L5:
  88 0020 184F0040 		.word	1073762072
  89 0024 A3430040 		.word	1073759139
  90              		.cfi_endproc
  91              	.LFE3:
  92              		.size	PWM_MOTOR_TILT_Stop, .-PWM_MOTOR_TILT_Stop
  93              		.section	.text.PWM_MOTOR_TILT_WritePeriod,"ax",%progbits
  94              		.align	1
  95              		.global	PWM_MOTOR_TILT_WritePeriod
  96              		.thumb
  97              		.thumb_func
  98              		.type	PWM_MOTOR_TILT_WritePeriod, %function
  99              	PWM_MOTOR_TILT_WritePeriod:
 100              	.LFB4:
 237:.\Generated_Source\PSoC5/PWM_MOTOR_TILT.c ****     #endif /* (PWM_MOTOR_TILT_UsingFixedFunction) */
 238:.\Generated_Source\PSoC5/PWM_MOTOR_TILT.c **** }
 239:.\Generated_Source\PSoC5/PWM_MOTOR_TILT.c **** 
 240:.\Generated_Source\PSoC5/PWM_MOTOR_TILT.c **** 
 241:.\Generated_Source\PSoC5/PWM_MOTOR_TILT.c **** #if (PWM_MOTOR_TILT_UseOneCompareMode)
ARM GAS  C:\Users\Graziano\AppData\Local\Temp\ccxs7yXP.s 			page 7


 242:.\Generated_Source\PSoC5/PWM_MOTOR_TILT.c **** 	#if (PWM_MOTOR_TILT_CompareMode1SW)
 243:.\Generated_Source\PSoC5/PWM_MOTOR_TILT.c **** 
 244:.\Generated_Source\PSoC5/PWM_MOTOR_TILT.c **** 
 245:.\Generated_Source\PSoC5/PWM_MOTOR_TILT.c **** 		/*******************************************************************************
 246:.\Generated_Source\PSoC5/PWM_MOTOR_TILT.c **** 		* Function Name: PWM_MOTOR_TILT_SetCompareMode
 247:.\Generated_Source\PSoC5/PWM_MOTOR_TILT.c **** 		********************************************************************************
 248:.\Generated_Source\PSoC5/PWM_MOTOR_TILT.c **** 		* 
 249:.\Generated_Source\PSoC5/PWM_MOTOR_TILT.c **** 		* Summary:
 250:.\Generated_Source\PSoC5/PWM_MOTOR_TILT.c **** 		*  This function writes the Compare Mode for the pwm output when in Dither mode,
 251:.\Generated_Source\PSoC5/PWM_MOTOR_TILT.c **** 		*  Center Align Mode or One Output Mode.
 252:.\Generated_Source\PSoC5/PWM_MOTOR_TILT.c **** 		*
 253:.\Generated_Source\PSoC5/PWM_MOTOR_TILT.c **** 		* Parameters:
 254:.\Generated_Source\PSoC5/PWM_MOTOR_TILT.c **** 		*  comparemode:  The new compare mode for the PWM output. Use the compare types
 255:.\Generated_Source\PSoC5/PWM_MOTOR_TILT.c **** 		*                defined in the H file as input arguments.
 256:.\Generated_Source\PSoC5/PWM_MOTOR_TILT.c **** 		*
 257:.\Generated_Source\PSoC5/PWM_MOTOR_TILT.c **** 		* Return:
 258:.\Generated_Source\PSoC5/PWM_MOTOR_TILT.c **** 		*  None
 259:.\Generated_Source\PSoC5/PWM_MOTOR_TILT.c **** 		*
 260:.\Generated_Source\PSoC5/PWM_MOTOR_TILT.c **** 		*******************************************************************************/
 261:.\Generated_Source\PSoC5/PWM_MOTOR_TILT.c **** 		void PWM_MOTOR_TILT_SetCompareMode(uint8 comparemode) 
 262:.\Generated_Source\PSoC5/PWM_MOTOR_TILT.c **** 		{
 263:.\Generated_Source\PSoC5/PWM_MOTOR_TILT.c **** 		    #if(PWM_MOTOR_TILT_UsingFixedFunction)
 264:.\Generated_Source\PSoC5/PWM_MOTOR_TILT.c ****             
 265:.\Generated_Source\PSoC5/PWM_MOTOR_TILT.c ****                 #if(0 != PWM_MOTOR_TILT_CTRL_CMPMODE1_SHIFT)
 266:.\Generated_Source\PSoC5/PWM_MOTOR_TILT.c ****                     uint8 comparemodemasked = ((uint8)((uint8)comparemode << PWM_MOTOR_TILT_CTRL_CM
 267:.\Generated_Source\PSoC5/PWM_MOTOR_TILT.c ****                 #else
 268:.\Generated_Source\PSoC5/PWM_MOTOR_TILT.c ****                     uint8 comparemodemasked = comparemode;
 269:.\Generated_Source\PSoC5/PWM_MOTOR_TILT.c ****                 #endif /* (0 != PWM_MOTOR_TILT_CTRL_CMPMODE1_SHIFT) */
 270:.\Generated_Source\PSoC5/PWM_MOTOR_TILT.c ****             
 271:.\Generated_Source\PSoC5/PWM_MOTOR_TILT.c **** 	            PWM_MOTOR_TILT_CONTROL3 &= ((uint8)(~PWM_MOTOR_TILT_CTRL_CMPMODE1_MASK)); /*Clear Exis
 272:.\Generated_Source\PSoC5/PWM_MOTOR_TILT.c **** 	            PWM_MOTOR_TILT_CONTROL3 |= comparemodemasked;     
 273:.\Generated_Source\PSoC5/PWM_MOTOR_TILT.c **** 		                
 274:.\Generated_Source\PSoC5/PWM_MOTOR_TILT.c **** 		    #elif (PWM_MOTOR_TILT_UseControl)
 275:.\Generated_Source\PSoC5/PWM_MOTOR_TILT.c **** 		        
 276:.\Generated_Source\PSoC5/PWM_MOTOR_TILT.c ****                 #if(0 != PWM_MOTOR_TILT_CTRL_CMPMODE1_SHIFT)
 277:.\Generated_Source\PSoC5/PWM_MOTOR_TILT.c ****                     uint8 comparemode1masked = ((uint8)((uint8)comparemode << PWM_MOTOR_TILT_CTRL_C
 278:.\Generated_Source\PSoC5/PWM_MOTOR_TILT.c ****     		                                    PWM_MOTOR_TILT_CTRL_CMPMODE1_MASK;
 279:.\Generated_Source\PSoC5/PWM_MOTOR_TILT.c ****                 #else
 280:.\Generated_Source\PSoC5/PWM_MOTOR_TILT.c ****                     uint8 comparemode1masked = comparemode & PWM_MOTOR_TILT_CTRL_CMPMODE1_MASK;    
 281:.\Generated_Source\PSoC5/PWM_MOTOR_TILT.c ****                 #endif /* (0 != PWM_MOTOR_TILT_CTRL_CMPMODE1_SHIFT) */
 282:.\Generated_Source\PSoC5/PWM_MOTOR_TILT.c ****                 
 283:.\Generated_Source\PSoC5/PWM_MOTOR_TILT.c ****                 #if(0 != PWM_MOTOR_TILT_CTRL_CMPMODE2_SHIFT)                            
 284:.\Generated_Source\PSoC5/PWM_MOTOR_TILT.c ****     		        uint8 comparemode2masked = ((uint8)((uint8)comparemode << PWM_MOTOR_TILT_CTRL_CMPMODE
 285:.\Generated_Source\PSoC5/PWM_MOTOR_TILT.c ****     		                                   PWM_MOTOR_TILT_CTRL_CMPMODE2_MASK;
 286:.\Generated_Source\PSoC5/PWM_MOTOR_TILT.c ****                 #else
 287:.\Generated_Source\PSoC5/PWM_MOTOR_TILT.c ****     		        uint8 comparemode2masked = comparemode & PWM_MOTOR_TILT_CTRL_CMPMODE2_MASK;          
 288:.\Generated_Source\PSoC5/PWM_MOTOR_TILT.c ****                 #endif /* (0 != PWM_MOTOR_TILT_CTRL_CMPMODE2_SHIFT) */
 289:.\Generated_Source\PSoC5/PWM_MOTOR_TILT.c ****                 
 290:.\Generated_Source\PSoC5/PWM_MOTOR_TILT.c **** 		        /*Clear existing mode */
 291:.\Generated_Source\PSoC5/PWM_MOTOR_TILT.c **** 		        PWM_MOTOR_TILT_CONTROL &= ((uint8)(~(PWM_MOTOR_TILT_CTRL_CMPMODE1_MASK | PWM_MOTOR_TILT_C
 292:.\Generated_Source\PSoC5/PWM_MOTOR_TILT.c **** 		        PWM_MOTOR_TILT_CONTROL |= (comparemode1masked | comparemode2masked);
 293:.\Generated_Source\PSoC5/PWM_MOTOR_TILT.c **** 		        
 294:.\Generated_Source\PSoC5/PWM_MOTOR_TILT.c **** 		    #else
 295:.\Generated_Source\PSoC5/PWM_MOTOR_TILT.c **** 		        uint8 temp = comparemode;
 296:.\Generated_Source\PSoC5/PWM_MOTOR_TILT.c **** 		    #endif /* (PWM_MOTOR_TILT_UsingFixedFunction) */
 297:.\Generated_Source\PSoC5/PWM_MOTOR_TILT.c **** 		}
 298:.\Generated_Source\PSoC5/PWM_MOTOR_TILT.c **** 	#endif /* PWM_MOTOR_TILT_CompareMode1SW */
ARM GAS  C:\Users\Graziano\AppData\Local\Temp\ccxs7yXP.s 			page 8


 299:.\Generated_Source\PSoC5/PWM_MOTOR_TILT.c **** 
 300:.\Generated_Source\PSoC5/PWM_MOTOR_TILT.c **** #else /* UseOneCompareMode */
 301:.\Generated_Source\PSoC5/PWM_MOTOR_TILT.c **** 
 302:.\Generated_Source\PSoC5/PWM_MOTOR_TILT.c **** 	#if (PWM_MOTOR_TILT_CompareMode1SW)
 303:.\Generated_Source\PSoC5/PWM_MOTOR_TILT.c **** 
 304:.\Generated_Source\PSoC5/PWM_MOTOR_TILT.c **** 
 305:.\Generated_Source\PSoC5/PWM_MOTOR_TILT.c **** 		/*******************************************************************************
 306:.\Generated_Source\PSoC5/PWM_MOTOR_TILT.c **** 		* Function Name: PWM_MOTOR_TILT_SetCompareMode1
 307:.\Generated_Source\PSoC5/PWM_MOTOR_TILT.c **** 		********************************************************************************
 308:.\Generated_Source\PSoC5/PWM_MOTOR_TILT.c **** 		* 
 309:.\Generated_Source\PSoC5/PWM_MOTOR_TILT.c **** 		* Summary:
 310:.\Generated_Source\PSoC5/PWM_MOTOR_TILT.c **** 		*  This function writes the Compare Mode for the pwm or pwm1 output
 311:.\Generated_Source\PSoC5/PWM_MOTOR_TILT.c **** 		*
 312:.\Generated_Source\PSoC5/PWM_MOTOR_TILT.c **** 		* Parameters:  
 313:.\Generated_Source\PSoC5/PWM_MOTOR_TILT.c **** 		*  comparemode:  The new compare mode for the PWM output. Use the compare types
 314:.\Generated_Source\PSoC5/PWM_MOTOR_TILT.c **** 		*                defined in the H file as input arguments.
 315:.\Generated_Source\PSoC5/PWM_MOTOR_TILT.c **** 		*
 316:.\Generated_Source\PSoC5/PWM_MOTOR_TILT.c **** 		* Return: 
 317:.\Generated_Source\PSoC5/PWM_MOTOR_TILT.c **** 		*  None
 318:.\Generated_Source\PSoC5/PWM_MOTOR_TILT.c **** 		*
 319:.\Generated_Source\PSoC5/PWM_MOTOR_TILT.c **** 		*******************************************************************************/
 320:.\Generated_Source\PSoC5/PWM_MOTOR_TILT.c **** 		void PWM_MOTOR_TILT_SetCompareMode1(uint8 comparemode) 
 321:.\Generated_Source\PSoC5/PWM_MOTOR_TILT.c **** 		{
 322:.\Generated_Source\PSoC5/PWM_MOTOR_TILT.c **** 		    #if(0 != PWM_MOTOR_TILT_CTRL_CMPMODE1_SHIFT)
 323:.\Generated_Source\PSoC5/PWM_MOTOR_TILT.c ****                 uint8 comparemodemasked = ((uint8)((uint8)comparemode << PWM_MOTOR_TILT_CTRL_CMPMOD
 324:.\Generated_Source\PSoC5/PWM_MOTOR_TILT.c ****     		                               PWM_MOTOR_TILT_CTRL_CMPMODE1_MASK;
 325:.\Generated_Source\PSoC5/PWM_MOTOR_TILT.c **** 		    #else
 326:.\Generated_Source\PSoC5/PWM_MOTOR_TILT.c ****                 uint8 comparemodemasked = comparemode & PWM_MOTOR_TILT_CTRL_CMPMODE1_MASK;         
 327:.\Generated_Source\PSoC5/PWM_MOTOR_TILT.c ****             #endif /* (0 != PWM_MOTOR_TILT_CTRL_CMPMODE1_SHIFT) */
 328:.\Generated_Source\PSoC5/PWM_MOTOR_TILT.c ****                    
 329:.\Generated_Source\PSoC5/PWM_MOTOR_TILT.c **** 		    #if (PWM_MOTOR_TILT_UseControl)
 330:.\Generated_Source\PSoC5/PWM_MOTOR_TILT.c **** 		        PWM_MOTOR_TILT_CONTROL &= ((uint8)(~PWM_MOTOR_TILT_CTRL_CMPMODE1_MASK)); /*Clear existing
 331:.\Generated_Source\PSoC5/PWM_MOTOR_TILT.c **** 		        PWM_MOTOR_TILT_CONTROL |= comparemodemasked;
 332:.\Generated_Source\PSoC5/PWM_MOTOR_TILT.c **** 		    #endif /* (PWM_MOTOR_TILT_UseControl) */
 333:.\Generated_Source\PSoC5/PWM_MOTOR_TILT.c **** 		}
 334:.\Generated_Source\PSoC5/PWM_MOTOR_TILT.c **** 	#endif /* PWM_MOTOR_TILT_CompareMode1SW */
 335:.\Generated_Source\PSoC5/PWM_MOTOR_TILT.c **** 
 336:.\Generated_Source\PSoC5/PWM_MOTOR_TILT.c **** #if (PWM_MOTOR_TILT_CompareMode2SW)
 337:.\Generated_Source\PSoC5/PWM_MOTOR_TILT.c **** 
 338:.\Generated_Source\PSoC5/PWM_MOTOR_TILT.c **** 
 339:.\Generated_Source\PSoC5/PWM_MOTOR_TILT.c ****     /*******************************************************************************
 340:.\Generated_Source\PSoC5/PWM_MOTOR_TILT.c ****     * Function Name: PWM_MOTOR_TILT_SetCompareMode2
 341:.\Generated_Source\PSoC5/PWM_MOTOR_TILT.c ****     ********************************************************************************
 342:.\Generated_Source\PSoC5/PWM_MOTOR_TILT.c ****     * 
 343:.\Generated_Source\PSoC5/PWM_MOTOR_TILT.c ****     * Summary:
 344:.\Generated_Source\PSoC5/PWM_MOTOR_TILT.c ****     *  This function writes the Compare Mode for the pwm or pwm2 output
 345:.\Generated_Source\PSoC5/PWM_MOTOR_TILT.c ****     *
 346:.\Generated_Source\PSoC5/PWM_MOTOR_TILT.c ****     * Parameters:  
 347:.\Generated_Source\PSoC5/PWM_MOTOR_TILT.c ****     *  comparemode:  The new compare mode for the PWM output. Use the compare types
 348:.\Generated_Source\PSoC5/PWM_MOTOR_TILT.c ****     *                defined in the H file as input arguments.
 349:.\Generated_Source\PSoC5/PWM_MOTOR_TILT.c ****     *
 350:.\Generated_Source\PSoC5/PWM_MOTOR_TILT.c ****     * Return: 
 351:.\Generated_Source\PSoC5/PWM_MOTOR_TILT.c ****     *  None
 352:.\Generated_Source\PSoC5/PWM_MOTOR_TILT.c ****     *
 353:.\Generated_Source\PSoC5/PWM_MOTOR_TILT.c ****     *******************************************************************************/
 354:.\Generated_Source\PSoC5/PWM_MOTOR_TILT.c ****     void PWM_MOTOR_TILT_SetCompareMode2(uint8 comparemode) 
 355:.\Generated_Source\PSoC5/PWM_MOTOR_TILT.c ****     {
ARM GAS  C:\Users\Graziano\AppData\Local\Temp\ccxs7yXP.s 			page 9


 356:.\Generated_Source\PSoC5/PWM_MOTOR_TILT.c **** 
 357:.\Generated_Source\PSoC5/PWM_MOTOR_TILT.c ****         #if(0 != PWM_MOTOR_TILT_CTRL_CMPMODE2_SHIFT)
 358:.\Generated_Source\PSoC5/PWM_MOTOR_TILT.c ****             uint8 comparemodemasked = ((uint8)((uint8)comparemode << PWM_MOTOR_TILT_CTRL_CMPMODE2_S
 359:.\Generated_Source\PSoC5/PWM_MOTOR_TILT.c ****                                                  PWM_MOTOR_TILT_CTRL_CMPMODE2_MASK;
 360:.\Generated_Source\PSoC5/PWM_MOTOR_TILT.c ****         #else
 361:.\Generated_Source\PSoC5/PWM_MOTOR_TILT.c ****             uint8 comparemodemasked = comparemode & PWM_MOTOR_TILT_CTRL_CMPMODE2_MASK;            
 362:.\Generated_Source\PSoC5/PWM_MOTOR_TILT.c ****         #endif /* (0 != PWM_MOTOR_TILT_CTRL_CMPMODE2_SHIFT) */
 363:.\Generated_Source\PSoC5/PWM_MOTOR_TILT.c ****         
 364:.\Generated_Source\PSoC5/PWM_MOTOR_TILT.c ****         #if (PWM_MOTOR_TILT_UseControl)
 365:.\Generated_Source\PSoC5/PWM_MOTOR_TILT.c ****             PWM_MOTOR_TILT_CONTROL &= ((uint8)(~PWM_MOTOR_TILT_CTRL_CMPMODE2_MASK)); /*Clear existi
 366:.\Generated_Source\PSoC5/PWM_MOTOR_TILT.c ****             PWM_MOTOR_TILT_CONTROL |= comparemodemasked;
 367:.\Generated_Source\PSoC5/PWM_MOTOR_TILT.c ****         #endif /* (PWM_MOTOR_TILT_UseControl) */
 368:.\Generated_Source\PSoC5/PWM_MOTOR_TILT.c ****     }
 369:.\Generated_Source\PSoC5/PWM_MOTOR_TILT.c ****     #endif /*PWM_MOTOR_TILT_CompareMode2SW */
 370:.\Generated_Source\PSoC5/PWM_MOTOR_TILT.c **** 
 371:.\Generated_Source\PSoC5/PWM_MOTOR_TILT.c **** #endif /* UseOneCompareMode */
 372:.\Generated_Source\PSoC5/PWM_MOTOR_TILT.c **** 
 373:.\Generated_Source\PSoC5/PWM_MOTOR_TILT.c **** 
 374:.\Generated_Source\PSoC5/PWM_MOTOR_TILT.c **** #if (!PWM_MOTOR_TILT_UsingFixedFunction)
 375:.\Generated_Source\PSoC5/PWM_MOTOR_TILT.c **** 
 376:.\Generated_Source\PSoC5/PWM_MOTOR_TILT.c **** 
 377:.\Generated_Source\PSoC5/PWM_MOTOR_TILT.c ****     /*******************************************************************************
 378:.\Generated_Source\PSoC5/PWM_MOTOR_TILT.c ****     * Function Name: PWM_MOTOR_TILT_WriteCounter
 379:.\Generated_Source\PSoC5/PWM_MOTOR_TILT.c ****     ********************************************************************************
 380:.\Generated_Source\PSoC5/PWM_MOTOR_TILT.c ****     * 
 381:.\Generated_Source\PSoC5/PWM_MOTOR_TILT.c ****     * Summary:
 382:.\Generated_Source\PSoC5/PWM_MOTOR_TILT.c ****     *  Writes a new counter value directly to the counter register. This will be 
 383:.\Generated_Source\PSoC5/PWM_MOTOR_TILT.c ****     *  implemented for that currently running period and only that period. This API 
 384:.\Generated_Source\PSoC5/PWM_MOTOR_TILT.c ****     *  is valid only for UDB implementation and not available for fixed function 
 385:.\Generated_Source\PSoC5/PWM_MOTOR_TILT.c ****     *  PWM implementation.    
 386:.\Generated_Source\PSoC5/PWM_MOTOR_TILT.c ****     *
 387:.\Generated_Source\PSoC5/PWM_MOTOR_TILT.c ****     * Parameters:  
 388:.\Generated_Source\PSoC5/PWM_MOTOR_TILT.c ****     *  counter:  The period new period counter value.
 389:.\Generated_Source\PSoC5/PWM_MOTOR_TILT.c ****     *
 390:.\Generated_Source\PSoC5/PWM_MOTOR_TILT.c ****     * Return: 
 391:.\Generated_Source\PSoC5/PWM_MOTOR_TILT.c ****     *  None
 392:.\Generated_Source\PSoC5/PWM_MOTOR_TILT.c ****     *
 393:.\Generated_Source\PSoC5/PWM_MOTOR_TILT.c ****     * Side Effects: 
 394:.\Generated_Source\PSoC5/PWM_MOTOR_TILT.c ****     *  The PWM Period will be reloaded when a counter value will be a zero
 395:.\Generated_Source\PSoC5/PWM_MOTOR_TILT.c ****     *
 396:.\Generated_Source\PSoC5/PWM_MOTOR_TILT.c ****     *******************************************************************************/
 397:.\Generated_Source\PSoC5/PWM_MOTOR_TILT.c ****     void PWM_MOTOR_TILT_WriteCounter(uint16 counter) \
 398:.\Generated_Source\PSoC5/PWM_MOTOR_TILT.c ****                                        
 399:.\Generated_Source\PSoC5/PWM_MOTOR_TILT.c ****     {
 400:.\Generated_Source\PSoC5/PWM_MOTOR_TILT.c ****         CY_SET_REG16(PWM_MOTOR_TILT_COUNTER_LSB_PTR, counter);
 401:.\Generated_Source\PSoC5/PWM_MOTOR_TILT.c ****     }
 402:.\Generated_Source\PSoC5/PWM_MOTOR_TILT.c **** 
 403:.\Generated_Source\PSoC5/PWM_MOTOR_TILT.c **** 
 404:.\Generated_Source\PSoC5/PWM_MOTOR_TILT.c ****     /*******************************************************************************
 405:.\Generated_Source\PSoC5/PWM_MOTOR_TILT.c ****     * Function Name: PWM_MOTOR_TILT_ReadCounter
 406:.\Generated_Source\PSoC5/PWM_MOTOR_TILT.c ****     ********************************************************************************
 407:.\Generated_Source\PSoC5/PWM_MOTOR_TILT.c ****     * 
 408:.\Generated_Source\PSoC5/PWM_MOTOR_TILT.c ****     * Summary:
 409:.\Generated_Source\PSoC5/PWM_MOTOR_TILT.c ****     *  This function returns the current value of the counter.  It doesn't matter
 410:.\Generated_Source\PSoC5/PWM_MOTOR_TILT.c ****     *  if the counter is enabled or running.
 411:.\Generated_Source\PSoC5/PWM_MOTOR_TILT.c ****     *
 412:.\Generated_Source\PSoC5/PWM_MOTOR_TILT.c ****     * Parameters:  
ARM GAS  C:\Users\Graziano\AppData\Local\Temp\ccxs7yXP.s 			page 10


 413:.\Generated_Source\PSoC5/PWM_MOTOR_TILT.c ****     *  None  
 414:.\Generated_Source\PSoC5/PWM_MOTOR_TILT.c ****     *
 415:.\Generated_Source\PSoC5/PWM_MOTOR_TILT.c ****     * Return: 
 416:.\Generated_Source\PSoC5/PWM_MOTOR_TILT.c ****     *  The current value of the counter.
 417:.\Generated_Source\PSoC5/PWM_MOTOR_TILT.c ****     *
 418:.\Generated_Source\PSoC5/PWM_MOTOR_TILT.c ****     *******************************************************************************/
 419:.\Generated_Source\PSoC5/PWM_MOTOR_TILT.c ****     uint16 PWM_MOTOR_TILT_ReadCounter(void) 
 420:.\Generated_Source\PSoC5/PWM_MOTOR_TILT.c ****     {
 421:.\Generated_Source\PSoC5/PWM_MOTOR_TILT.c ****         /* Force capture by reading Accumulator */
 422:.\Generated_Source\PSoC5/PWM_MOTOR_TILT.c ****         /* Must first do a software capture to be able to read the counter */
 423:.\Generated_Source\PSoC5/PWM_MOTOR_TILT.c ****         /* It is up to the user code to make sure there isn't already captured data in the FIFO */
 424:.\Generated_Source\PSoC5/PWM_MOTOR_TILT.c ****         (void)PWM_MOTOR_TILT_COUNTERCAP_LSB;
 425:.\Generated_Source\PSoC5/PWM_MOTOR_TILT.c ****         
 426:.\Generated_Source\PSoC5/PWM_MOTOR_TILT.c ****         /* Read the data from the FIFO (or capture register for Fixed Function)*/
 427:.\Generated_Source\PSoC5/PWM_MOTOR_TILT.c ****         return (CY_GET_REG16(PWM_MOTOR_TILT_CAPTURE_LSB_PTR));
 428:.\Generated_Source\PSoC5/PWM_MOTOR_TILT.c ****     }
 429:.\Generated_Source\PSoC5/PWM_MOTOR_TILT.c **** 
 430:.\Generated_Source\PSoC5/PWM_MOTOR_TILT.c ****         #if (PWM_MOTOR_TILT_UseStatus)
 431:.\Generated_Source\PSoC5/PWM_MOTOR_TILT.c **** 
 432:.\Generated_Source\PSoC5/PWM_MOTOR_TILT.c **** 
 433:.\Generated_Source\PSoC5/PWM_MOTOR_TILT.c ****             /*******************************************************************************
 434:.\Generated_Source\PSoC5/PWM_MOTOR_TILT.c ****             * Function Name: PWM_MOTOR_TILT_ClearFIFO
 435:.\Generated_Source\PSoC5/PWM_MOTOR_TILT.c ****             ********************************************************************************
 436:.\Generated_Source\PSoC5/PWM_MOTOR_TILT.c ****             * 
 437:.\Generated_Source\PSoC5/PWM_MOTOR_TILT.c ****             * Summary:
 438:.\Generated_Source\PSoC5/PWM_MOTOR_TILT.c ****             *  This function clears all capture data from the capture FIFO
 439:.\Generated_Source\PSoC5/PWM_MOTOR_TILT.c ****             *
 440:.\Generated_Source\PSoC5/PWM_MOTOR_TILT.c ****             * Parameters:  
 441:.\Generated_Source\PSoC5/PWM_MOTOR_TILT.c ****             *  None
 442:.\Generated_Source\PSoC5/PWM_MOTOR_TILT.c ****             *
 443:.\Generated_Source\PSoC5/PWM_MOTOR_TILT.c ****             * Return: 
 444:.\Generated_Source\PSoC5/PWM_MOTOR_TILT.c ****             *  None
 445:.\Generated_Source\PSoC5/PWM_MOTOR_TILT.c ****             *
 446:.\Generated_Source\PSoC5/PWM_MOTOR_TILT.c ****             *******************************************************************************/
 447:.\Generated_Source\PSoC5/PWM_MOTOR_TILT.c ****             void PWM_MOTOR_TILT_ClearFIFO(void) 
 448:.\Generated_Source\PSoC5/PWM_MOTOR_TILT.c ****             {
 449:.\Generated_Source\PSoC5/PWM_MOTOR_TILT.c ****                 while(0u != (PWM_MOTOR_TILT_ReadStatusRegister() & PWM_MOTOR_TILT_STATUS_FIFONEMPTY
 450:.\Generated_Source\PSoC5/PWM_MOTOR_TILT.c ****                 {
 451:.\Generated_Source\PSoC5/PWM_MOTOR_TILT.c ****                     (void)PWM_MOTOR_TILT_ReadCapture();
 452:.\Generated_Source\PSoC5/PWM_MOTOR_TILT.c ****                 }
 453:.\Generated_Source\PSoC5/PWM_MOTOR_TILT.c ****             }
 454:.\Generated_Source\PSoC5/PWM_MOTOR_TILT.c **** 
 455:.\Generated_Source\PSoC5/PWM_MOTOR_TILT.c ****         #endif /* PWM_MOTOR_TILT_UseStatus */
 456:.\Generated_Source\PSoC5/PWM_MOTOR_TILT.c **** 
 457:.\Generated_Source\PSoC5/PWM_MOTOR_TILT.c **** #endif /* !PWM_MOTOR_TILT_UsingFixedFunction */
 458:.\Generated_Source\PSoC5/PWM_MOTOR_TILT.c **** 
 459:.\Generated_Source\PSoC5/PWM_MOTOR_TILT.c **** 
 460:.\Generated_Source\PSoC5/PWM_MOTOR_TILT.c **** /*******************************************************************************
 461:.\Generated_Source\PSoC5/PWM_MOTOR_TILT.c **** * Function Name: PWM_MOTOR_TILT_WritePeriod
 462:.\Generated_Source\PSoC5/PWM_MOTOR_TILT.c **** ********************************************************************************
 463:.\Generated_Source\PSoC5/PWM_MOTOR_TILT.c **** * 
 464:.\Generated_Source\PSoC5/PWM_MOTOR_TILT.c **** * Summary:
 465:.\Generated_Source\PSoC5/PWM_MOTOR_TILT.c **** *  This function is used to change the period of the counter.  The new period 
 466:.\Generated_Source\PSoC5/PWM_MOTOR_TILT.c **** *  will be loaded the next time terminal count is detected.
 467:.\Generated_Source\PSoC5/PWM_MOTOR_TILT.c **** *
 468:.\Generated_Source\PSoC5/PWM_MOTOR_TILT.c **** * Parameters:  
 469:.\Generated_Source\PSoC5/PWM_MOTOR_TILT.c **** *  period:  Period value. May be between 1 and (2^Resolution)-1.  A value of 0 
ARM GAS  C:\Users\Graziano\AppData\Local\Temp\ccxs7yXP.s 			page 11


 470:.\Generated_Source\PSoC5/PWM_MOTOR_TILT.c **** *           will result in the counter remaining at zero.
 471:.\Generated_Source\PSoC5/PWM_MOTOR_TILT.c **** *
 472:.\Generated_Source\PSoC5/PWM_MOTOR_TILT.c **** * Return: 
 473:.\Generated_Source\PSoC5/PWM_MOTOR_TILT.c **** *  None
 474:.\Generated_Source\PSoC5/PWM_MOTOR_TILT.c **** *
 475:.\Generated_Source\PSoC5/PWM_MOTOR_TILT.c **** *******************************************************************************/
 476:.\Generated_Source\PSoC5/PWM_MOTOR_TILT.c **** void PWM_MOTOR_TILT_WritePeriod(uint16 period) 
 477:.\Generated_Source\PSoC5/PWM_MOTOR_TILT.c **** {
 101              		.loc 1 477 0
 102              		.cfi_startproc
 103              		@ args = 0, pretend = 0, frame = 0
 104              		@ frame_needed = 0, uses_anonymous_args = 0
 105              		@ link register save eliminated.
 106              	.LVL0:
 478:.\Generated_Source\PSoC5/PWM_MOTOR_TILT.c ****     #if(PWM_MOTOR_TILT_UsingFixedFunction)
 479:.\Generated_Source\PSoC5/PWM_MOTOR_TILT.c ****         CY_SET_REG16(PWM_MOTOR_TILT_PERIOD_LSB_PTR, (uint16)period);
 107              		.loc 1 479 0
 108 0000 014B     		ldr	r3, .L8
 109 0002 1880     		strh	r0, [r3, #0]	@ movhi
 110 0004 7047     		bx	lr
 111              	.L9:
 112 0006 00BF     		.align	2
 113              	.L8:
 114 0008 1C4F0040 		.word	1073762076
 115              		.cfi_endproc
 116              	.LFE4:
 117              		.size	PWM_MOTOR_TILT_WritePeriod, .-PWM_MOTOR_TILT_WritePeriod
 118              		.section	.text.PWM_MOTOR_TILT_WriteCompare,"ax",%progbits
 119              		.align	1
 120              		.global	PWM_MOTOR_TILT_WriteCompare
 121              		.thumb
 122              		.thumb_func
 123              		.type	PWM_MOTOR_TILT_WriteCompare, %function
 124              	PWM_MOTOR_TILT_WriteCompare:
 125              	.LFB5:
 480:.\Generated_Source\PSoC5/PWM_MOTOR_TILT.c ****     #else
 481:.\Generated_Source\PSoC5/PWM_MOTOR_TILT.c ****         CY_SET_REG16(PWM_MOTOR_TILT_PERIOD_LSB_PTR, period);
 482:.\Generated_Source\PSoC5/PWM_MOTOR_TILT.c ****     #endif /* (PWM_MOTOR_TILT_UsingFixedFunction) */
 483:.\Generated_Source\PSoC5/PWM_MOTOR_TILT.c **** }
 484:.\Generated_Source\PSoC5/PWM_MOTOR_TILT.c **** 
 485:.\Generated_Source\PSoC5/PWM_MOTOR_TILT.c **** #if (PWM_MOTOR_TILT_UseOneCompareMode)
 486:.\Generated_Source\PSoC5/PWM_MOTOR_TILT.c **** 
 487:.\Generated_Source\PSoC5/PWM_MOTOR_TILT.c **** 
 488:.\Generated_Source\PSoC5/PWM_MOTOR_TILT.c ****     /*******************************************************************************
 489:.\Generated_Source\PSoC5/PWM_MOTOR_TILT.c ****     * Function Name: PWM_MOTOR_TILT_WriteCompare
 490:.\Generated_Source\PSoC5/PWM_MOTOR_TILT.c ****     ********************************************************************************
 491:.\Generated_Source\PSoC5/PWM_MOTOR_TILT.c ****     * 
 492:.\Generated_Source\PSoC5/PWM_MOTOR_TILT.c ****     * Summary:
 493:.\Generated_Source\PSoC5/PWM_MOTOR_TILT.c ****     *  This funtion is used to change the compare1 value when the PWM is in Dither
 494:.\Generated_Source\PSoC5/PWM_MOTOR_TILT.c ****     *  mode. The compare output will reflect the new value on the next UDB clock. 
 495:.\Generated_Source\PSoC5/PWM_MOTOR_TILT.c ****     *  The compare output will be driven high when the present counter value is 
 496:.\Generated_Source\PSoC5/PWM_MOTOR_TILT.c ****     *  compared to the compare value based on the compare mode defined in 
 497:.\Generated_Source\PSoC5/PWM_MOTOR_TILT.c ****     *  Dither Mode.
 498:.\Generated_Source\PSoC5/PWM_MOTOR_TILT.c ****     *
 499:.\Generated_Source\PSoC5/PWM_MOTOR_TILT.c ****     * Parameters:  
 500:.\Generated_Source\PSoC5/PWM_MOTOR_TILT.c ****     *  compare:  New compare value.  
 501:.\Generated_Source\PSoC5/PWM_MOTOR_TILT.c ****     *
ARM GAS  C:\Users\Graziano\AppData\Local\Temp\ccxs7yXP.s 			page 12


 502:.\Generated_Source\PSoC5/PWM_MOTOR_TILT.c ****     * Return: 
 503:.\Generated_Source\PSoC5/PWM_MOTOR_TILT.c ****     *  None
 504:.\Generated_Source\PSoC5/PWM_MOTOR_TILT.c ****     *
 505:.\Generated_Source\PSoC5/PWM_MOTOR_TILT.c ****     * Side Effects:
 506:.\Generated_Source\PSoC5/PWM_MOTOR_TILT.c ****     *  This function is only available if the PWM mode parameter is set to
 507:.\Generated_Source\PSoC5/PWM_MOTOR_TILT.c ****     *  Dither Mode, Center Aligned Mode or One Output Mode
 508:.\Generated_Source\PSoC5/PWM_MOTOR_TILT.c ****     *
 509:.\Generated_Source\PSoC5/PWM_MOTOR_TILT.c ****     *******************************************************************************/
 510:.\Generated_Source\PSoC5/PWM_MOTOR_TILT.c ****     void PWM_MOTOR_TILT_WriteCompare(uint16 compare) \
 511:.\Generated_Source\PSoC5/PWM_MOTOR_TILT.c ****                                        
 512:.\Generated_Source\PSoC5/PWM_MOTOR_TILT.c ****     {	
 126              		.loc 1 512 0
 127              		.cfi_startproc
 128              		@ args = 0, pretend = 0, frame = 0
 129              		@ frame_needed = 0, uses_anonymous_args = 0
 130              		@ link register save eliminated.
 131              	.LVL1:
 513:.\Generated_Source\PSoC5/PWM_MOTOR_TILT.c **** 		#if(PWM_MOTOR_TILT_UsingFixedFunction)
 514:.\Generated_Source\PSoC5/PWM_MOTOR_TILT.c **** 			CY_SET_REG16(PWM_MOTOR_TILT_COMPARE1_LSB_PTR, (uint16)compare);
 132              		.loc 1 514 0
 133 0000 014B     		ldr	r3, .L11
 134 0002 1880     		strh	r0, [r3, #0]	@ movhi
 135 0004 7047     		bx	lr
 136              	.L12:
 137 0006 00BF     		.align	2
 138              	.L11:
 139 0008 1E4F0040 		.word	1073762078
 140              		.cfi_endproc
 141              	.LFE5:
 142              		.size	PWM_MOTOR_TILT_WriteCompare, .-PWM_MOTOR_TILT_WriteCompare
 143              		.section	.text.PWM_MOTOR_TILT_WriteDeadTime,"ax",%progbits
 144              		.align	1
 145              		.global	PWM_MOTOR_TILT_WriteDeadTime
 146              		.thumb
 147              		.thumb_func
 148              		.type	PWM_MOTOR_TILT_WriteDeadTime, %function
 149              	PWM_MOTOR_TILT_WriteDeadTime:
 150              	.LFB6:
 515:.\Generated_Source\PSoC5/PWM_MOTOR_TILT.c **** 		#else
 516:.\Generated_Source\PSoC5/PWM_MOTOR_TILT.c **** 	        CY_SET_REG16(PWM_MOTOR_TILT_COMPARE1_LSB_PTR, compare);	
 517:.\Generated_Source\PSoC5/PWM_MOTOR_TILT.c **** 		#endif /* (PWM_MOTOR_TILT_UsingFixedFunction) */
 518:.\Generated_Source\PSoC5/PWM_MOTOR_TILT.c ****         
 519:.\Generated_Source\PSoC5/PWM_MOTOR_TILT.c ****         #if (PWM_MOTOR_TILT_PWMMode == PWM_MOTOR_TILT__B_PWM__DITHER)
 520:.\Generated_Source\PSoC5/PWM_MOTOR_TILT.c ****             #if(PWM_MOTOR_TILT_UsingFixedFunction)
 521:.\Generated_Source\PSoC5/PWM_MOTOR_TILT.c ****     			CY_SET_REG16(PWM_MOTOR_TILT_COMPARE2_LSB_PTR, (uint16)(compare + 1u));
 522:.\Generated_Source\PSoC5/PWM_MOTOR_TILT.c ****     		#else
 523:.\Generated_Source\PSoC5/PWM_MOTOR_TILT.c ****     	        CY_SET_REG16(PWM_MOTOR_TILT_COMPARE2_LSB_PTR, (compare + 1u));	
 524:.\Generated_Source\PSoC5/PWM_MOTOR_TILT.c ****     		#endif /* (PWM_MOTOR_TILT_UsingFixedFunction) */
 525:.\Generated_Source\PSoC5/PWM_MOTOR_TILT.c ****         #endif /* (PWM_MOTOR_TILT_PWMMode == PWM_MOTOR_TILT__B_PWM__DITHER) */
 526:.\Generated_Source\PSoC5/PWM_MOTOR_TILT.c ****     }
 527:.\Generated_Source\PSoC5/PWM_MOTOR_TILT.c **** 
 528:.\Generated_Source\PSoC5/PWM_MOTOR_TILT.c **** 
 529:.\Generated_Source\PSoC5/PWM_MOTOR_TILT.c **** #else
 530:.\Generated_Source\PSoC5/PWM_MOTOR_TILT.c **** 
 531:.\Generated_Source\PSoC5/PWM_MOTOR_TILT.c **** 
 532:.\Generated_Source\PSoC5/PWM_MOTOR_TILT.c ****     /*******************************************************************************
 533:.\Generated_Source\PSoC5/PWM_MOTOR_TILT.c ****     * Function Name: PWM_MOTOR_TILT_WriteCompare1
ARM GAS  C:\Users\Graziano\AppData\Local\Temp\ccxs7yXP.s 			page 13


 534:.\Generated_Source\PSoC5/PWM_MOTOR_TILT.c ****     ********************************************************************************
 535:.\Generated_Source\PSoC5/PWM_MOTOR_TILT.c ****     * 
 536:.\Generated_Source\PSoC5/PWM_MOTOR_TILT.c ****     * Summary:
 537:.\Generated_Source\PSoC5/PWM_MOTOR_TILT.c ****     *  This funtion is used to change the compare1 value.  The compare output will 
 538:.\Generated_Source\PSoC5/PWM_MOTOR_TILT.c ****     *  reflect the new value on the next UDB clock.  The compare output will be 
 539:.\Generated_Source\PSoC5/PWM_MOTOR_TILT.c ****     *  driven high when the present counter value is less than or less than or 
 540:.\Generated_Source\PSoC5/PWM_MOTOR_TILT.c ****     *  equal to the compare register, depending on the mode.
 541:.\Generated_Source\PSoC5/PWM_MOTOR_TILT.c ****     *
 542:.\Generated_Source\PSoC5/PWM_MOTOR_TILT.c ****     * Parameters:  
 543:.\Generated_Source\PSoC5/PWM_MOTOR_TILT.c ****     *  compare:  New compare value.  
 544:.\Generated_Source\PSoC5/PWM_MOTOR_TILT.c ****     *
 545:.\Generated_Source\PSoC5/PWM_MOTOR_TILT.c ****     * Return: 
 546:.\Generated_Source\PSoC5/PWM_MOTOR_TILT.c ****     *  None
 547:.\Generated_Source\PSoC5/PWM_MOTOR_TILT.c ****     *
 548:.\Generated_Source\PSoC5/PWM_MOTOR_TILT.c ****     *******************************************************************************/
 549:.\Generated_Source\PSoC5/PWM_MOTOR_TILT.c ****     void PWM_MOTOR_TILT_WriteCompare1(uint16 compare) \
 550:.\Generated_Source\PSoC5/PWM_MOTOR_TILT.c ****                                         
 551:.\Generated_Source\PSoC5/PWM_MOTOR_TILT.c ****     {
 552:.\Generated_Source\PSoC5/PWM_MOTOR_TILT.c ****         #if(PWM_MOTOR_TILT_UsingFixedFunction)
 553:.\Generated_Source\PSoC5/PWM_MOTOR_TILT.c ****             CY_SET_REG16(PWM_MOTOR_TILT_COMPARE1_LSB_PTR, (uint16)compare);
 554:.\Generated_Source\PSoC5/PWM_MOTOR_TILT.c ****         #else
 555:.\Generated_Source\PSoC5/PWM_MOTOR_TILT.c ****             CY_SET_REG16(PWM_MOTOR_TILT_COMPARE1_LSB_PTR, compare);
 556:.\Generated_Source\PSoC5/PWM_MOTOR_TILT.c ****         #endif /* (PWM_MOTOR_TILT_UsingFixedFunction) */
 557:.\Generated_Source\PSoC5/PWM_MOTOR_TILT.c ****     }
 558:.\Generated_Source\PSoC5/PWM_MOTOR_TILT.c **** 
 559:.\Generated_Source\PSoC5/PWM_MOTOR_TILT.c **** 
 560:.\Generated_Source\PSoC5/PWM_MOTOR_TILT.c ****     /*******************************************************************************
 561:.\Generated_Source\PSoC5/PWM_MOTOR_TILT.c ****     * Function Name: PWM_MOTOR_TILT_WriteCompare2
 562:.\Generated_Source\PSoC5/PWM_MOTOR_TILT.c ****     ********************************************************************************
 563:.\Generated_Source\PSoC5/PWM_MOTOR_TILT.c ****     * 
 564:.\Generated_Source\PSoC5/PWM_MOTOR_TILT.c ****     * Summary:
 565:.\Generated_Source\PSoC5/PWM_MOTOR_TILT.c ****     *  This funtion is used to change the compare value, for compare1 output.  
 566:.\Generated_Source\PSoC5/PWM_MOTOR_TILT.c ****     *  The compare output will reflect the new value on the next UDB clock.  
 567:.\Generated_Source\PSoC5/PWM_MOTOR_TILT.c ****     *  The compare output will be driven high when the present counter value is 
 568:.\Generated_Source\PSoC5/PWM_MOTOR_TILT.c ****     *  less than or less than or equal to the compare register, depending on the 
 569:.\Generated_Source\PSoC5/PWM_MOTOR_TILT.c ****     *  mode.
 570:.\Generated_Source\PSoC5/PWM_MOTOR_TILT.c ****     *
 571:.\Generated_Source\PSoC5/PWM_MOTOR_TILT.c ****     * Parameters:  
 572:.\Generated_Source\PSoC5/PWM_MOTOR_TILT.c ****     *  compare:  New compare value.  
 573:.\Generated_Source\PSoC5/PWM_MOTOR_TILT.c ****     *
 574:.\Generated_Source\PSoC5/PWM_MOTOR_TILT.c ****     * Return: 
 575:.\Generated_Source\PSoC5/PWM_MOTOR_TILT.c ****     *  None
 576:.\Generated_Source\PSoC5/PWM_MOTOR_TILT.c ****     *
 577:.\Generated_Source\PSoC5/PWM_MOTOR_TILT.c ****     *******************************************************************************/
 578:.\Generated_Source\PSoC5/PWM_MOTOR_TILT.c ****     void PWM_MOTOR_TILT_WriteCompare2(uint16 compare) \
 579:.\Generated_Source\PSoC5/PWM_MOTOR_TILT.c ****                                         
 580:.\Generated_Source\PSoC5/PWM_MOTOR_TILT.c ****     {
 581:.\Generated_Source\PSoC5/PWM_MOTOR_TILT.c ****         #if(PWM_MOTOR_TILT_UsingFixedFunction)
 582:.\Generated_Source\PSoC5/PWM_MOTOR_TILT.c ****             CY_SET_REG16(PWM_MOTOR_TILT_COMPARE2_LSB_PTR, compare);
 583:.\Generated_Source\PSoC5/PWM_MOTOR_TILT.c ****         #else
 584:.\Generated_Source\PSoC5/PWM_MOTOR_TILT.c ****             CY_SET_REG16(PWM_MOTOR_TILT_COMPARE2_LSB_PTR, compare);
 585:.\Generated_Source\PSoC5/PWM_MOTOR_TILT.c ****         #endif /* (PWM_MOTOR_TILT_UsingFixedFunction) */
 586:.\Generated_Source\PSoC5/PWM_MOTOR_TILT.c ****     }
 587:.\Generated_Source\PSoC5/PWM_MOTOR_TILT.c **** #endif /* UseOneCompareMode */
 588:.\Generated_Source\PSoC5/PWM_MOTOR_TILT.c **** 
 589:.\Generated_Source\PSoC5/PWM_MOTOR_TILT.c **** #if (PWM_MOTOR_TILT_DeadBandUsed)
 590:.\Generated_Source\PSoC5/PWM_MOTOR_TILT.c **** 
ARM GAS  C:\Users\Graziano\AppData\Local\Temp\ccxs7yXP.s 			page 14


 591:.\Generated_Source\PSoC5/PWM_MOTOR_TILT.c **** 
 592:.\Generated_Source\PSoC5/PWM_MOTOR_TILT.c ****     /*******************************************************************************
 593:.\Generated_Source\PSoC5/PWM_MOTOR_TILT.c ****     * Function Name: PWM_MOTOR_TILT_WriteDeadTime
 594:.\Generated_Source\PSoC5/PWM_MOTOR_TILT.c ****     ********************************************************************************
 595:.\Generated_Source\PSoC5/PWM_MOTOR_TILT.c ****     * 
 596:.\Generated_Source\PSoC5/PWM_MOTOR_TILT.c ****     * Summary:
 597:.\Generated_Source\PSoC5/PWM_MOTOR_TILT.c ****     *  This function writes the dead-band counts to the corresponding register
 598:.\Generated_Source\PSoC5/PWM_MOTOR_TILT.c ****     *
 599:.\Generated_Source\PSoC5/PWM_MOTOR_TILT.c ****     * Parameters:  
 600:.\Generated_Source\PSoC5/PWM_MOTOR_TILT.c ****     *  deadtime:  Number of counts for dead time 
 601:.\Generated_Source\PSoC5/PWM_MOTOR_TILT.c ****     *
 602:.\Generated_Source\PSoC5/PWM_MOTOR_TILT.c ****     * Return: 
 603:.\Generated_Source\PSoC5/PWM_MOTOR_TILT.c ****     *  None
 604:.\Generated_Source\PSoC5/PWM_MOTOR_TILT.c ****     *
 605:.\Generated_Source\PSoC5/PWM_MOTOR_TILT.c ****     *******************************************************************************/
 606:.\Generated_Source\PSoC5/PWM_MOTOR_TILT.c ****     void PWM_MOTOR_TILT_WriteDeadTime(uint8 deadtime) 
 607:.\Generated_Source\PSoC5/PWM_MOTOR_TILT.c ****     {
 151              		.loc 1 607 0
 152              		.cfi_startproc
 153              		@ args = 0, pretend = 0, frame = 0
 154              		@ frame_needed = 0, uses_anonymous_args = 0
 155              		@ link register save eliminated.
 156              	.LVL2:
 608:.\Generated_Source\PSoC5/PWM_MOTOR_TILT.c ****         /* If using the Dead Band 1-255 mode then just write the register */
 609:.\Generated_Source\PSoC5/PWM_MOTOR_TILT.c ****         #if(!PWM_MOTOR_TILT_DeadBand2_4)
 610:.\Generated_Source\PSoC5/PWM_MOTOR_TILT.c ****             CY_SET_REG8(PWM_MOTOR_TILT_DEADBAND_COUNT_PTR, deadtime);
 611:.\Generated_Source\PSoC5/PWM_MOTOR_TILT.c ****         #else
 612:.\Generated_Source\PSoC5/PWM_MOTOR_TILT.c ****             /* Otherwise the data has to be masked and offset */        
 613:.\Generated_Source\PSoC5/PWM_MOTOR_TILT.c ****             /* Clear existing data */
 614:.\Generated_Source\PSoC5/PWM_MOTOR_TILT.c ****             PWM_MOTOR_TILT_DEADBAND_COUNT &= ((uint8)(~PWM_MOTOR_TILT_DEADBAND_COUNT_MASK));
 157              		.loc 1 614 0
 158 0000 054B     		ldr	r3, .L14
 159 0002 1A78     		ldrb	r2, [r3, #0]	@ zero_extendqisi2
 160 0004 02F03F01 		and	r1, r2, #63
 161 0008 1970     		strb	r1, [r3, #0]
 615:.\Generated_Source\PSoC5/PWM_MOTOR_TILT.c ****             
 616:.\Generated_Source\PSoC5/PWM_MOTOR_TILT.c ****             /* Set new dead time */
 617:.\Generated_Source\PSoC5/PWM_MOTOR_TILT.c ****             #if(PWM_MOTOR_TILT_DEADBAND_COUNT_SHIFT)        
 618:.\Generated_Source\PSoC5/PWM_MOTOR_TILT.c ****                 PWM_MOTOR_TILT_DEADBAND_COUNT |= ((uint8)((uint8)deadtime << PWM_MOTOR_TILT_DEADBAN
 162              		.loc 1 618 0
 163 000a 1A78     		ldrb	r2, [r3, #0]	@ zero_extendqisi2
 164 000c 42EA8010 		orr	r0, r2, r0, lsl #6
 165              	.LVL3:
 166 0010 C1B2     		uxtb	r1, r0
 167 0012 1970     		strb	r1, [r3, #0]
 168 0014 7047     		bx	lr
 169              	.L15:
 170 0016 00BF     		.align	2
 171              	.L14:
 172 0018 184F0040 		.word	1073762072
 173              		.cfi_endproc
 174              	.LFE6:
 175              		.size	PWM_MOTOR_TILT_WriteDeadTime, .-PWM_MOTOR_TILT_WriteDeadTime
 176              		.section	.text.PWM_MOTOR_TILT_Init,"ax",%progbits
 177              		.align	1
 178              		.global	PWM_MOTOR_TILT_Init
 179              		.thumb
ARM GAS  C:\Users\Graziano\AppData\Local\Temp\ccxs7yXP.s 			page 15


 180              		.thumb_func
 181              		.type	PWM_MOTOR_TILT_Init, %function
 182              	PWM_MOTOR_TILT_Init:
 183              	.LFB1:
  80:.\Generated_Source\PSoC5/PWM_MOTOR_TILT.c **** {
 184              		.loc 1 80 0
 185              		.cfi_startproc
 186              		@ args = 0, pretend = 0, frame = 0
 187              		@ frame_needed = 0, uses_anonymous_args = 0
 188 0000 08B5     		push	{r3, lr}
 189              	.LCFI0:
 190              		.cfi_def_cfa_offset 8
 191              		.cfi_offset 3, -8
 192              		.cfi_offset 14, -4
  94:.\Generated_Source\PSoC5/PWM_MOTOR_TILT.c ****         PWM_MOTOR_TILT_CONTROL |= PWM_MOTOR_TILT_CFG0_MODE;
 193              		.loc 1 94 0
 194 0002 1B4B     		ldr	r3, .L17
 195 0004 1A78     		ldrb	r2, [r3, #0]	@ zero_extendqisi2
 196 0006 42F00200 		orr	r0, r2, #2
 197 000a 1870     		strb	r0, [r3, #0]
  96:.\Generated_Source\PSoC5/PWM_MOTOR_TILT.c ****             PWM_MOTOR_TILT_CONTROL |= PWM_MOTOR_TILT_CFG0_DB;
 198              		.loc 1 96 0
 199 000c 1978     		ldrb	r1, [r3, #0]	@ zero_extendqisi2
 200 000e 41F02002 		orr	r2, r1, #32
 201 0012 1A70     		strb	r2, [r3, #0]
  99:.\Generated_Source\PSoC5/PWM_MOTOR_TILT.c ****         ctrl = PWM_MOTOR_TILT_CONTROL3 & ((uint8 )(~PWM_MOTOR_TILT_CTRL_CMPMODE1_MASK));
 202              		.loc 1 99 0
 203 0014 9878     		ldrb	r0, [r3, #2]	@ zero_extendqisi2
 204              	.LVL4:
 205 0016 00F08F01 		and	r1, r0, #143
 100:.\Generated_Source\PSoC5/PWM_MOTOR_TILT.c ****         PWM_MOTOR_TILT_CONTROL3 = ctrl | PWM_MOTOR_TILT_DEFAULT_COMPARE1_MODE;
 206              		.loc 1 100 0
 207 001a 41F01002 		orr	r2, r1, #16
 208 001e 9A70     		strb	r2, [r3, #2]
 103:.\Generated_Source\PSoC5/PWM_MOTOR_TILT.c ****         PWM_MOTOR_TILT_RT1 &= ((uint8)(~PWM_MOTOR_TILT_RT1_MASK));
 209              		.loc 1 103 0
 210 0020 D87A     		ldrb	r0, [r3, #11]	@ zero_extendqisi2
 211              	.LVL5:
 212 0022 00F0CF01 		and	r1, r0, #207
 213 0026 D972     		strb	r1, [r3, #11]
 104:.\Generated_Source\PSoC5/PWM_MOTOR_TILT.c ****         PWM_MOTOR_TILT_RT1 |= PWM_MOTOR_TILT_SYNC;     
 214              		.loc 1 104 0
 215 0028 DA7A     		ldrb	r2, [r3, #11]	@ zero_extendqisi2
 216 002a 42F03000 		orr	r0, r2, #48
 217 002e D872     		strb	r0, [r3, #11]
 107:.\Generated_Source\PSoC5/PWM_MOTOR_TILT.c ****         PWM_MOTOR_TILT_RT1 &= ((uint8)(~PWM_MOTOR_TILT_SYNCDSI_MASK));
 218              		.loc 1 107 0
 219 0030 D97A     		ldrb	r1, [r3, #11]	@ zero_extendqisi2
 220 0032 01F0F002 		and	r2, r1, #240
 221 0036 DA72     		strb	r2, [r3, #11]
 108:.\Generated_Source\PSoC5/PWM_MOTOR_TILT.c ****         PWM_MOTOR_TILT_RT1 |= PWM_MOTOR_TILT_SYNCDSI_EN;
 222              		.loc 1 108 0
 223 0038 D87A     		ldrb	r0, [r3, #11]	@ zero_extendqisi2
 224              	.LBB8:
 225              	.LBB9:
 479:.\Generated_Source\PSoC5/PWM_MOTOR_TILT.c ****         CY_SET_REG16(PWM_MOTOR_TILT_PERIOD_LSB_PTR, (uint16)period);
 226              		.loc 1 479 0
ARM GAS  C:\Users\Graziano\AppData\Local\Temp\ccxs7yXP.s 			page 16


 227 003a 4FF40062 		mov	r2, #2048
 228              	.LBE9:
 229              	.LBE8:
 108:.\Generated_Source\PSoC5/PWM_MOTOR_TILT.c ****         PWM_MOTOR_TILT_RT1 |= PWM_MOTOR_TILT_SYNCDSI_EN;
 230              		.loc 1 108 0
 231 003e 40F00F01 		orr	r1, r0, #15
 232              	.LBB11:
 233              	.LBB12:
 514:.\Generated_Source\PSoC5/PWM_MOTOR_TILT.c **** 			CY_SET_REG16(PWM_MOTOR_TILT_COMPARE1_LSB_PTR, (uint16)compare);
 234              		.loc 1 514 0
 235 0042 A2F50970 		sub	r0, r2, #548
 236              	.LBE12:
 237              	.LBE11:
 108:.\Generated_Source\PSoC5/PWM_MOTOR_TILT.c ****         PWM_MOTOR_TILT_RT1 |= PWM_MOTOR_TILT_SYNCDSI_EN;
 238              		.loc 1 108 0
 239 0046 D972     		strb	r1, [r3, #11]
 240              	.LVL6:
 241              	.LBB14:
 242              	.LBB10:
 479:.\Generated_Source\PSoC5/PWM_MOTOR_TILT.c ****         CY_SET_REG16(PWM_MOTOR_TILT_PERIOD_LSB_PTR, (uint16)period);
 243              		.loc 1 479 0
 244 0048 9A80     		strh	r2, [r3, #4]	@ movhi
 245              	.LVL7:
 246              	.LBE10:
 247              	.LBE14:
 248              	.LBB15:
 249              	.LBB13:
 514:.\Generated_Source\PSoC5/PWM_MOTOR_TILT.c **** 			CY_SET_REG16(PWM_MOTOR_TILT_COMPARE1_LSB_PTR, (uint16)compare);
 250              		.loc 1 514 0
 251 004a D880     		strh	r0, [r3, #6]	@ movhi
 252              	.LBE13:
 253              	.LBE15:
 144:.\Generated_Source\PSoC5/PWM_MOTOR_TILT.c ****             PWM_MOTOR_TILT_WriteDeadTime(PWM_MOTOR_TILT_INIT_DEAD_TIME);
 254              		.loc 1 144 0
 255 004c 0320     		movs	r0, #3
 256 004e FFF7FEFF 		bl	PWM_MOTOR_TILT_WriteDeadTime
 257              	.LVL8:
 258              	.LBB16:
 259              	.LBB17:
 619:.\Generated_Source\PSoC5/PWM_MOTOR_TILT.c ****                                                     PWM_MOTOR_TILT_DEADBAND_COUNT_MASK;
 620:.\Generated_Source\PSoC5/PWM_MOTOR_TILT.c ****             #else
 621:.\Generated_Source\PSoC5/PWM_MOTOR_TILT.c ****                 PWM_MOTOR_TILT_DEADBAND_COUNT |= deadtime & PWM_MOTOR_TILT_DEADBAND_COUNT_MASK;    
 622:.\Generated_Source\PSoC5/PWM_MOTOR_TILT.c ****             #endif /* (PWM_MOTOR_TILT_DEADBAND_COUNT_SHIFT) */
 623:.\Generated_Source\PSoC5/PWM_MOTOR_TILT.c ****         
 624:.\Generated_Source\PSoC5/PWM_MOTOR_TILT.c ****         #endif /* (!PWM_MOTOR_TILT_DeadBand2_4) */
 625:.\Generated_Source\PSoC5/PWM_MOTOR_TILT.c ****     }
 626:.\Generated_Source\PSoC5/PWM_MOTOR_TILT.c **** 
 627:.\Generated_Source\PSoC5/PWM_MOTOR_TILT.c **** 
 628:.\Generated_Source\PSoC5/PWM_MOTOR_TILT.c ****     /*******************************************************************************
 629:.\Generated_Source\PSoC5/PWM_MOTOR_TILT.c ****     * Function Name: PWM_MOTOR_TILT_ReadDeadTime
 630:.\Generated_Source\PSoC5/PWM_MOTOR_TILT.c ****     ********************************************************************************
 631:.\Generated_Source\PSoC5/PWM_MOTOR_TILT.c ****     * 
 632:.\Generated_Source\PSoC5/PWM_MOTOR_TILT.c ****     * Summary:
 633:.\Generated_Source\PSoC5/PWM_MOTOR_TILT.c ****     *  This function reads the dead-band counts from the corresponding register
 634:.\Generated_Source\PSoC5/PWM_MOTOR_TILT.c ****     *
 635:.\Generated_Source\PSoC5/PWM_MOTOR_TILT.c ****     * Parameters:  
 636:.\Generated_Source\PSoC5/PWM_MOTOR_TILT.c ****     *  None
ARM GAS  C:\Users\Graziano\AppData\Local\Temp\ccxs7yXP.s 			page 17


 637:.\Generated_Source\PSoC5/PWM_MOTOR_TILT.c ****     *
 638:.\Generated_Source\PSoC5/PWM_MOTOR_TILT.c ****     * Return: 
 639:.\Generated_Source\PSoC5/PWM_MOTOR_TILT.c ****     *  Dead Band Counts
 640:.\Generated_Source\PSoC5/PWM_MOTOR_TILT.c ****     *
 641:.\Generated_Source\PSoC5/PWM_MOTOR_TILT.c ****     *******************************************************************************/
 642:.\Generated_Source\PSoC5/PWM_MOTOR_TILT.c ****     uint8 PWM_MOTOR_TILT_ReadDeadTime(void) 
 643:.\Generated_Source\PSoC5/PWM_MOTOR_TILT.c ****     {
 644:.\Generated_Source\PSoC5/PWM_MOTOR_TILT.c ****         /* If using the Dead Band 1-255 mode then just read the register */
 645:.\Generated_Source\PSoC5/PWM_MOTOR_TILT.c ****         #if(!PWM_MOTOR_TILT_DeadBand2_4)
 646:.\Generated_Source\PSoC5/PWM_MOTOR_TILT.c ****             return (CY_GET_REG8(PWM_MOTOR_TILT_DEADBAND_COUNT_PTR));
 647:.\Generated_Source\PSoC5/PWM_MOTOR_TILT.c ****         #else
 648:.\Generated_Source\PSoC5/PWM_MOTOR_TILT.c ****         
 649:.\Generated_Source\PSoC5/PWM_MOTOR_TILT.c ****             /* Otherwise the data has to be masked and offset */
 650:.\Generated_Source\PSoC5/PWM_MOTOR_TILT.c ****             #if(PWM_MOTOR_TILT_DEADBAND_COUNT_SHIFT)      
 651:.\Generated_Source\PSoC5/PWM_MOTOR_TILT.c ****                 return ((uint8)(((uint8)(PWM_MOTOR_TILT_DEADBAND_COUNT & PWM_MOTOR_TILT_DEADBAND_CO
 652:.\Generated_Source\PSoC5/PWM_MOTOR_TILT.c ****                                                                            PWM_MOTOR_TILT_DEADBAND_
 653:.\Generated_Source\PSoC5/PWM_MOTOR_TILT.c ****             #else
 654:.\Generated_Source\PSoC5/PWM_MOTOR_TILT.c ****                 return (PWM_MOTOR_TILT_DEADBAND_COUNT & PWM_MOTOR_TILT_DEADBAND_COUNT_MASK);
 655:.\Generated_Source\PSoC5/PWM_MOTOR_TILT.c ****             #endif /* (PWM_MOTOR_TILT_DEADBAND_COUNT_SHIFT) */
 656:.\Generated_Source\PSoC5/PWM_MOTOR_TILT.c ****         #endif /* (!PWM_MOTOR_TILT_DeadBand2_4) */
 657:.\Generated_Source\PSoC5/PWM_MOTOR_TILT.c ****     }
 658:.\Generated_Source\PSoC5/PWM_MOTOR_TILT.c **** #endif /* DeadBandUsed */
 659:.\Generated_Source\PSoC5/PWM_MOTOR_TILT.c **** 
 660:.\Generated_Source\PSoC5/PWM_MOTOR_TILT.c **** #if (PWM_MOTOR_TILT_UseStatus || PWM_MOTOR_TILT_UsingFixedFunction)
 661:.\Generated_Source\PSoC5/PWM_MOTOR_TILT.c **** 
 662:.\Generated_Source\PSoC5/PWM_MOTOR_TILT.c **** 
 663:.\Generated_Source\PSoC5/PWM_MOTOR_TILT.c ****     /*******************************************************************************
 664:.\Generated_Source\PSoC5/PWM_MOTOR_TILT.c ****     * Function Name: PWM_MOTOR_TILT_SetInterruptMode
 665:.\Generated_Source\PSoC5/PWM_MOTOR_TILT.c ****     ********************************************************************************
 666:.\Generated_Source\PSoC5/PWM_MOTOR_TILT.c ****     * 
 667:.\Generated_Source\PSoC5/PWM_MOTOR_TILT.c ****     * Summary:
 668:.\Generated_Source\PSoC5/PWM_MOTOR_TILT.c ****     *  This function configures the interrupts mask control of theinterrupt 
 669:.\Generated_Source\PSoC5/PWM_MOTOR_TILT.c ****     *  source status register.
 670:.\Generated_Source\PSoC5/PWM_MOTOR_TILT.c ****     *
 671:.\Generated_Source\PSoC5/PWM_MOTOR_TILT.c ****     * Parameters:  
 672:.\Generated_Source\PSoC5/PWM_MOTOR_TILT.c ****     *  uint8 interruptMode: Bit field containing the interrupt sources enabled 
 673:.\Generated_Source\PSoC5/PWM_MOTOR_TILT.c ****     *
 674:.\Generated_Source\PSoC5/PWM_MOTOR_TILT.c ****     * Return: 
 675:.\Generated_Source\PSoC5/PWM_MOTOR_TILT.c ****     *  None
 676:.\Generated_Source\PSoC5/PWM_MOTOR_TILT.c ****     *
 677:.\Generated_Source\PSoC5/PWM_MOTOR_TILT.c ****     *******************************************************************************/
 678:.\Generated_Source\PSoC5/PWM_MOTOR_TILT.c ****     void PWM_MOTOR_TILT_SetInterruptMode(uint8 interruptMode)  
 679:.\Generated_Source\PSoC5/PWM_MOTOR_TILT.c ****     {
 680:.\Generated_Source\PSoC5/PWM_MOTOR_TILT.c ****     	CY_SET_REG8(PWM_MOTOR_TILT_STATUS_MASK_PTR, interruptMode);
 260              		.loc 1 680 0
 261 0052 084B     		ldr	r3, .L17+4
 262              	.LBE17:
 263              	.LBE16:
 153:.\Generated_Source\PSoC5/PWM_MOTOR_TILT.c ****         PWM_MOTOR_TILT_GLOBAL_ENABLE |= PWM_MOTOR_TILT_BLOCK_EN_MASK;
 264              		.loc 1 153 0
 265 0054 0848     		ldr	r0, .L17+8
 266              	.LBB19:
 267              	.LBB18:
 268              		.loc 1 680 0
 269 0056 0021     		movs	r1, #0
 270 0058 1970     		strb	r1, [r3, #0]
 271              	.LBE18:
ARM GAS  C:\Users\Graziano\AppData\Local\Temp\ccxs7yXP.s 			page 18


 272              	.LBE19:
 153:.\Generated_Source\PSoC5/PWM_MOTOR_TILT.c ****         PWM_MOTOR_TILT_GLOBAL_ENABLE |= PWM_MOTOR_TILT_BLOCK_EN_MASK;
 273              		.loc 1 153 0
 274 005a 0278     		ldrb	r2, [r0, #0]	@ zero_extendqisi2
 155:.\Generated_Source\PSoC5/PWM_MOTOR_TILT.c ****         PWM_MOTOR_TILT_CONTROL2 |= PWM_MOTOR_TILT_CTRL2_IRQ_SEL;
 275              		.loc 1 155 0
 276 005c 074B     		ldr	r3, .L17+12
 153:.\Generated_Source\PSoC5/PWM_MOTOR_TILT.c ****         PWM_MOTOR_TILT_GLOBAL_ENABLE |= PWM_MOTOR_TILT_BLOCK_EN_MASK;
 277              		.loc 1 153 0
 278 005e 42F00401 		orr	r1, r2, #4
 279 0062 0170     		strb	r1, [r0, #0]
 155:.\Generated_Source\PSoC5/PWM_MOTOR_TILT.c ****         PWM_MOTOR_TILT_CONTROL2 |= PWM_MOTOR_TILT_CTRL2_IRQ_SEL;
 280              		.loc 1 155 0
 281 0064 1878     		ldrb	r0, [r3, #0]	@ zero_extendqisi2
 282 0066 40F00102 		orr	r2, r0, #1
 283 006a 1A70     		strb	r2, [r3, #0]
 284 006c 08BD     		pop	{r3, pc}
 285              	.L18:
 286 006e 00BF     		.align	2
 287              	.L17:
 288 0070 184F0040 		.word	1073762072
 289 0074 1B4F0040 		.word	1073762075
 290 0078 A3430040 		.word	1073759139
 291 007c 194F0040 		.word	1073762073
 292              		.cfi_endproc
 293              	.LFE1:
 294              		.size	PWM_MOTOR_TILT_Init, .-PWM_MOTOR_TILT_Init
 295              		.section	.text.PWM_MOTOR_TILT_Start,"ax",%progbits
 296              		.align	1
 297              		.global	PWM_MOTOR_TILT_Start
 298              		.thumb
 299              		.thumb_func
 300              		.type	PWM_MOTOR_TILT_Start, %function
 301              	PWM_MOTOR_TILT_Start:
 302              	.LFB0:
  51:.\Generated_Source\PSoC5/PWM_MOTOR_TILT.c **** {
 303              		.loc 1 51 0
 304              		.cfi_startproc
 305              		@ args = 0, pretend = 0, frame = 0
 306              		@ frame_needed = 0, uses_anonymous_args = 0
 307 0000 10B5     		push	{r4, lr}
 308              	.LCFI1:
 309              		.cfi_def_cfa_offset 8
 310              		.cfi_offset 4, -8
 311              		.cfi_offset 14, -4
  53:.\Generated_Source\PSoC5/PWM_MOTOR_TILT.c ****     if(PWM_MOTOR_TILT_initVar == 0u)
 312              		.loc 1 53 0
 313 0002 054C     		ldr	r4, .L22
 314 0004 2378     		ldrb	r3, [r4, #0]	@ zero_extendqisi2
 315 0006 1BB9     		cbnz	r3, .L20
  55:.\Generated_Source\PSoC5/PWM_MOTOR_TILT.c ****         PWM_MOTOR_TILT_Init();
 316              		.loc 1 55 0
 317 0008 FFF7FEFF 		bl	PWM_MOTOR_TILT_Init
 318              	.LVL9:
  56:.\Generated_Source\PSoC5/PWM_MOTOR_TILT.c ****         PWM_MOTOR_TILT_initVar = 1u;
 319              		.loc 1 56 0
 320 000c 0120     		movs	r0, #1
ARM GAS  C:\Users\Graziano\AppData\Local\Temp\ccxs7yXP.s 			page 19


 321 000e 2070     		strb	r0, [r4, #0]
 322              	.L20:
  60:.\Generated_Source\PSoC5/PWM_MOTOR_TILT.c **** }
 323              		.loc 1 60 0
 324 0010 BDE81040 		pop	{r4, lr}
  58:.\Generated_Source\PSoC5/PWM_MOTOR_TILT.c ****     PWM_MOTOR_TILT_Enable();
 325              		.loc 1 58 0
 326 0014 FFF7FEBF 		b	PWM_MOTOR_TILT_Enable
 327              	.LVL10:
 328              	.L23:
 329              		.align	2
 330              	.L22:
 331 0018 00000000 		.word	.LANCHOR0
 332              		.cfi_endproc
 333              	.LFE0:
 334              		.size	PWM_MOTOR_TILT_Start, .-PWM_MOTOR_TILT_Start
 335              		.section	.text.PWM_MOTOR_TILT_ReadDeadTime,"ax",%progbits
 336              		.align	1
 337              		.global	PWM_MOTOR_TILT_ReadDeadTime
 338              		.thumb
 339              		.thumb_func
 340              		.type	PWM_MOTOR_TILT_ReadDeadTime, %function
 341              	PWM_MOTOR_TILT_ReadDeadTime:
 342              	.LFB7:
 643:.\Generated_Source\PSoC5/PWM_MOTOR_TILT.c ****     {
 343              		.loc 1 643 0
 344              		.cfi_startproc
 345              		@ args = 0, pretend = 0, frame = 0
 346              		@ frame_needed = 0, uses_anonymous_args = 0
 347              		@ link register save eliminated.
 651:.\Generated_Source\PSoC5/PWM_MOTOR_TILT.c ****                 return ((uint8)(((uint8)(PWM_MOTOR_TILT_DEADBAND_COUNT & PWM_MOTOR_TILT_DEADBAND_CO
 348              		.loc 1 651 0
 349 0000 014B     		ldr	r3, .L25
 350 0002 1878     		ldrb	r0, [r3, #0]	@ zero_extendqisi2
 657:.\Generated_Source\PSoC5/PWM_MOTOR_TILT.c ****     }
 351              		.loc 1 657 0
 352 0004 8009     		lsrs	r0, r0, #6
 353 0006 7047     		bx	lr
 354              	.L26:
 355              		.align	2
 356              	.L25:
 357 0008 184F0040 		.word	1073762072
 358              		.cfi_endproc
 359              	.LFE7:
 360              		.size	PWM_MOTOR_TILT_ReadDeadTime, .-PWM_MOTOR_TILT_ReadDeadTime
 361              		.section	.text.PWM_MOTOR_TILT_SetInterruptMode,"ax",%progbits
 362              		.align	1
 363              		.global	PWM_MOTOR_TILT_SetInterruptMode
 364              		.thumb
 365              		.thumb_func
 366              		.type	PWM_MOTOR_TILT_SetInterruptMode, %function
 367              	PWM_MOTOR_TILT_SetInterruptMode:
 368              	.LFB8:
 679:.\Generated_Source\PSoC5/PWM_MOTOR_TILT.c ****     {
 369              		.loc 1 679 0
 370              		.cfi_startproc
 371              		@ args = 0, pretend = 0, frame = 0
ARM GAS  C:\Users\Graziano\AppData\Local\Temp\ccxs7yXP.s 			page 20


 372              		@ frame_needed = 0, uses_anonymous_args = 0
 373              		@ link register save eliminated.
 374              	.LVL11:
 375              		.loc 1 680 0
 376 0000 014B     		ldr	r3, .L28
 377 0002 1870     		strb	r0, [r3, #0]
 378 0004 7047     		bx	lr
 379              	.L29:
 380 0006 00BF     		.align	2
 381              	.L28:
 382 0008 1B4F0040 		.word	1073762075
 383              		.cfi_endproc
 384              	.LFE8:
 385              		.size	PWM_MOTOR_TILT_SetInterruptMode, .-PWM_MOTOR_TILT_SetInterruptMode
 386              		.section	.text.PWM_MOTOR_TILT_ReadStatusRegister,"ax",%progbits
 387              		.align	1
 388              		.global	PWM_MOTOR_TILT_ReadStatusRegister
 389              		.thumb
 390              		.thumb_func
 391              		.type	PWM_MOTOR_TILT_ReadStatusRegister, %function
 392              	PWM_MOTOR_TILT_ReadStatusRegister:
 393              	.LFB9:
 681:.\Generated_Source\PSoC5/PWM_MOTOR_TILT.c ****     }
 682:.\Generated_Source\PSoC5/PWM_MOTOR_TILT.c **** 
 683:.\Generated_Source\PSoC5/PWM_MOTOR_TILT.c **** 
 684:.\Generated_Source\PSoC5/PWM_MOTOR_TILT.c ****     /*******************************************************************************
 685:.\Generated_Source\PSoC5/PWM_MOTOR_TILT.c ****     * Function Name: PWM_MOTOR_TILT_ReadStatusRegister
 686:.\Generated_Source\PSoC5/PWM_MOTOR_TILT.c ****     ********************************************************************************
 687:.\Generated_Source\PSoC5/PWM_MOTOR_TILT.c ****     * 
 688:.\Generated_Source\PSoC5/PWM_MOTOR_TILT.c ****     * Summary:
 689:.\Generated_Source\PSoC5/PWM_MOTOR_TILT.c ****     *  This function returns the current state of the status register. 
 690:.\Generated_Source\PSoC5/PWM_MOTOR_TILT.c ****     *
 691:.\Generated_Source\PSoC5/PWM_MOTOR_TILT.c ****     * Parameters:  
 692:.\Generated_Source\PSoC5/PWM_MOTOR_TILT.c ****     *  None
 693:.\Generated_Source\PSoC5/PWM_MOTOR_TILT.c ****     *
 694:.\Generated_Source\PSoC5/PWM_MOTOR_TILT.c ****     * Return: 
 695:.\Generated_Source\PSoC5/PWM_MOTOR_TILT.c ****     *  uint8 : Current status register value. The status register bits are:
 696:.\Generated_Source\PSoC5/PWM_MOTOR_TILT.c ****     *  [7:6] : Unused(0)
 697:.\Generated_Source\PSoC5/PWM_MOTOR_TILT.c ****     *  [5]   : Kill event output
 698:.\Generated_Source\PSoC5/PWM_MOTOR_TILT.c ****     *  [4]   : FIFO not empty
 699:.\Generated_Source\PSoC5/PWM_MOTOR_TILT.c ****     *  [3]   : FIFO full
 700:.\Generated_Source\PSoC5/PWM_MOTOR_TILT.c ****     *  [2]   : Terminal count
 701:.\Generated_Source\PSoC5/PWM_MOTOR_TILT.c ****     *  [1]   : Compare output 2
 702:.\Generated_Source\PSoC5/PWM_MOTOR_TILT.c ****     *  [0]   : Compare output 1
 703:.\Generated_Source\PSoC5/PWM_MOTOR_TILT.c ****     *
 704:.\Generated_Source\PSoC5/PWM_MOTOR_TILT.c ****     *******************************************************************************/
 705:.\Generated_Source\PSoC5/PWM_MOTOR_TILT.c ****     uint8 PWM_MOTOR_TILT_ReadStatusRegister(void)   
 706:.\Generated_Source\PSoC5/PWM_MOTOR_TILT.c ****     {
 394              		.loc 1 706 0
 395              		.cfi_startproc
 396              		@ args = 0, pretend = 0, frame = 0
 397              		@ frame_needed = 0, uses_anonymous_args = 0
 398              		@ link register save eliminated.
 707:.\Generated_Source\PSoC5/PWM_MOTOR_TILT.c ****     	uint8 result;
 708:.\Generated_Source\PSoC5/PWM_MOTOR_TILT.c ****     	
 709:.\Generated_Source\PSoC5/PWM_MOTOR_TILT.c ****     	result = CY_GET_REG8(PWM_MOTOR_TILT_STATUS_PTR);
 399              		.loc 1 709 0
ARM GAS  C:\Users\Graziano\AppData\Local\Temp\ccxs7yXP.s 			page 21


 400 0000 014B     		ldr	r3, .L31
 401 0002 1878     		ldrb	r0, [r3, #0]	@ zero_extendqisi2
 402              	.LVL12:
 710:.\Generated_Source\PSoC5/PWM_MOTOR_TILT.c ****     	return (result);
 711:.\Generated_Source\PSoC5/PWM_MOTOR_TILT.c ****     }
 403              		.loc 1 711 0
 404 0004 7047     		bx	lr
 405              	.L32:
 406 0006 00BF     		.align	2
 407              	.L31:
 408 0008 1B4F0040 		.word	1073762075
 409              		.cfi_endproc
 410              	.LFE9:
 411              		.size	PWM_MOTOR_TILT_ReadStatusRegister, .-PWM_MOTOR_TILT_ReadStatusRegister
 412              		.section	.text.PWM_MOTOR_TILT_ReadControlRegister,"ax",%progbits
 413              		.align	1
 414              		.global	PWM_MOTOR_TILT_ReadControlRegister
 415              		.thumb
 416              		.thumb_func
 417              		.type	PWM_MOTOR_TILT_ReadControlRegister, %function
 418              	PWM_MOTOR_TILT_ReadControlRegister:
 419              	.LFB10:
 712:.\Generated_Source\PSoC5/PWM_MOTOR_TILT.c **** 
 713:.\Generated_Source\PSoC5/PWM_MOTOR_TILT.c **** #endif /* (PWM_MOTOR_TILT_UseStatus || PWM_MOTOR_TILT_UsingFixedFunction) */
 714:.\Generated_Source\PSoC5/PWM_MOTOR_TILT.c **** 
 715:.\Generated_Source\PSoC5/PWM_MOTOR_TILT.c **** 
 716:.\Generated_Source\PSoC5/PWM_MOTOR_TILT.c **** #if (PWM_MOTOR_TILT_UseControl)
 717:.\Generated_Source\PSoC5/PWM_MOTOR_TILT.c **** 
 718:.\Generated_Source\PSoC5/PWM_MOTOR_TILT.c **** 
 719:.\Generated_Source\PSoC5/PWM_MOTOR_TILT.c ****     /*******************************************************************************
 720:.\Generated_Source\PSoC5/PWM_MOTOR_TILT.c ****     * Function Name: PWM_MOTOR_TILT_ReadControlRegister
 721:.\Generated_Source\PSoC5/PWM_MOTOR_TILT.c ****     ********************************************************************************
 722:.\Generated_Source\PSoC5/PWM_MOTOR_TILT.c ****     * 
 723:.\Generated_Source\PSoC5/PWM_MOTOR_TILT.c ****     * Summary:
 724:.\Generated_Source\PSoC5/PWM_MOTOR_TILT.c ****     *  Returns the current state of the control register. This API is available 
 725:.\Generated_Source\PSoC5/PWM_MOTOR_TILT.c ****     *  only if the control register is not removed.
 726:.\Generated_Source\PSoC5/PWM_MOTOR_TILT.c ****     *
 727:.\Generated_Source\PSoC5/PWM_MOTOR_TILT.c ****     * Parameters:  
 728:.\Generated_Source\PSoC5/PWM_MOTOR_TILT.c ****     *  None 
 729:.\Generated_Source\PSoC5/PWM_MOTOR_TILT.c ****     *
 730:.\Generated_Source\PSoC5/PWM_MOTOR_TILT.c ****     * Return: 
 731:.\Generated_Source\PSoC5/PWM_MOTOR_TILT.c ****     *  uint8 : Current control register value
 732:.\Generated_Source\PSoC5/PWM_MOTOR_TILT.c ****     *
 733:.\Generated_Source\PSoC5/PWM_MOTOR_TILT.c ****     *******************************************************************************/    
 734:.\Generated_Source\PSoC5/PWM_MOTOR_TILT.c ****     uint8 PWM_MOTOR_TILT_ReadControlRegister(void) 
 735:.\Generated_Source\PSoC5/PWM_MOTOR_TILT.c ****     {
 420              		.loc 1 735 0
 421              		.cfi_startproc
 422              		@ args = 0, pretend = 0, frame = 0
 423              		@ frame_needed = 0, uses_anonymous_args = 0
 424              		@ link register save eliminated.
 736:.\Generated_Source\PSoC5/PWM_MOTOR_TILT.c ****     	uint8 result;
 737:.\Generated_Source\PSoC5/PWM_MOTOR_TILT.c ****     	
 738:.\Generated_Source\PSoC5/PWM_MOTOR_TILT.c ****     	result = CY_GET_REG8(PWM_MOTOR_TILT_CONTROL_PTR);
 425              		.loc 1 738 0
 426 0000 014B     		ldr	r3, .L34
 427 0002 1878     		ldrb	r0, [r3, #0]	@ zero_extendqisi2
ARM GAS  C:\Users\Graziano\AppData\Local\Temp\ccxs7yXP.s 			page 22


 428              	.LVL13:
 739:.\Generated_Source\PSoC5/PWM_MOTOR_TILT.c ****     	return (result);
 740:.\Generated_Source\PSoC5/PWM_MOTOR_TILT.c ****     }
 429              		.loc 1 740 0
 430 0004 7047     		bx	lr
 431              	.L35:
 432 0006 00BF     		.align	2
 433              	.L34:
 434 0008 184F0040 		.word	1073762072
 435              		.cfi_endproc
 436              	.LFE10:
 437              		.size	PWM_MOTOR_TILT_ReadControlRegister, .-PWM_MOTOR_TILT_ReadControlRegister
 438              		.section	.text.PWM_MOTOR_TILT_WriteControlRegister,"ax",%progbits
 439              		.align	1
 440              		.global	PWM_MOTOR_TILT_WriteControlRegister
 441              		.thumb
 442              		.thumb_func
 443              		.type	PWM_MOTOR_TILT_WriteControlRegister, %function
 444              	PWM_MOTOR_TILT_WriteControlRegister:
 445              	.LFB11:
 741:.\Generated_Source\PSoC5/PWM_MOTOR_TILT.c **** 
 742:.\Generated_Source\PSoC5/PWM_MOTOR_TILT.c **** 
 743:.\Generated_Source\PSoC5/PWM_MOTOR_TILT.c ****     /*******************************************************************************
 744:.\Generated_Source\PSoC5/PWM_MOTOR_TILT.c ****     * Function Name: PWM_MOTOR_TILT_WriteControlRegister
 745:.\Generated_Source\PSoC5/PWM_MOTOR_TILT.c ****     ********************************************************************************
 746:.\Generated_Source\PSoC5/PWM_MOTOR_TILT.c ****     * 
 747:.\Generated_Source\PSoC5/PWM_MOTOR_TILT.c ****     * Summary:
 748:.\Generated_Source\PSoC5/PWM_MOTOR_TILT.c ****     *  Sets the bit field of the control register. This API is available only if 
 749:.\Generated_Source\PSoC5/PWM_MOTOR_TILT.c ****     *  the control register is not removed.
 750:.\Generated_Source\PSoC5/PWM_MOTOR_TILT.c ****     *
 751:.\Generated_Source\PSoC5/PWM_MOTOR_TILT.c ****     * Parameters:  
 752:.\Generated_Source\PSoC5/PWM_MOTOR_TILT.c ****     *  uint8 control: Control register bit field, The status register bits are:
 753:.\Generated_Source\PSoC5/PWM_MOTOR_TILT.c ****     *  [7]   : PWM Enable
 754:.\Generated_Source\PSoC5/PWM_MOTOR_TILT.c ****     *  [6]   : Reset
 755:.\Generated_Source\PSoC5/PWM_MOTOR_TILT.c ****     *  [5:3] : Compare Mode2
 756:.\Generated_Source\PSoC5/PWM_MOTOR_TILT.c ****     *  [2:0] : Compare Mode2
 757:.\Generated_Source\PSoC5/PWM_MOTOR_TILT.c ****     *
 758:.\Generated_Source\PSoC5/PWM_MOTOR_TILT.c ****     * Return: 
 759:.\Generated_Source\PSoC5/PWM_MOTOR_TILT.c ****     *  None
 760:.\Generated_Source\PSoC5/PWM_MOTOR_TILT.c ****     *
 761:.\Generated_Source\PSoC5/PWM_MOTOR_TILT.c ****     *******************************************************************************/  
 762:.\Generated_Source\PSoC5/PWM_MOTOR_TILT.c ****     void PWM_MOTOR_TILT_WriteControlRegister(uint8 control) 
 763:.\Generated_Source\PSoC5/PWM_MOTOR_TILT.c ****     {
 446              		.loc 1 763 0
 447              		.cfi_startproc
 448              		@ args = 0, pretend = 0, frame = 0
 449              		@ frame_needed = 0, uses_anonymous_args = 0
 450              		@ link register save eliminated.
 451              	.LVL14:
 764:.\Generated_Source\PSoC5/PWM_MOTOR_TILT.c ****     	CY_SET_REG8(PWM_MOTOR_TILT_CONTROL_PTR, control);
 452              		.loc 1 764 0
 453 0000 014B     		ldr	r3, .L37
 454 0002 1870     		strb	r0, [r3, #0]
 455 0004 7047     		bx	lr
 456              	.L38:
 457 0006 00BF     		.align	2
 458              	.L37:
ARM GAS  C:\Users\Graziano\AppData\Local\Temp\ccxs7yXP.s 			page 23


 459 0008 184F0040 		.word	1073762072
 460              		.cfi_endproc
 461              	.LFE11:
 462              		.size	PWM_MOTOR_TILT_WriteControlRegister, .-PWM_MOTOR_TILT_WriteControlRegister
 463              		.section	.text.PWM_MOTOR_TILT_ReadCompare,"ax",%progbits
 464              		.align	1
 465              		.global	PWM_MOTOR_TILT_ReadCompare
 466              		.thumb
 467              		.thumb_func
 468              		.type	PWM_MOTOR_TILT_ReadCompare, %function
 469              	PWM_MOTOR_TILT_ReadCompare:
 470              	.LFB12:
 765:.\Generated_Source\PSoC5/PWM_MOTOR_TILT.c ****     }
 766:.\Generated_Source\PSoC5/PWM_MOTOR_TILT.c **** 	
 767:.\Generated_Source\PSoC5/PWM_MOTOR_TILT.c **** #endif /* (PWM_MOTOR_TILT_UseControl) */
 768:.\Generated_Source\PSoC5/PWM_MOTOR_TILT.c **** 
 769:.\Generated_Source\PSoC5/PWM_MOTOR_TILT.c **** 
 770:.\Generated_Source\PSoC5/PWM_MOTOR_TILT.c **** #if (!PWM_MOTOR_TILT_UsingFixedFunction)
 771:.\Generated_Source\PSoC5/PWM_MOTOR_TILT.c **** 
 772:.\Generated_Source\PSoC5/PWM_MOTOR_TILT.c **** 
 773:.\Generated_Source\PSoC5/PWM_MOTOR_TILT.c ****     /*******************************************************************************
 774:.\Generated_Source\PSoC5/PWM_MOTOR_TILT.c ****     * Function Name: PWM_MOTOR_TILT_ReadCapture
 775:.\Generated_Source\PSoC5/PWM_MOTOR_TILT.c ****     ********************************************************************************
 776:.\Generated_Source\PSoC5/PWM_MOTOR_TILT.c ****     * 
 777:.\Generated_Source\PSoC5/PWM_MOTOR_TILT.c ****     * Summary:
 778:.\Generated_Source\PSoC5/PWM_MOTOR_TILT.c ****     *  Reads the capture value from the capture FIFO.
 779:.\Generated_Source\PSoC5/PWM_MOTOR_TILT.c ****     *
 780:.\Generated_Source\PSoC5/PWM_MOTOR_TILT.c ****     * Parameters:  
 781:.\Generated_Source\PSoC5/PWM_MOTOR_TILT.c ****     *  None
 782:.\Generated_Source\PSoC5/PWM_MOTOR_TILT.c ****     *
 783:.\Generated_Source\PSoC5/PWM_MOTOR_TILT.c ****     * Return: 
 784:.\Generated_Source\PSoC5/PWM_MOTOR_TILT.c ****     *  uint8/uint16: The current capture value
 785:.\Generated_Source\PSoC5/PWM_MOTOR_TILT.c ****     *
 786:.\Generated_Source\PSoC5/PWM_MOTOR_TILT.c ****     *******************************************************************************/  
 787:.\Generated_Source\PSoC5/PWM_MOTOR_TILT.c ****     uint16 PWM_MOTOR_TILT_ReadCapture(void)  
 788:.\Generated_Source\PSoC5/PWM_MOTOR_TILT.c ****     {
 789:.\Generated_Source\PSoC5/PWM_MOTOR_TILT.c ****     	return (CY_GET_REG16(PWM_MOTOR_TILT_CAPTURE_LSB_PTR));
 790:.\Generated_Source\PSoC5/PWM_MOTOR_TILT.c ****     }
 791:.\Generated_Source\PSoC5/PWM_MOTOR_TILT.c **** 	
 792:.\Generated_Source\PSoC5/PWM_MOTOR_TILT.c **** #endif /* (!PWM_MOTOR_TILT_UsingFixedFunction) */
 793:.\Generated_Source\PSoC5/PWM_MOTOR_TILT.c **** 
 794:.\Generated_Source\PSoC5/PWM_MOTOR_TILT.c **** 
 795:.\Generated_Source\PSoC5/PWM_MOTOR_TILT.c **** #if (PWM_MOTOR_TILT_UseOneCompareMode)
 796:.\Generated_Source\PSoC5/PWM_MOTOR_TILT.c **** 
 797:.\Generated_Source\PSoC5/PWM_MOTOR_TILT.c **** 
 798:.\Generated_Source\PSoC5/PWM_MOTOR_TILT.c ****     /*******************************************************************************
 799:.\Generated_Source\PSoC5/PWM_MOTOR_TILT.c ****     * Function Name: PWM_MOTOR_TILT_ReadCompare
 800:.\Generated_Source\PSoC5/PWM_MOTOR_TILT.c ****     ********************************************************************************
 801:.\Generated_Source\PSoC5/PWM_MOTOR_TILT.c ****     * 
 802:.\Generated_Source\PSoC5/PWM_MOTOR_TILT.c ****     * Summary:
 803:.\Generated_Source\PSoC5/PWM_MOTOR_TILT.c ****     *  Reads the compare value for the compare output when the PWM Mode parameter is 
 804:.\Generated_Source\PSoC5/PWM_MOTOR_TILT.c ****     *  set to Dither mode, Center Aligned mode, or One Output mode.
 805:.\Generated_Source\PSoC5/PWM_MOTOR_TILT.c ****     *
 806:.\Generated_Source\PSoC5/PWM_MOTOR_TILT.c ****     * Parameters:  
 807:.\Generated_Source\PSoC5/PWM_MOTOR_TILT.c ****     *  None
 808:.\Generated_Source\PSoC5/PWM_MOTOR_TILT.c ****     *
 809:.\Generated_Source\PSoC5/PWM_MOTOR_TILT.c ****     * Return: 
ARM GAS  C:\Users\Graziano\AppData\Local\Temp\ccxs7yXP.s 			page 24


 810:.\Generated_Source\PSoC5/PWM_MOTOR_TILT.c ****     *  uint8/uint16: Current compare value
 811:.\Generated_Source\PSoC5/PWM_MOTOR_TILT.c ****     *
 812:.\Generated_Source\PSoC5/PWM_MOTOR_TILT.c ****     *******************************************************************************/  
 813:.\Generated_Source\PSoC5/PWM_MOTOR_TILT.c ****     uint16 PWM_MOTOR_TILT_ReadCompare(void)  
 814:.\Generated_Source\PSoC5/PWM_MOTOR_TILT.c ****     {
 471              		.loc 1 814 0
 472              		.cfi_startproc
 473              		@ args = 0, pretend = 0, frame = 0
 474              		@ frame_needed = 0, uses_anonymous_args = 0
 475              		@ link register save eliminated.
 815:.\Generated_Source\PSoC5/PWM_MOTOR_TILT.c **** 		#if(PWM_MOTOR_TILT_UsingFixedFunction)
 816:.\Generated_Source\PSoC5/PWM_MOTOR_TILT.c ****             return ((uint16)CY_GET_REG16(PWM_MOTOR_TILT_COMPARE1_LSB_PTR));
 476              		.loc 1 816 0
 477 0000 014B     		ldr	r3, .L40
 478 0002 1888     		ldrh	r0, [r3, #0]
 817:.\Generated_Source\PSoC5/PWM_MOTOR_TILT.c ****         #else
 818:.\Generated_Source\PSoC5/PWM_MOTOR_TILT.c ****             return (CY_GET_REG16(PWM_MOTOR_TILT_COMPARE1_LSB_PTR));
 819:.\Generated_Source\PSoC5/PWM_MOTOR_TILT.c ****         #endif /* (PWM_MOTOR_TILT_UsingFixedFunction) */
 820:.\Generated_Source\PSoC5/PWM_MOTOR_TILT.c ****     }
 479              		.loc 1 820 0
 480 0004 80B2     		uxth	r0, r0
 481 0006 7047     		bx	lr
 482              	.L41:
 483              		.align	2
 484              	.L40:
 485 0008 1E4F0040 		.word	1073762078
 486              		.cfi_endproc
 487              	.LFE12:
 488              		.size	PWM_MOTOR_TILT_ReadCompare, .-PWM_MOTOR_TILT_ReadCompare
 489              		.section	.text.PWM_MOTOR_TILT_ReadPeriod,"ax",%progbits
 490              		.align	1
 491              		.global	PWM_MOTOR_TILT_ReadPeriod
 492              		.thumb
 493              		.thumb_func
 494              		.type	PWM_MOTOR_TILT_ReadPeriod, %function
 495              	PWM_MOTOR_TILT_ReadPeriod:
 496              	.LFB13:
 821:.\Generated_Source\PSoC5/PWM_MOTOR_TILT.c **** 
 822:.\Generated_Source\PSoC5/PWM_MOTOR_TILT.c **** #else
 823:.\Generated_Source\PSoC5/PWM_MOTOR_TILT.c **** 
 824:.\Generated_Source\PSoC5/PWM_MOTOR_TILT.c **** 
 825:.\Generated_Source\PSoC5/PWM_MOTOR_TILT.c ****     /*******************************************************************************
 826:.\Generated_Source\PSoC5/PWM_MOTOR_TILT.c ****     * Function Name: PWM_MOTOR_TILT_ReadCompare1
 827:.\Generated_Source\PSoC5/PWM_MOTOR_TILT.c ****     ********************************************************************************
 828:.\Generated_Source\PSoC5/PWM_MOTOR_TILT.c ****     * 
 829:.\Generated_Source\PSoC5/PWM_MOTOR_TILT.c ****     * Summary:
 830:.\Generated_Source\PSoC5/PWM_MOTOR_TILT.c ****     *  Reads the compare value for the compare1 output.
 831:.\Generated_Source\PSoC5/PWM_MOTOR_TILT.c ****     *
 832:.\Generated_Source\PSoC5/PWM_MOTOR_TILT.c ****     * Parameters:  
 833:.\Generated_Source\PSoC5/PWM_MOTOR_TILT.c ****     *  None
 834:.\Generated_Source\PSoC5/PWM_MOTOR_TILT.c ****     *
 835:.\Generated_Source\PSoC5/PWM_MOTOR_TILT.c ****     * Return: 
 836:.\Generated_Source\PSoC5/PWM_MOTOR_TILT.c ****     *  uint8/uint16: Current compare value.
 837:.\Generated_Source\PSoC5/PWM_MOTOR_TILT.c ****     *
 838:.\Generated_Source\PSoC5/PWM_MOTOR_TILT.c ****     *******************************************************************************/  
 839:.\Generated_Source\PSoC5/PWM_MOTOR_TILT.c ****     uint16 PWM_MOTOR_TILT_ReadCompare1(void) 
 840:.\Generated_Source\PSoC5/PWM_MOTOR_TILT.c ****     {
ARM GAS  C:\Users\Graziano\AppData\Local\Temp\ccxs7yXP.s 			page 25


 841:.\Generated_Source\PSoC5/PWM_MOTOR_TILT.c **** 		return (CY_GET_REG16(PWM_MOTOR_TILT_COMPARE1_LSB_PTR));
 842:.\Generated_Source\PSoC5/PWM_MOTOR_TILT.c ****     }
 843:.\Generated_Source\PSoC5/PWM_MOTOR_TILT.c **** 
 844:.\Generated_Source\PSoC5/PWM_MOTOR_TILT.c **** 
 845:.\Generated_Source\PSoC5/PWM_MOTOR_TILT.c ****     /*******************************************************************************
 846:.\Generated_Source\PSoC5/PWM_MOTOR_TILT.c ****     * Function Name: PWM_MOTOR_TILT_ReadCompare2
 847:.\Generated_Source\PSoC5/PWM_MOTOR_TILT.c ****     ********************************************************************************
 848:.\Generated_Source\PSoC5/PWM_MOTOR_TILT.c ****     * 
 849:.\Generated_Source\PSoC5/PWM_MOTOR_TILT.c ****     * Summary:
 850:.\Generated_Source\PSoC5/PWM_MOTOR_TILT.c ****     *  Reads the compare value for the compare2 output.
 851:.\Generated_Source\PSoC5/PWM_MOTOR_TILT.c ****     *
 852:.\Generated_Source\PSoC5/PWM_MOTOR_TILT.c ****     * Parameters:  
 853:.\Generated_Source\PSoC5/PWM_MOTOR_TILT.c ****     *  None
 854:.\Generated_Source\PSoC5/PWM_MOTOR_TILT.c ****     *
 855:.\Generated_Source\PSoC5/PWM_MOTOR_TILT.c ****     * Return: 
 856:.\Generated_Source\PSoC5/PWM_MOTOR_TILT.c ****     *  uint8/uint16: Current compare value.
 857:.\Generated_Source\PSoC5/PWM_MOTOR_TILT.c ****     *
 858:.\Generated_Source\PSoC5/PWM_MOTOR_TILT.c ****     *******************************************************************************/  
 859:.\Generated_Source\PSoC5/PWM_MOTOR_TILT.c ****     uint16 PWM_MOTOR_TILT_ReadCompare2(void)  
 860:.\Generated_Source\PSoC5/PWM_MOTOR_TILT.c ****     {
 861:.\Generated_Source\PSoC5/PWM_MOTOR_TILT.c **** 		return (CY_GET_REG16(PWM_MOTOR_TILT_COMPARE2_LSB_PTR));
 862:.\Generated_Source\PSoC5/PWM_MOTOR_TILT.c ****     }
 863:.\Generated_Source\PSoC5/PWM_MOTOR_TILT.c **** 
 864:.\Generated_Source\PSoC5/PWM_MOTOR_TILT.c **** #endif /* (PWM_MOTOR_TILT_UseOneCompareMode) */
 865:.\Generated_Source\PSoC5/PWM_MOTOR_TILT.c **** 
 866:.\Generated_Source\PSoC5/PWM_MOTOR_TILT.c **** 
 867:.\Generated_Source\PSoC5/PWM_MOTOR_TILT.c **** /*******************************************************************************
 868:.\Generated_Source\PSoC5/PWM_MOTOR_TILT.c **** * Function Name: PWM_MOTOR_TILT_ReadPeriod
 869:.\Generated_Source\PSoC5/PWM_MOTOR_TILT.c **** ********************************************************************************
 870:.\Generated_Source\PSoC5/PWM_MOTOR_TILT.c **** * 
 871:.\Generated_Source\PSoC5/PWM_MOTOR_TILT.c **** * Summary:
 872:.\Generated_Source\PSoC5/PWM_MOTOR_TILT.c **** *  Reads the period value used by the PWM hardware.
 873:.\Generated_Source\PSoC5/PWM_MOTOR_TILT.c **** *
 874:.\Generated_Source\PSoC5/PWM_MOTOR_TILT.c **** * Parameters:  
 875:.\Generated_Source\PSoC5/PWM_MOTOR_TILT.c **** *  None
 876:.\Generated_Source\PSoC5/PWM_MOTOR_TILT.c **** *
 877:.\Generated_Source\PSoC5/PWM_MOTOR_TILT.c **** * Return: 
 878:.\Generated_Source\PSoC5/PWM_MOTOR_TILT.c **** *  uint8/16: Period value
 879:.\Generated_Source\PSoC5/PWM_MOTOR_TILT.c **** *
 880:.\Generated_Source\PSoC5/PWM_MOTOR_TILT.c **** *******************************************************************************/ 
 881:.\Generated_Source\PSoC5/PWM_MOTOR_TILT.c **** uint16 PWM_MOTOR_TILT_ReadPeriod(void) 
 882:.\Generated_Source\PSoC5/PWM_MOTOR_TILT.c **** {
 497              		.loc 1 882 0
 498              		.cfi_startproc
 499              		@ args = 0, pretend = 0, frame = 0
 500              		@ frame_needed = 0, uses_anonymous_args = 0
 501              		@ link register save eliminated.
 883:.\Generated_Source\PSoC5/PWM_MOTOR_TILT.c **** 	#if(PWM_MOTOR_TILT_UsingFixedFunction)
 884:.\Generated_Source\PSoC5/PWM_MOTOR_TILT.c ****         return ((uint16)CY_GET_REG16(PWM_MOTOR_TILT_PERIOD_LSB_PTR));
 502              		.loc 1 884 0
 503 0000 014B     		ldr	r3, .L43
 504 0002 1888     		ldrh	r0, [r3, #0]
 885:.\Generated_Source\PSoC5/PWM_MOTOR_TILT.c ****     #else
 886:.\Generated_Source\PSoC5/PWM_MOTOR_TILT.c ****         return (CY_GET_REG16(PWM_MOTOR_TILT_PERIOD_LSB_PTR));
 887:.\Generated_Source\PSoC5/PWM_MOTOR_TILT.c ****     #endif /* (PWM_MOTOR_TILT_UsingFixedFunction) */
 888:.\Generated_Source\PSoC5/PWM_MOTOR_TILT.c **** }
 505              		.loc 1 888 0
ARM GAS  C:\Users\Graziano\AppData\Local\Temp\ccxs7yXP.s 			page 26


 506 0004 80B2     		uxth	r0, r0
 507 0006 7047     		bx	lr
 508              	.L44:
 509              		.align	2
 510              	.L43:
 511 0008 1C4F0040 		.word	1073762076
 512              		.cfi_endproc
 513              	.LFE13:
 514              		.size	PWM_MOTOR_TILT_ReadPeriod, .-PWM_MOTOR_TILT_ReadPeriod
 515              		.global	PWM_MOTOR_TILT_initVar
 516              		.bss
 517              		.set	.LANCHOR0,. + 0
 518              		.type	PWM_MOTOR_TILT_initVar, %object
 519              		.size	PWM_MOTOR_TILT_initVar, 1
 520              	PWM_MOTOR_TILT_initVar:
 521 0000 00       		.space	1
 522              		.text
 523              	.Letext0:
 524              		.file 2 ".\\Generated_Source\\PSoC5\\cytypes.h"