ARM GAS  C:\Users\Graziano\AppData\Local\Temp\ccDNjtD8.s 			page 1


   1              		.syntax unified
   2              		.cpu cortex-m3
   3              		.fpu softvfp
   4              		.eabi_attribute 20, 1
   5              		.eabi_attribute 21, 1
   6              		.eabi_attribute 23, 3
   7              		.eabi_attribute 24, 1
   8              		.eabi_attribute 25, 1
   9              		.eabi_attribute 26, 1
  10              		.eabi_attribute 30, 4
  11              		.eabi_attribute 34, 1
  12              		.eabi_attribute 18, 4
  13              		.thumb
  14              		.file	"PWM_MOTOR_TILT_PM.c"
  15              		.text
  16              	.Ltext0:
  17              		.cfi_sections	.debug_frame
  18              		.section	.text.PWM_MOTOR_TILT_SaveConfig,"ax",%progbits
  19              		.align	1
  20              		.global	PWM_MOTOR_TILT_SaveConfig
  21              		.thumb
  22              		.thumb_func
  23              		.type	PWM_MOTOR_TILT_SaveConfig, %function
  24              	PWM_MOTOR_TILT_SaveConfig:
  25              	.LFB0:
  26              		.file 1 ".\\Generated_Source\\PSoC5\\PWM_MOTOR_TILT_PM.c"
   1:.\Generated_Source\PSoC5/PWM_MOTOR_TILT_PM.c **** /*******************************************************************************
   2:.\Generated_Source\PSoC5/PWM_MOTOR_TILT_PM.c **** * File Name: PWM_MOTOR_TILT_PM.c
   3:.\Generated_Source\PSoC5/PWM_MOTOR_TILT_PM.c **** * Version 3.0
   4:.\Generated_Source\PSoC5/PWM_MOTOR_TILT_PM.c **** *
   5:.\Generated_Source\PSoC5/PWM_MOTOR_TILT_PM.c **** * Description:
   6:.\Generated_Source\PSoC5/PWM_MOTOR_TILT_PM.c **** *  This file provides the power management source code to API for the
   7:.\Generated_Source\PSoC5/PWM_MOTOR_TILT_PM.c **** *  PWM.
   8:.\Generated_Source\PSoC5/PWM_MOTOR_TILT_PM.c **** *
   9:.\Generated_Source\PSoC5/PWM_MOTOR_TILT_PM.c **** * Note:
  10:.\Generated_Source\PSoC5/PWM_MOTOR_TILT_PM.c **** *
  11:.\Generated_Source\PSoC5/PWM_MOTOR_TILT_PM.c **** ********************************************************************************
  12:.\Generated_Source\PSoC5/PWM_MOTOR_TILT_PM.c **** * Copyright 2008-2012, Cypress Semiconductor Corporation.  All rights reserved.
  13:.\Generated_Source\PSoC5/PWM_MOTOR_TILT_PM.c **** * You may use this file only in accordance with the license, terms, conditions,
  14:.\Generated_Source\PSoC5/PWM_MOTOR_TILT_PM.c **** * disclaimers, and limitations in the end user license agreement accompanying
  15:.\Generated_Source\PSoC5/PWM_MOTOR_TILT_PM.c **** * the software package with which this file was provided.
  16:.\Generated_Source\PSoC5/PWM_MOTOR_TILT_PM.c **** *******************************************************************************/
  17:.\Generated_Source\PSoC5/PWM_MOTOR_TILT_PM.c **** #include "cytypes.h"
  18:.\Generated_Source\PSoC5/PWM_MOTOR_TILT_PM.c **** #include "PWM_MOTOR_TILT.h"
  19:.\Generated_Source\PSoC5/PWM_MOTOR_TILT_PM.c **** 
  20:.\Generated_Source\PSoC5/PWM_MOTOR_TILT_PM.c **** static PWM_MOTOR_TILT_backupStruct PWM_MOTOR_TILT_backup;
  21:.\Generated_Source\PSoC5/PWM_MOTOR_TILT_PM.c **** 
  22:.\Generated_Source\PSoC5/PWM_MOTOR_TILT_PM.c **** 
  23:.\Generated_Source\PSoC5/PWM_MOTOR_TILT_PM.c **** /*******************************************************************************
  24:.\Generated_Source\PSoC5/PWM_MOTOR_TILT_PM.c **** * Function Name: PWM_MOTOR_TILT_SaveConfig
  25:.\Generated_Source\PSoC5/PWM_MOTOR_TILT_PM.c **** ********************************************************************************
  26:.\Generated_Source\PSoC5/PWM_MOTOR_TILT_PM.c **** *
  27:.\Generated_Source\PSoC5/PWM_MOTOR_TILT_PM.c **** * Summary:
  28:.\Generated_Source\PSoC5/PWM_MOTOR_TILT_PM.c **** *  Saves the current user configuration of the component.
  29:.\Generated_Source\PSoC5/PWM_MOTOR_TILT_PM.c **** *  
  30:.\Generated_Source\PSoC5/PWM_MOTOR_TILT_PM.c **** * Parameters:  
  31:.\Generated_Source\PSoC5/PWM_MOTOR_TILT_PM.c **** *  None
ARM GAS  C:\Users\Graziano\AppData\Local\Temp\ccDNjtD8.s 			page 2


  32:.\Generated_Source\PSoC5/PWM_MOTOR_TILT_PM.c **** *
  33:.\Generated_Source\PSoC5/PWM_MOTOR_TILT_PM.c **** * Return: 
  34:.\Generated_Source\PSoC5/PWM_MOTOR_TILT_PM.c **** *  None
  35:.\Generated_Source\PSoC5/PWM_MOTOR_TILT_PM.c **** *
  36:.\Generated_Source\PSoC5/PWM_MOTOR_TILT_PM.c **** * Global variables:
  37:.\Generated_Source\PSoC5/PWM_MOTOR_TILT_PM.c **** *  PWM_MOTOR_TILT_backup:  Variables of this global structure are modified to 
  38:.\Generated_Source\PSoC5/PWM_MOTOR_TILT_PM.c **** *  store the values of non retention configuration registers when Sleep() API is 
  39:.\Generated_Source\PSoC5/PWM_MOTOR_TILT_PM.c **** *  called.
  40:.\Generated_Source\PSoC5/PWM_MOTOR_TILT_PM.c **** *
  41:.\Generated_Source\PSoC5/PWM_MOTOR_TILT_PM.c **** *******************************************************************************/
  42:.\Generated_Source\PSoC5/PWM_MOTOR_TILT_PM.c **** void PWM_MOTOR_TILT_SaveConfig(void) 
  43:.\Generated_Source\PSoC5/PWM_MOTOR_TILT_PM.c **** {
  27              		.loc 1 43 0
  28              		.cfi_startproc
  29              		@ args = 0, pretend = 0, frame = 0
  30              		@ frame_needed = 0, uses_anonymous_args = 0
  31              		@ link register save eliminated.
  32 0000 7047     		bx	lr
  33              		.cfi_endproc
  34              	.LFE0:
  35              		.size	PWM_MOTOR_TILT_SaveConfig, .-PWM_MOTOR_TILT_SaveConfig
  36              		.section	.text.PWM_MOTOR_TILT_RestoreConfig,"ax",%progbits
  37              		.align	1
  38              		.global	PWM_MOTOR_TILT_RestoreConfig
  39              		.thumb
  40              		.thumb_func
  41              		.type	PWM_MOTOR_TILT_RestoreConfig, %function
  42              	PWM_MOTOR_TILT_RestoreConfig:
  43              	.LFB1:
  44:.\Generated_Source\PSoC5/PWM_MOTOR_TILT_PM.c ****     
  45:.\Generated_Source\PSoC5/PWM_MOTOR_TILT_PM.c ****     #if(!PWM_MOTOR_TILT_UsingFixedFunction)
  46:.\Generated_Source\PSoC5/PWM_MOTOR_TILT_PM.c ****         #if(!PWM_MOTOR_TILT_PWMModeIsCenterAligned)
  47:.\Generated_Source\PSoC5/PWM_MOTOR_TILT_PM.c ****             PWM_MOTOR_TILT_backup.PWMPeriod = PWM_MOTOR_TILT_ReadPeriod();
  48:.\Generated_Source\PSoC5/PWM_MOTOR_TILT_PM.c ****         #endif /* (!PWM_MOTOR_TILT_PWMModeIsCenterAligned) */
  49:.\Generated_Source\PSoC5/PWM_MOTOR_TILT_PM.c ****         PWM_MOTOR_TILT_backup.PWMUdb = PWM_MOTOR_TILT_ReadCounter();
  50:.\Generated_Source\PSoC5/PWM_MOTOR_TILT_PM.c ****         #if (PWM_MOTOR_TILT_UseStatus)
  51:.\Generated_Source\PSoC5/PWM_MOTOR_TILT_PM.c ****             PWM_MOTOR_TILT_backup.InterruptMaskValue = PWM_MOTOR_TILT_STATUS_MASK;
  52:.\Generated_Source\PSoC5/PWM_MOTOR_TILT_PM.c ****         #endif /* (PWM_MOTOR_TILT_UseStatus) */
  53:.\Generated_Source\PSoC5/PWM_MOTOR_TILT_PM.c ****         
  54:.\Generated_Source\PSoC5/PWM_MOTOR_TILT_PM.c ****         #if(PWM_MOTOR_TILT_DeadBandMode == PWM_MOTOR_TILT__B_PWM__DBM_256_CLOCKS || \
  55:.\Generated_Source\PSoC5/PWM_MOTOR_TILT_PM.c ****             PWM_MOTOR_TILT_DeadBandMode == PWM_MOTOR_TILT__B_PWM__DBM_2_4_CLOCKS)
  56:.\Generated_Source\PSoC5/PWM_MOTOR_TILT_PM.c ****             PWM_MOTOR_TILT_backup.PWMdeadBandValue = PWM_MOTOR_TILT_ReadDeadTime();
  57:.\Generated_Source\PSoC5/PWM_MOTOR_TILT_PM.c ****         #endif /*  deadband count is either 2-4 clocks or 256 clocks */
  58:.\Generated_Source\PSoC5/PWM_MOTOR_TILT_PM.c ****         
  59:.\Generated_Source\PSoC5/PWM_MOTOR_TILT_PM.c ****         #if(PWM_MOTOR_TILT_KillModeMinTime)
  60:.\Generated_Source\PSoC5/PWM_MOTOR_TILT_PM.c ****              PWM_MOTOR_TILT_backup.PWMKillCounterPeriod = PWM_MOTOR_TILT_ReadKillTime();
  61:.\Generated_Source\PSoC5/PWM_MOTOR_TILT_PM.c ****         #endif /* (PWM_MOTOR_TILT_KillModeMinTime) */
  62:.\Generated_Source\PSoC5/PWM_MOTOR_TILT_PM.c ****         
  63:.\Generated_Source\PSoC5/PWM_MOTOR_TILT_PM.c ****         #if(PWM_MOTOR_TILT_UseControl)
  64:.\Generated_Source\PSoC5/PWM_MOTOR_TILT_PM.c ****             PWM_MOTOR_TILT_backup.PWMControlRegister = PWM_MOTOR_TILT_ReadControlRegister();
  65:.\Generated_Source\PSoC5/PWM_MOTOR_TILT_PM.c ****         #endif /* (PWM_MOTOR_TILT_UseControl) */
  66:.\Generated_Source\PSoC5/PWM_MOTOR_TILT_PM.c ****     #endif  /* (!PWM_MOTOR_TILT_UsingFixedFunction) */
  67:.\Generated_Source\PSoC5/PWM_MOTOR_TILT_PM.c **** }
  68:.\Generated_Source\PSoC5/PWM_MOTOR_TILT_PM.c **** 
  69:.\Generated_Source\PSoC5/PWM_MOTOR_TILT_PM.c **** 
  70:.\Generated_Source\PSoC5/PWM_MOTOR_TILT_PM.c **** /*******************************************************************************
  71:.\Generated_Source\PSoC5/PWM_MOTOR_TILT_PM.c **** * Function Name: PWM_MOTOR_TILT_RestoreConfig
ARM GAS  C:\Users\Graziano\AppData\Local\Temp\ccDNjtD8.s 			page 3


  72:.\Generated_Source\PSoC5/PWM_MOTOR_TILT_PM.c **** ********************************************************************************
  73:.\Generated_Source\PSoC5/PWM_MOTOR_TILT_PM.c **** * 
  74:.\Generated_Source\PSoC5/PWM_MOTOR_TILT_PM.c **** * Summary:
  75:.\Generated_Source\PSoC5/PWM_MOTOR_TILT_PM.c **** *  Restores the current user configuration of the component.
  76:.\Generated_Source\PSoC5/PWM_MOTOR_TILT_PM.c **** *
  77:.\Generated_Source\PSoC5/PWM_MOTOR_TILT_PM.c **** * Parameters:  
  78:.\Generated_Source\PSoC5/PWM_MOTOR_TILT_PM.c **** *  None
  79:.\Generated_Source\PSoC5/PWM_MOTOR_TILT_PM.c **** *
  80:.\Generated_Source\PSoC5/PWM_MOTOR_TILT_PM.c **** * Return: 
  81:.\Generated_Source\PSoC5/PWM_MOTOR_TILT_PM.c **** *  None
  82:.\Generated_Source\PSoC5/PWM_MOTOR_TILT_PM.c **** *
  83:.\Generated_Source\PSoC5/PWM_MOTOR_TILT_PM.c **** * Global variables:
  84:.\Generated_Source\PSoC5/PWM_MOTOR_TILT_PM.c **** *  PWM_MOTOR_TILT_backup:  Variables of this global structure are used to  
  85:.\Generated_Source\PSoC5/PWM_MOTOR_TILT_PM.c **** *  restore the values of non retention registers on wakeup from sleep mode.
  86:.\Generated_Source\PSoC5/PWM_MOTOR_TILT_PM.c **** *
  87:.\Generated_Source\PSoC5/PWM_MOTOR_TILT_PM.c **** *******************************************************************************/
  88:.\Generated_Source\PSoC5/PWM_MOTOR_TILT_PM.c **** void PWM_MOTOR_TILT_RestoreConfig(void) 
  89:.\Generated_Source\PSoC5/PWM_MOTOR_TILT_PM.c **** {
  44              		.loc 1 89 0
  45              		.cfi_startproc
  46              		@ args = 0, pretend = 0, frame = 0
  47              		@ frame_needed = 0, uses_anonymous_args = 0
  48              		@ link register save eliminated.
  49 0000 7047     		bx	lr
  50              		.cfi_endproc
  51              	.LFE1:
  52              		.size	PWM_MOTOR_TILT_RestoreConfig, .-PWM_MOTOR_TILT_RestoreConfig
  53              		.section	.text.PWM_MOTOR_TILT_Sleep,"ax",%progbits
  54              		.align	1
  55              		.global	PWM_MOTOR_TILT_Sleep
  56              		.thumb
  57              		.thumb_func
  58              		.type	PWM_MOTOR_TILT_Sleep, %function
  59              	PWM_MOTOR_TILT_Sleep:
  60              	.LFB2:
  90:.\Generated_Source\PSoC5/PWM_MOTOR_TILT_PM.c ****         #if(!PWM_MOTOR_TILT_UsingFixedFunction)
  91:.\Generated_Source\PSoC5/PWM_MOTOR_TILT_PM.c ****             #if(!PWM_MOTOR_TILT_PWMModeIsCenterAligned)
  92:.\Generated_Source\PSoC5/PWM_MOTOR_TILT_PM.c ****                 PWM_MOTOR_TILT_WritePeriod(PWM_MOTOR_TILT_backup.PWMPeriod);
  93:.\Generated_Source\PSoC5/PWM_MOTOR_TILT_PM.c ****             #endif /* (!PWM_MOTOR_TILT_PWMModeIsCenterAligned) */
  94:.\Generated_Source\PSoC5/PWM_MOTOR_TILT_PM.c ****             PWM_MOTOR_TILT_WriteCounter(PWM_MOTOR_TILT_backup.PWMUdb);
  95:.\Generated_Source\PSoC5/PWM_MOTOR_TILT_PM.c ****             #if (PWM_MOTOR_TILT_UseStatus)
  96:.\Generated_Source\PSoC5/PWM_MOTOR_TILT_PM.c ****                 PWM_MOTOR_TILT_STATUS_MASK = PWM_MOTOR_TILT_backup.InterruptMaskValue;
  97:.\Generated_Source\PSoC5/PWM_MOTOR_TILT_PM.c ****             #endif /* (PWM_MOTOR_TILT_UseStatus) */
  98:.\Generated_Source\PSoC5/PWM_MOTOR_TILT_PM.c ****             
  99:.\Generated_Source\PSoC5/PWM_MOTOR_TILT_PM.c ****             #if(PWM_MOTOR_TILT_DeadBandMode == PWM_MOTOR_TILT__B_PWM__DBM_256_CLOCKS || \
 100:.\Generated_Source\PSoC5/PWM_MOTOR_TILT_PM.c ****                 PWM_MOTOR_TILT_DeadBandMode == PWM_MOTOR_TILT__B_PWM__DBM_2_4_CLOCKS)
 101:.\Generated_Source\PSoC5/PWM_MOTOR_TILT_PM.c ****                 PWM_MOTOR_TILT_WriteDeadTime(PWM_MOTOR_TILT_backup.PWMdeadBandValue);
 102:.\Generated_Source\PSoC5/PWM_MOTOR_TILT_PM.c ****             #endif /* deadband count is either 2-4 clocks or 256 clocks */
 103:.\Generated_Source\PSoC5/PWM_MOTOR_TILT_PM.c ****             
 104:.\Generated_Source\PSoC5/PWM_MOTOR_TILT_PM.c ****             #if(PWM_MOTOR_TILT_KillModeMinTime)
 105:.\Generated_Source\PSoC5/PWM_MOTOR_TILT_PM.c ****                 PWM_MOTOR_TILT_WriteKillTime(PWM_MOTOR_TILT_backup.PWMKillCounterPeriod);
 106:.\Generated_Source\PSoC5/PWM_MOTOR_TILT_PM.c ****             #endif /* (PWM_MOTOR_TILT_KillModeMinTime) */
 107:.\Generated_Source\PSoC5/PWM_MOTOR_TILT_PM.c ****             
 108:.\Generated_Source\PSoC5/PWM_MOTOR_TILT_PM.c ****             #if(PWM_MOTOR_TILT_UseControl)
 109:.\Generated_Source\PSoC5/PWM_MOTOR_TILT_PM.c ****                 PWM_MOTOR_TILT_WriteControlRegister(PWM_MOTOR_TILT_backup.PWMControlRegister); 
 110:.\Generated_Source\PSoC5/PWM_MOTOR_TILT_PM.c ****             #endif /* (PWM_MOTOR_TILT_UseControl) */
 111:.\Generated_Source\PSoC5/PWM_MOTOR_TILT_PM.c ****         #endif  /* (!PWM_MOTOR_TILT_UsingFixedFunction) */
ARM GAS  C:\Users\Graziano\AppData\Local\Temp\ccDNjtD8.s 			page 4


 112:.\Generated_Source\PSoC5/PWM_MOTOR_TILT_PM.c ****     }
 113:.\Generated_Source\PSoC5/PWM_MOTOR_TILT_PM.c **** 
 114:.\Generated_Source\PSoC5/PWM_MOTOR_TILT_PM.c **** 
 115:.\Generated_Source\PSoC5/PWM_MOTOR_TILT_PM.c **** /*******************************************************************************
 116:.\Generated_Source\PSoC5/PWM_MOTOR_TILT_PM.c **** * Function Name: PWM_MOTOR_TILT_Sleep
 117:.\Generated_Source\PSoC5/PWM_MOTOR_TILT_PM.c **** ********************************************************************************
 118:.\Generated_Source\PSoC5/PWM_MOTOR_TILT_PM.c **** * 
 119:.\Generated_Source\PSoC5/PWM_MOTOR_TILT_PM.c **** * Summary:
 120:.\Generated_Source\PSoC5/PWM_MOTOR_TILT_PM.c **** *  Disables block's operation and saves the user configuration. Should be called 
 121:.\Generated_Source\PSoC5/PWM_MOTOR_TILT_PM.c **** *  just prior to entering sleep.
 122:.\Generated_Source\PSoC5/PWM_MOTOR_TILT_PM.c **** *  
 123:.\Generated_Source\PSoC5/PWM_MOTOR_TILT_PM.c **** * Parameters:  
 124:.\Generated_Source\PSoC5/PWM_MOTOR_TILT_PM.c **** *  None
 125:.\Generated_Source\PSoC5/PWM_MOTOR_TILT_PM.c **** *
 126:.\Generated_Source\PSoC5/PWM_MOTOR_TILT_PM.c **** * Return: 
 127:.\Generated_Source\PSoC5/PWM_MOTOR_TILT_PM.c **** *  None
 128:.\Generated_Source\PSoC5/PWM_MOTOR_TILT_PM.c **** *
 129:.\Generated_Source\PSoC5/PWM_MOTOR_TILT_PM.c **** * Global variables:
 130:.\Generated_Source\PSoC5/PWM_MOTOR_TILT_PM.c **** *  PWM_MOTOR_TILT_backup.PWMEnableState:  Is modified depending on the enable 
 131:.\Generated_Source\PSoC5/PWM_MOTOR_TILT_PM.c **** *  state of the block before entering sleep mode.
 132:.\Generated_Source\PSoC5/PWM_MOTOR_TILT_PM.c **** *
 133:.\Generated_Source\PSoC5/PWM_MOTOR_TILT_PM.c **** *******************************************************************************/
 134:.\Generated_Source\PSoC5/PWM_MOTOR_TILT_PM.c **** void PWM_MOTOR_TILT_Sleep(void) 
 135:.\Generated_Source\PSoC5/PWM_MOTOR_TILT_PM.c **** {
  61              		.loc 1 135 0
  62              		.cfi_startproc
  63              		@ args = 0, pretend = 0, frame = 0
  64              		@ frame_needed = 0, uses_anonymous_args = 0
  65              		@ link register save eliminated.
 136:.\Generated_Source\PSoC5/PWM_MOTOR_TILT_PM.c ****     #if(PWM_MOTOR_TILT_UseControl)
 137:.\Generated_Source\PSoC5/PWM_MOTOR_TILT_PM.c ****         if(PWM_MOTOR_TILT_CTRL_ENABLE == (PWM_MOTOR_TILT_CONTROL & PWM_MOTOR_TILT_CTRL_ENABLE))
  66              		.loc 1 137 0
  67 0000 044B     		ldr	r3, .L6
  68 0002 0549     		ldr	r1, .L6+4
  69 0004 1878     		ldrb	r0, [r3, #0]	@ zero_extendqisi2
  70 0006 10F00102 		ands	r2, r0, #1
 138:.\Generated_Source\PSoC5/PWM_MOTOR_TILT_PM.c ****         {
 139:.\Generated_Source\PSoC5/PWM_MOTOR_TILT_PM.c ****             /*Component is enabled */
 140:.\Generated_Source\PSoC5/PWM_MOTOR_TILT_PM.c ****             PWM_MOTOR_TILT_backup.PWMEnableState = 1u;
  71              		.loc 1 140 0
  72 000a 18BF     		it	ne
  73 000c 0122     		movne	r2, #1
 141:.\Generated_Source\PSoC5/PWM_MOTOR_TILT_PM.c ****         }
 142:.\Generated_Source\PSoC5/PWM_MOTOR_TILT_PM.c ****         else
 143:.\Generated_Source\PSoC5/PWM_MOTOR_TILT_PM.c ****         {
 144:.\Generated_Source\PSoC5/PWM_MOTOR_TILT_PM.c ****             /* Component is disabled */
 145:.\Generated_Source\PSoC5/PWM_MOTOR_TILT_PM.c ****             PWM_MOTOR_TILT_backup.PWMEnableState = 0u;
  74              		.loc 1 145 0
  75 000e 0A70     		strb	r2, [r1, #0]
 146:.\Generated_Source\PSoC5/PWM_MOTOR_TILT_PM.c ****         }
 147:.\Generated_Source\PSoC5/PWM_MOTOR_TILT_PM.c ****     #endif /* (PWM_MOTOR_TILT_UseControl) */
 148:.\Generated_Source\PSoC5/PWM_MOTOR_TILT_PM.c **** 
 149:.\Generated_Source\PSoC5/PWM_MOTOR_TILT_PM.c ****     /* Stop component */
 150:.\Generated_Source\PSoC5/PWM_MOTOR_TILT_PM.c ****     PWM_MOTOR_TILT_Stop();
 151:.\Generated_Source\PSoC5/PWM_MOTOR_TILT_PM.c ****     
 152:.\Generated_Source\PSoC5/PWM_MOTOR_TILT_PM.c ****     /* Save registers configuration */
 153:.\Generated_Source\PSoC5/PWM_MOTOR_TILT_PM.c ****     PWM_MOTOR_TILT_SaveConfig();
ARM GAS  C:\Users\Graziano\AppData\Local\Temp\ccDNjtD8.s 			page 5


 154:.\Generated_Source\PSoC5/PWM_MOTOR_TILT_PM.c **** }
  76              		.loc 1 154 0
 150:.\Generated_Source\PSoC5/PWM_MOTOR_TILT_PM.c ****     PWM_MOTOR_TILT_Stop();
  77              		.loc 1 150 0
  78 0010 FFF7FEBF 		b	PWM_MOTOR_TILT_Stop
  79              	.LVL0:
  80              	.L7:
  81              		.align	2
  82              	.L6:
  83 0014 184F0040 		.word	1073762072
  84 0018 00000000 		.word	.LANCHOR0
  85              		.cfi_endproc
  86              	.LFE2:
  87              		.size	PWM_MOTOR_TILT_Sleep, .-PWM_MOTOR_TILT_Sleep
  88              		.section	.text.PWM_MOTOR_TILT_Wakeup,"ax",%progbits
  89              		.align	1
  90              		.global	PWM_MOTOR_TILT_Wakeup
  91              		.thumb
  92              		.thumb_func
  93              		.type	PWM_MOTOR_TILT_Wakeup, %function
  94              	PWM_MOTOR_TILT_Wakeup:
  95              	.LFB3:
 155:.\Generated_Source\PSoC5/PWM_MOTOR_TILT_PM.c **** 
 156:.\Generated_Source\PSoC5/PWM_MOTOR_TILT_PM.c **** 
 157:.\Generated_Source\PSoC5/PWM_MOTOR_TILT_PM.c **** /*******************************************************************************
 158:.\Generated_Source\PSoC5/PWM_MOTOR_TILT_PM.c **** * Function Name: PWM_MOTOR_TILT_Wakeup
 159:.\Generated_Source\PSoC5/PWM_MOTOR_TILT_PM.c **** ********************************************************************************
 160:.\Generated_Source\PSoC5/PWM_MOTOR_TILT_PM.c **** * 
 161:.\Generated_Source\PSoC5/PWM_MOTOR_TILT_PM.c **** * Summary:
 162:.\Generated_Source\PSoC5/PWM_MOTOR_TILT_PM.c **** *  Restores and enables the user configuration. Should be called just after 
 163:.\Generated_Source\PSoC5/PWM_MOTOR_TILT_PM.c **** *  awaking from sleep.
 164:.\Generated_Source\PSoC5/PWM_MOTOR_TILT_PM.c **** *  
 165:.\Generated_Source\PSoC5/PWM_MOTOR_TILT_PM.c **** * Parameters:  
 166:.\Generated_Source\PSoC5/PWM_MOTOR_TILT_PM.c **** *  None
 167:.\Generated_Source\PSoC5/PWM_MOTOR_TILT_PM.c **** *
 168:.\Generated_Source\PSoC5/PWM_MOTOR_TILT_PM.c **** * Return: 
 169:.\Generated_Source\PSoC5/PWM_MOTOR_TILT_PM.c **** *  None
 170:.\Generated_Source\PSoC5/PWM_MOTOR_TILT_PM.c **** *
 171:.\Generated_Source\PSoC5/PWM_MOTOR_TILT_PM.c **** * Global variables:
 172:.\Generated_Source\PSoC5/PWM_MOTOR_TILT_PM.c **** *  PWM_MOTOR_TILT_backup.pwmEnable:  Is used to restore the enable state of 
 173:.\Generated_Source\PSoC5/PWM_MOTOR_TILT_PM.c **** *  block on wakeup from sleep mode.
 174:.\Generated_Source\PSoC5/PWM_MOTOR_TILT_PM.c **** *
 175:.\Generated_Source\PSoC5/PWM_MOTOR_TILT_PM.c **** *******************************************************************************/
 176:.\Generated_Source\PSoC5/PWM_MOTOR_TILT_PM.c **** void PWM_MOTOR_TILT_Wakeup(void) 
 177:.\Generated_Source\PSoC5/PWM_MOTOR_TILT_PM.c **** {
  96              		.loc 1 177 0
  97              		.cfi_startproc
  98              		@ args = 0, pretend = 0, frame = 0
  99              		@ frame_needed = 0, uses_anonymous_args = 0
 100              		@ link register save eliminated.
 178:.\Generated_Source\PSoC5/PWM_MOTOR_TILT_PM.c ****      /* Restore registers values */
 179:.\Generated_Source\PSoC5/PWM_MOTOR_TILT_PM.c ****     PWM_MOTOR_TILT_RestoreConfig();
 180:.\Generated_Source\PSoC5/PWM_MOTOR_TILT_PM.c ****     
 181:.\Generated_Source\PSoC5/PWM_MOTOR_TILT_PM.c ****     if(PWM_MOTOR_TILT_backup.PWMEnableState != 0u)
 101              		.loc 1 181 0
 102 0000 024B     		ldr	r3, .L11
 103 0002 1878     		ldrb	r0, [r3, #0]	@ zero_extendqisi2
ARM GAS  C:\Users\Graziano\AppData\Local\Temp\ccDNjtD8.s 			page 6


 104 0004 08B1     		cbz	r0, .L8
 182:.\Generated_Source\PSoC5/PWM_MOTOR_TILT_PM.c ****     {
 183:.\Generated_Source\PSoC5/PWM_MOTOR_TILT_PM.c ****         /* Enable component's operation */
 184:.\Generated_Source\PSoC5/PWM_MOTOR_TILT_PM.c ****         PWM_MOTOR_TILT_Enable();
 185:.\Generated_Source\PSoC5/PWM_MOTOR_TILT_PM.c ****     } /* Do nothing if component's block was disabled before */
 186:.\Generated_Source\PSoC5/PWM_MOTOR_TILT_PM.c ****     
 187:.\Generated_Source\PSoC5/PWM_MOTOR_TILT_PM.c **** }
 105              		.loc 1 187 0
 184:.\Generated_Source\PSoC5/PWM_MOTOR_TILT_PM.c ****         PWM_MOTOR_TILT_Enable();
 106              		.loc 1 184 0
 107 0006 FFF7FEBF 		b	PWM_MOTOR_TILT_Enable
 108              	.LVL1:
 109              	.L8:
 110 000a 7047     		bx	lr
 111              	.L12:
 112              		.align	2
 113              	.L11:
 114 000c 00000000 		.word	.LANCHOR0
 115              		.cfi_endproc
 116              	.LFE3:
 117              		.size	PWM_MOTOR_TILT_Wakeup, .-PWM_MOTOR_TILT_Wakeup
 118              		.bss
 119              		.set	.LANCHOR0,. + 0
 120              		.type	PWM_MOTOR_TILT_backup, %object
 121              		.size	PWM_MOTOR_TILT_backup, 1
 122              	PWM_MOTOR_TILT_backup:
 123 0000 00       		.space	1
 124              		.text
 125              	.Letext0:
 126              		.file 2 ".\\Generated_Source\\PSoC5\\cytypes.h"
 127              		.file 3 ".\\Generated_Source\\PSoC5\\PWM_MOTOR_TILT.h"