ARM GAS  C:\Users\Graziano\AppData\Local\Temp\ccWoKBmc.s 			page 1


   1              		.syntax unified
   2              		.cpu cortex-m3
   3              		.fpu softvfp
   4              		.eabi_attribute 20, 1
   5              		.eabi_attribute 21, 1
   6              		.eabi_attribute 23, 3
   7              		.eabi_attribute 24, 1
   8              		.eabi_attribute 25, 1
   9              		.eabi_attribute 26, 1
  10              		.eabi_attribute 30, 4
  11              		.eabi_attribute 34, 1
  12              		.eabi_attribute 18, 4
  13              		.thumb
  14              		.file	"QuadDec_TILT_Cnt16_PM.c"
  15              		.text
  16              	.Ltext0:
  17              		.cfi_sections	.debug_frame
  18              		.section	.text.QuadDec_TILT_Cnt16_SaveConfig,"ax",%progbits
  19              		.align	1
  20              		.global	QuadDec_TILT_Cnt16_SaveConfig
  21              		.thumb
  22              		.thumb_func
  23              		.type	QuadDec_TILT_Cnt16_SaveConfig, %function
  24              	QuadDec_TILT_Cnt16_SaveConfig:
  25              	.LFB0:
  26              		.file 1 ".\\Generated_Source\\PSoC5\\QuadDec_TILT_Cnt16_PM.c"
   1:.\Generated_Source\PSoC5/QuadDec_TILT_Cnt16_PM.c **** /*******************************************************************************
   2:.\Generated_Source\PSoC5/QuadDec_TILT_Cnt16_PM.c **** * File Name: QuadDec_TILT_Cnt16_PM.c  
   3:.\Generated_Source\PSoC5/QuadDec_TILT_Cnt16_PM.c **** * Version 2.40
   4:.\Generated_Source\PSoC5/QuadDec_TILT_Cnt16_PM.c **** *
   5:.\Generated_Source\PSoC5/QuadDec_TILT_Cnt16_PM.c **** *  Description:
   6:.\Generated_Source\PSoC5/QuadDec_TILT_Cnt16_PM.c **** *    This file provides the power management source code to API for the
   7:.\Generated_Source\PSoC5/QuadDec_TILT_Cnt16_PM.c **** *    Counter.  
   8:.\Generated_Source\PSoC5/QuadDec_TILT_Cnt16_PM.c **** *
   9:.\Generated_Source\PSoC5/QuadDec_TILT_Cnt16_PM.c **** *   Note:
  10:.\Generated_Source\PSoC5/QuadDec_TILT_Cnt16_PM.c **** *     None
  11:.\Generated_Source\PSoC5/QuadDec_TILT_Cnt16_PM.c **** *
  12:.\Generated_Source\PSoC5/QuadDec_TILT_Cnt16_PM.c **** *******************************************************************************
  13:.\Generated_Source\PSoC5/QuadDec_TILT_Cnt16_PM.c **** * Copyright 2008-2012, Cypress Semiconductor Corporation.  All rights reserved.
  14:.\Generated_Source\PSoC5/QuadDec_TILT_Cnt16_PM.c **** * You may use this file only in accordance with the license, terms, conditions, 
  15:.\Generated_Source\PSoC5/QuadDec_TILT_Cnt16_PM.c **** * disclaimers, and limitations in the end user license agreement accompanying 
  16:.\Generated_Source\PSoC5/QuadDec_TILT_Cnt16_PM.c **** * the software package with which this file was provided.
  17:.\Generated_Source\PSoC5/QuadDec_TILT_Cnt16_PM.c **** ********************************************************************************/
  18:.\Generated_Source\PSoC5/QuadDec_TILT_Cnt16_PM.c **** 
  19:.\Generated_Source\PSoC5/QuadDec_TILT_Cnt16_PM.c **** #include "QuadDec_TILT_Cnt16.h"
  20:.\Generated_Source\PSoC5/QuadDec_TILT_Cnt16_PM.c **** 
  21:.\Generated_Source\PSoC5/QuadDec_TILT_Cnt16_PM.c **** static QuadDec_TILT_Cnt16_backupStruct QuadDec_TILT_Cnt16_backup;
  22:.\Generated_Source\PSoC5/QuadDec_TILT_Cnt16_PM.c **** 
  23:.\Generated_Source\PSoC5/QuadDec_TILT_Cnt16_PM.c **** 
  24:.\Generated_Source\PSoC5/QuadDec_TILT_Cnt16_PM.c **** /*******************************************************************************
  25:.\Generated_Source\PSoC5/QuadDec_TILT_Cnt16_PM.c **** * Function Name: QuadDec_TILT_Cnt16_SaveConfig
  26:.\Generated_Source\PSoC5/QuadDec_TILT_Cnt16_PM.c **** ********************************************************************************
  27:.\Generated_Source\PSoC5/QuadDec_TILT_Cnt16_PM.c **** * Summary:
  28:.\Generated_Source\PSoC5/QuadDec_TILT_Cnt16_PM.c **** *     Save the current user configuration
  29:.\Generated_Source\PSoC5/QuadDec_TILT_Cnt16_PM.c **** *
  30:.\Generated_Source\PSoC5/QuadDec_TILT_Cnt16_PM.c **** * Parameters:  
  31:.\Generated_Source\PSoC5/QuadDec_TILT_Cnt16_PM.c **** *  void
ARM GAS  C:\Users\Graziano\AppData\Local\Temp\ccWoKBmc.s 			page 2


  32:.\Generated_Source\PSoC5/QuadDec_TILT_Cnt16_PM.c **** *
  33:.\Generated_Source\PSoC5/QuadDec_TILT_Cnt16_PM.c **** * Return: 
  34:.\Generated_Source\PSoC5/QuadDec_TILT_Cnt16_PM.c **** *  void
  35:.\Generated_Source\PSoC5/QuadDec_TILT_Cnt16_PM.c **** *
  36:.\Generated_Source\PSoC5/QuadDec_TILT_Cnt16_PM.c **** * Global variables:
  37:.\Generated_Source\PSoC5/QuadDec_TILT_Cnt16_PM.c **** *  QuadDec_TILT_Cnt16_backup:  Variables of this global structure are modified to 
  38:.\Generated_Source\PSoC5/QuadDec_TILT_Cnt16_PM.c **** *  store the values of non retention configuration registers when Sleep() API is 
  39:.\Generated_Source\PSoC5/QuadDec_TILT_Cnt16_PM.c **** *  called.
  40:.\Generated_Source\PSoC5/QuadDec_TILT_Cnt16_PM.c **** *
  41:.\Generated_Source\PSoC5/QuadDec_TILT_Cnt16_PM.c **** *******************************************************************************/
  42:.\Generated_Source\PSoC5/QuadDec_TILT_Cnt16_PM.c **** void QuadDec_TILT_Cnt16_SaveConfig(void) 
  43:.\Generated_Source\PSoC5/QuadDec_TILT_Cnt16_PM.c **** {
  27              		.loc 1 43 0
  28              		.cfi_startproc
  29              		@ args = 0, pretend = 0, frame = 0
  30              		@ frame_needed = 0, uses_anonymous_args = 0
  31 0000 10B5     		push	{r4, lr}
  32              	.LCFI0:
  33              		.cfi_def_cfa_offset 8
  34              		.cfi_offset 4, -8
  35              		.cfi_offset 14, -4
  44:.\Generated_Source\PSoC5/QuadDec_TILT_Cnt16_PM.c ****     #if (!QuadDec_TILT_Cnt16_UsingFixedFunction)
  45:.\Generated_Source\PSoC5/QuadDec_TILT_Cnt16_PM.c **** 
  46:.\Generated_Source\PSoC5/QuadDec_TILT_Cnt16_PM.c ****         QuadDec_TILT_Cnt16_backup.CounterUdb = QuadDec_TILT_Cnt16_ReadCounter();
  36              		.loc 1 46 0
  37 0002 FFF7FEFF 		bl	QuadDec_TILT_Cnt16_ReadCounter
  38              	.LVL0:
  39 0006 034C     		ldr	r4, .L2
  40 0008 6080     		strh	r0, [r4, #2]	@ movhi
  47:.\Generated_Source\PSoC5/QuadDec_TILT_Cnt16_PM.c **** 
  48:.\Generated_Source\PSoC5/QuadDec_TILT_Cnt16_PM.c ****         #if (CY_UDB_V0)
  49:.\Generated_Source\PSoC5/QuadDec_TILT_Cnt16_PM.c ****             QuadDec_TILT_Cnt16_backup.CounterPeriod = QuadDec_TILT_Cnt16_ReadPeriod();
  50:.\Generated_Source\PSoC5/QuadDec_TILT_Cnt16_PM.c ****             QuadDec_TILT_Cnt16_backup.CompareValue = QuadDec_TILT_Cnt16_ReadCompare();
  51:.\Generated_Source\PSoC5/QuadDec_TILT_Cnt16_PM.c ****             QuadDec_TILT_Cnt16_backup.InterruptMaskValue = QuadDec_TILT_Cnt16_STATUS_MASK;
  52:.\Generated_Source\PSoC5/QuadDec_TILT_Cnt16_PM.c ****         #endif /* CY_UDB_V0 */
  53:.\Generated_Source\PSoC5/QuadDec_TILT_Cnt16_PM.c **** 
  54:.\Generated_Source\PSoC5/QuadDec_TILT_Cnt16_PM.c ****         #if(!QuadDec_TILT_Cnt16_ControlRegRemoved)
  55:.\Generated_Source\PSoC5/QuadDec_TILT_Cnt16_PM.c ****             QuadDec_TILT_Cnt16_backup.CounterControlRegister = QuadDec_TILT_Cnt16_ReadControlRegist
  41              		.loc 1 55 0
  42 000a FFF7FEFF 		bl	QuadDec_TILT_Cnt16_ReadControlRegister
  43              	.LVL1:
  44 000e 2071     		strb	r0, [r4, #4]
  45 0010 10BD     		pop	{r4, pc}
  46              	.L3:
  47 0012 00BF     		.align	2
  48              	.L2:
  49 0014 00000000 		.word	.LANCHOR0
  50              		.cfi_endproc
  51              	.LFE0:
  52              		.size	QuadDec_TILT_Cnt16_SaveConfig, .-QuadDec_TILT_Cnt16_SaveConfig
  53              		.section	.text.QuadDec_TILT_Cnt16_RestoreConfig,"ax",%progbits
  54              		.align	1
  55              		.global	QuadDec_TILT_Cnt16_RestoreConfig
  56              		.thumb
  57              		.thumb_func
  58              		.type	QuadDec_TILT_Cnt16_RestoreConfig, %function
  59              	QuadDec_TILT_Cnt16_RestoreConfig:
ARM GAS  C:\Users\Graziano\AppData\Local\Temp\ccWoKBmc.s 			page 3


  60              	.LFB1:
  56:.\Generated_Source\PSoC5/QuadDec_TILT_Cnt16_PM.c ****         #endif /* (!QuadDec_TILT_Cnt16_ControlRegRemoved) */
  57:.\Generated_Source\PSoC5/QuadDec_TILT_Cnt16_PM.c **** 
  58:.\Generated_Source\PSoC5/QuadDec_TILT_Cnt16_PM.c ****     #endif /* (!QuadDec_TILT_Cnt16_UsingFixedFunction) */
  59:.\Generated_Source\PSoC5/QuadDec_TILT_Cnt16_PM.c **** }
  60:.\Generated_Source\PSoC5/QuadDec_TILT_Cnt16_PM.c **** 
  61:.\Generated_Source\PSoC5/QuadDec_TILT_Cnt16_PM.c **** 
  62:.\Generated_Source\PSoC5/QuadDec_TILT_Cnt16_PM.c **** /*******************************************************************************
  63:.\Generated_Source\PSoC5/QuadDec_TILT_Cnt16_PM.c **** * Function Name: QuadDec_TILT_Cnt16_RestoreConfig
  64:.\Generated_Source\PSoC5/QuadDec_TILT_Cnt16_PM.c **** ********************************************************************************
  65:.\Generated_Source\PSoC5/QuadDec_TILT_Cnt16_PM.c **** *
  66:.\Generated_Source\PSoC5/QuadDec_TILT_Cnt16_PM.c **** * Summary:
  67:.\Generated_Source\PSoC5/QuadDec_TILT_Cnt16_PM.c **** *  Restores the current user configuration.
  68:.\Generated_Source\PSoC5/QuadDec_TILT_Cnt16_PM.c **** *
  69:.\Generated_Source\PSoC5/QuadDec_TILT_Cnt16_PM.c **** * Parameters:  
  70:.\Generated_Source\PSoC5/QuadDec_TILT_Cnt16_PM.c **** *  void
  71:.\Generated_Source\PSoC5/QuadDec_TILT_Cnt16_PM.c **** *
  72:.\Generated_Source\PSoC5/QuadDec_TILT_Cnt16_PM.c **** * Return: 
  73:.\Generated_Source\PSoC5/QuadDec_TILT_Cnt16_PM.c **** *  void
  74:.\Generated_Source\PSoC5/QuadDec_TILT_Cnt16_PM.c **** *
  75:.\Generated_Source\PSoC5/QuadDec_TILT_Cnt16_PM.c **** * Global variables:
  76:.\Generated_Source\PSoC5/QuadDec_TILT_Cnt16_PM.c **** *  QuadDec_TILT_Cnt16_backup:  Variables of this global structure are used to 
  77:.\Generated_Source\PSoC5/QuadDec_TILT_Cnt16_PM.c **** *  restore the values of non retention registers on wakeup from sleep mode.
  78:.\Generated_Source\PSoC5/QuadDec_TILT_Cnt16_PM.c **** *
  79:.\Generated_Source\PSoC5/QuadDec_TILT_Cnt16_PM.c **** *******************************************************************************/
  80:.\Generated_Source\PSoC5/QuadDec_TILT_Cnt16_PM.c **** void QuadDec_TILT_Cnt16_RestoreConfig(void) 
  81:.\Generated_Source\PSoC5/QuadDec_TILT_Cnt16_PM.c **** {      
  61              		.loc 1 81 0
  62              		.cfi_startproc
  63              		@ args = 0, pretend = 0, frame = 0
  64              		@ frame_needed = 0, uses_anonymous_args = 0
  65 0000 10B5     		push	{r4, lr}
  66              	.LCFI1:
  67              		.cfi_def_cfa_offset 8
  68              		.cfi_offset 4, -8
  69              		.cfi_offset 14, -4
  82:.\Generated_Source\PSoC5/QuadDec_TILT_Cnt16_PM.c ****     #if (!QuadDec_TILT_Cnt16_UsingFixedFunction)
  83:.\Generated_Source\PSoC5/QuadDec_TILT_Cnt16_PM.c **** 
  84:.\Generated_Source\PSoC5/QuadDec_TILT_Cnt16_PM.c ****         #if (CY_UDB_V0)
  85:.\Generated_Source\PSoC5/QuadDec_TILT_Cnt16_PM.c ****             uint8 QuadDec_TILT_Cnt16_interruptState;
  86:.\Generated_Source\PSoC5/QuadDec_TILT_Cnt16_PM.c ****         #endif  /* (CY_UDB_V0) */
  87:.\Generated_Source\PSoC5/QuadDec_TILT_Cnt16_PM.c **** 
  88:.\Generated_Source\PSoC5/QuadDec_TILT_Cnt16_PM.c ****        QuadDec_TILT_Cnt16_WriteCounter(QuadDec_TILT_Cnt16_backup.CounterUdb);
  70              		.loc 1 88 0
  71 0002 044C     		ldr	r4, .L5
  72 0004 6088     		ldrh	r0, [r4, #2]
  73 0006 FFF7FEFF 		bl	QuadDec_TILT_Cnt16_WriteCounter
  74              	.LVL2:
  89:.\Generated_Source\PSoC5/QuadDec_TILT_Cnt16_PM.c **** 
  90:.\Generated_Source\PSoC5/QuadDec_TILT_Cnt16_PM.c ****         #if (CY_UDB_V0)
  91:.\Generated_Source\PSoC5/QuadDec_TILT_Cnt16_PM.c ****             QuadDec_TILT_Cnt16_WritePeriod(QuadDec_TILT_Cnt16_backup.CounterPeriod);
  92:.\Generated_Source\PSoC5/QuadDec_TILT_Cnt16_PM.c ****             QuadDec_TILT_Cnt16_WriteCompare(QuadDec_TILT_Cnt16_backup.CompareValue);
  93:.\Generated_Source\PSoC5/QuadDec_TILT_Cnt16_PM.c **** 
  94:.\Generated_Source\PSoC5/QuadDec_TILT_Cnt16_PM.c ****             QuadDec_TILT_Cnt16_interruptState = CyEnterCriticalSection();
  95:.\Generated_Source\PSoC5/QuadDec_TILT_Cnt16_PM.c ****             QuadDec_TILT_Cnt16_STATUS_AUX_CTRL |= QuadDec_TILT_Cnt16_STATUS_ACTL_INT_EN_MASK;
  96:.\Generated_Source\PSoC5/QuadDec_TILT_Cnt16_PM.c ****             CyExitCriticalSection(QuadDec_TILT_Cnt16_interruptState);
  97:.\Generated_Source\PSoC5/QuadDec_TILT_Cnt16_PM.c **** 
ARM GAS  C:\Users\Graziano\AppData\Local\Temp\ccWoKBmc.s 			page 4


  98:.\Generated_Source\PSoC5/QuadDec_TILT_Cnt16_PM.c ****             QuadDec_TILT_Cnt16_STATUS_MASK = QuadDec_TILT_Cnt16_backup.InterruptMaskValue;
  99:.\Generated_Source\PSoC5/QuadDec_TILT_Cnt16_PM.c ****         #endif  /* (CY_UDB_V0) */
 100:.\Generated_Source\PSoC5/QuadDec_TILT_Cnt16_PM.c **** 
 101:.\Generated_Source\PSoC5/QuadDec_TILT_Cnt16_PM.c ****         #if(!QuadDec_TILT_Cnt16_ControlRegRemoved)
 102:.\Generated_Source\PSoC5/QuadDec_TILT_Cnt16_PM.c ****             QuadDec_TILT_Cnt16_WriteControlRegister(QuadDec_TILT_Cnt16_backup.CounterControlRegiste
  75              		.loc 1 102 0
  76 000a 2079     		ldrb	r0, [r4, #4]	@ zero_extendqisi2
 103:.\Generated_Source\PSoC5/QuadDec_TILT_Cnt16_PM.c ****         #endif /* (!QuadDec_TILT_Cnt16_ControlRegRemoved) */
 104:.\Generated_Source\PSoC5/QuadDec_TILT_Cnt16_PM.c **** 
 105:.\Generated_Source\PSoC5/QuadDec_TILT_Cnt16_PM.c ****     #endif /* (!QuadDec_TILT_Cnt16_UsingFixedFunction) */
 106:.\Generated_Source\PSoC5/QuadDec_TILT_Cnt16_PM.c **** }
  77              		.loc 1 106 0
  78 000c BDE81040 		pop	{r4, lr}
 102:.\Generated_Source\PSoC5/QuadDec_TILT_Cnt16_PM.c ****             QuadDec_TILT_Cnt16_WriteControlRegister(QuadDec_TILT_Cnt16_backup.CounterControlRegiste
  79              		.loc 1 102 0
  80 0010 FFF7FEBF 		b	QuadDec_TILT_Cnt16_WriteControlRegister
  81              	.LVL3:
  82              	.L6:
  83              		.align	2
  84              	.L5:
  85 0014 00000000 		.word	.LANCHOR0
  86              		.cfi_endproc
  87              	.LFE1:
  88              		.size	QuadDec_TILT_Cnt16_RestoreConfig, .-QuadDec_TILT_Cnt16_RestoreConfig
  89              		.section	.text.QuadDec_TILT_Cnt16_Sleep,"ax",%progbits
  90              		.align	1
  91              		.global	QuadDec_TILT_Cnt16_Sleep
  92              		.thumb
  93              		.thumb_func
  94              		.type	QuadDec_TILT_Cnt16_Sleep, %function
  95              	QuadDec_TILT_Cnt16_Sleep:
  96              	.LFB2:
 107:.\Generated_Source\PSoC5/QuadDec_TILT_Cnt16_PM.c **** 
 108:.\Generated_Source\PSoC5/QuadDec_TILT_Cnt16_PM.c **** 
 109:.\Generated_Source\PSoC5/QuadDec_TILT_Cnt16_PM.c **** /*******************************************************************************
 110:.\Generated_Source\PSoC5/QuadDec_TILT_Cnt16_PM.c **** * Function Name: QuadDec_TILT_Cnt16_Sleep
 111:.\Generated_Source\PSoC5/QuadDec_TILT_Cnt16_PM.c **** ********************************************************************************
 112:.\Generated_Source\PSoC5/QuadDec_TILT_Cnt16_PM.c **** * Summary:
 113:.\Generated_Source\PSoC5/QuadDec_TILT_Cnt16_PM.c **** *     Stop and Save the user configuration
 114:.\Generated_Source\PSoC5/QuadDec_TILT_Cnt16_PM.c **** *
 115:.\Generated_Source\PSoC5/QuadDec_TILT_Cnt16_PM.c **** * Parameters:  
 116:.\Generated_Source\PSoC5/QuadDec_TILT_Cnt16_PM.c **** *  void
 117:.\Generated_Source\PSoC5/QuadDec_TILT_Cnt16_PM.c **** *
 118:.\Generated_Source\PSoC5/QuadDec_TILT_Cnt16_PM.c **** * Return: 
 119:.\Generated_Source\PSoC5/QuadDec_TILT_Cnt16_PM.c **** *  void
 120:.\Generated_Source\PSoC5/QuadDec_TILT_Cnt16_PM.c **** *
 121:.\Generated_Source\PSoC5/QuadDec_TILT_Cnt16_PM.c **** * Global variables:
 122:.\Generated_Source\PSoC5/QuadDec_TILT_Cnt16_PM.c **** *  QuadDec_TILT_Cnt16_backup.enableState:  Is modified depending on the enable 
 123:.\Generated_Source\PSoC5/QuadDec_TILT_Cnt16_PM.c **** *  state of the block before entering sleep mode.
 124:.\Generated_Source\PSoC5/QuadDec_TILT_Cnt16_PM.c **** *
 125:.\Generated_Source\PSoC5/QuadDec_TILT_Cnt16_PM.c **** *******************************************************************************/
 126:.\Generated_Source\PSoC5/QuadDec_TILT_Cnt16_PM.c **** void QuadDec_TILT_Cnt16_Sleep(void) 
 127:.\Generated_Source\PSoC5/QuadDec_TILT_Cnt16_PM.c **** {
  97              		.loc 1 127 0
  98              		.cfi_startproc
  99              		@ args = 0, pretend = 0, frame = 0
 100              		@ frame_needed = 0, uses_anonymous_args = 0
ARM GAS  C:\Users\Graziano\AppData\Local\Temp\ccWoKBmc.s 			page 5


 101 0000 08B5     		push	{r3, lr}
 102              	.LCFI2:
 103              		.cfi_def_cfa_offset 8
 104              		.cfi_offset 3, -8
 105              		.cfi_offset 14, -4
 128:.\Generated_Source\PSoC5/QuadDec_TILT_Cnt16_PM.c ****     #if(!QuadDec_TILT_Cnt16_ControlRegRemoved)
 129:.\Generated_Source\PSoC5/QuadDec_TILT_Cnt16_PM.c ****         /* Save Counter's enable state */
 130:.\Generated_Source\PSoC5/QuadDec_TILT_Cnt16_PM.c ****         if(QuadDec_TILT_Cnt16_CTRL_ENABLE == (QuadDec_TILT_Cnt16_CONTROL & QuadDec_TILT_Cnt16_CTRL_
 106              		.loc 1 130 0
 107 0002 084B     		ldr	r3, .L12
 108 0004 0849     		ldr	r1, .L12+4
 109 0006 1878     		ldrb	r0, [r3, #0]	@ zero_extendqisi2
 110 0008 10F0800F 		tst	r0, #128
 111 000c 01D0     		beq	.L8
 131:.\Generated_Source\PSoC5/QuadDec_TILT_Cnt16_PM.c ****         {
 132:.\Generated_Source\PSoC5/QuadDec_TILT_Cnt16_PM.c ****             /* Counter is enabled */
 133:.\Generated_Source\PSoC5/QuadDec_TILT_Cnt16_PM.c ****             QuadDec_TILT_Cnt16_backup.CounterEnableState = 1u;
 112              		.loc 1 133 0
 113 000e 0122     		movs	r2, #1
 114 0010 00E0     		b	.L10
 115              	.L8:
 134:.\Generated_Source\PSoC5/QuadDec_TILT_Cnt16_PM.c ****         }
 135:.\Generated_Source\PSoC5/QuadDec_TILT_Cnt16_PM.c ****         else
 136:.\Generated_Source\PSoC5/QuadDec_TILT_Cnt16_PM.c ****         {
 137:.\Generated_Source\PSoC5/QuadDec_TILT_Cnt16_PM.c ****             /* Counter is disabled */
 138:.\Generated_Source\PSoC5/QuadDec_TILT_Cnt16_PM.c ****             QuadDec_TILT_Cnt16_backup.CounterEnableState = 0u;
 116              		.loc 1 138 0
 117 0012 0022     		movs	r2, #0
 118              	.L10:
 119 0014 0A70     		strb	r2, [r1, #0]
 139:.\Generated_Source\PSoC5/QuadDec_TILT_Cnt16_PM.c ****         }
 140:.\Generated_Source\PSoC5/QuadDec_TILT_Cnt16_PM.c ****     #else
 141:.\Generated_Source\PSoC5/QuadDec_TILT_Cnt16_PM.c ****         QuadDec_TILT_Cnt16_backup.CounterEnableState = 1u;
 142:.\Generated_Source\PSoC5/QuadDec_TILT_Cnt16_PM.c ****         if(QuadDec_TILT_Cnt16_backup.CounterEnableState != 0u)
 143:.\Generated_Source\PSoC5/QuadDec_TILT_Cnt16_PM.c ****         {
 144:.\Generated_Source\PSoC5/QuadDec_TILT_Cnt16_PM.c ****             QuadDec_TILT_Cnt16_backup.CounterEnableState = 0u;
 145:.\Generated_Source\PSoC5/QuadDec_TILT_Cnt16_PM.c ****         }
 146:.\Generated_Source\PSoC5/QuadDec_TILT_Cnt16_PM.c ****     #endif /* (!QuadDec_TILT_Cnt16_ControlRegRemoved) */
 147:.\Generated_Source\PSoC5/QuadDec_TILT_Cnt16_PM.c ****     
 148:.\Generated_Source\PSoC5/QuadDec_TILT_Cnt16_PM.c ****     QuadDec_TILT_Cnt16_Stop();
 120              		.loc 1 148 0
 121 0016 FFF7FEFF 		bl	QuadDec_TILT_Cnt16_Stop
 122              	.LVL4:
 149:.\Generated_Source\PSoC5/QuadDec_TILT_Cnt16_PM.c ****     QuadDec_TILT_Cnt16_SaveConfig();
 150:.\Generated_Source\PSoC5/QuadDec_TILT_Cnt16_PM.c **** }
 123              		.loc 1 150 0
 124 001a BDE80840 		pop	{r3, lr}
 149:.\Generated_Source\PSoC5/QuadDec_TILT_Cnt16_PM.c ****     QuadDec_TILT_Cnt16_SaveConfig();
 125              		.loc 1 149 0
 126 001e FFF7FEBF 		b	QuadDec_TILT_Cnt16_SaveConfig
 127              	.LVL5:
 128              	.L13:
 129 0022 00BF     		.align	2
 130              	.L12:
 131 0024 76640040 		.word	1073767542
 132 0028 00000000 		.word	.LANCHOR0
 133              		.cfi_endproc
ARM GAS  C:\Users\Graziano\AppData\Local\Temp\ccWoKBmc.s 			page 6


 134              	.LFE2:
 135              		.size	QuadDec_TILT_Cnt16_Sleep, .-QuadDec_TILT_Cnt16_Sleep
 136              		.section	.text.QuadDec_TILT_Cnt16_Wakeup,"ax",%progbits
 137              		.align	1
 138              		.global	QuadDec_TILT_Cnt16_Wakeup
 139              		.thumb
 140              		.thumb_func
 141              		.type	QuadDec_TILT_Cnt16_Wakeup, %function
 142              	QuadDec_TILT_Cnt16_Wakeup:
 143              	.LFB3:
 151:.\Generated_Source\PSoC5/QuadDec_TILT_Cnt16_PM.c **** 
 152:.\Generated_Source\PSoC5/QuadDec_TILT_Cnt16_PM.c **** 
 153:.\Generated_Source\PSoC5/QuadDec_TILT_Cnt16_PM.c **** /*******************************************************************************
 154:.\Generated_Source\PSoC5/QuadDec_TILT_Cnt16_PM.c **** * Function Name: QuadDec_TILT_Cnt16_Wakeup
 155:.\Generated_Source\PSoC5/QuadDec_TILT_Cnt16_PM.c **** ********************************************************************************
 156:.\Generated_Source\PSoC5/QuadDec_TILT_Cnt16_PM.c **** *
 157:.\Generated_Source\PSoC5/QuadDec_TILT_Cnt16_PM.c **** * Summary:
 158:.\Generated_Source\PSoC5/QuadDec_TILT_Cnt16_PM.c **** *  Restores and enables the user configuration
 159:.\Generated_Source\PSoC5/QuadDec_TILT_Cnt16_PM.c **** *  
 160:.\Generated_Source\PSoC5/QuadDec_TILT_Cnt16_PM.c **** * Parameters:  
 161:.\Generated_Source\PSoC5/QuadDec_TILT_Cnt16_PM.c **** *  void
 162:.\Generated_Source\PSoC5/QuadDec_TILT_Cnt16_PM.c **** *
 163:.\Generated_Source\PSoC5/QuadDec_TILT_Cnt16_PM.c **** * Return: 
 164:.\Generated_Source\PSoC5/QuadDec_TILT_Cnt16_PM.c **** *  void
 165:.\Generated_Source\PSoC5/QuadDec_TILT_Cnt16_PM.c **** *
 166:.\Generated_Source\PSoC5/QuadDec_TILT_Cnt16_PM.c **** * Global variables:
 167:.\Generated_Source\PSoC5/QuadDec_TILT_Cnt16_PM.c **** *  QuadDec_TILT_Cnt16_backup.enableState:  Is used to restore the enable state of 
 168:.\Generated_Source\PSoC5/QuadDec_TILT_Cnt16_PM.c **** *  block on wakeup from sleep mode.
 169:.\Generated_Source\PSoC5/QuadDec_TILT_Cnt16_PM.c **** *
 170:.\Generated_Source\PSoC5/QuadDec_TILT_Cnt16_PM.c **** *******************************************************************************/
 171:.\Generated_Source\PSoC5/QuadDec_TILT_Cnt16_PM.c **** void QuadDec_TILT_Cnt16_Wakeup(void) 
 172:.\Generated_Source\PSoC5/QuadDec_TILT_Cnt16_PM.c **** {
 144              		.loc 1 172 0
 145              		.cfi_startproc
 146              		@ args = 0, pretend = 0, frame = 0
 147              		@ frame_needed = 0, uses_anonymous_args = 0
 148 0000 08B5     		push	{r3, lr}
 149              	.LCFI3:
 150              		.cfi_def_cfa_offset 8
 151              		.cfi_offset 3, -8
 152              		.cfi_offset 14, -4
 173:.\Generated_Source\PSoC5/QuadDec_TILT_Cnt16_PM.c ****     QuadDec_TILT_Cnt16_RestoreConfig();
 153              		.loc 1 173 0
 154 0002 FFF7FEFF 		bl	QuadDec_TILT_Cnt16_RestoreConfig
 155              	.LVL6:
 174:.\Generated_Source\PSoC5/QuadDec_TILT_Cnt16_PM.c ****     #if(!QuadDec_TILT_Cnt16_ControlRegRemoved)
 175:.\Generated_Source\PSoC5/QuadDec_TILT_Cnt16_PM.c ****         if(QuadDec_TILT_Cnt16_backup.CounterEnableState == 1u)
 156              		.loc 1 175 0
 157 0006 044B     		ldr	r3, .L16
 158 0008 1878     		ldrb	r0, [r3, #0]	@ zero_extendqisi2
 159 000a 0128     		cmp	r0, #1
 160 000c 03D1     		bne	.L14
 176:.\Generated_Source\PSoC5/QuadDec_TILT_Cnt16_PM.c ****         {
 177:.\Generated_Source\PSoC5/QuadDec_TILT_Cnt16_PM.c ****             /* Enable Counter's operation */
 178:.\Generated_Source\PSoC5/QuadDec_TILT_Cnt16_PM.c ****             QuadDec_TILT_Cnt16_Enable();
 179:.\Generated_Source\PSoC5/QuadDec_TILT_Cnt16_PM.c ****         } /* Do nothing if Counter was disabled before */    
 180:.\Generated_Source\PSoC5/QuadDec_TILT_Cnt16_PM.c ****     #endif /* (!QuadDec_TILT_Cnt16_ControlRegRemoved) */
ARM GAS  C:\Users\Graziano\AppData\Local\Temp\ccWoKBmc.s 			page 7


 181:.\Generated_Source\PSoC5/QuadDec_TILT_Cnt16_PM.c ****     
 182:.\Generated_Source\PSoC5/QuadDec_TILT_Cnt16_PM.c **** }
 161              		.loc 1 182 0
 162 000e BDE80840 		pop	{r3, lr}
 178:.\Generated_Source\PSoC5/QuadDec_TILT_Cnt16_PM.c ****             QuadDec_TILT_Cnt16_Enable();
 163              		.loc 1 178 0
 164 0012 FFF7FEBF 		b	QuadDec_TILT_Cnt16_Enable
 165              	.LVL7:
 166              	.L14:
 167 0016 08BD     		pop	{r3, pc}
 168              	.L17:
 169              		.align	2
 170              	.L16:
 171 0018 00000000 		.word	.LANCHOR0
 172              		.cfi_endproc
 173              	.LFE3:
 174              		.size	QuadDec_TILT_Cnt16_Wakeup, .-QuadDec_TILT_Cnt16_Wakeup
 175              		.bss
 176              		.align	1
 177              		.set	.LANCHOR0,. + 0
 178              		.type	QuadDec_TILT_Cnt16_backup, %object
 179              		.size	QuadDec_TILT_Cnt16_backup, 6
 180              	QuadDec_TILT_Cnt16_backup:
 181 0000 00000000 		.space	6
 181      0000
 182              		.text
 183              	.Letext0:
 184              		.file 2 ".\\Generated_Source\\PSoC5\\cytypes.h"
 185              		.file 3 ".\\Generated_Source\\PSoC5\\QuadDec_TILT_Cnt16.h"