ARM GAS  C:\Users\Graziano\AppData\Local\Temp\ccCntXkM.s 			page 1


   1              		.syntax unified
   2              		.cpu cortex-m3
   3              		.fpu softvfp
   4              		.eabi_attribute 20, 1
   5              		.eabi_attribute 21, 1
   6              		.eabi_attribute 23, 3
   7              		.eabi_attribute 24, 1
   8              		.eabi_attribute 25, 1
   9              		.eabi_attribute 26, 1
  10              		.eabi_attribute 30, 4
  11              		.eabi_attribute 34, 1
  12              		.eabi_attribute 18, 4
  13              		.thumb
  14              		.file	"QuadDec_TILT_PM.c"
  15              		.text
  16              	.Ltext0:
  17              		.cfi_sections	.debug_frame
  18              		.section	.text.QuadDec_TILT_SaveConfig,"ax",%progbits
  19              		.align	1
  20              		.global	QuadDec_TILT_SaveConfig
  21              		.thumb
  22              		.thumb_func
  23              		.type	QuadDec_TILT_SaveConfig, %function
  24              	QuadDec_TILT_SaveConfig:
  25              	.LFB0:
  26              		.file 1 ".\\Generated_Source\\PSoC5\\QuadDec_TILT_PM.c"
   1:.\Generated_Source\PSoC5/QuadDec_TILT_PM.c **** /*******************************************************************************
   2:.\Generated_Source\PSoC5/QuadDec_TILT_PM.c **** * File Name: QuadDec_TILT_PM.c
   3:.\Generated_Source\PSoC5/QuadDec_TILT_PM.c **** * Version 2.40
   4:.\Generated_Source\PSoC5/QuadDec_TILT_PM.c **** *
   5:.\Generated_Source\PSoC5/QuadDec_TILT_PM.c **** * Description:
   6:.\Generated_Source\PSoC5/QuadDec_TILT_PM.c **** *  This file contains the setup, control and status commands to support 
   7:.\Generated_Source\PSoC5/QuadDec_TILT_PM.c **** *  component operations in low power mode.  
   8:.\Generated_Source\PSoC5/QuadDec_TILT_PM.c **** *
   9:.\Generated_Source\PSoC5/QuadDec_TILT_PM.c **** * Note:
  10:.\Generated_Source\PSoC5/QuadDec_TILT_PM.c **** *  None.
  11:.\Generated_Source\PSoC5/QuadDec_TILT_PM.c **** *
  12:.\Generated_Source\PSoC5/QuadDec_TILT_PM.c **** ********************************************************************************
  13:.\Generated_Source\PSoC5/QuadDec_TILT_PM.c **** * Copyright 2008-2014, Cypress Semiconductor Corporation.  All rights reserved.
  14:.\Generated_Source\PSoC5/QuadDec_TILT_PM.c **** * You may use this file only in accordance with the license, terms, conditions,
  15:.\Generated_Source\PSoC5/QuadDec_TILT_PM.c **** * disclaimers, and limitations in the end user license agreement accompanying
  16:.\Generated_Source\PSoC5/QuadDec_TILT_PM.c **** * the software package with which this file was provided.
  17:.\Generated_Source\PSoC5/QuadDec_TILT_PM.c **** *******************************************************************************/
  18:.\Generated_Source\PSoC5/QuadDec_TILT_PM.c **** 
  19:.\Generated_Source\PSoC5/QuadDec_TILT_PM.c **** #include "QuadDec_TILT.h"
  20:.\Generated_Source\PSoC5/QuadDec_TILT_PM.c **** 
  21:.\Generated_Source\PSoC5/QuadDec_TILT_PM.c **** static QuadDec_TILT_BACKUP_STRUCT QuadDec_TILT_backup = {0u};
  22:.\Generated_Source\PSoC5/QuadDec_TILT_PM.c **** 
  23:.\Generated_Source\PSoC5/QuadDec_TILT_PM.c **** 
  24:.\Generated_Source\PSoC5/QuadDec_TILT_PM.c **** /*******************************************************************************
  25:.\Generated_Source\PSoC5/QuadDec_TILT_PM.c **** * Function Name: QuadDec_TILT_SaveConfig
  26:.\Generated_Source\PSoC5/QuadDec_TILT_PM.c **** ********************************************************************************
  27:.\Generated_Source\PSoC5/QuadDec_TILT_PM.c **** * Summary:
  28:.\Generated_Source\PSoC5/QuadDec_TILT_PM.c **** *  Saves the current user configuration of the component.
  29:.\Generated_Source\PSoC5/QuadDec_TILT_PM.c **** *
  30:.\Generated_Source\PSoC5/QuadDec_TILT_PM.c **** * Parameters:
  31:.\Generated_Source\PSoC5/QuadDec_TILT_PM.c **** *  None.
ARM GAS  C:\Users\Graziano\AppData\Local\Temp\ccCntXkM.s 			page 2


  32:.\Generated_Source\PSoC5/QuadDec_TILT_PM.c **** *
  33:.\Generated_Source\PSoC5/QuadDec_TILT_PM.c **** * Return:
  34:.\Generated_Source\PSoC5/QuadDec_TILT_PM.c **** *  None.
  35:.\Generated_Source\PSoC5/QuadDec_TILT_PM.c **** *
  36:.\Generated_Source\PSoC5/QuadDec_TILT_PM.c **** *******************************************************************************/
  37:.\Generated_Source\PSoC5/QuadDec_TILT_PM.c **** void QuadDec_TILT_SaveConfig(void) 
  38:.\Generated_Source\PSoC5/QuadDec_TILT_PM.c **** {
  27              		.loc 1 38 0
  28              		.cfi_startproc
  29              		@ args = 0, pretend = 0, frame = 0
  30              		@ frame_needed = 0, uses_anonymous_args = 0
  31              		@ link register save eliminated.
  39:.\Generated_Source\PSoC5/QuadDec_TILT_PM.c ****     #if (QuadDec_TILT_COUNTER_SIZE == QuadDec_TILT_COUNTER_SIZE_8_BIT)
  40:.\Generated_Source\PSoC5/QuadDec_TILT_PM.c ****         QuadDec_TILT_Cnt8_SaveConfig();
  41:.\Generated_Source\PSoC5/QuadDec_TILT_PM.c ****     #else 
  42:.\Generated_Source\PSoC5/QuadDec_TILT_PM.c ****         /* (QuadDec_TILT_COUNTER_SIZE == QuadDec_TILT_COUNTER_SIZE_16_BIT) || 
  43:.\Generated_Source\PSoC5/QuadDec_TILT_PM.c ****          * (QuadDec_TILT_COUNTER_SIZE == QuadDec_TILT_COUNTER_SIZE_32_BIT)
  44:.\Generated_Source\PSoC5/QuadDec_TILT_PM.c ****          */
  45:.\Generated_Source\PSoC5/QuadDec_TILT_PM.c ****         QuadDec_TILT_Cnt16_SaveConfig();
  46:.\Generated_Source\PSoC5/QuadDec_TILT_PM.c ****     #endif /* (QuadDec_TILT_COUNTER_SIZE == QuadDec_TILT_COUNTER_SIZE_8_BIT) */
  47:.\Generated_Source\PSoC5/QuadDec_TILT_PM.c **** }
  32              		.loc 1 47 0
  45:.\Generated_Source\PSoC5/QuadDec_TILT_PM.c ****         QuadDec_TILT_Cnt16_SaveConfig();
  33              		.loc 1 45 0
  34 0000 FFF7FEBF 		b	QuadDec_TILT_Cnt16_SaveConfig
  35              	.LVL0:
  36              		.cfi_endproc
  37              	.LFE0:
  38              		.size	QuadDec_TILT_SaveConfig, .-QuadDec_TILT_SaveConfig
  39              		.section	.text.QuadDec_TILT_RestoreConfig,"ax",%progbits
  40              		.align	1
  41              		.global	QuadDec_TILT_RestoreConfig
  42              		.thumb
  43              		.thumb_func
  44              		.type	QuadDec_TILT_RestoreConfig, %function
  45              	QuadDec_TILT_RestoreConfig:
  46              	.LFB1:
  48:.\Generated_Source\PSoC5/QuadDec_TILT_PM.c **** 
  49:.\Generated_Source\PSoC5/QuadDec_TILT_PM.c **** 
  50:.\Generated_Source\PSoC5/QuadDec_TILT_PM.c **** /*******************************************************************************
  51:.\Generated_Source\PSoC5/QuadDec_TILT_PM.c **** * Function Name: QuadDec_TILT_RestoreConfig
  52:.\Generated_Source\PSoC5/QuadDec_TILT_PM.c **** ********************************************************************************
  53:.\Generated_Source\PSoC5/QuadDec_TILT_PM.c **** * Summary:
  54:.\Generated_Source\PSoC5/QuadDec_TILT_PM.c **** *  Restores the current user configuration of the component.
  55:.\Generated_Source\PSoC5/QuadDec_TILT_PM.c **** *
  56:.\Generated_Source\PSoC5/QuadDec_TILT_PM.c **** * Parameters:
  57:.\Generated_Source\PSoC5/QuadDec_TILT_PM.c **** *  None.
  58:.\Generated_Source\PSoC5/QuadDec_TILT_PM.c **** *
  59:.\Generated_Source\PSoC5/QuadDec_TILT_PM.c **** * Return:
  60:.\Generated_Source\PSoC5/QuadDec_TILT_PM.c **** *  None.
  61:.\Generated_Source\PSoC5/QuadDec_TILT_PM.c **** *
  62:.\Generated_Source\PSoC5/QuadDec_TILT_PM.c **** *******************************************************************************/
  63:.\Generated_Source\PSoC5/QuadDec_TILT_PM.c **** void QuadDec_TILT_RestoreConfig(void) 
  64:.\Generated_Source\PSoC5/QuadDec_TILT_PM.c **** {
  47              		.loc 1 64 0
  48              		.cfi_startproc
  49              		@ args = 0, pretend = 0, frame = 0
ARM GAS  C:\Users\Graziano\AppData\Local\Temp\ccCntXkM.s 			page 3


  50              		@ frame_needed = 0, uses_anonymous_args = 0
  51              		@ link register save eliminated.
  65:.\Generated_Source\PSoC5/QuadDec_TILT_PM.c ****     #if (QuadDec_TILT_COUNTER_SIZE == QuadDec_TILT_COUNTER_SIZE_8_BIT)
  66:.\Generated_Source\PSoC5/QuadDec_TILT_PM.c ****         QuadDec_TILT_Cnt8_RestoreConfig();
  67:.\Generated_Source\PSoC5/QuadDec_TILT_PM.c ****     #else 
  68:.\Generated_Source\PSoC5/QuadDec_TILT_PM.c ****         /* (QuadDec_TILT_COUNTER_SIZE == QuadDec_TILT_COUNTER_SIZE_16_BIT) || 
  69:.\Generated_Source\PSoC5/QuadDec_TILT_PM.c ****          * (QuadDec_TILT_COUNTER_SIZE == QuadDec_TILT_COUNTER_SIZE_32_BIT) 
  70:.\Generated_Source\PSoC5/QuadDec_TILT_PM.c ****          */
  71:.\Generated_Source\PSoC5/QuadDec_TILT_PM.c ****         QuadDec_TILT_Cnt16_RestoreConfig();
  72:.\Generated_Source\PSoC5/QuadDec_TILT_PM.c ****     #endif /* (QuadDec_TILT_COUNTER_SIZE == QuadDec_TILT_COUNTER_SIZE_8_BIT) */
  73:.\Generated_Source\PSoC5/QuadDec_TILT_PM.c **** }
  52              		.loc 1 73 0
  71:.\Generated_Source\PSoC5/QuadDec_TILT_PM.c ****         QuadDec_TILT_Cnt16_RestoreConfig();
  53              		.loc 1 71 0
  54 0000 FFF7FEBF 		b	QuadDec_TILT_Cnt16_RestoreConfig
  55              	.LVL1:
  56              		.cfi_endproc
  57              	.LFE1:
  58              		.size	QuadDec_TILT_RestoreConfig, .-QuadDec_TILT_RestoreConfig
  59              		.section	.text.QuadDec_TILT_Sleep,"ax",%progbits
  60              		.align	1
  61              		.global	QuadDec_TILT_Sleep
  62              		.thumb
  63              		.thumb_func
  64              		.type	QuadDec_TILT_Sleep, %function
  65              	QuadDec_TILT_Sleep:
  66              	.LFB2:
  74:.\Generated_Source\PSoC5/QuadDec_TILT_PM.c **** 
  75:.\Generated_Source\PSoC5/QuadDec_TILT_PM.c **** 
  76:.\Generated_Source\PSoC5/QuadDec_TILT_PM.c **** /*******************************************************************************
  77:.\Generated_Source\PSoC5/QuadDec_TILT_PM.c **** * Function Name: QuadDec_TILT_Sleep
  78:.\Generated_Source\PSoC5/QuadDec_TILT_PM.c **** ********************************************************************************
  79:.\Generated_Source\PSoC5/QuadDec_TILT_PM.c **** * 
  80:.\Generated_Source\PSoC5/QuadDec_TILT_PM.c **** * Summary:
  81:.\Generated_Source\PSoC5/QuadDec_TILT_PM.c **** *  Prepare Quadrature Decoder Component goes to sleep.
  82:.\Generated_Source\PSoC5/QuadDec_TILT_PM.c **** *
  83:.\Generated_Source\PSoC5/QuadDec_TILT_PM.c **** * Parameters:
  84:.\Generated_Source\PSoC5/QuadDec_TILT_PM.c **** *  None.
  85:.\Generated_Source\PSoC5/QuadDec_TILT_PM.c **** *
  86:.\Generated_Source\PSoC5/QuadDec_TILT_PM.c **** * Return:
  87:.\Generated_Source\PSoC5/QuadDec_TILT_PM.c **** *  None.
  88:.\Generated_Source\PSoC5/QuadDec_TILT_PM.c **** *
  89:.\Generated_Source\PSoC5/QuadDec_TILT_PM.c **** * Global Variables:
  90:.\Generated_Source\PSoC5/QuadDec_TILT_PM.c **** *  QuadDec_TILT_backup - modified when non-retention registers are saved.
  91:.\Generated_Source\PSoC5/QuadDec_TILT_PM.c **** *
  92:.\Generated_Source\PSoC5/QuadDec_TILT_PM.c **** * Reentrant:
  93:.\Generated_Source\PSoC5/QuadDec_TILT_PM.c **** *  No.
  94:.\Generated_Source\PSoC5/QuadDec_TILT_PM.c **** *
  95:.\Generated_Source\PSoC5/QuadDec_TILT_PM.c **** *******************************************************************************/
  96:.\Generated_Source\PSoC5/QuadDec_TILT_PM.c **** void QuadDec_TILT_Sleep(void) 
  97:.\Generated_Source\PSoC5/QuadDec_TILT_PM.c **** {
  67              		.loc 1 97 0
  68              		.cfi_startproc
  69              		@ args = 0, pretend = 0, frame = 0
  70              		@ frame_needed = 0, uses_anonymous_args = 0
  71 0000 08B5     		push	{r3, lr}
  72              	.LCFI0:
ARM GAS  C:\Users\Graziano\AppData\Local\Temp\ccCntXkM.s 			page 4


  73              		.cfi_def_cfa_offset 8
  74              		.cfi_offset 3, -8
  75              		.cfi_offset 14, -4
  98:.\Generated_Source\PSoC5/QuadDec_TILT_PM.c ****     if (0u != (QuadDec_TILT_SR_AUX_CONTROL & QuadDec_TILT_INTERRUPTS_ENABLE))
  76              		.loc 1 98 0
  77 0002 074B     		ldr	r3, .L6
  78 0004 0749     		ldr	r1, .L6+4
  79 0006 1878     		ldrb	r0, [r3, #0]	@ zero_extendqisi2
  80 0008 10F01002 		ands	r2, r0, #16
  99:.\Generated_Source\PSoC5/QuadDec_TILT_PM.c ****     {
 100:.\Generated_Source\PSoC5/QuadDec_TILT_PM.c ****         QuadDec_TILT_backup.enableState = 1u;
  81              		.loc 1 100 0
  82 000c 18BF     		it	ne
  83 000e 0122     		movne	r2, #1
 101:.\Generated_Source\PSoC5/QuadDec_TILT_PM.c ****     }
 102:.\Generated_Source\PSoC5/QuadDec_TILT_PM.c ****     else /* The Quadrature Decoder Component is disabled */
 103:.\Generated_Source\PSoC5/QuadDec_TILT_PM.c ****     {
 104:.\Generated_Source\PSoC5/QuadDec_TILT_PM.c ****         QuadDec_TILT_backup.enableState = 0u;
  84              		.loc 1 104 0
  85 0010 0A70     		strb	r2, [r1, #0]
 105:.\Generated_Source\PSoC5/QuadDec_TILT_PM.c ****     }
 106:.\Generated_Source\PSoC5/QuadDec_TILT_PM.c **** 
 107:.\Generated_Source\PSoC5/QuadDec_TILT_PM.c ****     QuadDec_TILT_Stop();
  86              		.loc 1 107 0
  87 0012 FFF7FEFF 		bl	QuadDec_TILT_Stop
  88              	.LVL2:
 108:.\Generated_Source\PSoC5/QuadDec_TILT_PM.c ****     QuadDec_TILT_SaveConfig();
 109:.\Generated_Source\PSoC5/QuadDec_TILT_PM.c **** }
  89              		.loc 1 109 0
  90 0016 BDE80840 		pop	{r3, lr}
  91              	.LBB6:
  92              	.LBB7:
  45:.\Generated_Source\PSoC5/QuadDec_TILT_PM.c ****         QuadDec_TILT_Cnt16_SaveConfig();
  93              		.loc 1 45 0
  94 001a FFF7FEBF 		b	QuadDec_TILT_Cnt16_SaveConfig
  95              	.LVL3:
  96              	.L7:
  97 001e 00BF     		.align	2
  98              	.L6:
  99 0020 97640040 		.word	1073767575
 100 0024 00000000 		.word	.LANCHOR0
 101              	.LBE7:
 102              	.LBE6:
 103              		.cfi_endproc
 104              	.LFE2:
 105              		.size	QuadDec_TILT_Sleep, .-QuadDec_TILT_Sleep
 106              		.section	.text.QuadDec_TILT_Wakeup,"ax",%progbits
 107              		.align	1
 108              		.global	QuadDec_TILT_Wakeup
 109              		.thumb
 110              		.thumb_func
 111              		.type	QuadDec_TILT_Wakeup, %function
 112              	QuadDec_TILT_Wakeup:
 113              	.LFB3:
 110:.\Generated_Source\PSoC5/QuadDec_TILT_PM.c **** 
 111:.\Generated_Source\PSoC5/QuadDec_TILT_PM.c **** 
 112:.\Generated_Source\PSoC5/QuadDec_TILT_PM.c **** /*******************************************************************************
ARM GAS  C:\Users\Graziano\AppData\Local\Temp\ccCntXkM.s 			page 5


 113:.\Generated_Source\PSoC5/QuadDec_TILT_PM.c **** * Function Name: QuadDec_TILT_Wakeup
 114:.\Generated_Source\PSoC5/QuadDec_TILT_PM.c **** ********************************************************************************
 115:.\Generated_Source\PSoC5/QuadDec_TILT_PM.c **** *
 116:.\Generated_Source\PSoC5/QuadDec_TILT_PM.c **** * Summary:
 117:.\Generated_Source\PSoC5/QuadDec_TILT_PM.c **** *  Prepare Quadrature Decoder Component to wake up.
 118:.\Generated_Source\PSoC5/QuadDec_TILT_PM.c **** *
 119:.\Generated_Source\PSoC5/QuadDec_TILT_PM.c **** * Parameters:
 120:.\Generated_Source\PSoC5/QuadDec_TILT_PM.c **** *  None.
 121:.\Generated_Source\PSoC5/QuadDec_TILT_PM.c **** *
 122:.\Generated_Source\PSoC5/QuadDec_TILT_PM.c **** * Return:
 123:.\Generated_Source\PSoC5/QuadDec_TILT_PM.c **** *  None.
 124:.\Generated_Source\PSoC5/QuadDec_TILT_PM.c **** *
 125:.\Generated_Source\PSoC5/QuadDec_TILT_PM.c **** * Global Variables:
 126:.\Generated_Source\PSoC5/QuadDec_TILT_PM.c **** *  QuadDec_TILT_backup - used when non-retention registers are restored.
 127:.\Generated_Source\PSoC5/QuadDec_TILT_PM.c **** *
 128:.\Generated_Source\PSoC5/QuadDec_TILT_PM.c **** *******************************************************************************/
 129:.\Generated_Source\PSoC5/QuadDec_TILT_PM.c **** void QuadDec_TILT_Wakeup(void) 
 130:.\Generated_Source\PSoC5/QuadDec_TILT_PM.c **** {
 114              		.loc 1 130 0
 115              		.cfi_startproc
 116              		@ args = 0, pretend = 0, frame = 0
 117              		@ frame_needed = 0, uses_anonymous_args = 0
 118 0000 08B5     		push	{r3, lr}
 119              	.LCFI1:
 120              		.cfi_def_cfa_offset 8
 121              		.cfi_offset 3, -8
 122              		.cfi_offset 14, -4
 123              	.LBB8:
 124              	.LBB9:
  71:.\Generated_Source\PSoC5/QuadDec_TILT_PM.c ****         QuadDec_TILT_Cnt16_RestoreConfig();
 125              		.loc 1 71 0
 126 0002 FFF7FEFF 		bl	QuadDec_TILT_Cnt16_RestoreConfig
 127              	.LVL4:
 128              	.LBE9:
 129              	.LBE8:
 131:.\Generated_Source\PSoC5/QuadDec_TILT_PM.c ****     QuadDec_TILT_RestoreConfig();
 132:.\Generated_Source\PSoC5/QuadDec_TILT_PM.c **** 
 133:.\Generated_Source\PSoC5/QuadDec_TILT_PM.c ****     if (QuadDec_TILT_backup.enableState != 0u)
 130              		.loc 1 133 0
 131 0006 054B     		ldr	r3, .L11
 132 0008 1878     		ldrb	r0, [r3, #0]	@ zero_extendqisi2
 133 000a 28B1     		cbz	r0, .L8
 134:.\Generated_Source\PSoC5/QuadDec_TILT_PM.c ****     {
 135:.\Generated_Source\PSoC5/QuadDec_TILT_PM.c ****         #if (QuadDec_TILT_COUNTER_SIZE == QuadDec_TILT_COUNTER_SIZE_8_BIT)
 136:.\Generated_Source\PSoC5/QuadDec_TILT_PM.c ****             QuadDec_TILT_Cnt8_Enable();
 137:.\Generated_Source\PSoC5/QuadDec_TILT_PM.c ****         #else 
 138:.\Generated_Source\PSoC5/QuadDec_TILT_PM.c ****             /* (QuadDec_TILT_COUNTER_SIZE == QuadDec_TILT_COUNTER_SIZE_16_BIT) || 
 139:.\Generated_Source\PSoC5/QuadDec_TILT_PM.c ****             *  (QuadDec_TILT_COUNTER_SIZE == QuadDec_TILT_COUNTER_SIZE_32_BIT) 
 140:.\Generated_Source\PSoC5/QuadDec_TILT_PM.c ****             */
 141:.\Generated_Source\PSoC5/QuadDec_TILT_PM.c ****             QuadDec_TILT_Cnt16_Enable();
 134              		.loc 1 141 0
 135 000c FFF7FEFF 		bl	QuadDec_TILT_Cnt16_Enable
 136              	.LVL5:
 142:.\Generated_Source\PSoC5/QuadDec_TILT_PM.c ****         #endif /* (QuadDec_TILT_COUNTER_SIZE == QuadDec_TILT_COUNTER_SIZE_8_BIT) */
 143:.\Generated_Source\PSoC5/QuadDec_TILT_PM.c **** 
 144:.\Generated_Source\PSoC5/QuadDec_TILT_PM.c ****         /* Enable component's operation */
 145:.\Generated_Source\PSoC5/QuadDec_TILT_PM.c ****         QuadDec_TILT_Enable();
ARM GAS  C:\Users\Graziano\AppData\Local\Temp\ccCntXkM.s 			page 6


 146:.\Generated_Source\PSoC5/QuadDec_TILT_PM.c ****     } /* Do nothing if component's block was disabled before */
 147:.\Generated_Source\PSoC5/QuadDec_TILT_PM.c **** }
 137              		.loc 1 147 0
 138 0010 BDE80840 		pop	{r3, lr}
 145:.\Generated_Source\PSoC5/QuadDec_TILT_PM.c ****         QuadDec_TILT_Enable();
 139              		.loc 1 145 0
 140 0014 FFF7FEBF 		b	QuadDec_TILT_Enable
 141              	.LVL6:
 142              	.L8:
 143 0018 08BD     		pop	{r3, pc}
 144              	.L12:
 145 001a 00BF     		.align	2
 146              	.L11:
 147 001c 00000000 		.word	.LANCHOR0
 148              		.cfi_endproc
 149              	.LFE3:
 150              		.size	QuadDec_TILT_Wakeup, .-QuadDec_TILT_Wakeup
 151              		.bss
 152              		.set	.LANCHOR0,. + 0
 153              		.type	QuadDec_TILT_backup, %object
 154              		.size	QuadDec_TILT_backup, 1
 155              	QuadDec_TILT_backup:
 156 0000 00       		.space	1
 157              		.text
 158              	.Letext0:
 159              		.file 2 ".\\Generated_Source\\PSoC5\\cytypes.h"
 160              		.file 3 ".\\Generated_Source\\PSoC5\\QuadDec_TILT.h"
 161              		.file 4 ".\\Generated_Source\\PSoC5\\QuadDec_TILT_Cnt16.h"