ARM GAS  C:\Users\Graziano\AppData\Local\Temp\cccuPw7k.s 			page 1


   1              		.syntax unified
   2              		.cpu cortex-m3
   3              		.fpu softvfp
   4              		.eabi_attribute 20, 1
   5              		.eabi_attribute 21, 1
   6              		.eabi_attribute 23, 3
   7              		.eabi_attribute 24, 1
   8              		.eabi_attribute 25, 1
   9              		.eabi_attribute 26, 1
  10              		.eabi_attribute 30, 4
  11              		.eabi_attribute 34, 1
  12              		.eabi_attribute 18, 4
  13              		.thumb
  14              		.file	"QuadDec_TILT.c"
  15              		.text
  16              	.Ltext0:
  17              		.cfi_sections	.debug_frame
  18              		.section	.text.QuadDec_TILT_Init,"ax",%progbits
  19              		.align	1
  20              		.global	QuadDec_TILT_Init
  21              		.thumb
  22              		.thumb_func
  23              		.type	QuadDec_TILT_Init, %function
  24              	QuadDec_TILT_Init:
  25              	.LFB0:
  26              		.file 1 ".\\Generated_Source\\PSoC5\\QuadDec_TILT.c"
   1:.\Generated_Source\PSoC5/QuadDec_TILT.c **** /*******************************************************************************
   2:.\Generated_Source\PSoC5/QuadDec_TILT.c **** * File Name: QuadDec_TILT.c  
   3:.\Generated_Source\PSoC5/QuadDec_TILT.c **** * Version 2.40
   4:.\Generated_Source\PSoC5/QuadDec_TILT.c **** *
   5:.\Generated_Source\PSoC5/QuadDec_TILT.c **** * Description:
   6:.\Generated_Source\PSoC5/QuadDec_TILT.c **** *  This file provides the source code to the API for the Quadrature Decoder
   7:.\Generated_Source\PSoC5/QuadDec_TILT.c **** *  component.
   8:.\Generated_Source\PSoC5/QuadDec_TILT.c **** *
   9:.\Generated_Source\PSoC5/QuadDec_TILT.c **** * Note:
  10:.\Generated_Source\PSoC5/QuadDec_TILT.c **** *  None.
  11:.\Generated_Source\PSoC5/QuadDec_TILT.c **** *   
  12:.\Generated_Source\PSoC5/QuadDec_TILT.c **** ********************************************************************************
  13:.\Generated_Source\PSoC5/QuadDec_TILT.c **** * Copyright 2008-2014, Cypress Semiconductor Corporation.  All rights reserved.
  14:.\Generated_Source\PSoC5/QuadDec_TILT.c **** * You may use this file only in accordance with the license, terms, conditions, 
  15:.\Generated_Source\PSoC5/QuadDec_TILT.c **** * disclaimers, and limitations in the end user license agreement accompanying 
  16:.\Generated_Source\PSoC5/QuadDec_TILT.c **** * the software package with which this file was provided.
  17:.\Generated_Source\PSoC5/QuadDec_TILT.c **** *******************************************************************************/
  18:.\Generated_Source\PSoC5/QuadDec_TILT.c **** 
  19:.\Generated_Source\PSoC5/QuadDec_TILT.c **** #include "QuadDec_TILT.h"
  20:.\Generated_Source\PSoC5/QuadDec_TILT.c **** 
  21:.\Generated_Source\PSoC5/QuadDec_TILT.c **** #if (QuadDec_TILT_COUNTER_SIZE == QuadDec_TILT_COUNTER_SIZE_32_BIT)
  22:.\Generated_Source\PSoC5/QuadDec_TILT.c ****     #include "QuadDec_TILT_PVT.h"
  23:.\Generated_Source\PSoC5/QuadDec_TILT.c **** #endif /* QuadDec_TILT_COUNTER_SIZE == QuadDec_TILT_COUNTER_SIZE_32_BIT */
  24:.\Generated_Source\PSoC5/QuadDec_TILT.c **** 
  25:.\Generated_Source\PSoC5/QuadDec_TILT.c **** uint8 QuadDec_TILT_initVar = 0u;
  26:.\Generated_Source\PSoC5/QuadDec_TILT.c **** 
  27:.\Generated_Source\PSoC5/QuadDec_TILT.c **** 
  28:.\Generated_Source\PSoC5/QuadDec_TILT.c **** /*******************************************************************************
  29:.\Generated_Source\PSoC5/QuadDec_TILT.c **** * Function Name: QuadDec_TILT_Init
  30:.\Generated_Source\PSoC5/QuadDec_TILT.c **** ********************************************************************************
  31:.\Generated_Source\PSoC5/QuadDec_TILT.c **** *
ARM GAS  C:\Users\Graziano\AppData\Local\Temp\cccuPw7k.s 			page 2


  32:.\Generated_Source\PSoC5/QuadDec_TILT.c **** * Summary:
  33:.\Generated_Source\PSoC5/QuadDec_TILT.c **** *  Inits/Restores default QuadDec configuration provided with customizer.
  34:.\Generated_Source\PSoC5/QuadDec_TILT.c **** *
  35:.\Generated_Source\PSoC5/QuadDec_TILT.c **** * Parameters:
  36:.\Generated_Source\PSoC5/QuadDec_TILT.c **** *  None.
  37:.\Generated_Source\PSoC5/QuadDec_TILT.c **** *
  38:.\Generated_Source\PSoC5/QuadDec_TILT.c **** * Return:
  39:.\Generated_Source\PSoC5/QuadDec_TILT.c **** *  None.
  40:.\Generated_Source\PSoC5/QuadDec_TILT.c **** *
  41:.\Generated_Source\PSoC5/QuadDec_TILT.c **** *******************************************************************************/
  42:.\Generated_Source\PSoC5/QuadDec_TILT.c **** void QuadDec_TILT_Init(void) 
  43:.\Generated_Source\PSoC5/QuadDec_TILT.c **** {
  27              		.loc 1 43 0
  28              		.cfi_startproc
  29              		@ args = 0, pretend = 0, frame = 0
  30              		@ frame_needed = 0, uses_anonymous_args = 0
  31 0000 08B5     		push	{r3, lr}
  32              	.LCFI0:
  33              		.cfi_def_cfa_offset 8
  34              		.cfi_offset 3, -8
  35              		.cfi_offset 14, -4
  44:.\Generated_Source\PSoC5/QuadDec_TILT.c ****     #if (QuadDec_TILT_COUNTER_SIZE == QuadDec_TILT_COUNTER_SIZE_32_BIT)
  45:.\Generated_Source\PSoC5/QuadDec_TILT.c ****         /* Disable Interrupt. */
  46:.\Generated_Source\PSoC5/QuadDec_TILT.c ****         CyIntDisable(QuadDec_TILT_ISR_NUMBER);
  36              		.loc 1 46 0
  37 0002 064B     		ldr	r3, .L2
  38 0004 0222     		movs	r2, #2
  39 0006 1A60     		str	r2, [r3, #0]
  47:.\Generated_Source\PSoC5/QuadDec_TILT.c ****         /* Set the ISR to point to the QuadDec_TILT_isr Interrupt. */
  48:.\Generated_Source\PSoC5/QuadDec_TILT.c ****         (void) CyIntSetVector(QuadDec_TILT_ISR_NUMBER, & QuadDec_TILT_ISR);
  40              		.loc 1 48 0
  41 0008 0120     		movs	r0, #1
  42 000a 0549     		ldr	r1, .L2+4
  43 000c FFF7FEFF 		bl	CyIntSetVector
  44              	.LVL0:
  49:.\Generated_Source\PSoC5/QuadDec_TILT.c ****         /* Set the priority. */
  50:.\Generated_Source\PSoC5/QuadDec_TILT.c ****         CyIntSetPriority(QuadDec_TILT_ISR_NUMBER, QuadDec_TILT_ISR_PRIORITY);
  45              		.loc 1 50 0
  46 0010 0120     		movs	r0, #1
  47 0012 0721     		movs	r1, #7
  51:.\Generated_Source\PSoC5/QuadDec_TILT.c ****     #endif /* QuadDec_TILT_COUNTER_SIZE == QuadDec_TILT_COUNTER_SIZE_32_BIT */
  52:.\Generated_Source\PSoC5/QuadDec_TILT.c **** }
  48              		.loc 1 52 0
  49 0014 BDE80840 		pop	{r3, lr}
  50:.\Generated_Source\PSoC5/QuadDec_TILT.c ****         CyIntSetPriority(QuadDec_TILT_ISR_NUMBER, QuadDec_TILT_ISR_PRIORITY);
  50              		.loc 1 50 0
  51 0018 FFF7FEBF 		b	CyIntSetPriority
  52              	.LVL1:
  53              	.L3:
  54              		.align	2
  55              	.L2:
  56 001c 80E100E0 		.word	-536813184
  57 0020 00000000 		.word	QuadDec_TILT_ISR
  58              		.cfi_endproc
  59              	.LFE0:
  60              		.size	QuadDec_TILT_Init, .-QuadDec_TILT_Init
  61              		.section	.text.QuadDec_TILT_Stop,"ax",%progbits
ARM GAS  C:\Users\Graziano\AppData\Local\Temp\cccuPw7k.s 			page 3


  62              		.align	1
  63              		.global	QuadDec_TILT_Stop
  64              		.thumb
  65              		.thumb_func
  66              		.type	QuadDec_TILT_Stop, %function
  67              	QuadDec_TILT_Stop:
  68              	.LFB3:
  53:.\Generated_Source\PSoC5/QuadDec_TILT.c **** 
  54:.\Generated_Source\PSoC5/QuadDec_TILT.c **** 
  55:.\Generated_Source\PSoC5/QuadDec_TILT.c **** /*******************************************************************************
  56:.\Generated_Source\PSoC5/QuadDec_TILT.c **** * Function Name: QuadDec_TILT_Enable
  57:.\Generated_Source\PSoC5/QuadDec_TILT.c **** ********************************************************************************
  58:.\Generated_Source\PSoC5/QuadDec_TILT.c **** *
  59:.\Generated_Source\PSoC5/QuadDec_TILT.c **** * Summary:
  60:.\Generated_Source\PSoC5/QuadDec_TILT.c **** *  This function enable interrupts from Component and also enable Component's
  61:.\Generated_Source\PSoC5/QuadDec_TILT.c **** *  ISR in case of 32-bit counter.
  62:.\Generated_Source\PSoC5/QuadDec_TILT.c **** *
  63:.\Generated_Source\PSoC5/QuadDec_TILT.c **** * Parameters:
  64:.\Generated_Source\PSoC5/QuadDec_TILT.c **** *  None.
  65:.\Generated_Source\PSoC5/QuadDec_TILT.c **** *
  66:.\Generated_Source\PSoC5/QuadDec_TILT.c **** * Return:
  67:.\Generated_Source\PSoC5/QuadDec_TILT.c **** *  None.
  68:.\Generated_Source\PSoC5/QuadDec_TILT.c **** *
  69:.\Generated_Source\PSoC5/QuadDec_TILT.c **** *******************************************************************************/
  70:.\Generated_Source\PSoC5/QuadDec_TILT.c **** void QuadDec_TILT_Enable(void) 
  71:.\Generated_Source\PSoC5/QuadDec_TILT.c **** {
  72:.\Generated_Source\PSoC5/QuadDec_TILT.c ****     uint8 enableInterrupts;
  73:.\Generated_Source\PSoC5/QuadDec_TILT.c **** 
  74:.\Generated_Source\PSoC5/QuadDec_TILT.c ****     QuadDec_TILT_SetInterruptMask(QuadDec_TILT_INIT_INT_MASK);
  75:.\Generated_Source\PSoC5/QuadDec_TILT.c **** 
  76:.\Generated_Source\PSoC5/QuadDec_TILT.c ****     /* Clear pending interrupts. */
  77:.\Generated_Source\PSoC5/QuadDec_TILT.c ****     (void) QuadDec_TILT_GetEvents();
  78:.\Generated_Source\PSoC5/QuadDec_TILT.c ****     
  79:.\Generated_Source\PSoC5/QuadDec_TILT.c ****     enableInterrupts = CyEnterCriticalSection();
  80:.\Generated_Source\PSoC5/QuadDec_TILT.c **** 
  81:.\Generated_Source\PSoC5/QuadDec_TILT.c ****     /* Enable interrupts from Statusi register */
  82:.\Generated_Source\PSoC5/QuadDec_TILT.c ****     QuadDec_TILT_SR_AUX_CONTROL |= QuadDec_TILT_INTERRUPTS_ENABLE;
  83:.\Generated_Source\PSoC5/QuadDec_TILT.c **** 
  84:.\Generated_Source\PSoC5/QuadDec_TILT.c ****     CyExitCriticalSection(enableInterrupts);        
  85:.\Generated_Source\PSoC5/QuadDec_TILT.c **** 
  86:.\Generated_Source\PSoC5/QuadDec_TILT.c ****     #if (QuadDec_TILT_COUNTER_SIZE == QuadDec_TILT_COUNTER_SIZE_32_BIT)
  87:.\Generated_Source\PSoC5/QuadDec_TILT.c ****         /* Enable Component interrupts */
  88:.\Generated_Source\PSoC5/QuadDec_TILT.c ****         CyIntEnable(QuadDec_TILT_ISR_NUMBER);
  89:.\Generated_Source\PSoC5/QuadDec_TILT.c ****     #endif /* QuadDec_TILT_COUNTER_SIZE == QuadDec_TILT_COUNTER_SIZE_32_BIT */
  90:.\Generated_Source\PSoC5/QuadDec_TILT.c **** }
  91:.\Generated_Source\PSoC5/QuadDec_TILT.c **** 
  92:.\Generated_Source\PSoC5/QuadDec_TILT.c **** 
  93:.\Generated_Source\PSoC5/QuadDec_TILT.c **** /*******************************************************************************
  94:.\Generated_Source\PSoC5/QuadDec_TILT.c **** * Function Name: QuadDec_TILT_Start
  95:.\Generated_Source\PSoC5/QuadDec_TILT.c **** ********************************************************************************
  96:.\Generated_Source\PSoC5/QuadDec_TILT.c **** *
  97:.\Generated_Source\PSoC5/QuadDec_TILT.c **** * Summary:
  98:.\Generated_Source\PSoC5/QuadDec_TILT.c **** *  Initializes UDBs and other relevant hardware.
  99:.\Generated_Source\PSoC5/QuadDec_TILT.c **** *  Resets counter, enables or disables all relevant interrupts.
 100:.\Generated_Source\PSoC5/QuadDec_TILT.c **** *  Starts monitoring the inputs and counting.
 101:.\Generated_Source\PSoC5/QuadDec_TILT.c **** *
 102:.\Generated_Source\PSoC5/QuadDec_TILT.c **** * Parameters:
ARM GAS  C:\Users\Graziano\AppData\Local\Temp\cccuPw7k.s 			page 4


 103:.\Generated_Source\PSoC5/QuadDec_TILT.c **** *  None.
 104:.\Generated_Source\PSoC5/QuadDec_TILT.c **** *
 105:.\Generated_Source\PSoC5/QuadDec_TILT.c **** * Return:
 106:.\Generated_Source\PSoC5/QuadDec_TILT.c **** *  None.
 107:.\Generated_Source\PSoC5/QuadDec_TILT.c **** *
 108:.\Generated_Source\PSoC5/QuadDec_TILT.c **** * Global variables:
 109:.\Generated_Source\PSoC5/QuadDec_TILT.c **** *  QuadDec_TILT_initVar - used to check initial configuration, modified on
 110:.\Generated_Source\PSoC5/QuadDec_TILT.c **** *  first function call.
 111:.\Generated_Source\PSoC5/QuadDec_TILT.c **** *
 112:.\Generated_Source\PSoC5/QuadDec_TILT.c **** * Reentrant:
 113:.\Generated_Source\PSoC5/QuadDec_TILT.c **** *  No.
 114:.\Generated_Source\PSoC5/QuadDec_TILT.c **** *
 115:.\Generated_Source\PSoC5/QuadDec_TILT.c **** *******************************************************************************/
 116:.\Generated_Source\PSoC5/QuadDec_TILT.c **** void QuadDec_TILT_Start(void) 
 117:.\Generated_Source\PSoC5/QuadDec_TILT.c **** {
 118:.\Generated_Source\PSoC5/QuadDec_TILT.c ****     #if (QuadDec_TILT_COUNTER_SIZE == QuadDec_TILT_COUNTER_SIZE_8_BIT)
 119:.\Generated_Source\PSoC5/QuadDec_TILT.c ****         QuadDec_TILT_Cnt8_Start();
 120:.\Generated_Source\PSoC5/QuadDec_TILT.c ****         QuadDec_TILT_Cnt8_WriteCounter(QuadDec_TILT_COUNTER_INIT_VALUE);
 121:.\Generated_Source\PSoC5/QuadDec_TILT.c ****     #else
 122:.\Generated_Source\PSoC5/QuadDec_TILT.c ****         /* (QuadDec_TILT_COUNTER_SIZE == QuadDec_TILT_COUNTER_SIZE_16_BIT) || 
 123:.\Generated_Source\PSoC5/QuadDec_TILT.c ****         *  (QuadDec_TILT_COUNTER_SIZE == QuadDec_TILT_COUNTER_SIZE_32_BIT) 
 124:.\Generated_Source\PSoC5/QuadDec_TILT.c ****         */
 125:.\Generated_Source\PSoC5/QuadDec_TILT.c ****         QuadDec_TILT_Cnt16_Start();
 126:.\Generated_Source\PSoC5/QuadDec_TILT.c ****         QuadDec_TILT_Cnt16_WriteCounter(QuadDec_TILT_COUNTER_INIT_VALUE);
 127:.\Generated_Source\PSoC5/QuadDec_TILT.c ****     #endif /* QuadDec_TILT_COUNTER_SIZE == QuadDec_TILT_COUNTER_SIZE_8_BIT */
 128:.\Generated_Source\PSoC5/QuadDec_TILT.c ****     
 129:.\Generated_Source\PSoC5/QuadDec_TILT.c ****     #if (QuadDec_TILT_COUNTER_SIZE == QuadDec_TILT_COUNTER_SIZE_32_BIT)        
 130:.\Generated_Source\PSoC5/QuadDec_TILT.c ****        QuadDec_TILT_count32SoftPart = 0;
 131:.\Generated_Source\PSoC5/QuadDec_TILT.c ****     #endif /* QuadDec_TILT_COUNTER_SIZE == QuadDec_TILT_COUNTER_SIZE_32_BIT */
 132:.\Generated_Source\PSoC5/QuadDec_TILT.c **** 
 133:.\Generated_Source\PSoC5/QuadDec_TILT.c ****     if (QuadDec_TILT_initVar == 0u)
 134:.\Generated_Source\PSoC5/QuadDec_TILT.c ****     {
 135:.\Generated_Source\PSoC5/QuadDec_TILT.c ****         QuadDec_TILT_Init();
 136:.\Generated_Source\PSoC5/QuadDec_TILT.c ****         QuadDec_TILT_initVar = 1u;
 137:.\Generated_Source\PSoC5/QuadDec_TILT.c ****     }
 138:.\Generated_Source\PSoC5/QuadDec_TILT.c **** 
 139:.\Generated_Source\PSoC5/QuadDec_TILT.c ****     QuadDec_TILT_Enable();
 140:.\Generated_Source\PSoC5/QuadDec_TILT.c **** }
 141:.\Generated_Source\PSoC5/QuadDec_TILT.c **** 
 142:.\Generated_Source\PSoC5/QuadDec_TILT.c **** 
 143:.\Generated_Source\PSoC5/QuadDec_TILT.c **** /*******************************************************************************
 144:.\Generated_Source\PSoC5/QuadDec_TILT.c **** * Function Name: QuadDec_TILT_Stop
 145:.\Generated_Source\PSoC5/QuadDec_TILT.c **** ********************************************************************************
 146:.\Generated_Source\PSoC5/QuadDec_TILT.c **** *
 147:.\Generated_Source\PSoC5/QuadDec_TILT.c **** * Summary:
 148:.\Generated_Source\PSoC5/QuadDec_TILT.c **** *  Turns off UDBs and other relevant hardware.
 149:.\Generated_Source\PSoC5/QuadDec_TILT.c **** *
 150:.\Generated_Source\PSoC5/QuadDec_TILT.c **** * Parameters:
 151:.\Generated_Source\PSoC5/QuadDec_TILT.c **** *  None.
 152:.\Generated_Source\PSoC5/QuadDec_TILT.c **** *
 153:.\Generated_Source\PSoC5/QuadDec_TILT.c **** * Return:
 154:.\Generated_Source\PSoC5/QuadDec_TILT.c **** *  None.
 155:.\Generated_Source\PSoC5/QuadDec_TILT.c **** *
 156:.\Generated_Source\PSoC5/QuadDec_TILT.c **** *******************************************************************************/
 157:.\Generated_Source\PSoC5/QuadDec_TILT.c **** void QuadDec_TILT_Stop(void) 
 158:.\Generated_Source\PSoC5/QuadDec_TILT.c **** {
  69              		.loc 1 158 0
ARM GAS  C:\Users\Graziano\AppData\Local\Temp\cccuPw7k.s 			page 5


  70              		.cfi_startproc
  71              		@ args = 0, pretend = 0, frame = 0
  72              		@ frame_needed = 0, uses_anonymous_args = 0
  73 0000 08B5     		push	{r3, lr}
  74              	.LCFI1:
  75              		.cfi_def_cfa_offset 8
  76              		.cfi_offset 3, -8
  77              		.cfi_offset 14, -4
 159:.\Generated_Source\PSoC5/QuadDec_TILT.c ****     uint8 enableInterrupts;
 160:.\Generated_Source\PSoC5/QuadDec_TILT.c **** 
 161:.\Generated_Source\PSoC5/QuadDec_TILT.c ****     #if (QuadDec_TILT_COUNTER_SIZE == QuadDec_TILT_COUNTER_SIZE_8_BIT)
 162:.\Generated_Source\PSoC5/QuadDec_TILT.c ****         QuadDec_TILT_Cnt8_Stop();
 163:.\Generated_Source\PSoC5/QuadDec_TILT.c ****     #else 
 164:.\Generated_Source\PSoC5/QuadDec_TILT.c ****         /* (QuadDec_TILT_COUNTER_SIZE == QuadDec_TILT_COUNTER_SIZE_16_BIT) ||
 165:.\Generated_Source\PSoC5/QuadDec_TILT.c ****         *  (QuadDec_TILT_COUNTER_SIZE == QuadDec_TILT_COUNTER_SIZE_32_BIT)
 166:.\Generated_Source\PSoC5/QuadDec_TILT.c ****         */
 167:.\Generated_Source\PSoC5/QuadDec_TILT.c ****         QuadDec_TILT_Cnt16_Stop();    /* counter disable */
  78              		.loc 1 167 0
  79 0002 FFF7FEFF 		bl	QuadDec_TILT_Cnt16_Stop
  80              	.LVL2:
 168:.\Generated_Source\PSoC5/QuadDec_TILT.c ****     #endif /* (QuadDec_TILT_COUNTER_SIZE == QuadDec_TILT_COUNTER_SIZE_8_BIT) */
 169:.\Generated_Source\PSoC5/QuadDec_TILT.c ****  
 170:.\Generated_Source\PSoC5/QuadDec_TILT.c ****     enableInterrupts = CyEnterCriticalSection();
  81              		.loc 1 170 0
  82 0006 FFF7FEFF 		bl	CyEnterCriticalSection
  83              	.LVL3:
 171:.\Generated_Source\PSoC5/QuadDec_TILT.c **** 
 172:.\Generated_Source\PSoC5/QuadDec_TILT.c ****     /* Disable interrupts interrupts from Statusi register */
 173:.\Generated_Source\PSoC5/QuadDec_TILT.c ****     QuadDec_TILT_SR_AUX_CONTROL &= (uint8) (~QuadDec_TILT_INTERRUPTS_ENABLE);
  84              		.loc 1 173 0
  85 000a 054B     		ldr	r3, .L5
  86 000c 1A78     		ldrb	r2, [r3, #0]	@ zero_extendqisi2
  87 000e 02F0EF01 		and	r1, r2, #239
  88 0012 1970     		strb	r1, [r3, #0]
 174:.\Generated_Source\PSoC5/QuadDec_TILT.c **** 
 175:.\Generated_Source\PSoC5/QuadDec_TILT.c ****     CyExitCriticalSection(enableInterrupts);
  89              		.loc 1 175 0
  90 0014 FFF7FEFF 		bl	CyExitCriticalSection
  91              	.LVL4:
 176:.\Generated_Source\PSoC5/QuadDec_TILT.c **** 
 177:.\Generated_Source\PSoC5/QuadDec_TILT.c ****     #if (QuadDec_TILT_COUNTER_SIZE == QuadDec_TILT_COUNTER_SIZE_32_BIT)
 178:.\Generated_Source\PSoC5/QuadDec_TILT.c ****         CyIntDisable(QuadDec_TILT_ISR_NUMBER);    /* interrupt disable */
  92              		.loc 1 178 0
  93 0018 024B     		ldr	r3, .L5+4
  94 001a 0220     		movs	r0, #2
  95 001c 1860     		str	r0, [r3, #0]
  96 001e 08BD     		pop	{r3, pc}
  97              	.L6:
  98              		.align	2
  99              	.L5:
 100 0020 97640040 		.word	1073767575
 101 0024 80E100E0 		.word	-536813184
 102              		.cfi_endproc
 103              	.LFE3:
 104              		.size	QuadDec_TILT_Stop, .-QuadDec_TILT_Stop
 105              		.section	.text.QuadDec_TILT_GetCounter,"ax",%progbits
 106              		.align	1
ARM GAS  C:\Users\Graziano\AppData\Local\Temp\cccuPw7k.s 			page 6


 107              		.global	QuadDec_TILT_GetCounter
 108              		.thumb
 109              		.thumb_func
 110              		.type	QuadDec_TILT_GetCounter, %function
 111              	QuadDec_TILT_GetCounter:
 112              	.LFB4:
 179:.\Generated_Source\PSoC5/QuadDec_TILT.c ****     #endif /* QuadDec_TILT_COUNTER_SIZE == QuadDec_TILT_COUNTER_SIZE_32_BIT */
 180:.\Generated_Source\PSoC5/QuadDec_TILT.c **** }
 181:.\Generated_Source\PSoC5/QuadDec_TILT.c **** 
 182:.\Generated_Source\PSoC5/QuadDec_TILT.c **** 
 183:.\Generated_Source\PSoC5/QuadDec_TILT.c **** /*******************************************************************************
 184:.\Generated_Source\PSoC5/QuadDec_TILT.c **** * Function Name: QuadDec_TILT_GetCounter
 185:.\Generated_Source\PSoC5/QuadDec_TILT.c **** ********************************************************************************
 186:.\Generated_Source\PSoC5/QuadDec_TILT.c **** *
 187:.\Generated_Source\PSoC5/QuadDec_TILT.c **** * Summary:
 188:.\Generated_Source\PSoC5/QuadDec_TILT.c **** *  Reports the current value of the counter.
 189:.\Generated_Source\PSoC5/QuadDec_TILT.c **** *
 190:.\Generated_Source\PSoC5/QuadDec_TILT.c **** * Parameters:
 191:.\Generated_Source\PSoC5/QuadDec_TILT.c **** *  None.
 192:.\Generated_Source\PSoC5/QuadDec_TILT.c **** *
 193:.\Generated_Source\PSoC5/QuadDec_TILT.c **** * Return:
 194:.\Generated_Source\PSoC5/QuadDec_TILT.c **** *  The counter value. Return type is signed and per the counter size setting.
 195:.\Generated_Source\PSoC5/QuadDec_TILT.c **** *  A positive value indicates clockwise movement (B before A).
 196:.\Generated_Source\PSoC5/QuadDec_TILT.c **** *
 197:.\Generated_Source\PSoC5/QuadDec_TILT.c **** * Global variables:
 198:.\Generated_Source\PSoC5/QuadDec_TILT.c **** *  QuadDec_TILT_count32SoftPart - used to get hi 16 bit for current value
 199:.\Generated_Source\PSoC5/QuadDec_TILT.c **** *  of the 32-bit counter, when Counter size equal 32-bit.
 200:.\Generated_Source\PSoC5/QuadDec_TILT.c **** *
 201:.\Generated_Source\PSoC5/QuadDec_TILT.c **** *******************************************************************************/
 202:.\Generated_Source\PSoC5/QuadDec_TILT.c **** int32 QuadDec_TILT_GetCounter(void) 
 203:.\Generated_Source\PSoC5/QuadDec_TILT.c **** {
 113              		.loc 1 203 0
 114              		.cfi_startproc
 115              		@ args = 0, pretend = 0, frame = 0
 116              		@ frame_needed = 0, uses_anonymous_args = 0
 204:.\Generated_Source\PSoC5/QuadDec_TILT.c ****     int32 count;
 205:.\Generated_Source\PSoC5/QuadDec_TILT.c ****     uint16 tmpCnt;
 206:.\Generated_Source\PSoC5/QuadDec_TILT.c **** 
 207:.\Generated_Source\PSoC5/QuadDec_TILT.c ****     #if (QuadDec_TILT_COUNTER_SIZE == QuadDec_TILT_COUNTER_SIZE_32_BIT)
 208:.\Generated_Source\PSoC5/QuadDec_TILT.c ****         int16 hwCount;
 209:.\Generated_Source\PSoC5/QuadDec_TILT.c **** 
 210:.\Generated_Source\PSoC5/QuadDec_TILT.c ****         CyIntDisable(QuadDec_TILT_ISR_NUMBER);
 117              		.loc 1 210 0
 118 0000 074B     		ldr	r3, .L8
 203:.\Generated_Source\PSoC5/QuadDec_TILT.c **** {
 119              		.loc 1 203 0
 120 0002 10B5     		push	{r4, lr}
 121              	.LCFI2:
 122              		.cfi_def_cfa_offset 8
 123              		.cfi_offset 4, -8
 124              		.cfi_offset 14, -4
 125              		.loc 1 210 0
 126 0004 0224     		movs	r4, #2
 127 0006 1C60     		str	r4, [r3, #0]
 211:.\Generated_Source\PSoC5/QuadDec_TILT.c **** 
 212:.\Generated_Source\PSoC5/QuadDec_TILT.c ****         tmpCnt = QuadDec_TILT_Cnt16_ReadCounter();
 128              		.loc 1 212 0
ARM GAS  C:\Users\Graziano\AppData\Local\Temp\cccuPw7k.s 			page 7


 129 0008 FFF7FEFF 		bl	QuadDec_TILT_Cnt16_ReadCounter
 130              	.LVL5:
 213:.\Generated_Source\PSoC5/QuadDec_TILT.c ****         hwCount = (int16) ((int32) tmpCnt - (int32) QuadDec_TILT_COUNTER_INIT_VALUE);
 214:.\Generated_Source\PSoC5/QuadDec_TILT.c ****         count = QuadDec_TILT_count32SoftPart + hwCount;
 131              		.loc 1 214 0
 132 000c 0549     		ldr	r1, .L8+4
 215:.\Generated_Source\PSoC5/QuadDec_TILT.c **** 
 216:.\Generated_Source\PSoC5/QuadDec_TILT.c ****         CyIntEnable(QuadDec_TILT_ISR_NUMBER);
 133              		.loc 1 216 0
 134 000e 064A     		ldr	r2, .L8+8
 214:.\Generated_Source\PSoC5/QuadDec_TILT.c ****         count = QuadDec_TILT_count32SoftPart + hwCount;
 135              		.loc 1 214 0
 136 0010 0B68     		ldr	r3, [r1, #0]
 137              	.LVL6:
 213:.\Generated_Source\PSoC5/QuadDec_TILT.c ****         hwCount = (int16) ((int32) tmpCnt - (int32) QuadDec_TILT_COUNTER_INIT_VALUE);
 138              		.loc 1 213 0
 139 0012 A0F50040 		sub	r0, r0, #32768
 140              	.LVL7:
 214:.\Generated_Source\PSoC5/QuadDec_TILT.c ****         count = QuadDec_TILT_count32SoftPart + hwCount;
 141              		.loc 1 214 0
 142 0016 01B2     		sxth	r1, r0
 143              		.loc 1 216 0
 144 0018 1460     		str	r4, [r2, #0]
 217:.\Generated_Source\PSoC5/QuadDec_TILT.c ****     #else 
 218:.\Generated_Source\PSoC5/QuadDec_TILT.c ****         /* (QuadDec_TILT_COUNTER_SIZE == QuadDec_TILT_COUNTER_SIZE_8_BIT) || 
 219:.\Generated_Source\PSoC5/QuadDec_TILT.c ****         *  (QuadDec_TILT_COUNTER_SIZE == QuadDec_TILT_COUNTER_SIZE_16_BIT)
 220:.\Generated_Source\PSoC5/QuadDec_TILT.c ****         */
 221:.\Generated_Source\PSoC5/QuadDec_TILT.c ****         #if (QuadDec_TILT_COUNTER_SIZE == QuadDec_TILT_COUNTER_SIZE_8_BIT)
 222:.\Generated_Source\PSoC5/QuadDec_TILT.c ****             tmpCnt = QuadDec_TILT_Cnt8_ReadCounter();
 223:.\Generated_Source\PSoC5/QuadDec_TILT.c ****         #else /* (QuadDec_TILT_COUNTER_SIZE == QuadDec_TILT_COUNTER_SIZE_16_BIT) */
 224:.\Generated_Source\PSoC5/QuadDec_TILT.c ****             tmpCnt = QuadDec_TILT_Cnt16_ReadCounter();
 225:.\Generated_Source\PSoC5/QuadDec_TILT.c ****         #endif  /* QuadDec_TILT_COUNTER_SIZE == QuadDec_TILT_COUNTER_SIZE_8_BIT */
 226:.\Generated_Source\PSoC5/QuadDec_TILT.c **** 
 227:.\Generated_Source\PSoC5/QuadDec_TILT.c ****         count = (int32) ((int32) tmpCnt -
 228:.\Generated_Source\PSoC5/QuadDec_TILT.c ****                 (int32) QuadDec_TILT_COUNTER_INIT_VALUE);
 229:.\Generated_Source\PSoC5/QuadDec_TILT.c **** 
 230:.\Generated_Source\PSoC5/QuadDec_TILT.c ****     #endif /* QuadDec_TILT_COUNTER_SIZE == QuadDec_TILT_COUNTER_SIZE_32_BIT */ 
 231:.\Generated_Source\PSoC5/QuadDec_TILT.c **** 
 232:.\Generated_Source\PSoC5/QuadDec_TILT.c ****     return (count);
 233:.\Generated_Source\PSoC5/QuadDec_TILT.c **** }
 145              		.loc 1 233 0
 146 001a 5818     		adds	r0, r3, r1
 147 001c 10BD     		pop	{r4, pc}
 148              	.L9:
 149 001e 00BF     		.align	2
 150              	.L8:
 151 0020 80E100E0 		.word	-536813184
 152 0024 00000000 		.word	QuadDec_TILT_count32SoftPart
 153 0028 00E100E0 		.word	-536813312
 154              		.cfi_endproc
 155              	.LFE4:
 156              		.size	QuadDec_TILT_GetCounter, .-QuadDec_TILT_GetCounter
 157              		.section	.text.QuadDec_TILT_SetCounter,"ax",%progbits
 158              		.align	1
 159              		.global	QuadDec_TILT_SetCounter
 160              		.thumb
 161              		.thumb_func
ARM GAS  C:\Users\Graziano\AppData\Local\Temp\cccuPw7k.s 			page 8


 162              		.type	QuadDec_TILT_SetCounter, %function
 163              	QuadDec_TILT_SetCounter:
 164              	.LFB5:
 234:.\Generated_Source\PSoC5/QuadDec_TILT.c **** 
 235:.\Generated_Source\PSoC5/QuadDec_TILT.c **** 
 236:.\Generated_Source\PSoC5/QuadDec_TILT.c **** /*******************************************************************************
 237:.\Generated_Source\PSoC5/QuadDec_TILT.c **** * Function Name: QuadDec_TILT_SetCounter
 238:.\Generated_Source\PSoC5/QuadDec_TILT.c **** ********************************************************************************
 239:.\Generated_Source\PSoC5/QuadDec_TILT.c **** *
 240:.\Generated_Source\PSoC5/QuadDec_TILT.c **** * Summary:
 241:.\Generated_Source\PSoC5/QuadDec_TILT.c **** *  Sets the current value of the counter.
 242:.\Generated_Source\PSoC5/QuadDec_TILT.c **** *
 243:.\Generated_Source\PSoC5/QuadDec_TILT.c **** * Parameters:
 244:.\Generated_Source\PSoC5/QuadDec_TILT.c **** *  value:  The new value. Parameter type is signed and per the counter size
 245:.\Generated_Source\PSoC5/QuadDec_TILT.c **** *  setting.
 246:.\Generated_Source\PSoC5/QuadDec_TILT.c **** *
 247:.\Generated_Source\PSoC5/QuadDec_TILT.c **** * Return:
 248:.\Generated_Source\PSoC5/QuadDec_TILT.c **** *  None.
 249:.\Generated_Source\PSoC5/QuadDec_TILT.c **** *
 250:.\Generated_Source\PSoC5/QuadDec_TILT.c **** * Global variables:
 251:.\Generated_Source\PSoC5/QuadDec_TILT.c **** *  QuadDec_TILT_count32SoftPart - modified to set hi 16 bit for current
 252:.\Generated_Source\PSoC5/QuadDec_TILT.c **** *  value of the 32-bit counter, when Counter size equal 32-bit.
 253:.\Generated_Source\PSoC5/QuadDec_TILT.c **** *
 254:.\Generated_Source\PSoC5/QuadDec_TILT.c **** * Reentrant:
 255:.\Generated_Source\PSoC5/QuadDec_TILT.c **** *  No.
 256:.\Generated_Source\PSoC5/QuadDec_TILT.c **** *
 257:.\Generated_Source\PSoC5/QuadDec_TILT.c **** *******************************************************************************/
 258:.\Generated_Source\PSoC5/QuadDec_TILT.c **** void QuadDec_TILT_SetCounter(int32 value) 
 259:.\Generated_Source\PSoC5/QuadDec_TILT.c **** {
 165              		.loc 1 259 0
 166              		.cfi_startproc
 167              		@ args = 0, pretend = 0, frame = 0
 168              		@ frame_needed = 0, uses_anonymous_args = 0
 169              	.LVL8:
 170 0000 38B5     		push	{r3, r4, r5, lr}
 171              	.LCFI3:
 172              		.cfi_def_cfa_offset 16
 173              		.cfi_offset 3, -16
 174              		.cfi_offset 4, -12
 175              		.cfi_offset 5, -8
 176              		.cfi_offset 14, -4
 260:.\Generated_Source\PSoC5/QuadDec_TILT.c ****     #if ((QuadDec_TILT_COUNTER_SIZE == QuadDec_TILT_COUNTER_SIZE_8_BIT) || \
 261:.\Generated_Source\PSoC5/QuadDec_TILT.c ****          (QuadDec_TILT_COUNTER_SIZE == QuadDec_TILT_COUNTER_SIZE_16_BIT))
 262:.\Generated_Source\PSoC5/QuadDec_TILT.c ****         uint16 count;
 263:.\Generated_Source\PSoC5/QuadDec_TILT.c ****         
 264:.\Generated_Source\PSoC5/QuadDec_TILT.c ****         if (value >= 0)
 265:.\Generated_Source\PSoC5/QuadDec_TILT.c ****         {
 266:.\Generated_Source\PSoC5/QuadDec_TILT.c ****             count = (uint16) value + QuadDec_TILT_COUNTER_INIT_VALUE;
 267:.\Generated_Source\PSoC5/QuadDec_TILT.c ****         }
 268:.\Generated_Source\PSoC5/QuadDec_TILT.c ****         else
 269:.\Generated_Source\PSoC5/QuadDec_TILT.c ****         {
 270:.\Generated_Source\PSoC5/QuadDec_TILT.c ****             count = QuadDec_TILT_COUNTER_INIT_VALUE - (uint16)(-value);
 271:.\Generated_Source\PSoC5/QuadDec_TILT.c ****         }
 272:.\Generated_Source\PSoC5/QuadDec_TILT.c ****         #if (QuadDec_TILT_COUNTER_SIZE == QuadDec_TILT_COUNTER_SIZE_8_BIT)
 273:.\Generated_Source\PSoC5/QuadDec_TILT.c ****             QuadDec_TILT_Cnt8_WriteCounter(count);
 274:.\Generated_Source\PSoC5/QuadDec_TILT.c ****         #else /* (QuadDec_TILT_COUNTER_SIZE == QuadDec_TILT_COUNTER_SIZE_16_BIT) */
 275:.\Generated_Source\PSoC5/QuadDec_TILT.c ****             QuadDec_TILT_Cnt16_WriteCounter(count);
ARM GAS  C:\Users\Graziano\AppData\Local\Temp\cccuPw7k.s 			page 9


 276:.\Generated_Source\PSoC5/QuadDec_TILT.c ****         #endif  /* QuadDec_TILT_COUNTER_SIZE == QuadDec_TILT_COUNTER_SIZE_8_BIT */
 277:.\Generated_Source\PSoC5/QuadDec_TILT.c ****     #else /* (QuadDec_TILT_COUNTER_SIZE == QuadDec_TILT_COUNTER_SIZE_32_BIT) */
 278:.\Generated_Source\PSoC5/QuadDec_TILT.c ****         CyIntDisable(QuadDec_TILT_ISR_NUMBER);
 177              		.loc 1 278 0
 178 0002 064B     		ldr	r3, .L11
 179 0004 0224     		movs	r4, #2
 259:.\Generated_Source\PSoC5/QuadDec_TILT.c **** {
 180              		.loc 1 259 0
 181 0006 0546     		mov	r5, r0
 182              		.loc 1 278 0
 183 0008 1C60     		str	r4, [r3, #0]
 279:.\Generated_Source\PSoC5/QuadDec_TILT.c **** 
 280:.\Generated_Source\PSoC5/QuadDec_TILT.c ****         QuadDec_TILT_Cnt16_WriteCounter(QuadDec_TILT_COUNTER_INIT_VALUE);
 184              		.loc 1 280 0
 185 000a 4FF40040 		mov	r0, #32768
 186              	.LVL9:
 187 000e FFF7FEFF 		bl	QuadDec_TILT_Cnt16_WriteCounter
 188              	.LVL10:
 281:.\Generated_Source\PSoC5/QuadDec_TILT.c ****         QuadDec_TILT_count32SoftPart = value;
 189              		.loc 1 281 0
 190 0012 0348     		ldr	r0, .L11+4
 282:.\Generated_Source\PSoC5/QuadDec_TILT.c **** 
 283:.\Generated_Source\PSoC5/QuadDec_TILT.c ****         CyIntEnable(QuadDec_TILT_ISR_NUMBER);
 191              		.loc 1 283 0
 192 0014 0349     		ldr	r1, .L11+8
 281:.\Generated_Source\PSoC5/QuadDec_TILT.c ****         QuadDec_TILT_count32SoftPart = value;
 193              		.loc 1 281 0
 194 0016 0560     		str	r5, [r0, #0]
 195              		.loc 1 283 0
 196 0018 0C60     		str	r4, [r1, #0]
 197 001a 38BD     		pop	{r3, r4, r5, pc}
 198              	.L12:
 199              		.align	2
 200              	.L11:
 201 001c 80E100E0 		.word	-536813184
 202 0020 00000000 		.word	QuadDec_TILT_count32SoftPart
 203 0024 00E100E0 		.word	-536813312
 204              		.cfi_endproc
 205              	.LFE5:
 206              		.size	QuadDec_TILT_SetCounter, .-QuadDec_TILT_SetCounter
 207              		.section	.text.QuadDec_TILT_GetEvents,"ax",%progbits
 208              		.align	1
 209              		.global	QuadDec_TILT_GetEvents
 210              		.thumb
 211              		.thumb_func
 212              		.type	QuadDec_TILT_GetEvents, %function
 213              	QuadDec_TILT_GetEvents:
 214              	.LFB6:
 284:.\Generated_Source\PSoC5/QuadDec_TILT.c ****     #endif  /* (QuadDec_TILT_COUNTER_SIZE == QuadDec_TILT_COUNTER_SIZE_8_BIT) ||
 285:.\Generated_Source\PSoC5/QuadDec_TILT.c ****              * (QuadDec_TILT_COUNTER_SIZE == QuadDec_TILT_COUNTER_SIZE_16_BIT)
 286:.\Generated_Source\PSoC5/QuadDec_TILT.c ****              */
 287:.\Generated_Source\PSoC5/QuadDec_TILT.c **** }
 288:.\Generated_Source\PSoC5/QuadDec_TILT.c **** 
 289:.\Generated_Source\PSoC5/QuadDec_TILT.c **** 
 290:.\Generated_Source\PSoC5/QuadDec_TILT.c **** /*******************************************************************************
 291:.\Generated_Source\PSoC5/QuadDec_TILT.c **** * Function Name: QuadDec_TILT_GetEvents
 292:.\Generated_Source\PSoC5/QuadDec_TILT.c **** ********************************************************************************
ARM GAS  C:\Users\Graziano\AppData\Local\Temp\cccuPw7k.s 			page 10


 293:.\Generated_Source\PSoC5/QuadDec_TILT.c **** * 
 294:.\Generated_Source\PSoC5/QuadDec_TILT.c **** * Summary:
 295:.\Generated_Source\PSoC5/QuadDec_TILT.c **** *   Reports the current status of events. This function clears the bits of the 
 296:.\Generated_Source\PSoC5/QuadDec_TILT.c **** *   status register.
 297:.\Generated_Source\PSoC5/QuadDec_TILT.c **** *
 298:.\Generated_Source\PSoC5/QuadDec_TILT.c **** * Parameters:
 299:.\Generated_Source\PSoC5/QuadDec_TILT.c **** *  None.
 300:.\Generated_Source\PSoC5/QuadDec_TILT.c **** *
 301:.\Generated_Source\PSoC5/QuadDec_TILT.c **** * Return:
 302:.\Generated_Source\PSoC5/QuadDec_TILT.c **** *  The events, as bits in an unsigned 8-bit value:
 303:.\Generated_Source\PSoC5/QuadDec_TILT.c **** *    Bit      Description
 304:.\Generated_Source\PSoC5/QuadDec_TILT.c **** *     0        Counter overflow.
 305:.\Generated_Source\PSoC5/QuadDec_TILT.c **** *     1        Counter underflow.
 306:.\Generated_Source\PSoC5/QuadDec_TILT.c **** *     2        Counter reset due to index, if index input is used.
 307:.\Generated_Source\PSoC5/QuadDec_TILT.c **** *     3        Invalid A, B inputs state transition.
 308:.\Generated_Source\PSoC5/QuadDec_TILT.c **** *
 309:.\Generated_Source\PSoC5/QuadDec_TILT.c **** *******************************************************************************/
 310:.\Generated_Source\PSoC5/QuadDec_TILT.c **** uint8 QuadDec_TILT_GetEvents(void) 
 311:.\Generated_Source\PSoC5/QuadDec_TILT.c **** {
 215              		.loc 1 311 0
 216              		.cfi_startproc
 217              		@ args = 0, pretend = 0, frame = 0
 218              		@ frame_needed = 0, uses_anonymous_args = 0
 219              		@ link register save eliminated.
 312:.\Generated_Source\PSoC5/QuadDec_TILT.c ****     return (QuadDec_TILT_STATUS_REG & QuadDec_TILT_INIT_INT_MASK);
 220              		.loc 1 312 0
 221 0000 024B     		ldr	r3, .L14
 222 0002 1878     		ldrb	r0, [r3, #0]	@ zero_extendqisi2
 313:.\Generated_Source\PSoC5/QuadDec_TILT.c **** }
 223              		.loc 1 313 0
 224 0004 00F00F00 		and	r0, r0, #15
 225 0008 7047     		bx	lr
 226              	.L15:
 227 000a 00BF     		.align	2
 228              	.L14:
 229 000c 67640040 		.word	1073767527
 230              		.cfi_endproc
 231              	.LFE6:
 232              		.size	QuadDec_TILT_GetEvents, .-QuadDec_TILT_GetEvents
 233              		.section	.text.QuadDec_TILT_Enable,"ax",%progbits
 234              		.align	1
 235              		.global	QuadDec_TILT_Enable
 236              		.thumb
 237              		.thumb_func
 238              		.type	QuadDec_TILT_Enable, %function
 239              	QuadDec_TILT_Enable:
 240              	.LFB1:
  71:.\Generated_Source\PSoC5/QuadDec_TILT.c **** {
 241              		.loc 1 71 0
 242              		.cfi_startproc
 243              		@ args = 0, pretend = 0, frame = 0
 244              		@ frame_needed = 0, uses_anonymous_args = 0
 245              	.LVL11:
 246 0000 08B5     		push	{r3, lr}
 247              	.LCFI4:
 248              		.cfi_def_cfa_offset 8
 249              		.cfi_offset 3, -8
ARM GAS  C:\Users\Graziano\AppData\Local\Temp\cccuPw7k.s 			page 11


 250              		.cfi_offset 14, -4
 251              	.LBB4:
 252              	.LBB5:
 314:.\Generated_Source\PSoC5/QuadDec_TILT.c **** 
 315:.\Generated_Source\PSoC5/QuadDec_TILT.c **** 
 316:.\Generated_Source\PSoC5/QuadDec_TILT.c **** /*******************************************************************************
 317:.\Generated_Source\PSoC5/QuadDec_TILT.c **** * Function Name: QuadDec_TILT_SetInterruptMask
 318:.\Generated_Source\PSoC5/QuadDec_TILT.c **** ********************************************************************************
 319:.\Generated_Source\PSoC5/QuadDec_TILT.c **** *
 320:.\Generated_Source\PSoC5/QuadDec_TILT.c **** * Summary:
 321:.\Generated_Source\PSoC5/QuadDec_TILT.c **** *  Enables / disables interrupts due to the events.
 322:.\Generated_Source\PSoC5/QuadDec_TILT.c **** *  For the 32-bit counter, the overflow, underflow and reset interrupts cannot
 323:.\Generated_Source\PSoC5/QuadDec_TILT.c **** *  be disabled, these bits are ignored.
 324:.\Generated_Source\PSoC5/QuadDec_TILT.c **** *
 325:.\Generated_Source\PSoC5/QuadDec_TILT.c **** * Parameters:
 326:.\Generated_Source\PSoC5/QuadDec_TILT.c **** *  mask: Enable / disable bits in an 8-bit value, where 1 enables the interrupt.
 327:.\Generated_Source\PSoC5/QuadDec_TILT.c **** *
 328:.\Generated_Source\PSoC5/QuadDec_TILT.c **** * Return:
 329:.\Generated_Source\PSoC5/QuadDec_TILT.c **** *  None.
 330:.\Generated_Source\PSoC5/QuadDec_TILT.c **** *
 331:.\Generated_Source\PSoC5/QuadDec_TILT.c **** *******************************************************************************/
 332:.\Generated_Source\PSoC5/QuadDec_TILT.c **** void QuadDec_TILT_SetInterruptMask(uint8 mask) 
 333:.\Generated_Source\PSoC5/QuadDec_TILT.c **** {
 334:.\Generated_Source\PSoC5/QuadDec_TILT.c ****     #if (QuadDec_TILT_COUNTER_SIZE == QuadDec_TILT_COUNTER_SIZE_32_BIT)
 335:.\Generated_Source\PSoC5/QuadDec_TILT.c ****         /* Underflow, Overflow and Reset interrupts for 32-bit Counter are always enable */
 336:.\Generated_Source\PSoC5/QuadDec_TILT.c ****         mask |= (QuadDec_TILT_COUNTER_OVERFLOW | QuadDec_TILT_COUNTER_UNDERFLOW |
 337:.\Generated_Source\PSoC5/QuadDec_TILT.c ****                  QuadDec_TILT_COUNTER_RESET);
 338:.\Generated_Source\PSoC5/QuadDec_TILT.c ****     #endif /* QuadDec_TILT_COUNTER_SIZE == QuadDec_TILT_COUNTER_SIZE_32_BIT */
 339:.\Generated_Source\PSoC5/QuadDec_TILT.c **** 
 340:.\Generated_Source\PSoC5/QuadDec_TILT.c ****     QuadDec_TILT_STATUS_MASK = mask;
 253              		.loc 1 340 0
 254 0002 094B     		ldr	r3, .L17
 255 0004 0F22     		movs	r2, #15
 256 0006 1A70     		strb	r2, [r3, #0]
 257              	.LBE5:
 258              	.LBE4:
  77:.\Generated_Source\PSoC5/QuadDec_TILT.c ****     (void) QuadDec_TILT_GetEvents();
 259              		.loc 1 77 0
 260 0008 FFF7FEFF 		bl	QuadDec_TILT_GetEvents
 261              	.LVL12:
  79:.\Generated_Source\PSoC5/QuadDec_TILT.c ****     enableInterrupts = CyEnterCriticalSection();
 262              		.loc 1 79 0
 263 000c FFF7FEFF 		bl	CyEnterCriticalSection
 264              	.LVL13:
  82:.\Generated_Source\PSoC5/QuadDec_TILT.c ****     QuadDec_TILT_SR_AUX_CONTROL |= QuadDec_TILT_INTERRUPTS_ENABLE;
 265              		.loc 1 82 0
 266 0010 0649     		ldr	r1, .L17+4
 267 0012 0A78     		ldrb	r2, [r1, #0]	@ zero_extendqisi2
 268 0014 42F01003 		orr	r3, r2, #16
 269 0018 0B70     		strb	r3, [r1, #0]
  84:.\Generated_Source\PSoC5/QuadDec_TILT.c ****     CyExitCriticalSection(enableInterrupts);        
 270              		.loc 1 84 0
 271 001a FFF7FEFF 		bl	CyExitCriticalSection
 272              	.LVL14:
  88:.\Generated_Source\PSoC5/QuadDec_TILT.c ****         CyIntEnable(QuadDec_TILT_ISR_NUMBER);
 273              		.loc 1 88 0
 274 001e 0449     		ldr	r1, .L17+8
ARM GAS  C:\Users\Graziano\AppData\Local\Temp\cccuPw7k.s 			page 12


 275 0020 0220     		movs	r0, #2
 276 0022 0860     		str	r0, [r1, #0]
 277 0024 08BD     		pop	{r3, pc}
 278              	.L18:
 279 0026 00BF     		.align	2
 280              	.L17:
 281 0028 87640040 		.word	1073767559
 282 002c 97640040 		.word	1073767575
 283 0030 00E100E0 		.word	-536813312
 284              		.cfi_endproc
 285              	.LFE1:
 286              		.size	QuadDec_TILT_Enable, .-QuadDec_TILT_Enable
 287              		.section	.text.QuadDec_TILT_Start,"ax",%progbits
 288              		.align	1
 289              		.global	QuadDec_TILT_Start
 290              		.thumb
 291              		.thumb_func
 292              		.type	QuadDec_TILT_Start, %function
 293              	QuadDec_TILT_Start:
 294              	.LFB2:
 117:.\Generated_Source\PSoC5/QuadDec_TILT.c **** {
 295              		.loc 1 117 0
 296              		.cfi_startproc
 297              		@ args = 0, pretend = 0, frame = 0
 298              		@ frame_needed = 0, uses_anonymous_args = 0
 299 0000 10B5     		push	{r4, lr}
 300              	.LCFI5:
 301              		.cfi_def_cfa_offset 8
 302              		.cfi_offset 4, -8
 303              		.cfi_offset 14, -4
 133:.\Generated_Source\PSoC5/QuadDec_TILT.c ****     if (QuadDec_TILT_initVar == 0u)
 304              		.loc 1 133 0
 305 0002 0A4C     		ldr	r4, .L22
 125:.\Generated_Source\PSoC5/QuadDec_TILT.c ****         QuadDec_TILT_Cnt16_Start();
 306              		.loc 1 125 0
 307 0004 FFF7FEFF 		bl	QuadDec_TILT_Cnt16_Start
 308              	.LVL15:
 126:.\Generated_Source\PSoC5/QuadDec_TILT.c ****         QuadDec_TILT_Cnt16_WriteCounter(QuadDec_TILT_COUNTER_INIT_VALUE);
 309              		.loc 1 126 0
 310 0008 4FF40040 		mov	r0, #32768
 311 000c FFF7FEFF 		bl	QuadDec_TILT_Cnt16_WriteCounter
 312              	.LVL16:
 130:.\Generated_Source\PSoC5/QuadDec_TILT.c ****        QuadDec_TILT_count32SoftPart = 0;
 313              		.loc 1 130 0
 314 0010 074B     		ldr	r3, .L22+4
 133:.\Generated_Source\PSoC5/QuadDec_TILT.c ****     if (QuadDec_TILT_initVar == 0u)
 315              		.loc 1 133 0
 316 0012 2078     		ldrb	r0, [r4, #0]	@ zero_extendqisi2
 130:.\Generated_Source\PSoC5/QuadDec_TILT.c ****        QuadDec_TILT_count32SoftPart = 0;
 317              		.loc 1 130 0
 318 0014 0022     		movs	r2, #0
 319 0016 1A60     		str	r2, [r3, #0]
 133:.\Generated_Source\PSoC5/QuadDec_TILT.c ****     if (QuadDec_TILT_initVar == 0u)
 320              		.loc 1 133 0
 321 0018 18B9     		cbnz	r0, .L20
 135:.\Generated_Source\PSoC5/QuadDec_TILT.c ****         QuadDec_TILT_Init();
 322              		.loc 1 135 0
ARM GAS  C:\Users\Graziano\AppData\Local\Temp\cccuPw7k.s 			page 13


 323 001a FFF7FEFF 		bl	QuadDec_TILT_Init
 324              	.LVL17:
 136:.\Generated_Source\PSoC5/QuadDec_TILT.c ****         QuadDec_TILT_initVar = 1u;
 325              		.loc 1 136 0
 326 001e 0121     		movs	r1, #1
 327 0020 2170     		strb	r1, [r4, #0]
 328              	.L20:
 140:.\Generated_Source\PSoC5/QuadDec_TILT.c **** }
 329              		.loc 1 140 0
 330 0022 BDE81040 		pop	{r4, lr}
 139:.\Generated_Source\PSoC5/QuadDec_TILT.c ****     QuadDec_TILT_Enable();
 331              		.loc 1 139 0
 332 0026 FFF7FEBF 		b	QuadDec_TILT_Enable
 333              	.LVL18:
 334              	.L23:
 335 002a 00BF     		.align	2
 336              	.L22:
 337 002c 00000000 		.word	.LANCHOR0
 338 0030 00000000 		.word	QuadDec_TILT_count32SoftPart
 339              		.cfi_endproc
 340              	.LFE2:
 341              		.size	QuadDec_TILT_Start, .-QuadDec_TILT_Start
 342              		.section	.text.QuadDec_TILT_SetInterruptMask,"ax",%progbits
 343              		.align	1
 344              		.global	QuadDec_TILT_SetInterruptMask
 345              		.thumb
 346              		.thumb_func
 347              		.type	QuadDec_TILT_SetInterruptMask, %function
 348              	QuadDec_TILT_SetInterruptMask:
 349              	.LFB7:
 333:.\Generated_Source\PSoC5/QuadDec_TILT.c **** {
 350              		.loc 1 333 0
 351              		.cfi_startproc
 352              		@ args = 0, pretend = 0, frame = 0
 353              		@ frame_needed = 0, uses_anonymous_args = 0
 354              		@ link register save eliminated.
 355              	.LVL19:
 356              		.loc 1 340 0
 357 0000 024B     		ldr	r3, .L25
 336:.\Generated_Source\PSoC5/QuadDec_TILT.c ****         mask |= (QuadDec_TILT_COUNTER_OVERFLOW | QuadDec_TILT_COUNTER_UNDERFLOW |
 358              		.loc 1 336 0
 359 0002 40F00700 		orr	r0, r0, #7
 360              	.LVL20:
 361              		.loc 1 340 0
 362 0006 1870     		strb	r0, [r3, #0]
 363 0008 7047     		bx	lr
 364              	.L26:
 365 000a 00BF     		.align	2
 366              	.L25:
 367 000c 87640040 		.word	1073767559
 368              		.cfi_endproc
 369              	.LFE7:
 370              		.size	QuadDec_TILT_SetInterruptMask, .-QuadDec_TILT_SetInterruptMask
 371              		.section	.text.QuadDec_TILT_GetInterruptMask,"ax",%progbits
 372              		.align	1
 373              		.global	QuadDec_TILT_GetInterruptMask
 374              		.thumb
ARM GAS  C:\Users\Graziano\AppData\Local\Temp\cccuPw7k.s 			page 14


 375              		.thumb_func
 376              		.type	QuadDec_TILT_GetInterruptMask, %function
 377              	QuadDec_TILT_GetInterruptMask:
 378              	.LFB8:
 341:.\Generated_Source\PSoC5/QuadDec_TILT.c **** }
 342:.\Generated_Source\PSoC5/QuadDec_TILT.c **** 
 343:.\Generated_Source\PSoC5/QuadDec_TILT.c **** 
 344:.\Generated_Source\PSoC5/QuadDec_TILT.c **** /*******************************************************************************
 345:.\Generated_Source\PSoC5/QuadDec_TILT.c **** * Function Name: QuadDec_TILT_GetInterruptMask
 346:.\Generated_Source\PSoC5/QuadDec_TILT.c **** ********************************************************************************
 347:.\Generated_Source\PSoC5/QuadDec_TILT.c **** *
 348:.\Generated_Source\PSoC5/QuadDec_TILT.c **** * Summary:
 349:.\Generated_Source\PSoC5/QuadDec_TILT.c **** *  Reports the current interrupt mask settings.
 350:.\Generated_Source\PSoC5/QuadDec_TILT.c **** *
 351:.\Generated_Source\PSoC5/QuadDec_TILT.c **** * Parameters:
 352:.\Generated_Source\PSoC5/QuadDec_TILT.c **** *  None.
 353:.\Generated_Source\PSoC5/QuadDec_TILT.c **** *
 354:.\Generated_Source\PSoC5/QuadDec_TILT.c **** * Return:
 355:.\Generated_Source\PSoC5/QuadDec_TILT.c **** *  Enable / disable bits in an 8-bit value, where 1 enables the interrupt.
 356:.\Generated_Source\PSoC5/QuadDec_TILT.c **** *  For the 32-bit counter, the overflow, underflow and reset enable bits are
 357:.\Generated_Source\PSoC5/QuadDec_TILT.c **** *  always set.
 358:.\Generated_Source\PSoC5/QuadDec_TILT.c **** *
 359:.\Generated_Source\PSoC5/QuadDec_TILT.c **** *******************************************************************************/
 360:.\Generated_Source\PSoC5/QuadDec_TILT.c **** uint8 QuadDec_TILT_GetInterruptMask(void) 
 361:.\Generated_Source\PSoC5/QuadDec_TILT.c **** {
 379              		.loc 1 361 0
 380              		.cfi_startproc
 381              		@ args = 0, pretend = 0, frame = 0
 382              		@ frame_needed = 0, uses_anonymous_args = 0
 383              		@ link register save eliminated.
 362:.\Generated_Source\PSoC5/QuadDec_TILT.c ****     return (QuadDec_TILT_STATUS_MASK & QuadDec_TILT_INIT_INT_MASK);
 384              		.loc 1 362 0
 385 0000 024B     		ldr	r3, .L28
 386 0002 1878     		ldrb	r0, [r3, #0]	@ zero_extendqisi2
 363:.\Generated_Source\PSoC5/QuadDec_TILT.c **** }
 387              		.loc 1 363 0
 388 0004 00F00F00 		and	r0, r0, #15
 389 0008 7047     		bx	lr
 390              	.L29:
 391 000a 00BF     		.align	2
 392              	.L28:
 393 000c 87640040 		.word	1073767559
 394              		.cfi_endproc
 395              	.LFE8:
 396              		.size	QuadDec_TILT_GetInterruptMask, .-QuadDec_TILT_GetInterruptMask
 397              		.global	QuadDec_TILT_initVar
 398              		.bss
 399              		.set	.LANCHOR0,. + 0
 400              		.type	QuadDec_TILT_initVar, %object
 401              		.size	QuadDec_TILT_initVar, 1
 402              	QuadDec_TILT_initVar:
 403 0000 00       		.space	1
 404              		.text
 405              	.Letext0:
 406              		.file 2 ".\\Generated_Source\\PSoC5\\cytypes.h"
 407              		.file 3 ".\\Generated_Source\\PSoC5\\QuadDec_TILT_PVT.h"
 408              		.file 4 ".\\Generated_Source\\PSoC5\\CyLib.h"
ARM GAS  C:\Users\Graziano\AppData\Local\Temp\cccuPw7k.s 			page 15


 409              		.file 5 ".\\Generated_Source\\PSoC5\\QuadDec_TILT_Cnt16.h"