ARM GAS  C:\Users\Graziano\AppData\Local\Temp\cciCL2rR.s 			page 1


   1              		.syntax unified
   2              		.cpu cortex-m3
   3              		.fpu softvfp
   4              		.eabi_attribute 20, 1
   5              		.eabi_attribute 21, 1
   6              		.eabi_attribute 23, 3
   7              		.eabi_attribute 24, 1
   8              		.eabi_attribute 25, 1
   9              		.eabi_attribute 26, 1
  10              		.eabi_attribute 30, 4
  11              		.eabi_attribute 34, 1
  12              		.eabi_attribute 18, 4
  13              		.thumb
  14              		.file	"QuadDec_TILT_Cnt16.c"
  15              		.text
  16              	.Ltext0:
  17              		.cfi_sections	.debug_frame
  18              		.section	.text.QuadDec_TILT_Cnt16_Enable,"ax",%progbits
  19              		.align	1
  20              		.global	QuadDec_TILT_Cnt16_Enable
  21              		.thumb
  22              		.thumb_func
  23              		.type	QuadDec_TILT_Cnt16_Enable, %function
  24              	QuadDec_TILT_Cnt16_Enable:
  25              	.LFB1:
  26              		.file 1 ".\\Generated_Source\\PSoC5\\QuadDec_TILT_Cnt16.c"
   1:.\Generated_Source\PSoC5/QuadDec_TILT_Cnt16.c **** /*******************************************************************************
   2:.\Generated_Source\PSoC5/QuadDec_TILT_Cnt16.c **** * File Name: QuadDec_TILT_Cnt16.c  
   3:.\Generated_Source\PSoC5/QuadDec_TILT_Cnt16.c **** * Version 2.40
   4:.\Generated_Source\PSoC5/QuadDec_TILT_Cnt16.c **** *
   5:.\Generated_Source\PSoC5/QuadDec_TILT_Cnt16.c **** *  Description:
   6:.\Generated_Source\PSoC5/QuadDec_TILT_Cnt16.c **** *     The Counter component consists of a 8, 16, 24 or 32-bit counter with
   7:.\Generated_Source\PSoC5/QuadDec_TILT_Cnt16.c **** *     a selectable period between 2 and 2^Width - 1.  
   8:.\Generated_Source\PSoC5/QuadDec_TILT_Cnt16.c **** *
   9:.\Generated_Source\PSoC5/QuadDec_TILT_Cnt16.c **** *   Note:
  10:.\Generated_Source\PSoC5/QuadDec_TILT_Cnt16.c **** *     None
  11:.\Generated_Source\PSoC5/QuadDec_TILT_Cnt16.c **** *
  12:.\Generated_Source\PSoC5/QuadDec_TILT_Cnt16.c **** *******************************************************************************
  13:.\Generated_Source\PSoC5/QuadDec_TILT_Cnt16.c **** * Copyright 2008-2012, Cypress Semiconductor Corporation.  All rights reserved.
  14:.\Generated_Source\PSoC5/QuadDec_TILT_Cnt16.c **** * You may use this file only in accordance with the license, terms, conditions, 
  15:.\Generated_Source\PSoC5/QuadDec_TILT_Cnt16.c **** * disclaimers, and limitations in the end user license agreement accompanying 
  16:.\Generated_Source\PSoC5/QuadDec_TILT_Cnt16.c **** * the software package with which this file was provided.
  17:.\Generated_Source\PSoC5/QuadDec_TILT_Cnt16.c **** ********************************************************************************/
  18:.\Generated_Source\PSoC5/QuadDec_TILT_Cnt16.c **** 
  19:.\Generated_Source\PSoC5/QuadDec_TILT_Cnt16.c **** #include "QuadDec_TILT_Cnt16.h"
  20:.\Generated_Source\PSoC5/QuadDec_TILT_Cnt16.c **** 
  21:.\Generated_Source\PSoC5/QuadDec_TILT_Cnt16.c **** uint8 QuadDec_TILT_Cnt16_initVar = 0u;
  22:.\Generated_Source\PSoC5/QuadDec_TILT_Cnt16.c **** 
  23:.\Generated_Source\PSoC5/QuadDec_TILT_Cnt16.c **** 
  24:.\Generated_Source\PSoC5/QuadDec_TILT_Cnt16.c **** /*******************************************************************************
  25:.\Generated_Source\PSoC5/QuadDec_TILT_Cnt16.c **** * Function Name: QuadDec_TILT_Cnt16_Init
  26:.\Generated_Source\PSoC5/QuadDec_TILT_Cnt16.c **** ********************************************************************************
  27:.\Generated_Source\PSoC5/QuadDec_TILT_Cnt16.c **** * Summary:
  28:.\Generated_Source\PSoC5/QuadDec_TILT_Cnt16.c **** *     Initialize to the schematic state
  29:.\Generated_Source\PSoC5/QuadDec_TILT_Cnt16.c **** * 
  30:.\Generated_Source\PSoC5/QuadDec_TILT_Cnt16.c **** * Parameters:  
  31:.\Generated_Source\PSoC5/QuadDec_TILT_Cnt16.c **** *  void  
ARM GAS  C:\Users\Graziano\AppData\Local\Temp\cciCL2rR.s 			page 2


  32:.\Generated_Source\PSoC5/QuadDec_TILT_Cnt16.c **** *
  33:.\Generated_Source\PSoC5/QuadDec_TILT_Cnt16.c **** * Return: 
  34:.\Generated_Source\PSoC5/QuadDec_TILT_Cnt16.c **** *  void
  35:.\Generated_Source\PSoC5/QuadDec_TILT_Cnt16.c **** *
  36:.\Generated_Source\PSoC5/QuadDec_TILT_Cnt16.c **** *******************************************************************************/
  37:.\Generated_Source\PSoC5/QuadDec_TILT_Cnt16.c **** void QuadDec_TILT_Cnt16_Init(void) 
  38:.\Generated_Source\PSoC5/QuadDec_TILT_Cnt16.c **** {
  39:.\Generated_Source\PSoC5/QuadDec_TILT_Cnt16.c ****         #if (!QuadDec_TILT_Cnt16_UsingFixedFunction && !QuadDec_TILT_Cnt16_ControlRegRemoved)
  40:.\Generated_Source\PSoC5/QuadDec_TILT_Cnt16.c ****             uint8 ctrl;
  41:.\Generated_Source\PSoC5/QuadDec_TILT_Cnt16.c ****         #endif /* (!QuadDec_TILT_Cnt16_UsingFixedFunction && !QuadDec_TILT_Cnt16_ControlRegRemoved)
  42:.\Generated_Source\PSoC5/QuadDec_TILT_Cnt16.c ****         
  43:.\Generated_Source\PSoC5/QuadDec_TILT_Cnt16.c ****         #if(!QuadDec_TILT_Cnt16_UsingFixedFunction) 
  44:.\Generated_Source\PSoC5/QuadDec_TILT_Cnt16.c ****             /* Interrupt State Backup for Critical Region*/
  45:.\Generated_Source\PSoC5/QuadDec_TILT_Cnt16.c ****             uint8 QuadDec_TILT_Cnt16_interruptState;
  46:.\Generated_Source\PSoC5/QuadDec_TILT_Cnt16.c ****         #endif /* (!QuadDec_TILT_Cnt16_UsingFixedFunction) */
  47:.\Generated_Source\PSoC5/QuadDec_TILT_Cnt16.c ****         
  48:.\Generated_Source\PSoC5/QuadDec_TILT_Cnt16.c ****         #if (QuadDec_TILT_Cnt16_UsingFixedFunction)
  49:.\Generated_Source\PSoC5/QuadDec_TILT_Cnt16.c ****             /* Clear all bits but the enable bit (if it's already set for Timer operation */
  50:.\Generated_Source\PSoC5/QuadDec_TILT_Cnt16.c ****             QuadDec_TILT_Cnt16_CONTROL &= QuadDec_TILT_Cnt16_CTRL_ENABLE;
  51:.\Generated_Source\PSoC5/QuadDec_TILT_Cnt16.c ****             
  52:.\Generated_Source\PSoC5/QuadDec_TILT_Cnt16.c ****             /* Clear the mode bits for continuous run mode */
  53:.\Generated_Source\PSoC5/QuadDec_TILT_Cnt16.c ****             #if (CY_PSOC5A)
  54:.\Generated_Source\PSoC5/QuadDec_TILT_Cnt16.c ****                 QuadDec_TILT_Cnt16_CONTROL2 &= ((uint8)(~QuadDec_TILT_Cnt16_CTRL_MODE_MASK));
  55:.\Generated_Source\PSoC5/QuadDec_TILT_Cnt16.c ****             #endif /* (CY_PSOC5A) */
  56:.\Generated_Source\PSoC5/QuadDec_TILT_Cnt16.c ****             #if (CY_PSOC3 || CY_PSOC5LP)
  57:.\Generated_Source\PSoC5/QuadDec_TILT_Cnt16.c ****                 QuadDec_TILT_Cnt16_CONTROL3 &= ((uint8)(~QuadDec_TILT_Cnt16_CTRL_MODE_MASK));      
  58:.\Generated_Source\PSoC5/QuadDec_TILT_Cnt16.c ****             #endif /* (CY_PSOC3 || CY_PSOC5LP) */
  59:.\Generated_Source\PSoC5/QuadDec_TILT_Cnt16.c ****             /* Check if One Shot mode is enabled i.e. RunMode !=0*/
  60:.\Generated_Source\PSoC5/QuadDec_TILT_Cnt16.c ****             #if (QuadDec_TILT_Cnt16_RunModeUsed != 0x0u)
  61:.\Generated_Source\PSoC5/QuadDec_TILT_Cnt16.c ****                 /* Set 3rd bit of Control register to enable one shot mode */
  62:.\Generated_Source\PSoC5/QuadDec_TILT_Cnt16.c ****                 QuadDec_TILT_Cnt16_CONTROL |= QuadDec_TILT_Cnt16_ONESHOT;
  63:.\Generated_Source\PSoC5/QuadDec_TILT_Cnt16.c ****             #endif /* (QuadDec_TILT_Cnt16_RunModeUsed != 0x0u) */
  64:.\Generated_Source\PSoC5/QuadDec_TILT_Cnt16.c ****             
  65:.\Generated_Source\PSoC5/QuadDec_TILT_Cnt16.c ****             /* Set the IRQ to use the status register interrupts */
  66:.\Generated_Source\PSoC5/QuadDec_TILT_Cnt16.c ****             QuadDec_TILT_Cnt16_CONTROL2 |= QuadDec_TILT_Cnt16_CTRL2_IRQ_SEL;
  67:.\Generated_Source\PSoC5/QuadDec_TILT_Cnt16.c ****             
  68:.\Generated_Source\PSoC5/QuadDec_TILT_Cnt16.c ****             /* Clear and Set SYNCTC and SYNCCMP bits of RT1 register */
  69:.\Generated_Source\PSoC5/QuadDec_TILT_Cnt16.c ****             QuadDec_TILT_Cnt16_RT1 &= ((uint8)(~QuadDec_TILT_Cnt16_RT1_MASK));
  70:.\Generated_Source\PSoC5/QuadDec_TILT_Cnt16.c ****             QuadDec_TILT_Cnt16_RT1 |= QuadDec_TILT_Cnt16_SYNC;     
  71:.\Generated_Source\PSoC5/QuadDec_TILT_Cnt16.c ****                     
  72:.\Generated_Source\PSoC5/QuadDec_TILT_Cnt16.c ****             /*Enable DSI Sync all all inputs of the Timer*/
  73:.\Generated_Source\PSoC5/QuadDec_TILT_Cnt16.c ****             QuadDec_TILT_Cnt16_RT1 &= ((uint8)(~QuadDec_TILT_Cnt16_SYNCDSI_MASK));
  74:.\Generated_Source\PSoC5/QuadDec_TILT_Cnt16.c ****             QuadDec_TILT_Cnt16_RT1 |= QuadDec_TILT_Cnt16_SYNCDSI_EN;
  75:.\Generated_Source\PSoC5/QuadDec_TILT_Cnt16.c **** 
  76:.\Generated_Source\PSoC5/QuadDec_TILT_Cnt16.c ****         #else
  77:.\Generated_Source\PSoC5/QuadDec_TILT_Cnt16.c ****             #if(!QuadDec_TILT_Cnt16_ControlRegRemoved)
  78:.\Generated_Source\PSoC5/QuadDec_TILT_Cnt16.c ****             /* Set the default compare mode defined in the parameter */
  79:.\Generated_Source\PSoC5/QuadDec_TILT_Cnt16.c ****             ctrl = QuadDec_TILT_Cnt16_CONTROL & ((uint8)(~QuadDec_TILT_Cnt16_CTRL_CMPMODE_MASK));
  80:.\Generated_Source\PSoC5/QuadDec_TILT_Cnt16.c ****             QuadDec_TILT_Cnt16_CONTROL = ctrl | QuadDec_TILT_Cnt16_DEFAULT_COMPARE_MODE;
  81:.\Generated_Source\PSoC5/QuadDec_TILT_Cnt16.c ****             
  82:.\Generated_Source\PSoC5/QuadDec_TILT_Cnt16.c ****             /* Set the default capture mode defined in the parameter */
  83:.\Generated_Source\PSoC5/QuadDec_TILT_Cnt16.c ****             ctrl = QuadDec_TILT_Cnt16_CONTROL & ((uint8)(~QuadDec_TILT_Cnt16_CTRL_CAPMODE_MASK));
  84:.\Generated_Source\PSoC5/QuadDec_TILT_Cnt16.c ****             
  85:.\Generated_Source\PSoC5/QuadDec_TILT_Cnt16.c ****             #if( 0 != QuadDec_TILT_Cnt16_CAPTURE_MODE_CONF)
  86:.\Generated_Source\PSoC5/QuadDec_TILT_Cnt16.c ****                 QuadDec_TILT_Cnt16_CONTROL = ctrl | QuadDec_TILT_Cnt16_DEFAULT_CAPTURE_MODE;
  87:.\Generated_Source\PSoC5/QuadDec_TILT_Cnt16.c ****             #else
  88:.\Generated_Source\PSoC5/QuadDec_TILT_Cnt16.c ****                 QuadDec_TILT_Cnt16_CONTROL = ctrl;
ARM GAS  C:\Users\Graziano\AppData\Local\Temp\cciCL2rR.s 			page 3


  89:.\Generated_Source\PSoC5/QuadDec_TILT_Cnt16.c ****             #endif /* 0 != QuadDec_TILT_Cnt16_CAPTURE_MODE */ 
  90:.\Generated_Source\PSoC5/QuadDec_TILT_Cnt16.c ****             
  91:.\Generated_Source\PSoC5/QuadDec_TILT_Cnt16.c ****             #endif /* (!QuadDec_TILT_Cnt16_ControlRegRemoved) */
  92:.\Generated_Source\PSoC5/QuadDec_TILT_Cnt16.c ****         #endif /* (QuadDec_TILT_Cnt16_UsingFixedFunction) */
  93:.\Generated_Source\PSoC5/QuadDec_TILT_Cnt16.c ****         
  94:.\Generated_Source\PSoC5/QuadDec_TILT_Cnt16.c ****         /* Clear all data in the FIFO's */
  95:.\Generated_Source\PSoC5/QuadDec_TILT_Cnt16.c ****         #if (!QuadDec_TILT_Cnt16_UsingFixedFunction)
  96:.\Generated_Source\PSoC5/QuadDec_TILT_Cnt16.c ****             QuadDec_TILT_Cnt16_ClearFIFO();
  97:.\Generated_Source\PSoC5/QuadDec_TILT_Cnt16.c ****         #endif /* (!QuadDec_TILT_Cnt16_UsingFixedFunction) */
  98:.\Generated_Source\PSoC5/QuadDec_TILT_Cnt16.c ****         
  99:.\Generated_Source\PSoC5/QuadDec_TILT_Cnt16.c ****         /* Set Initial values from Configuration */
 100:.\Generated_Source\PSoC5/QuadDec_TILT_Cnt16.c ****         QuadDec_TILT_Cnt16_WritePeriod(QuadDec_TILT_Cnt16_INIT_PERIOD_VALUE);
 101:.\Generated_Source\PSoC5/QuadDec_TILT_Cnt16.c ****         #if (!(QuadDec_TILT_Cnt16_UsingFixedFunction && (CY_PSOC5A)))
 102:.\Generated_Source\PSoC5/QuadDec_TILT_Cnt16.c ****             QuadDec_TILT_Cnt16_WriteCounter(QuadDec_TILT_Cnt16_INIT_COUNTER_VALUE);
 103:.\Generated_Source\PSoC5/QuadDec_TILT_Cnt16.c ****         #endif /* (!(QuadDec_TILT_Cnt16_UsingFixedFunction && (CY_PSOC5A))) */
 104:.\Generated_Source\PSoC5/QuadDec_TILT_Cnt16.c ****         QuadDec_TILT_Cnt16_SetInterruptMode(QuadDec_TILT_Cnt16_INIT_INTERRUPTS_MASK);
 105:.\Generated_Source\PSoC5/QuadDec_TILT_Cnt16.c ****         
 106:.\Generated_Source\PSoC5/QuadDec_TILT_Cnt16.c ****         #if (!QuadDec_TILT_Cnt16_UsingFixedFunction)
 107:.\Generated_Source\PSoC5/QuadDec_TILT_Cnt16.c ****             /* Read the status register to clear the unwanted interrupts */
 108:.\Generated_Source\PSoC5/QuadDec_TILT_Cnt16.c ****             (void)QuadDec_TILT_Cnt16_ReadStatusRegister();
 109:.\Generated_Source\PSoC5/QuadDec_TILT_Cnt16.c ****             /* Set the compare value (only available to non-fixed function implementation */
 110:.\Generated_Source\PSoC5/QuadDec_TILT_Cnt16.c ****             QuadDec_TILT_Cnt16_WriteCompare(QuadDec_TILT_Cnt16_INIT_COMPARE_VALUE);
 111:.\Generated_Source\PSoC5/QuadDec_TILT_Cnt16.c ****             /* Use the interrupt output of the status register for IRQ output */
 112:.\Generated_Source\PSoC5/QuadDec_TILT_Cnt16.c ****             
 113:.\Generated_Source\PSoC5/QuadDec_TILT_Cnt16.c ****             /* CyEnterCriticalRegion and CyExitCriticalRegion are used to mark following region cri
 114:.\Generated_Source\PSoC5/QuadDec_TILT_Cnt16.c ****             /* Enter Critical Region*/
 115:.\Generated_Source\PSoC5/QuadDec_TILT_Cnt16.c ****             QuadDec_TILT_Cnt16_interruptState = CyEnterCriticalSection();
 116:.\Generated_Source\PSoC5/QuadDec_TILT_Cnt16.c ****             
 117:.\Generated_Source\PSoC5/QuadDec_TILT_Cnt16.c ****             QuadDec_TILT_Cnt16_STATUS_AUX_CTRL |= QuadDec_TILT_Cnt16_STATUS_ACTL_INT_EN_MASK;
 118:.\Generated_Source\PSoC5/QuadDec_TILT_Cnt16.c ****             
 119:.\Generated_Source\PSoC5/QuadDec_TILT_Cnt16.c ****             /* Exit Critical Region*/
 120:.\Generated_Source\PSoC5/QuadDec_TILT_Cnt16.c ****             CyExitCriticalSection(QuadDec_TILT_Cnt16_interruptState);
 121:.\Generated_Source\PSoC5/QuadDec_TILT_Cnt16.c ****             
 122:.\Generated_Source\PSoC5/QuadDec_TILT_Cnt16.c ****         #endif /* (!QuadDec_TILT_Cnt16_UsingFixedFunction) */
 123:.\Generated_Source\PSoC5/QuadDec_TILT_Cnt16.c **** }
 124:.\Generated_Source\PSoC5/QuadDec_TILT_Cnt16.c **** 
 125:.\Generated_Source\PSoC5/QuadDec_TILT_Cnt16.c **** 
 126:.\Generated_Source\PSoC5/QuadDec_TILT_Cnt16.c **** /*******************************************************************************
 127:.\Generated_Source\PSoC5/QuadDec_TILT_Cnt16.c **** * Function Name: QuadDec_TILT_Cnt16_Enable
 128:.\Generated_Source\PSoC5/QuadDec_TILT_Cnt16.c **** ********************************************************************************
 129:.\Generated_Source\PSoC5/QuadDec_TILT_Cnt16.c **** * Summary:
 130:.\Generated_Source\PSoC5/QuadDec_TILT_Cnt16.c **** *     Enable the Counter
 131:.\Generated_Source\PSoC5/QuadDec_TILT_Cnt16.c **** * 
 132:.\Generated_Source\PSoC5/QuadDec_TILT_Cnt16.c **** * Parameters:  
 133:.\Generated_Source\PSoC5/QuadDec_TILT_Cnt16.c **** *  void  
 134:.\Generated_Source\PSoC5/QuadDec_TILT_Cnt16.c **** *
 135:.\Generated_Source\PSoC5/QuadDec_TILT_Cnt16.c **** * Return: 
 136:.\Generated_Source\PSoC5/QuadDec_TILT_Cnt16.c **** *  void
 137:.\Generated_Source\PSoC5/QuadDec_TILT_Cnt16.c **** *
 138:.\Generated_Source\PSoC5/QuadDec_TILT_Cnt16.c **** * Side Effects: 
 139:.\Generated_Source\PSoC5/QuadDec_TILT_Cnt16.c **** *   If the Enable mode is set to Hardware only then this function has no effect 
 140:.\Generated_Source\PSoC5/QuadDec_TILT_Cnt16.c **** *   on the operation of the counter.
 141:.\Generated_Source\PSoC5/QuadDec_TILT_Cnt16.c **** *
 142:.\Generated_Source\PSoC5/QuadDec_TILT_Cnt16.c **** *******************************************************************************/
 143:.\Generated_Source\PSoC5/QuadDec_TILT_Cnt16.c **** void QuadDec_TILT_Cnt16_Enable(void) 
 144:.\Generated_Source\PSoC5/QuadDec_TILT_Cnt16.c **** {
  27              		.loc 1 144 0
ARM GAS  C:\Users\Graziano\AppData\Local\Temp\cciCL2rR.s 			page 4


  28              		.cfi_startproc
  29              		@ args = 0, pretend = 0, frame = 0
  30              		@ frame_needed = 0, uses_anonymous_args = 0
  31              		@ link register save eliminated.
 145:.\Generated_Source\PSoC5/QuadDec_TILT_Cnt16.c ****     /* Globally Enable the Fixed Function Block chosen */
 146:.\Generated_Source\PSoC5/QuadDec_TILT_Cnt16.c ****     #if (QuadDec_TILT_Cnt16_UsingFixedFunction)
 147:.\Generated_Source\PSoC5/QuadDec_TILT_Cnt16.c ****         QuadDec_TILT_Cnt16_GLOBAL_ENABLE |= QuadDec_TILT_Cnt16_BLOCK_EN_MASK;
 148:.\Generated_Source\PSoC5/QuadDec_TILT_Cnt16.c ****         QuadDec_TILT_Cnt16_GLOBAL_STBY_ENABLE |= QuadDec_TILT_Cnt16_BLOCK_STBY_EN_MASK;
 149:.\Generated_Source\PSoC5/QuadDec_TILT_Cnt16.c ****     #endif /* (QuadDec_TILT_Cnt16_UsingFixedFunction) */  
 150:.\Generated_Source\PSoC5/QuadDec_TILT_Cnt16.c ****         
 151:.\Generated_Source\PSoC5/QuadDec_TILT_Cnt16.c ****     /* Enable the counter from the control register  */
 152:.\Generated_Source\PSoC5/QuadDec_TILT_Cnt16.c ****     /* If Fixed Function then make sure Mode is set correctly */
 153:.\Generated_Source\PSoC5/QuadDec_TILT_Cnt16.c ****     /* else make sure reset is clear */
 154:.\Generated_Source\PSoC5/QuadDec_TILT_Cnt16.c ****     #if(!QuadDec_TILT_Cnt16_ControlRegRemoved || QuadDec_TILT_Cnt16_UsingFixedFunction)
 155:.\Generated_Source\PSoC5/QuadDec_TILT_Cnt16.c ****         QuadDec_TILT_Cnt16_CONTROL |= QuadDec_TILT_Cnt16_CTRL_ENABLE;                
  32              		.loc 1 155 0
  33 0000 024B     		ldr	r3, .L2
  34 0002 1A78     		ldrb	r2, [r3, #0]	@ zero_extendqisi2
  35 0004 42F08000 		orr	r0, r2, #128
  36 0008 1870     		strb	r0, [r3, #0]
  37 000a 7047     		bx	lr
  38              	.L3:
  39              		.align	2
  40              	.L2:
  41 000c 76640040 		.word	1073767542
  42              		.cfi_endproc
  43              	.LFE1:
  44              		.size	QuadDec_TILT_Cnt16_Enable, .-QuadDec_TILT_Cnt16_Enable
  45              		.section	.text.QuadDec_TILT_Cnt16_Stop,"ax",%progbits
  46              		.align	1
  47              		.global	QuadDec_TILT_Cnt16_Stop
  48              		.thumb
  49              		.thumb_func
  50              		.type	QuadDec_TILT_Cnt16_Stop, %function
  51              	QuadDec_TILT_Cnt16_Stop:
  52              	.LFB3:
 156:.\Generated_Source\PSoC5/QuadDec_TILT_Cnt16.c ****     #endif /* (!QuadDec_TILT_Cnt16_ControlRegRemoved || QuadDec_TILT_Cnt16_UsingFixedFunction) */
 157:.\Generated_Source\PSoC5/QuadDec_TILT_Cnt16.c ****     
 158:.\Generated_Source\PSoC5/QuadDec_TILT_Cnt16.c **** }
 159:.\Generated_Source\PSoC5/QuadDec_TILT_Cnt16.c **** 
 160:.\Generated_Source\PSoC5/QuadDec_TILT_Cnt16.c **** 
 161:.\Generated_Source\PSoC5/QuadDec_TILT_Cnt16.c **** /*******************************************************************************
 162:.\Generated_Source\PSoC5/QuadDec_TILT_Cnt16.c **** * Function Name: QuadDec_TILT_Cnt16_Start
 163:.\Generated_Source\PSoC5/QuadDec_TILT_Cnt16.c **** ********************************************************************************
 164:.\Generated_Source\PSoC5/QuadDec_TILT_Cnt16.c **** * Summary:
 165:.\Generated_Source\PSoC5/QuadDec_TILT_Cnt16.c **** *  Enables the counter for operation 
 166:.\Generated_Source\PSoC5/QuadDec_TILT_Cnt16.c **** *
 167:.\Generated_Source\PSoC5/QuadDec_TILT_Cnt16.c **** * Parameters:  
 168:.\Generated_Source\PSoC5/QuadDec_TILT_Cnt16.c **** *  void  
 169:.\Generated_Source\PSoC5/QuadDec_TILT_Cnt16.c **** *
 170:.\Generated_Source\PSoC5/QuadDec_TILT_Cnt16.c **** * Return: 
 171:.\Generated_Source\PSoC5/QuadDec_TILT_Cnt16.c **** *  void
 172:.\Generated_Source\PSoC5/QuadDec_TILT_Cnt16.c **** *
 173:.\Generated_Source\PSoC5/QuadDec_TILT_Cnt16.c **** * Global variables:
 174:.\Generated_Source\PSoC5/QuadDec_TILT_Cnt16.c **** *  QuadDec_TILT_Cnt16_initVar: Is modified when this function is called for the  
 175:.\Generated_Source\PSoC5/QuadDec_TILT_Cnt16.c **** *   first time. Is used to ensure that initialization happens only once.
 176:.\Generated_Source\PSoC5/QuadDec_TILT_Cnt16.c **** *
ARM GAS  C:\Users\Graziano\AppData\Local\Temp\cciCL2rR.s 			page 5


 177:.\Generated_Source\PSoC5/QuadDec_TILT_Cnt16.c **** *******************************************************************************/
 178:.\Generated_Source\PSoC5/QuadDec_TILT_Cnt16.c **** void QuadDec_TILT_Cnt16_Start(void) 
 179:.\Generated_Source\PSoC5/QuadDec_TILT_Cnt16.c **** {
 180:.\Generated_Source\PSoC5/QuadDec_TILT_Cnt16.c ****     if(QuadDec_TILT_Cnt16_initVar == 0u)
 181:.\Generated_Source\PSoC5/QuadDec_TILT_Cnt16.c ****     {
 182:.\Generated_Source\PSoC5/QuadDec_TILT_Cnt16.c ****         QuadDec_TILT_Cnt16_Init();
 183:.\Generated_Source\PSoC5/QuadDec_TILT_Cnt16.c ****         
 184:.\Generated_Source\PSoC5/QuadDec_TILT_Cnt16.c ****         QuadDec_TILT_Cnt16_initVar = 1u; /* Clear this bit for Initialization */        
 185:.\Generated_Source\PSoC5/QuadDec_TILT_Cnt16.c ****     }
 186:.\Generated_Source\PSoC5/QuadDec_TILT_Cnt16.c ****     
 187:.\Generated_Source\PSoC5/QuadDec_TILT_Cnt16.c ****     /* Enable the Counter */
 188:.\Generated_Source\PSoC5/QuadDec_TILT_Cnt16.c ****     QuadDec_TILT_Cnt16_Enable();        
 189:.\Generated_Source\PSoC5/QuadDec_TILT_Cnt16.c **** }
 190:.\Generated_Source\PSoC5/QuadDec_TILT_Cnt16.c **** 
 191:.\Generated_Source\PSoC5/QuadDec_TILT_Cnt16.c **** 
 192:.\Generated_Source\PSoC5/QuadDec_TILT_Cnt16.c **** /*******************************************************************************
 193:.\Generated_Source\PSoC5/QuadDec_TILT_Cnt16.c **** * Function Name: QuadDec_TILT_Cnt16_Stop
 194:.\Generated_Source\PSoC5/QuadDec_TILT_Cnt16.c **** ********************************************************************************
 195:.\Generated_Source\PSoC5/QuadDec_TILT_Cnt16.c **** * Summary:
 196:.\Generated_Source\PSoC5/QuadDec_TILT_Cnt16.c **** * Halts the counter, but does not change any modes or disable interrupts.
 197:.\Generated_Source\PSoC5/QuadDec_TILT_Cnt16.c **** *
 198:.\Generated_Source\PSoC5/QuadDec_TILT_Cnt16.c **** * Parameters:  
 199:.\Generated_Source\PSoC5/QuadDec_TILT_Cnt16.c **** *  void  
 200:.\Generated_Source\PSoC5/QuadDec_TILT_Cnt16.c **** *
 201:.\Generated_Source\PSoC5/QuadDec_TILT_Cnt16.c **** * Return: 
 202:.\Generated_Source\PSoC5/QuadDec_TILT_Cnt16.c **** *  void
 203:.\Generated_Source\PSoC5/QuadDec_TILT_Cnt16.c **** *
 204:.\Generated_Source\PSoC5/QuadDec_TILT_Cnt16.c **** * Side Effects: If the Enable mode is set to Hardware only then this function
 205:.\Generated_Source\PSoC5/QuadDec_TILT_Cnt16.c **** *               has no effect on the operation of the counter.
 206:.\Generated_Source\PSoC5/QuadDec_TILT_Cnt16.c **** *
 207:.\Generated_Source\PSoC5/QuadDec_TILT_Cnt16.c **** *******************************************************************************/
 208:.\Generated_Source\PSoC5/QuadDec_TILT_Cnt16.c **** void QuadDec_TILT_Cnt16_Stop(void) 
 209:.\Generated_Source\PSoC5/QuadDec_TILT_Cnt16.c **** {
  53              		.loc 1 209 0
  54              		.cfi_startproc
  55              		@ args = 0, pretend = 0, frame = 0
  56              		@ frame_needed = 0, uses_anonymous_args = 0
  57              		@ link register save eliminated.
 210:.\Generated_Source\PSoC5/QuadDec_TILT_Cnt16.c ****     /* Disable Counter */
 211:.\Generated_Source\PSoC5/QuadDec_TILT_Cnt16.c ****     #if(!QuadDec_TILT_Cnt16_ControlRegRemoved || QuadDec_TILT_Cnt16_UsingFixedFunction)
 212:.\Generated_Source\PSoC5/QuadDec_TILT_Cnt16.c ****         QuadDec_TILT_Cnt16_CONTROL &= ((uint8)(~QuadDec_TILT_Cnt16_CTRL_ENABLE));        
  58              		.loc 1 212 0
  59 0000 024B     		ldr	r3, .L5
  60 0002 1A78     		ldrb	r2, [r3, #0]	@ zero_extendqisi2
  61 0004 02F07F00 		and	r0, r2, #127
  62 0008 1870     		strb	r0, [r3, #0]
  63 000a 7047     		bx	lr
  64              	.L6:
  65              		.align	2
  66              	.L5:
  67 000c 76640040 		.word	1073767542
  68              		.cfi_endproc
  69              	.LFE3:
  70              		.size	QuadDec_TILT_Cnt16_Stop, .-QuadDec_TILT_Cnt16_Stop
  71              		.section	.text.QuadDec_TILT_Cnt16_SetInterruptMode,"ax",%progbits
  72              		.align	1
  73              		.global	QuadDec_TILT_Cnt16_SetInterruptMode
ARM GAS  C:\Users\Graziano\AppData\Local\Temp\cciCL2rR.s 			page 6


  74              		.thumb
  75              		.thumb_func
  76              		.type	QuadDec_TILT_Cnt16_SetInterruptMode, %function
  77              	QuadDec_TILT_Cnt16_SetInterruptMode:
  78              	.LFB4:
 213:.\Generated_Source\PSoC5/QuadDec_TILT_Cnt16.c ****     #endif /* (!QuadDec_TILT_Cnt16_ControlRegRemoved || QuadDec_TILT_Cnt16_UsingFixedFunction) */
 214:.\Generated_Source\PSoC5/QuadDec_TILT_Cnt16.c ****     
 215:.\Generated_Source\PSoC5/QuadDec_TILT_Cnt16.c ****     /* Globally disable the Fixed Function Block chosen */
 216:.\Generated_Source\PSoC5/QuadDec_TILT_Cnt16.c ****     #if (QuadDec_TILT_Cnt16_UsingFixedFunction)
 217:.\Generated_Source\PSoC5/QuadDec_TILT_Cnt16.c ****         QuadDec_TILT_Cnt16_GLOBAL_ENABLE &= ((uint8)(~QuadDec_TILT_Cnt16_BLOCK_EN_MASK));
 218:.\Generated_Source\PSoC5/QuadDec_TILT_Cnt16.c ****         QuadDec_TILT_Cnt16_GLOBAL_STBY_ENABLE &= ((uint8)(~QuadDec_TILT_Cnt16_BLOCK_STBY_EN_MASK));
 219:.\Generated_Source\PSoC5/QuadDec_TILT_Cnt16.c ****     #endif /* (QuadDec_TILT_Cnt16_UsingFixedFunction) */
 220:.\Generated_Source\PSoC5/QuadDec_TILT_Cnt16.c **** }
 221:.\Generated_Source\PSoC5/QuadDec_TILT_Cnt16.c **** 
 222:.\Generated_Source\PSoC5/QuadDec_TILT_Cnt16.c **** 
 223:.\Generated_Source\PSoC5/QuadDec_TILT_Cnt16.c **** /*******************************************************************************
 224:.\Generated_Source\PSoC5/QuadDec_TILT_Cnt16.c **** * Function Name: QuadDec_TILT_Cnt16_SetInterruptMode
 225:.\Generated_Source\PSoC5/QuadDec_TILT_Cnt16.c **** ********************************************************************************
 226:.\Generated_Source\PSoC5/QuadDec_TILT_Cnt16.c **** * Summary:
 227:.\Generated_Source\PSoC5/QuadDec_TILT_Cnt16.c **** * Configures which interrupt sources are enabled to generate the final interrupt
 228:.\Generated_Source\PSoC5/QuadDec_TILT_Cnt16.c **** *
 229:.\Generated_Source\PSoC5/QuadDec_TILT_Cnt16.c **** * Parameters:  
 230:.\Generated_Source\PSoC5/QuadDec_TILT_Cnt16.c **** *  InterruptsMask: This parameter is an or'd collection of the status bits
 231:.\Generated_Source\PSoC5/QuadDec_TILT_Cnt16.c **** *                   which will be allowed to generate the counters interrupt.   
 232:.\Generated_Source\PSoC5/QuadDec_TILT_Cnt16.c **** *
 233:.\Generated_Source\PSoC5/QuadDec_TILT_Cnt16.c **** * Return: 
 234:.\Generated_Source\PSoC5/QuadDec_TILT_Cnt16.c **** *  void
 235:.\Generated_Source\PSoC5/QuadDec_TILT_Cnt16.c **** *
 236:.\Generated_Source\PSoC5/QuadDec_TILT_Cnt16.c **** *******************************************************************************/
 237:.\Generated_Source\PSoC5/QuadDec_TILT_Cnt16.c **** void QuadDec_TILT_Cnt16_SetInterruptMode(uint8 interruptsMask) 
 238:.\Generated_Source\PSoC5/QuadDec_TILT_Cnt16.c **** {
  79              		.loc 1 238 0
  80              		.cfi_startproc
  81              		@ args = 0, pretend = 0, frame = 0
  82              		@ frame_needed = 0, uses_anonymous_args = 0
  83              		@ link register save eliminated.
  84              	.LVL0:
 239:.\Generated_Source\PSoC5/QuadDec_TILT_Cnt16.c ****     QuadDec_TILT_Cnt16_STATUS_MASK = interruptsMask;
  85              		.loc 1 239 0
  86 0000 014B     		ldr	r3, .L8
  87 0002 1870     		strb	r0, [r3, #0]
  88 0004 7047     		bx	lr
  89              	.L9:
  90 0006 00BF     		.align	2
  91              	.L8:
  92 0008 88650040 		.word	1073767816
  93              		.cfi_endproc
  94              	.LFE4:
  95              		.size	QuadDec_TILT_Cnt16_SetInterruptMode, .-QuadDec_TILT_Cnt16_SetInterruptMode
  96              		.section	.text.QuadDec_TILT_Cnt16_ReadStatusRegister,"ax",%progbits
  97              		.align	1
  98              		.global	QuadDec_TILT_Cnt16_ReadStatusRegister
  99              		.thumb
 100              		.thumb_func
 101              		.type	QuadDec_TILT_Cnt16_ReadStatusRegister, %function
 102              	QuadDec_TILT_Cnt16_ReadStatusRegister:
 103              	.LFB5:
ARM GAS  C:\Users\Graziano\AppData\Local\Temp\cciCL2rR.s 			page 7


 240:.\Generated_Source\PSoC5/QuadDec_TILT_Cnt16.c **** }
 241:.\Generated_Source\PSoC5/QuadDec_TILT_Cnt16.c **** 
 242:.\Generated_Source\PSoC5/QuadDec_TILT_Cnt16.c **** 
 243:.\Generated_Source\PSoC5/QuadDec_TILT_Cnt16.c **** /*******************************************************************************
 244:.\Generated_Source\PSoC5/QuadDec_TILT_Cnt16.c **** * Function Name: QuadDec_TILT_Cnt16_ReadStatusRegister
 245:.\Generated_Source\PSoC5/QuadDec_TILT_Cnt16.c **** ********************************************************************************
 246:.\Generated_Source\PSoC5/QuadDec_TILT_Cnt16.c **** * Summary:
 247:.\Generated_Source\PSoC5/QuadDec_TILT_Cnt16.c **** *   Reads the status register and returns it's state. This function should use
 248:.\Generated_Source\PSoC5/QuadDec_TILT_Cnt16.c **** *       defined types for the bit-field information as the bits in this
 249:.\Generated_Source\PSoC5/QuadDec_TILT_Cnt16.c **** *       register may be permuteable.
 250:.\Generated_Source\PSoC5/QuadDec_TILT_Cnt16.c **** *
 251:.\Generated_Source\PSoC5/QuadDec_TILT_Cnt16.c **** * Parameters:  
 252:.\Generated_Source\PSoC5/QuadDec_TILT_Cnt16.c **** *  void
 253:.\Generated_Source\PSoC5/QuadDec_TILT_Cnt16.c **** *
 254:.\Generated_Source\PSoC5/QuadDec_TILT_Cnt16.c **** * Return: 
 255:.\Generated_Source\PSoC5/QuadDec_TILT_Cnt16.c **** *  (uint8) The contents of the status register
 256:.\Generated_Source\PSoC5/QuadDec_TILT_Cnt16.c **** *
 257:.\Generated_Source\PSoC5/QuadDec_TILT_Cnt16.c **** * Side Effects:
 258:.\Generated_Source\PSoC5/QuadDec_TILT_Cnt16.c **** *   Status register bits may be clear on read. 
 259:.\Generated_Source\PSoC5/QuadDec_TILT_Cnt16.c **** *
 260:.\Generated_Source\PSoC5/QuadDec_TILT_Cnt16.c **** *******************************************************************************/
 261:.\Generated_Source\PSoC5/QuadDec_TILT_Cnt16.c **** uint8   QuadDec_TILT_Cnt16_ReadStatusRegister(void) 
 262:.\Generated_Source\PSoC5/QuadDec_TILT_Cnt16.c **** {
 104              		.loc 1 262 0
 105              		.cfi_startproc
 106              		@ args = 0, pretend = 0, frame = 0
 107              		@ frame_needed = 0, uses_anonymous_args = 0
 108              		@ link register save eliminated.
 263:.\Generated_Source\PSoC5/QuadDec_TILT_Cnt16.c ****     return QuadDec_TILT_Cnt16_STATUS;
 109              		.loc 1 263 0
 110 0000 014B     		ldr	r3, .L11
 111 0002 1878     		ldrb	r0, [r3, #0]	@ zero_extendqisi2
 264:.\Generated_Source\PSoC5/QuadDec_TILT_Cnt16.c **** }
 112              		.loc 1 264 0
 113 0004 7047     		bx	lr
 114              	.L12:
 115 0006 00BF     		.align	2
 116              	.L11:
 117 0008 68650040 		.word	1073767784
 118              		.cfi_endproc
 119              	.LFE5:
 120              		.size	QuadDec_TILT_Cnt16_ReadStatusRegister, .-QuadDec_TILT_Cnt16_ReadStatusRegister
 121              		.section	.text.QuadDec_TILT_Cnt16_ReadControlRegister,"ax",%progbits
 122              		.align	1
 123              		.global	QuadDec_TILT_Cnt16_ReadControlRegister
 124              		.thumb
 125              		.thumb_func
 126              		.type	QuadDec_TILT_Cnt16_ReadControlRegister, %function
 127              	QuadDec_TILT_Cnt16_ReadControlRegister:
 128              	.LFB6:
 265:.\Generated_Source\PSoC5/QuadDec_TILT_Cnt16.c **** 
 266:.\Generated_Source\PSoC5/QuadDec_TILT_Cnt16.c **** 
 267:.\Generated_Source\PSoC5/QuadDec_TILT_Cnt16.c **** #if(!QuadDec_TILT_Cnt16_ControlRegRemoved)
 268:.\Generated_Source\PSoC5/QuadDec_TILT_Cnt16.c **** /*******************************************************************************
 269:.\Generated_Source\PSoC5/QuadDec_TILT_Cnt16.c **** * Function Name: QuadDec_TILT_Cnt16_ReadControlRegister
 270:.\Generated_Source\PSoC5/QuadDec_TILT_Cnt16.c **** ********************************************************************************
 271:.\Generated_Source\PSoC5/QuadDec_TILT_Cnt16.c **** * Summary:
ARM GAS  C:\Users\Graziano\AppData\Local\Temp\cciCL2rR.s 			page 8


 272:.\Generated_Source\PSoC5/QuadDec_TILT_Cnt16.c **** *   Reads the control register and returns it's state. This function should use
 273:.\Generated_Source\PSoC5/QuadDec_TILT_Cnt16.c **** *       defined types for the bit-field information as the bits in this
 274:.\Generated_Source\PSoC5/QuadDec_TILT_Cnt16.c **** *       register may be permuteable.
 275:.\Generated_Source\PSoC5/QuadDec_TILT_Cnt16.c **** *
 276:.\Generated_Source\PSoC5/QuadDec_TILT_Cnt16.c **** * Parameters:  
 277:.\Generated_Source\PSoC5/QuadDec_TILT_Cnt16.c **** *  void
 278:.\Generated_Source\PSoC5/QuadDec_TILT_Cnt16.c **** *
 279:.\Generated_Source\PSoC5/QuadDec_TILT_Cnt16.c **** * Return: 
 280:.\Generated_Source\PSoC5/QuadDec_TILT_Cnt16.c **** *  (uint8) The contents of the control register
 281:.\Generated_Source\PSoC5/QuadDec_TILT_Cnt16.c **** *
 282:.\Generated_Source\PSoC5/QuadDec_TILT_Cnt16.c **** *******************************************************************************/
 283:.\Generated_Source\PSoC5/QuadDec_TILT_Cnt16.c **** uint8   QuadDec_TILT_Cnt16_ReadControlRegister(void) 
 284:.\Generated_Source\PSoC5/QuadDec_TILT_Cnt16.c **** {
 129              		.loc 1 284 0
 130              		.cfi_startproc
 131              		@ args = 0, pretend = 0, frame = 0
 132              		@ frame_needed = 0, uses_anonymous_args = 0
 133              		@ link register save eliminated.
 285:.\Generated_Source\PSoC5/QuadDec_TILT_Cnt16.c ****     return QuadDec_TILT_Cnt16_CONTROL;
 134              		.loc 1 285 0
 135 0000 014B     		ldr	r3, .L14
 136 0002 1878     		ldrb	r0, [r3, #0]	@ zero_extendqisi2
 286:.\Generated_Source\PSoC5/QuadDec_TILT_Cnt16.c **** }
 137              		.loc 1 286 0
 138 0004 7047     		bx	lr
 139              	.L15:
 140 0006 00BF     		.align	2
 141              	.L14:
 142 0008 76640040 		.word	1073767542
 143              		.cfi_endproc
 144              	.LFE6:
 145              		.size	QuadDec_TILT_Cnt16_ReadControlRegister, .-QuadDec_TILT_Cnt16_ReadControlRegister
 146              		.section	.text.QuadDec_TILT_Cnt16_WriteControlRegister,"ax",%progbits
 147              		.align	1
 148              		.global	QuadDec_TILT_Cnt16_WriteControlRegister
 149              		.thumb
 150              		.thumb_func
 151              		.type	QuadDec_TILT_Cnt16_WriteControlRegister, %function
 152              	QuadDec_TILT_Cnt16_WriteControlRegister:
 153              	.LFB7:
 287:.\Generated_Source\PSoC5/QuadDec_TILT_Cnt16.c **** 
 288:.\Generated_Source\PSoC5/QuadDec_TILT_Cnt16.c **** 
 289:.\Generated_Source\PSoC5/QuadDec_TILT_Cnt16.c **** /*******************************************************************************
 290:.\Generated_Source\PSoC5/QuadDec_TILT_Cnt16.c **** * Function Name: QuadDec_TILT_Cnt16_WriteControlRegister
 291:.\Generated_Source\PSoC5/QuadDec_TILT_Cnt16.c **** ********************************************************************************
 292:.\Generated_Source\PSoC5/QuadDec_TILT_Cnt16.c **** * Summary:
 293:.\Generated_Source\PSoC5/QuadDec_TILT_Cnt16.c **** *   Sets the bit-field of the control register.  This function should use
 294:.\Generated_Source\PSoC5/QuadDec_TILT_Cnt16.c **** *       defined types for the bit-field information as the bits in this
 295:.\Generated_Source\PSoC5/QuadDec_TILT_Cnt16.c **** *       register may be permuteable.
 296:.\Generated_Source\PSoC5/QuadDec_TILT_Cnt16.c **** *
 297:.\Generated_Source\PSoC5/QuadDec_TILT_Cnt16.c **** * Parameters:  
 298:.\Generated_Source\PSoC5/QuadDec_TILT_Cnt16.c **** *  void
 299:.\Generated_Source\PSoC5/QuadDec_TILT_Cnt16.c **** *
 300:.\Generated_Source\PSoC5/QuadDec_TILT_Cnt16.c **** * Return: 
 301:.\Generated_Source\PSoC5/QuadDec_TILT_Cnt16.c **** *  (uint8) The contents of the control register
 302:.\Generated_Source\PSoC5/QuadDec_TILT_Cnt16.c **** *
 303:.\Generated_Source\PSoC5/QuadDec_TILT_Cnt16.c **** *******************************************************************************/
ARM GAS  C:\Users\Graziano\AppData\Local\Temp\cciCL2rR.s 			page 9


 304:.\Generated_Source\PSoC5/QuadDec_TILT_Cnt16.c **** void    QuadDec_TILT_Cnt16_WriteControlRegister(uint8 control) 
 305:.\Generated_Source\PSoC5/QuadDec_TILT_Cnt16.c **** {
 154              		.loc 1 305 0
 155              		.cfi_startproc
 156              		@ args = 0, pretend = 0, frame = 0
 157              		@ frame_needed = 0, uses_anonymous_args = 0
 158              		@ link register save eliminated.
 159              	.LVL1:
 306:.\Generated_Source\PSoC5/QuadDec_TILT_Cnt16.c ****     QuadDec_TILT_Cnt16_CONTROL = control;
 160              		.loc 1 306 0
 161 0000 014B     		ldr	r3, .L17
 162 0002 1870     		strb	r0, [r3, #0]
 163 0004 7047     		bx	lr
 164              	.L18:
 165 0006 00BF     		.align	2
 166              	.L17:
 167 0008 76640040 		.word	1073767542
 168              		.cfi_endproc
 169              	.LFE7:
 170              		.size	QuadDec_TILT_Cnt16_WriteControlRegister, .-QuadDec_TILT_Cnt16_WriteControlRegister
 171              		.section	.text.QuadDec_TILT_Cnt16_WriteCounter,"ax",%progbits
 172              		.align	1
 173              		.global	QuadDec_TILT_Cnt16_WriteCounter
 174              		.thumb
 175              		.thumb_func
 176              		.type	QuadDec_TILT_Cnt16_WriteCounter, %function
 177              	QuadDec_TILT_Cnt16_WriteCounter:
 178              	.LFB8:
 307:.\Generated_Source\PSoC5/QuadDec_TILT_Cnt16.c **** }
 308:.\Generated_Source\PSoC5/QuadDec_TILT_Cnt16.c **** 
 309:.\Generated_Source\PSoC5/QuadDec_TILT_Cnt16.c **** #endif  /* (!QuadDec_TILT_Cnt16_ControlRegRemoved) */
 310:.\Generated_Source\PSoC5/QuadDec_TILT_Cnt16.c **** 
 311:.\Generated_Source\PSoC5/QuadDec_TILT_Cnt16.c **** 
 312:.\Generated_Source\PSoC5/QuadDec_TILT_Cnt16.c **** #if (!(QuadDec_TILT_Cnt16_UsingFixedFunction && (CY_PSOC5A)))
 313:.\Generated_Source\PSoC5/QuadDec_TILT_Cnt16.c **** /*******************************************************************************
 314:.\Generated_Source\PSoC5/QuadDec_TILT_Cnt16.c **** * Function Name: QuadDec_TILT_Cnt16_WriteCounter
 315:.\Generated_Source\PSoC5/QuadDec_TILT_Cnt16.c **** ********************************************************************************
 316:.\Generated_Source\PSoC5/QuadDec_TILT_Cnt16.c **** * Summary:
 317:.\Generated_Source\PSoC5/QuadDec_TILT_Cnt16.c **** *   This funtion is used to set the counter to a specific value
 318:.\Generated_Source\PSoC5/QuadDec_TILT_Cnt16.c **** *
 319:.\Generated_Source\PSoC5/QuadDec_TILT_Cnt16.c **** * Parameters:  
 320:.\Generated_Source\PSoC5/QuadDec_TILT_Cnt16.c **** *  counter:  New counter value. 
 321:.\Generated_Source\PSoC5/QuadDec_TILT_Cnt16.c **** *
 322:.\Generated_Source\PSoC5/QuadDec_TILT_Cnt16.c **** * Return: 
 323:.\Generated_Source\PSoC5/QuadDec_TILT_Cnt16.c **** *  void 
 324:.\Generated_Source\PSoC5/QuadDec_TILT_Cnt16.c **** *
 325:.\Generated_Source\PSoC5/QuadDec_TILT_Cnt16.c **** *******************************************************************************/
 326:.\Generated_Source\PSoC5/QuadDec_TILT_Cnt16.c **** void QuadDec_TILT_Cnt16_WriteCounter(uint16 counter) \
 327:.\Generated_Source\PSoC5/QuadDec_TILT_Cnt16.c ****                                    
 328:.\Generated_Source\PSoC5/QuadDec_TILT_Cnt16.c **** {
 179              		.loc 1 328 0
 180              		.cfi_startproc
 181              		@ args = 0, pretend = 0, frame = 0
 182              		@ frame_needed = 0, uses_anonymous_args = 0
 183              		@ link register save eliminated.
 184              	.LVL2:
 329:.\Generated_Source\PSoC5/QuadDec_TILT_Cnt16.c ****     #if(QuadDec_TILT_Cnt16_UsingFixedFunction)
ARM GAS  C:\Users\Graziano\AppData\Local\Temp\cciCL2rR.s 			page 10


 330:.\Generated_Source\PSoC5/QuadDec_TILT_Cnt16.c ****         /* assert if block is already enabled */
 331:.\Generated_Source\PSoC5/QuadDec_TILT_Cnt16.c ****         CYASSERT (0u == (QuadDec_TILT_Cnt16_GLOBAL_ENABLE & QuadDec_TILT_Cnt16_BLOCK_EN_MASK));
 332:.\Generated_Source\PSoC5/QuadDec_TILT_Cnt16.c ****         /* If block is disabled, enable it and then write the counter */
 333:.\Generated_Source\PSoC5/QuadDec_TILT_Cnt16.c ****         QuadDec_TILT_Cnt16_GLOBAL_ENABLE |= QuadDec_TILT_Cnt16_BLOCK_EN_MASK;
 334:.\Generated_Source\PSoC5/QuadDec_TILT_Cnt16.c ****         CY_SET_REG16(QuadDec_TILT_Cnt16_COUNTER_LSB_PTR, (uint16)counter);
 335:.\Generated_Source\PSoC5/QuadDec_TILT_Cnt16.c ****         QuadDec_TILT_Cnt16_GLOBAL_ENABLE &= ((uint8)(~QuadDec_TILT_Cnt16_BLOCK_EN_MASK));
 336:.\Generated_Source\PSoC5/QuadDec_TILT_Cnt16.c ****     #else
 337:.\Generated_Source\PSoC5/QuadDec_TILT_Cnt16.c ****         CY_SET_REG16(QuadDec_TILT_Cnt16_COUNTER_LSB_PTR, counter);
 185              		.loc 1 337 0
 186 0000 014B     		ldr	r3, .L20
 187 0002 1880     		strh	r0, [r3, #0]	@ movhi
 188 0004 7047     		bx	lr
 189              	.L21:
 190 0006 00BF     		.align	2
 191              	.L20:
 192 0008 0C680040 		.word	1073768460
 193              		.cfi_endproc
 194              	.LFE8:
 195              		.size	QuadDec_TILT_Cnt16_WriteCounter, .-QuadDec_TILT_Cnt16_WriteCounter
 196              		.section	.text.QuadDec_TILT_Cnt16_ReadCounter,"ax",%progbits
 197              		.align	1
 198              		.global	QuadDec_TILT_Cnt16_ReadCounter
 199              		.thumb
 200              		.thumb_func
 201              		.type	QuadDec_TILT_Cnt16_ReadCounter, %function
 202              	QuadDec_TILT_Cnt16_ReadCounter:
 203              	.LFB9:
 338:.\Generated_Source\PSoC5/QuadDec_TILT_Cnt16.c ****     #endif /* (QuadDec_TILT_Cnt16_UsingFixedFunction) */
 339:.\Generated_Source\PSoC5/QuadDec_TILT_Cnt16.c **** }
 340:.\Generated_Source\PSoC5/QuadDec_TILT_Cnt16.c **** #endif /* (!(QuadDec_TILT_Cnt16_UsingFixedFunction && (CY_PSOC5A))) */
 341:.\Generated_Source\PSoC5/QuadDec_TILT_Cnt16.c **** 
 342:.\Generated_Source\PSoC5/QuadDec_TILT_Cnt16.c **** 
 343:.\Generated_Source\PSoC5/QuadDec_TILT_Cnt16.c **** /*******************************************************************************
 344:.\Generated_Source\PSoC5/QuadDec_TILT_Cnt16.c **** * Function Name: QuadDec_TILT_Cnt16_ReadCounter
 345:.\Generated_Source\PSoC5/QuadDec_TILT_Cnt16.c **** ********************************************************************************
 346:.\Generated_Source\PSoC5/QuadDec_TILT_Cnt16.c **** * Summary:
 347:.\Generated_Source\PSoC5/QuadDec_TILT_Cnt16.c **** * Returns the current value of the counter.  It doesn't matter
 348:.\Generated_Source\PSoC5/QuadDec_TILT_Cnt16.c **** * if the counter is enabled or running.
 349:.\Generated_Source\PSoC5/QuadDec_TILT_Cnt16.c **** *
 350:.\Generated_Source\PSoC5/QuadDec_TILT_Cnt16.c **** * Parameters:  
 351:.\Generated_Source\PSoC5/QuadDec_TILT_Cnt16.c **** *  void:  
 352:.\Generated_Source\PSoC5/QuadDec_TILT_Cnt16.c **** *
 353:.\Generated_Source\PSoC5/QuadDec_TILT_Cnt16.c **** * Return: 
 354:.\Generated_Source\PSoC5/QuadDec_TILT_Cnt16.c **** *  (uint16) The present value of the counter.
 355:.\Generated_Source\PSoC5/QuadDec_TILT_Cnt16.c **** *
 356:.\Generated_Source\PSoC5/QuadDec_TILT_Cnt16.c **** *******************************************************************************/
 357:.\Generated_Source\PSoC5/QuadDec_TILT_Cnt16.c **** uint16 QuadDec_TILT_Cnt16_ReadCounter(void) 
 358:.\Generated_Source\PSoC5/QuadDec_TILT_Cnt16.c **** {
 204              		.loc 1 358 0
 205              		.cfi_startproc
 206              		@ args = 0, pretend = 0, frame = 0
 207              		@ frame_needed = 0, uses_anonymous_args = 0
 208              		@ link register save eliminated.
 359:.\Generated_Source\PSoC5/QuadDec_TILT_Cnt16.c ****     /* Force capture by reading Accumulator */
 360:.\Generated_Source\PSoC5/QuadDec_TILT_Cnt16.c ****     /* Must first do a software capture to be able to read the counter */
 361:.\Generated_Source\PSoC5/QuadDec_TILT_Cnt16.c ****     /* It is up to the user code to make sure there isn't already captured data in the FIFO */
 362:.\Generated_Source\PSoC5/QuadDec_TILT_Cnt16.c ****     #if(QuadDec_TILT_Cnt16_UsingFixedFunction)
ARM GAS  C:\Users\Graziano\AppData\Local\Temp\cciCL2rR.s 			page 11


 363:.\Generated_Source\PSoC5/QuadDec_TILT_Cnt16.c **** 		(void)CY_GET_REG16(QuadDec_TILT_Cnt16_COUNTER_LSB_PTR);
 364:.\Generated_Source\PSoC5/QuadDec_TILT_Cnt16.c **** 	#else
 365:.\Generated_Source\PSoC5/QuadDec_TILT_Cnt16.c **** 		(void)CY_GET_REG8(QuadDec_TILT_Cnt16_COUNTER_LSB_PTR_8BIT);
 366:.\Generated_Source\PSoC5/QuadDec_TILT_Cnt16.c **** 	#endif/* (QuadDec_TILT_Cnt16_UsingFixedFunction) */
 367:.\Generated_Source\PSoC5/QuadDec_TILT_Cnt16.c ****     
 368:.\Generated_Source\PSoC5/QuadDec_TILT_Cnt16.c ****     /* Read the data from the FIFO (or capture register for Fixed Function)*/
 369:.\Generated_Source\PSoC5/QuadDec_TILT_Cnt16.c ****     #if(QuadDec_TILT_Cnt16_UsingFixedFunction)
 370:.\Generated_Source\PSoC5/QuadDec_TILT_Cnt16.c ****         return ((uint16)CY_GET_REG16(QuadDec_TILT_Cnt16_STATICCOUNT_LSB_PTR));
 371:.\Generated_Source\PSoC5/QuadDec_TILT_Cnt16.c ****     #else
 372:.\Generated_Source\PSoC5/QuadDec_TILT_Cnt16.c ****         return (CY_GET_REG16(QuadDec_TILT_Cnt16_STATICCOUNT_LSB_PTR));
 209              		.loc 1 372 0
 210 0000 0248     		ldr	r0, .L23
 365:.\Generated_Source\PSoC5/QuadDec_TILT_Cnt16.c **** 		(void)CY_GET_REG8(QuadDec_TILT_Cnt16_COUNTER_LSB_PTR_8BIT);
 211              		.loc 1 365 0
 212 0002 034B     		ldr	r3, .L23+4
 213 0004 1B78     		ldrb	r3, [r3, #0]	@ zero_extendqisi2
 214              		.loc 1 372 0
 215 0006 0188     		ldrh	r1, [r0, #0]
 373:.\Generated_Source\PSoC5/QuadDec_TILT_Cnt16.c ****     #endif /* (QuadDec_TILT_Cnt16_UsingFixedFunction) */
 374:.\Generated_Source\PSoC5/QuadDec_TILT_Cnt16.c **** }
 216              		.loc 1 374 0
 217 0008 88B2     		uxth	r0, r1
 218 000a 7047     		bx	lr
 219              	.L24:
 220              		.align	2
 221              	.L23:
 222 000c 8C680040 		.word	1073768588
 223 0010 06640040 		.word	1073767430
 224              		.cfi_endproc
 225              	.LFE9:
 226              		.size	QuadDec_TILT_Cnt16_ReadCounter, .-QuadDec_TILT_Cnt16_ReadCounter
 227              		.section	.text.QuadDec_TILT_Cnt16_ReadCapture,"ax",%progbits
 228              		.align	1
 229              		.global	QuadDec_TILT_Cnt16_ReadCapture
 230              		.thumb
 231              		.thumb_func
 232              		.type	QuadDec_TILT_Cnt16_ReadCapture, %function
 233              	QuadDec_TILT_Cnt16_ReadCapture:
 234              	.LFB10:
 375:.\Generated_Source\PSoC5/QuadDec_TILT_Cnt16.c **** 
 376:.\Generated_Source\PSoC5/QuadDec_TILT_Cnt16.c **** 
 377:.\Generated_Source\PSoC5/QuadDec_TILT_Cnt16.c **** /*******************************************************************************
 378:.\Generated_Source\PSoC5/QuadDec_TILT_Cnt16.c **** * Function Name: QuadDec_TILT_Cnt16_ReadCapture
 379:.\Generated_Source\PSoC5/QuadDec_TILT_Cnt16.c **** ********************************************************************************
 380:.\Generated_Source\PSoC5/QuadDec_TILT_Cnt16.c **** * Summary:
 381:.\Generated_Source\PSoC5/QuadDec_TILT_Cnt16.c **** *   This function returns the last value captured.
 382:.\Generated_Source\PSoC5/QuadDec_TILT_Cnt16.c **** *
 383:.\Generated_Source\PSoC5/QuadDec_TILT_Cnt16.c **** * Parameters:  
 384:.\Generated_Source\PSoC5/QuadDec_TILT_Cnt16.c **** *  void
 385:.\Generated_Source\PSoC5/QuadDec_TILT_Cnt16.c **** *
 386:.\Generated_Source\PSoC5/QuadDec_TILT_Cnt16.c **** * Return: 
 387:.\Generated_Source\PSoC5/QuadDec_TILT_Cnt16.c **** *  (uint16) Present Capture value.
 388:.\Generated_Source\PSoC5/QuadDec_TILT_Cnt16.c **** *
 389:.\Generated_Source\PSoC5/QuadDec_TILT_Cnt16.c **** *******************************************************************************/
 390:.\Generated_Source\PSoC5/QuadDec_TILT_Cnt16.c **** uint16 QuadDec_TILT_Cnt16_ReadCapture(void) 
 391:.\Generated_Source\PSoC5/QuadDec_TILT_Cnt16.c **** {
 235              		.loc 1 391 0
ARM GAS  C:\Users\Graziano\AppData\Local\Temp\cciCL2rR.s 			page 12


 236              		.cfi_startproc
 237              		@ args = 0, pretend = 0, frame = 0
 238              		@ frame_needed = 0, uses_anonymous_args = 0
 239              		@ link register save eliminated.
 392:.\Generated_Source\PSoC5/QuadDec_TILT_Cnt16.c ****     #if(QuadDec_TILT_Cnt16_UsingFixedFunction)
 393:.\Generated_Source\PSoC5/QuadDec_TILT_Cnt16.c ****         return ((uint16)CY_GET_REG16(QuadDec_TILT_Cnt16_STATICCOUNT_LSB_PTR));
 394:.\Generated_Source\PSoC5/QuadDec_TILT_Cnt16.c ****     #else
 395:.\Generated_Source\PSoC5/QuadDec_TILT_Cnt16.c ****         return (CY_GET_REG16(QuadDec_TILT_Cnt16_STATICCOUNT_LSB_PTR));
 240              		.loc 1 395 0
 241 0000 014B     		ldr	r3, .L26
 242 0002 1888     		ldrh	r0, [r3, #0]
 396:.\Generated_Source\PSoC5/QuadDec_TILT_Cnt16.c ****     #endif /* (QuadDec_TILT_Cnt16_UsingFixedFunction) */
 397:.\Generated_Source\PSoC5/QuadDec_TILT_Cnt16.c **** }
 243              		.loc 1 397 0
 244 0004 80B2     		uxth	r0, r0
 245 0006 7047     		bx	lr
 246              	.L27:
 247              		.align	2
 248              	.L26:
 249 0008 8C680040 		.word	1073768588
 250              		.cfi_endproc
 251              	.LFE10:
 252              		.size	QuadDec_TILT_Cnt16_ReadCapture, .-QuadDec_TILT_Cnt16_ReadCapture
 253              		.section	.text.QuadDec_TILT_Cnt16_WritePeriod,"ax",%progbits
 254              		.align	1
 255              		.global	QuadDec_TILT_Cnt16_WritePeriod
 256              		.thumb
 257              		.thumb_func
 258              		.type	QuadDec_TILT_Cnt16_WritePeriod, %function
 259              	QuadDec_TILT_Cnt16_WritePeriod:
 260              	.LFB11:
 398:.\Generated_Source\PSoC5/QuadDec_TILT_Cnt16.c **** 
 399:.\Generated_Source\PSoC5/QuadDec_TILT_Cnt16.c **** 
 400:.\Generated_Source\PSoC5/QuadDec_TILT_Cnt16.c **** /*******************************************************************************
 401:.\Generated_Source\PSoC5/QuadDec_TILT_Cnt16.c **** * Function Name: QuadDec_TILT_Cnt16_WritePeriod
 402:.\Generated_Source\PSoC5/QuadDec_TILT_Cnt16.c **** ********************************************************************************
 403:.\Generated_Source\PSoC5/QuadDec_TILT_Cnt16.c **** * Summary:
 404:.\Generated_Source\PSoC5/QuadDec_TILT_Cnt16.c **** * Changes the period of the counter.  The new period 
 405:.\Generated_Source\PSoC5/QuadDec_TILT_Cnt16.c **** * will be loaded the next time terminal count is detected.
 406:.\Generated_Source\PSoC5/QuadDec_TILT_Cnt16.c **** *
 407:.\Generated_Source\PSoC5/QuadDec_TILT_Cnt16.c **** * Parameters:  
 408:.\Generated_Source\PSoC5/QuadDec_TILT_Cnt16.c **** *  period: (uint16) A value of 0 will result in
 409:.\Generated_Source\PSoC5/QuadDec_TILT_Cnt16.c **** *         the counter remaining at zero.  
 410:.\Generated_Source\PSoC5/QuadDec_TILT_Cnt16.c **** *
 411:.\Generated_Source\PSoC5/QuadDec_TILT_Cnt16.c **** * Return: 
 412:.\Generated_Source\PSoC5/QuadDec_TILT_Cnt16.c **** *  void
 413:.\Generated_Source\PSoC5/QuadDec_TILT_Cnt16.c **** *
 414:.\Generated_Source\PSoC5/QuadDec_TILT_Cnt16.c **** *******************************************************************************/
 415:.\Generated_Source\PSoC5/QuadDec_TILT_Cnt16.c **** void QuadDec_TILT_Cnt16_WritePeriod(uint16 period) 
 416:.\Generated_Source\PSoC5/QuadDec_TILT_Cnt16.c **** {
 261              		.loc 1 416 0
 262              		.cfi_startproc
 263              		@ args = 0, pretend = 0, frame = 0
 264              		@ frame_needed = 0, uses_anonymous_args = 0
 265              		@ link register save eliminated.
 266              	.LVL3:
 417:.\Generated_Source\PSoC5/QuadDec_TILT_Cnt16.c ****     #if(QuadDec_TILT_Cnt16_UsingFixedFunction)
ARM GAS  C:\Users\Graziano\AppData\Local\Temp\cciCL2rR.s 			page 13


 418:.\Generated_Source\PSoC5/QuadDec_TILT_Cnt16.c ****         CY_SET_REG16(QuadDec_TILT_Cnt16_PERIOD_LSB_PTR,(uint16)period);
 419:.\Generated_Source\PSoC5/QuadDec_TILT_Cnt16.c ****     #else
 420:.\Generated_Source\PSoC5/QuadDec_TILT_Cnt16.c ****         CY_SET_REG16(QuadDec_TILT_Cnt16_PERIOD_LSB_PTR, period);
 267              		.loc 1 420 0
 268 0000 014B     		ldr	r3, .L29
 269 0002 1880     		strh	r0, [r3, #0]	@ movhi
 270 0004 7047     		bx	lr
 271              	.L30:
 272 0006 00BF     		.align	2
 273              	.L29:
 274 0008 4C680040 		.word	1073768524
 275              		.cfi_endproc
 276              	.LFE11:
 277              		.size	QuadDec_TILT_Cnt16_WritePeriod, .-QuadDec_TILT_Cnt16_WritePeriod
 278              		.section	.text.QuadDec_TILT_Cnt16_ReadPeriod,"ax",%progbits
 279              		.align	1
 280              		.global	QuadDec_TILT_Cnt16_ReadPeriod
 281              		.thumb
 282              		.thumb_func
 283              		.type	QuadDec_TILT_Cnt16_ReadPeriod, %function
 284              	QuadDec_TILT_Cnt16_ReadPeriod:
 285              	.LFB12:
 421:.\Generated_Source\PSoC5/QuadDec_TILT_Cnt16.c ****     #endif /* (QuadDec_TILT_Cnt16_UsingFixedFunction) */
 422:.\Generated_Source\PSoC5/QuadDec_TILT_Cnt16.c **** }
 423:.\Generated_Source\PSoC5/QuadDec_TILT_Cnt16.c **** 
 424:.\Generated_Source\PSoC5/QuadDec_TILT_Cnt16.c **** 
 425:.\Generated_Source\PSoC5/QuadDec_TILT_Cnt16.c **** /*******************************************************************************
 426:.\Generated_Source\PSoC5/QuadDec_TILT_Cnt16.c **** * Function Name: QuadDec_TILT_Cnt16_ReadPeriod
 427:.\Generated_Source\PSoC5/QuadDec_TILT_Cnt16.c **** ********************************************************************************
 428:.\Generated_Source\PSoC5/QuadDec_TILT_Cnt16.c **** * Summary:
 429:.\Generated_Source\PSoC5/QuadDec_TILT_Cnt16.c **** * Reads the current period value without affecting counter operation.
 430:.\Generated_Source\PSoC5/QuadDec_TILT_Cnt16.c **** *
 431:.\Generated_Source\PSoC5/QuadDec_TILT_Cnt16.c **** * Parameters:  
 432:.\Generated_Source\PSoC5/QuadDec_TILT_Cnt16.c **** *  void:  
 433:.\Generated_Source\PSoC5/QuadDec_TILT_Cnt16.c **** *
 434:.\Generated_Source\PSoC5/QuadDec_TILT_Cnt16.c **** * Return: 
 435:.\Generated_Source\PSoC5/QuadDec_TILT_Cnt16.c **** *  (uint16) Present period value.
 436:.\Generated_Source\PSoC5/QuadDec_TILT_Cnt16.c **** *
 437:.\Generated_Source\PSoC5/QuadDec_TILT_Cnt16.c **** *******************************************************************************/
 438:.\Generated_Source\PSoC5/QuadDec_TILT_Cnt16.c **** uint16 QuadDec_TILT_Cnt16_ReadPeriod(void) 
 439:.\Generated_Source\PSoC5/QuadDec_TILT_Cnt16.c **** {
 286              		.loc 1 439 0
 287              		.cfi_startproc
 288              		@ args = 0, pretend = 0, frame = 0
 289              		@ frame_needed = 0, uses_anonymous_args = 0
 290              		@ link register save eliminated.
 440:.\Generated_Source\PSoC5/QuadDec_TILT_Cnt16.c ****     #if(QuadDec_TILT_Cnt16_UsingFixedFunction)
 441:.\Generated_Source\PSoC5/QuadDec_TILT_Cnt16.c ****         return ((uint16)CY_GET_REG16(QuadDec_TILT_Cnt16_PERIOD_LSB_PTR));
 442:.\Generated_Source\PSoC5/QuadDec_TILT_Cnt16.c ****     #else
 443:.\Generated_Source\PSoC5/QuadDec_TILT_Cnt16.c ****         return (CY_GET_REG16(QuadDec_TILT_Cnt16_PERIOD_LSB_PTR));
 291              		.loc 1 443 0
 292 0000 014B     		ldr	r3, .L32
 293 0002 1888     		ldrh	r0, [r3, #0]
 444:.\Generated_Source\PSoC5/QuadDec_TILT_Cnt16.c ****     #endif /* (QuadDec_TILT_Cnt16_UsingFixedFunction) */
 445:.\Generated_Source\PSoC5/QuadDec_TILT_Cnt16.c **** }
 294              		.loc 1 445 0
 295 0004 80B2     		uxth	r0, r0
ARM GAS  C:\Users\Graziano\AppData\Local\Temp\cciCL2rR.s 			page 14


 296 0006 7047     		bx	lr
 297              	.L33:
 298              		.align	2
 299              	.L32:
 300 0008 4C680040 		.word	1073768524
 301              		.cfi_endproc
 302              	.LFE12:
 303              		.size	QuadDec_TILT_Cnt16_ReadPeriod, .-QuadDec_TILT_Cnt16_ReadPeriod
 304              		.section	.text.QuadDec_TILT_Cnt16_WriteCompare,"ax",%progbits
 305              		.align	1
 306              		.global	QuadDec_TILT_Cnt16_WriteCompare
 307              		.thumb
 308              		.thumb_func
 309              		.type	QuadDec_TILT_Cnt16_WriteCompare, %function
 310              	QuadDec_TILT_Cnt16_WriteCompare:
 311              	.LFB13:
 446:.\Generated_Source\PSoC5/QuadDec_TILT_Cnt16.c **** 
 447:.\Generated_Source\PSoC5/QuadDec_TILT_Cnt16.c **** 
 448:.\Generated_Source\PSoC5/QuadDec_TILT_Cnt16.c **** #if (!QuadDec_TILT_Cnt16_UsingFixedFunction)
 449:.\Generated_Source\PSoC5/QuadDec_TILT_Cnt16.c **** /*******************************************************************************
 450:.\Generated_Source\PSoC5/QuadDec_TILT_Cnt16.c **** * Function Name: QuadDec_TILT_Cnt16_WriteCompare
 451:.\Generated_Source\PSoC5/QuadDec_TILT_Cnt16.c **** ********************************************************************************
 452:.\Generated_Source\PSoC5/QuadDec_TILT_Cnt16.c **** * Summary:
 453:.\Generated_Source\PSoC5/QuadDec_TILT_Cnt16.c **** * Changes the compare value.  The compare output will 
 454:.\Generated_Source\PSoC5/QuadDec_TILT_Cnt16.c **** * reflect the new value on the next UDB clock.  The compare output will be 
 455:.\Generated_Source\PSoC5/QuadDec_TILT_Cnt16.c **** * driven high when the present counter value compares true based on the 
 456:.\Generated_Source\PSoC5/QuadDec_TILT_Cnt16.c **** * configured compare mode setting. 
 457:.\Generated_Source\PSoC5/QuadDec_TILT_Cnt16.c **** *
 458:.\Generated_Source\PSoC5/QuadDec_TILT_Cnt16.c **** * Parameters:  
 459:.\Generated_Source\PSoC5/QuadDec_TILT_Cnt16.c **** *  Compare:  New compare value. 
 460:.\Generated_Source\PSoC5/QuadDec_TILT_Cnt16.c **** *
 461:.\Generated_Source\PSoC5/QuadDec_TILT_Cnt16.c **** * Return: 
 462:.\Generated_Source\PSoC5/QuadDec_TILT_Cnt16.c **** *  void
 463:.\Generated_Source\PSoC5/QuadDec_TILT_Cnt16.c **** *
 464:.\Generated_Source\PSoC5/QuadDec_TILT_Cnt16.c **** *******************************************************************************/
 465:.\Generated_Source\PSoC5/QuadDec_TILT_Cnt16.c **** void QuadDec_TILT_Cnt16_WriteCompare(uint16 compare) \
 466:.\Generated_Source\PSoC5/QuadDec_TILT_Cnt16.c ****                                    
 467:.\Generated_Source\PSoC5/QuadDec_TILT_Cnt16.c **** {
 312              		.loc 1 467 0
 313              		.cfi_startproc
 314              		@ args = 0, pretend = 0, frame = 0
 315              		@ frame_needed = 0, uses_anonymous_args = 0
 316              		@ link register save eliminated.
 317              	.LVL4:
 468:.\Generated_Source\PSoC5/QuadDec_TILT_Cnt16.c ****     #if(QuadDec_TILT_Cnt16_UsingFixedFunction)
 469:.\Generated_Source\PSoC5/QuadDec_TILT_Cnt16.c ****         CY_SET_REG16(QuadDec_TILT_Cnt16_COMPARE_LSB_PTR, (uint16)compare);
 470:.\Generated_Source\PSoC5/QuadDec_TILT_Cnt16.c ****     #else
 471:.\Generated_Source\PSoC5/QuadDec_TILT_Cnt16.c ****         CY_SET_REG16(QuadDec_TILT_Cnt16_COMPARE_LSB_PTR, compare);
 318              		.loc 1 471 0
 319 0000 014B     		ldr	r3, .L35
 320 0002 1880     		strh	r0, [r3, #0]	@ movhi
 321 0004 7047     		bx	lr
 322              	.L36:
 323 0006 00BF     		.align	2
 324              	.L35:
 325 0008 6C680040 		.word	1073768556
 326              		.cfi_endproc
ARM GAS  C:\Users\Graziano\AppData\Local\Temp\cciCL2rR.s 			page 15


 327              	.LFE13:
 328              		.size	QuadDec_TILT_Cnt16_WriteCompare, .-QuadDec_TILT_Cnt16_WriteCompare
 329              		.section	.text.QuadDec_TILT_Cnt16_ReadCompare,"ax",%progbits
 330              		.align	1
 331              		.global	QuadDec_TILT_Cnt16_ReadCompare
 332              		.thumb
 333              		.thumb_func
 334              		.type	QuadDec_TILT_Cnt16_ReadCompare, %function
 335              	QuadDec_TILT_Cnt16_ReadCompare:
 336              	.LFB14:
 472:.\Generated_Source\PSoC5/QuadDec_TILT_Cnt16.c ****     #endif /* (QuadDec_TILT_Cnt16_UsingFixedFunction) */
 473:.\Generated_Source\PSoC5/QuadDec_TILT_Cnt16.c **** }
 474:.\Generated_Source\PSoC5/QuadDec_TILT_Cnt16.c **** 
 475:.\Generated_Source\PSoC5/QuadDec_TILT_Cnt16.c **** 
 476:.\Generated_Source\PSoC5/QuadDec_TILT_Cnt16.c **** /*******************************************************************************
 477:.\Generated_Source\PSoC5/QuadDec_TILT_Cnt16.c **** * Function Name: QuadDec_TILT_Cnt16_ReadCompare
 478:.\Generated_Source\PSoC5/QuadDec_TILT_Cnt16.c **** ********************************************************************************
 479:.\Generated_Source\PSoC5/QuadDec_TILT_Cnt16.c **** * Summary:
 480:.\Generated_Source\PSoC5/QuadDec_TILT_Cnt16.c **** * Returns the compare value.
 481:.\Generated_Source\PSoC5/QuadDec_TILT_Cnt16.c **** *
 482:.\Generated_Source\PSoC5/QuadDec_TILT_Cnt16.c **** * Parameters:  
 483:.\Generated_Source\PSoC5/QuadDec_TILT_Cnt16.c **** *  void:
 484:.\Generated_Source\PSoC5/QuadDec_TILT_Cnt16.c **** *
 485:.\Generated_Source\PSoC5/QuadDec_TILT_Cnt16.c **** * Return: 
 486:.\Generated_Source\PSoC5/QuadDec_TILT_Cnt16.c **** *  (uint16) Present compare value.
 487:.\Generated_Source\PSoC5/QuadDec_TILT_Cnt16.c **** *
 488:.\Generated_Source\PSoC5/QuadDec_TILT_Cnt16.c **** *******************************************************************************/
 489:.\Generated_Source\PSoC5/QuadDec_TILT_Cnt16.c **** uint16 QuadDec_TILT_Cnt16_ReadCompare(void) 
 490:.\Generated_Source\PSoC5/QuadDec_TILT_Cnt16.c **** {
 337              		.loc 1 490 0
 338              		.cfi_startproc
 339              		@ args = 0, pretend = 0, frame = 0
 340              		@ frame_needed = 0, uses_anonymous_args = 0
 341              		@ link register save eliminated.
 491:.\Generated_Source\PSoC5/QuadDec_TILT_Cnt16.c ****     return (CY_GET_REG16(QuadDec_TILT_Cnt16_COMPARE_LSB_PTR));
 342              		.loc 1 491 0
 343 0000 014B     		ldr	r3, .L38
 344 0002 1888     		ldrh	r0, [r3, #0]
 492:.\Generated_Source\PSoC5/QuadDec_TILT_Cnt16.c **** }
 345              		.loc 1 492 0
 346 0004 80B2     		uxth	r0, r0
 347 0006 7047     		bx	lr
 348              	.L39:
 349              		.align	2
 350              	.L38:
 351 0008 6C680040 		.word	1073768556
 352              		.cfi_endproc
 353              	.LFE14:
 354              		.size	QuadDec_TILT_Cnt16_ReadCompare, .-QuadDec_TILT_Cnt16_ReadCompare
 355              		.section	.text.QuadDec_TILT_Cnt16_ClearFIFO,"ax",%progbits
 356              		.align	1
 357              		.global	QuadDec_TILT_Cnt16_ClearFIFO
 358              		.thumb
 359              		.thumb_func
 360              		.type	QuadDec_TILT_Cnt16_ClearFIFO, %function
 361              	QuadDec_TILT_Cnt16_ClearFIFO:
 362              	.LFB15:
ARM GAS  C:\Users\Graziano\AppData\Local\Temp\cciCL2rR.s 			page 16


 493:.\Generated_Source\PSoC5/QuadDec_TILT_Cnt16.c **** 
 494:.\Generated_Source\PSoC5/QuadDec_TILT_Cnt16.c **** 
 495:.\Generated_Source\PSoC5/QuadDec_TILT_Cnt16.c **** #if (QuadDec_TILT_Cnt16_COMPARE_MODE_SOFTWARE)
 496:.\Generated_Source\PSoC5/QuadDec_TILT_Cnt16.c **** /*******************************************************************************
 497:.\Generated_Source\PSoC5/QuadDec_TILT_Cnt16.c **** * Function Name: QuadDec_TILT_Cnt16_SetCompareMode
 498:.\Generated_Source\PSoC5/QuadDec_TILT_Cnt16.c **** ********************************************************************************
 499:.\Generated_Source\PSoC5/QuadDec_TILT_Cnt16.c **** * Summary:
 500:.\Generated_Source\PSoC5/QuadDec_TILT_Cnt16.c **** *  Sets the software controlled Compare Mode.
 501:.\Generated_Source\PSoC5/QuadDec_TILT_Cnt16.c **** *
 502:.\Generated_Source\PSoC5/QuadDec_TILT_Cnt16.c **** * Parameters:
 503:.\Generated_Source\PSoC5/QuadDec_TILT_Cnt16.c **** *  compareMode:  Compare Mode Enumerated Type.
 504:.\Generated_Source\PSoC5/QuadDec_TILT_Cnt16.c **** *
 505:.\Generated_Source\PSoC5/QuadDec_TILT_Cnt16.c **** * Return:
 506:.\Generated_Source\PSoC5/QuadDec_TILT_Cnt16.c **** *  void
 507:.\Generated_Source\PSoC5/QuadDec_TILT_Cnt16.c **** *
 508:.\Generated_Source\PSoC5/QuadDec_TILT_Cnt16.c **** *******************************************************************************/
 509:.\Generated_Source\PSoC5/QuadDec_TILT_Cnt16.c **** void QuadDec_TILT_Cnt16_SetCompareMode(uint8 compareMode) 
 510:.\Generated_Source\PSoC5/QuadDec_TILT_Cnt16.c **** {
 511:.\Generated_Source\PSoC5/QuadDec_TILT_Cnt16.c ****     /* Clear the compare mode bits in the control register */
 512:.\Generated_Source\PSoC5/QuadDec_TILT_Cnt16.c ****     QuadDec_TILT_Cnt16_CONTROL &= ((uint8)(~QuadDec_TILT_Cnt16_CTRL_CMPMODE_MASK));
 513:.\Generated_Source\PSoC5/QuadDec_TILT_Cnt16.c ****     
 514:.\Generated_Source\PSoC5/QuadDec_TILT_Cnt16.c ****     /* Write the new setting */
 515:.\Generated_Source\PSoC5/QuadDec_TILT_Cnt16.c ****     QuadDec_TILT_Cnt16_CONTROL |= compareMode;
 516:.\Generated_Source\PSoC5/QuadDec_TILT_Cnt16.c **** }
 517:.\Generated_Source\PSoC5/QuadDec_TILT_Cnt16.c **** #endif  /* (QuadDec_TILT_Cnt16_COMPARE_MODE_SOFTWARE) */
 518:.\Generated_Source\PSoC5/QuadDec_TILT_Cnt16.c **** 
 519:.\Generated_Source\PSoC5/QuadDec_TILT_Cnt16.c **** 
 520:.\Generated_Source\PSoC5/QuadDec_TILT_Cnt16.c **** #if (QuadDec_TILT_Cnt16_CAPTURE_MODE_SOFTWARE)
 521:.\Generated_Source\PSoC5/QuadDec_TILT_Cnt16.c **** /*******************************************************************************
 522:.\Generated_Source\PSoC5/QuadDec_TILT_Cnt16.c **** * Function Name: QuadDec_TILT_Cnt16_SetCaptureMode
 523:.\Generated_Source\PSoC5/QuadDec_TILT_Cnt16.c **** ********************************************************************************
 524:.\Generated_Source\PSoC5/QuadDec_TILT_Cnt16.c **** * Summary:
 525:.\Generated_Source\PSoC5/QuadDec_TILT_Cnt16.c **** *  Sets the software controlled Capture Mode.
 526:.\Generated_Source\PSoC5/QuadDec_TILT_Cnt16.c **** *
 527:.\Generated_Source\PSoC5/QuadDec_TILT_Cnt16.c **** * Parameters:
 528:.\Generated_Source\PSoC5/QuadDec_TILT_Cnt16.c **** *  captureMode:  Capture Mode Enumerated Type.
 529:.\Generated_Source\PSoC5/QuadDec_TILT_Cnt16.c **** *
 530:.\Generated_Source\PSoC5/QuadDec_TILT_Cnt16.c **** * Return:
 531:.\Generated_Source\PSoC5/QuadDec_TILT_Cnt16.c **** *  void
 532:.\Generated_Source\PSoC5/QuadDec_TILT_Cnt16.c **** *
 533:.\Generated_Source\PSoC5/QuadDec_TILT_Cnt16.c **** *******************************************************************************/
 534:.\Generated_Source\PSoC5/QuadDec_TILT_Cnt16.c **** void QuadDec_TILT_Cnt16_SetCaptureMode(uint8 captureMode) 
 535:.\Generated_Source\PSoC5/QuadDec_TILT_Cnt16.c **** {
 536:.\Generated_Source\PSoC5/QuadDec_TILT_Cnt16.c ****     /* Clear the capture mode bits in the control register */
 537:.\Generated_Source\PSoC5/QuadDec_TILT_Cnt16.c ****     QuadDec_TILT_Cnt16_CONTROL &= ((uint8)(~QuadDec_TILT_Cnt16_CTRL_CAPMODE_MASK));
 538:.\Generated_Source\PSoC5/QuadDec_TILT_Cnt16.c ****     
 539:.\Generated_Source\PSoC5/QuadDec_TILT_Cnt16.c ****     /* Write the new setting */
 540:.\Generated_Source\PSoC5/QuadDec_TILT_Cnt16.c ****     QuadDec_TILT_Cnt16_CONTROL |= ((uint8)((uint8)captureMode << QuadDec_TILT_Cnt16_CTRL_CAPMODE0_S
 541:.\Generated_Source\PSoC5/QuadDec_TILT_Cnt16.c **** }
 542:.\Generated_Source\PSoC5/QuadDec_TILT_Cnt16.c **** #endif  /* (QuadDec_TILT_Cnt16_CAPTURE_MODE_SOFTWARE) */
 543:.\Generated_Source\PSoC5/QuadDec_TILT_Cnt16.c **** 
 544:.\Generated_Source\PSoC5/QuadDec_TILT_Cnt16.c **** 
 545:.\Generated_Source\PSoC5/QuadDec_TILT_Cnt16.c **** /*******************************************************************************
 546:.\Generated_Source\PSoC5/QuadDec_TILT_Cnt16.c **** * Function Name: QuadDec_TILT_Cnt16_ClearFIFO
 547:.\Generated_Source\PSoC5/QuadDec_TILT_Cnt16.c **** ********************************************************************************
 548:.\Generated_Source\PSoC5/QuadDec_TILT_Cnt16.c **** * Summary:
 549:.\Generated_Source\PSoC5/QuadDec_TILT_Cnt16.c **** *   This function clears all capture data from the capture FIFO
ARM GAS  C:\Users\Graziano\AppData\Local\Temp\cciCL2rR.s 			page 17


 550:.\Generated_Source\PSoC5/QuadDec_TILT_Cnt16.c **** *
 551:.\Generated_Source\PSoC5/QuadDec_TILT_Cnt16.c **** * Parameters:  
 552:.\Generated_Source\PSoC5/QuadDec_TILT_Cnt16.c **** *  void:
 553:.\Generated_Source\PSoC5/QuadDec_TILT_Cnt16.c **** *
 554:.\Generated_Source\PSoC5/QuadDec_TILT_Cnt16.c **** * Return: 
 555:.\Generated_Source\PSoC5/QuadDec_TILT_Cnt16.c **** *  None
 556:.\Generated_Source\PSoC5/QuadDec_TILT_Cnt16.c **** *
 557:.\Generated_Source\PSoC5/QuadDec_TILT_Cnt16.c **** *******************************************************************************/
 558:.\Generated_Source\PSoC5/QuadDec_TILT_Cnt16.c **** void QuadDec_TILT_Cnt16_ClearFIFO(void) 
 559:.\Generated_Source\PSoC5/QuadDec_TILT_Cnt16.c **** {
 363              		.loc 1 559 0
 364              		.cfi_startproc
 365              		@ args = 0, pretend = 0, frame = 0
 366              		@ frame_needed = 0, uses_anonymous_args = 0
 367              		@ link register save eliminated.
 368              	.L41:
 369              	.LBB16:
 370              	.LBB17:
 263:.\Generated_Source\PSoC5/QuadDec_TILT_Cnt16.c ****     return QuadDec_TILT_Cnt16_STATUS;
 371              		.loc 1 263 0 discriminator 1
 372 0000 044B     		ldr	r3, .L45
 373 0002 1878     		ldrb	r0, [r3, #0]	@ zero_extendqisi2
 374              	.LBE17:
 375              	.LBE16:
 560:.\Generated_Source\PSoC5/QuadDec_TILT_Cnt16.c **** 
 561:.\Generated_Source\PSoC5/QuadDec_TILT_Cnt16.c ****     while(0u != (QuadDec_TILT_Cnt16_ReadStatusRegister() & QuadDec_TILT_Cnt16_STATUS_FIFONEMP))
 376              		.loc 1 561 0 discriminator 1
 377 0004 00F04001 		and	r1, r0, #64
 378 0008 CAB2     		uxtb	r2, r1
 379 000a 12B1     		cbz	r2, .L44
 380              	.L42:
 381              	.LBB18:
 382              	.LBB19:
 395:.\Generated_Source\PSoC5/QuadDec_TILT_Cnt16.c ****         return (CY_GET_REG16(QuadDec_TILT_Cnt16_STATICCOUNT_LSB_PTR));
 383              		.loc 1 395 0
 384 000c 024B     		ldr	r3, .L45+4
 385 000e 1B88     		ldrh	r3, [r3, #0]
 386 0010 F6E7     		b	.L41
 387              	.L44:
 388              	.LBE19:
 389              	.LBE18:
 562:.\Generated_Source\PSoC5/QuadDec_TILT_Cnt16.c ****     {
 563:.\Generated_Source\PSoC5/QuadDec_TILT_Cnt16.c ****         (void)QuadDec_TILT_Cnt16_ReadCapture();
 564:.\Generated_Source\PSoC5/QuadDec_TILT_Cnt16.c ****     }
 565:.\Generated_Source\PSoC5/QuadDec_TILT_Cnt16.c **** 
 566:.\Generated_Source\PSoC5/QuadDec_TILT_Cnt16.c **** }
 390              		.loc 1 566 0
 391 0012 7047     		bx	lr
 392              	.L46:
 393              		.align	2
 394              	.L45:
 395 0014 68650040 		.word	1073767784
 396 0018 8C680040 		.word	1073768588
 397              		.cfi_endproc
 398              	.LFE15:
 399              		.size	QuadDec_TILT_Cnt16_ClearFIFO, .-QuadDec_TILT_Cnt16_ClearFIFO
 400              		.section	.text.QuadDec_TILT_Cnt16_Init,"ax",%progbits
ARM GAS  C:\Users\Graziano\AppData\Local\Temp\cciCL2rR.s 			page 18


 401              		.align	1
 402              		.global	QuadDec_TILT_Cnt16_Init
 403              		.thumb
 404              		.thumb_func
 405              		.type	QuadDec_TILT_Cnt16_Init, %function
 406              	QuadDec_TILT_Cnt16_Init:
 407              	.LFB0:
  38:.\Generated_Source\PSoC5/QuadDec_TILT_Cnt16.c **** {
 408              		.loc 1 38 0
 409              		.cfi_startproc
 410              		@ args = 0, pretend = 0, frame = 0
 411              		@ frame_needed = 0, uses_anonymous_args = 0
 412 0000 08B5     		push	{r3, lr}
 413              	.LCFI0:
 414              		.cfi_def_cfa_offset 8
 415              		.cfi_offset 3, -8
 416              		.cfi_offset 14, -4
  79:.\Generated_Source\PSoC5/QuadDec_TILT_Cnt16.c ****             ctrl = QuadDec_TILT_Cnt16_CONTROL & ((uint8)(~QuadDec_TILT_Cnt16_CTRL_CMPMODE_MASK));
 417              		.loc 1 79 0
 418 0002 124B     		ldr	r3, .L48
 419 0004 1A78     		ldrb	r2, [r3, #0]	@ zero_extendqisi2
 420 0006 02F0F800 		and	r0, r2, #248
 421              	.LVL5:
  80:.\Generated_Source\PSoC5/QuadDec_TILT_Cnt16.c ****             QuadDec_TILT_Cnt16_CONTROL = ctrl | QuadDec_TILT_Cnt16_DEFAULT_COMPARE_MODE;
 422              		.loc 1 80 0
 423 000a 1870     		strb	r0, [r3, #0]
  83:.\Generated_Source\PSoC5/QuadDec_TILT_Cnt16.c ****             ctrl = QuadDec_TILT_Cnt16_CONTROL & ((uint8)(~QuadDec_TILT_Cnt16_CTRL_CAPMODE_MASK));
 424              		.loc 1 83 0
 425 000c 1978     		ldrb	r1, [r3, #0]	@ zero_extendqisi2
 426 000e 01F0FC02 		and	r2, r1, #252
 427              	.LVL6:
  88:.\Generated_Source\PSoC5/QuadDec_TILT_Cnt16.c ****                 QuadDec_TILT_Cnt16_CONTROL = ctrl;
 428              		.loc 1 88 0
 429 0012 1A70     		strb	r2, [r3, #0]
  96:.\Generated_Source\PSoC5/QuadDec_TILT_Cnt16.c ****             QuadDec_TILT_Cnt16_ClearFIFO();
 430              		.loc 1 96 0
 431 0014 FFF7FEFF 		bl	QuadDec_TILT_Cnt16_ClearFIFO
 432              	.LVL7:
 433              	.LBB20:
 434              	.LBB21:
 420:.\Generated_Source\PSoC5/QuadDec_TILT_Cnt16.c ****         CY_SET_REG16(QuadDec_TILT_Cnt16_PERIOD_LSB_PTR, period);
 435              		.loc 1 420 0
 436 0018 0D48     		ldr	r0, .L48+4
 437 001a 4FF40043 		mov	r3, #32768
 438 001e 0380     		strh	r3, [r0, #0]	@ movhi
 439              	.LVL8:
 440              	.LBE21:
 441              	.LBE20:
 442              	.LBB22:
 443              	.LBB23:
 239:.\Generated_Source\PSoC5/QuadDec_TILT_Cnt16.c ****     QuadDec_TILT_Cnt16_STATUS_MASK = interruptsMask;
 444              		.loc 1 239 0
 445 0020 0021     		movs	r1, #0
 446              	.LBE23:
 447              	.LBE22:
 448              	.LBB26:
 449              	.LBB27:
ARM GAS  C:\Users\Graziano\AppData\Local\Temp\cciCL2rR.s 			page 19


 337:.\Generated_Source\PSoC5/QuadDec_TILT_Cnt16.c ****         CY_SET_REG16(QuadDec_TILT_Cnt16_COUNTER_LSB_PTR, counter);
 450              		.loc 1 337 0
 451 0022 20F8403C 		strh	r3, [r0, #-64]	@ movhi
 452              	.LVL9:
 453              	.LBE27:
 454              	.LBE26:
 455              	.LBB28:
 456              	.LBB24:
 239:.\Generated_Source\PSoC5/QuadDec_TILT_Cnt16.c ****     QuadDec_TILT_Cnt16_STATUS_MASK = interruptsMask;
 457              		.loc 1 239 0
 458 0026 A0F53172 		sub	r2, r0, #708
 459              	.LBE24:
 460              	.LBE28:
 461              	.LBB29:
 462              	.LBB30:
 471:.\Generated_Source\PSoC5/QuadDec_TILT_Cnt16.c ****         CY_SET_REG16(QuadDec_TILT_Cnt16_COMPARE_LSB_PTR, compare);
 463              		.loc 1 471 0
 464 002a 0A48     		ldr	r0, .L48+8
 465              	.LBE30:
 466              	.LBE29:
 467              	.LBB32:
 468              	.LBB25:
 239:.\Generated_Source\PSoC5/QuadDec_TILT_Cnt16.c ****     QuadDec_TILT_Cnt16_STATUS_MASK = interruptsMask;
 469              		.loc 1 239 0
 470 002c 1170     		strb	r1, [r2, #0]
 471              	.LBE25:
 472              	.LBE32:
 473              	.LBB33:
 474              	.LBB34:
 263:.\Generated_Source\PSoC5/QuadDec_TILT_Cnt16.c ****     return QuadDec_TILT_Cnt16_STATUS;
 475              		.loc 1 263 0
 476 002e 203A     		subs	r2, r2, #32
 477 0030 1278     		ldrb	r2, [r2, #0]	@ zero_extendqisi2
 478              	.LVL10:
 479              	.LBE34:
 480              	.LBE33:
 481              	.LBB35:
 482              	.LBB31:
 471:.\Generated_Source\PSoC5/QuadDec_TILT_Cnt16.c ****         CY_SET_REG16(QuadDec_TILT_Cnt16_COMPARE_LSB_PTR, compare);
 483              		.loc 1 471 0
 484 0032 0380     		strh	r3, [r0, #0]	@ movhi
 485              	.LBE31:
 486              	.LBE35:
 115:.\Generated_Source\PSoC5/QuadDec_TILT_Cnt16.c ****             QuadDec_TILT_Cnt16_interruptState = CyEnterCriticalSection();
 487              		.loc 1 115 0
 488 0034 FFF7FEFF 		bl	CyEnterCriticalSection
 489              	.LVL11:
 117:.\Generated_Source\PSoC5/QuadDec_TILT_Cnt16.c ****             QuadDec_TILT_Cnt16_STATUS_AUX_CTRL |= QuadDec_TILT_Cnt16_STATUS_ACTL_INT_EN_MASK;
 490              		.loc 1 117 0
 491 0038 074B     		ldr	r3, .L48+12
 492 003a 1978     		ldrb	r1, [r3, #0]	@ zero_extendqisi2
 493 003c 41F01002 		orr	r2, r1, #16
 494 0040 1A70     		strb	r2, [r3, #0]
 123:.\Generated_Source\PSoC5/QuadDec_TILT_Cnt16.c **** }
 495              		.loc 1 123 0
 496 0042 BDE80840 		pop	{r3, lr}
 120:.\Generated_Source\PSoC5/QuadDec_TILT_Cnt16.c ****             CyExitCriticalSection(QuadDec_TILT_Cnt16_interruptState);
ARM GAS  C:\Users\Graziano\AppData\Local\Temp\cciCL2rR.s 			page 20


 497              		.loc 1 120 0
 498 0046 FFF7FEBF 		b	CyExitCriticalSection
 499              	.LVL12:
 500              	.L49:
 501 004a 00BF     		.align	2
 502              	.L48:
 503 004c 76640040 		.word	1073767542
 504 0050 4C680040 		.word	1073768524
 505 0054 6C680040 		.word	1073768556
 506 0058 98650040 		.word	1073767832
 507              		.cfi_endproc
 508              	.LFE0:
 509              		.size	QuadDec_TILT_Cnt16_Init, .-QuadDec_TILT_Cnt16_Init
 510              		.section	.text.QuadDec_TILT_Cnt16_Start,"ax",%progbits
 511              		.align	1
 512              		.global	QuadDec_TILT_Cnt16_Start
 513              		.thumb
 514              		.thumb_func
 515              		.type	QuadDec_TILT_Cnt16_Start, %function
 516              	QuadDec_TILT_Cnt16_Start:
 517              	.LFB2:
 179:.\Generated_Source\PSoC5/QuadDec_TILT_Cnt16.c **** {
 518              		.loc 1 179 0
 519              		.cfi_startproc
 520              		@ args = 0, pretend = 0, frame = 0
 521              		@ frame_needed = 0, uses_anonymous_args = 0
 522 0000 10B5     		push	{r4, lr}
 523              	.LCFI1:
 524              		.cfi_def_cfa_offset 8
 525              		.cfi_offset 4, -8
 526              		.cfi_offset 14, -4
 180:.\Generated_Source\PSoC5/QuadDec_TILT_Cnt16.c ****     if(QuadDec_TILT_Cnt16_initVar == 0u)
 527              		.loc 1 180 0
 528 0002 054C     		ldr	r4, .L52
 529 0004 2378     		ldrb	r3, [r4, #0]	@ zero_extendqisi2
 530 0006 1BB9     		cbnz	r3, .L51
 182:.\Generated_Source\PSoC5/QuadDec_TILT_Cnt16.c ****         QuadDec_TILT_Cnt16_Init();
 531              		.loc 1 182 0
 532 0008 FFF7FEFF 		bl	QuadDec_TILT_Cnt16_Init
 533              	.LVL13:
 184:.\Generated_Source\PSoC5/QuadDec_TILT_Cnt16.c ****         QuadDec_TILT_Cnt16_initVar = 1u; /* Clear this bit for Initialization */        
 534              		.loc 1 184 0
 535 000c 0120     		movs	r0, #1
 536 000e 2070     		strb	r0, [r4, #0]
 537              	.L51:
 189:.\Generated_Source\PSoC5/QuadDec_TILT_Cnt16.c **** }
 538              		.loc 1 189 0
 539 0010 BDE81040 		pop	{r4, lr}
 188:.\Generated_Source\PSoC5/QuadDec_TILT_Cnt16.c ****     QuadDec_TILT_Cnt16_Enable();        
 540              		.loc 1 188 0
 541 0014 FFF7FEBF 		b	QuadDec_TILT_Cnt16_Enable
 542              	.LVL14:
 543              	.L53:
 544              		.align	2
 545              	.L52:
 546 0018 00000000 		.word	.LANCHOR0
 547              		.cfi_endproc
ARM GAS  C:\Users\Graziano\AppData\Local\Temp\cciCL2rR.s 			page 21


 548              	.LFE2:
 549              		.size	QuadDec_TILT_Cnt16_Start, .-QuadDec_TILT_Cnt16_Start
 550              		.global	QuadDec_TILT_Cnt16_initVar
 551              		.bss
 552              		.set	.LANCHOR0,. + 0
 553              		.type	QuadDec_TILT_Cnt16_initVar, %object
 554              		.size	QuadDec_TILT_Cnt16_initVar, 1
 555              	QuadDec_TILT_Cnt16_initVar:
 556 0000 00       		.space	1
 557              		.text
 558              	.Letext0:
 559              		.file 2 ".\\Generated_Source\\PSoC5\\cytypes.h"
 560              		.file 3 ".\\Generated_Source\\PSoC5\\CyLib.h"