ARM GAS  C:\Users\Graziano\AppData\Local\Temp\cc0nVCch.s 			page 1


   1              		.syntax unified
   2              		.cpu cortex-m3
   3              		.fpu softvfp
   4              		.eabi_attribute 20, 1
   5              		.eabi_attribute 21, 1
   6              		.eabi_attribute 23, 3
   7              		.eabi_attribute 24, 1
   8              		.eabi_attribute 25, 1
   9              		.eabi_attribute 26, 1
  10              		.eabi_attribute 30, 4
  11              		.eabi_attribute 34, 1
  12              		.eabi_attribute 18, 4
  13              		.thumb
  14              		.file	"sensor_CTRL.c"
  15              		.text
  16              	.Ltext0:
  17              		.cfi_sections	.debug_frame
  18              		.global	__aeabi_i2f
  19              		.global	__aeabi_fmul
  20              		.global	__aeabi_fadd
  21              		.global	__aeabi_f2d
  22              		.global	__aeabi_d2f
  23              		.global	__aeabi_fsub
  24              		.global	__aeabi_dmul
  25              		.global	__aeabi_fcmpge
  26              		.global	__aeabi_fcmple
  27              		.global	__aeabi_ui2f
  28              		.global	__aeabi_fdiv
  29              		.global	__aeabi_fcmpeq
  30              		.global	__aeabi_dadd
  31              		.section	.text.sensor_control,"ax",%progbits
  32              		.align	1
  33              		.global	sensor_control
  34              		.thumb
  35              		.thumb_func
  36              		.type	sensor_control, %function
  37              	sensor_control:
  38              	.LFB56:
  39              		.file 1 ".\\sensor_CTRL.c"
   1:.\sensor_CTRL.c **** /* ========================================
   2:.\sensor_CTRL.c ****  *
   3:.\sensor_CTRL.c ****  * Copyright Logic brainstorm, 2015
   4:.\sensor_CTRL.c ****  * All Rights Reserved
   5:.\sensor_CTRL.c ****  * UNPUBLISHED, LICENSED SOFTWARE.
   6:.\sensor_CTRL.c ****  *
   7:.\sensor_CTRL.c ****  * CONFIDENTIAL AND PROPRIETARY INFORMATION
   8:.\sensor_CTRL.c ****  * WHICH IS THE PROPERTY OF your logic brainstorm.
   9:.\sensor_CTRL.c ****  *
  10:.\sensor_CTRL.c ****  * ========================================
  11:.\sensor_CTRL.c **** */
  12:.\sensor_CTRL.c **** 
  13:.\sensor_CTRL.c **** #include <device.h>
  14:.\sensor_CTRL.c **** #include <gobee.h>
  15:.\sensor_CTRL.c **** #include <gobeelib.h>
  16:.\sensor_CTRL.c **** #include <math.h>
  17:.\sensor_CTRL.c **** 
  18:.\sensor_CTRL.c **** /* extern Control Variables */
ARM GAS  C:\Users\Graziano\AppData\Local\Temp\cc0nVCch.s 			page 2


  19:.\sensor_CTRL.c **** extern uint8 machine_state;		/* Machine State Global						*/
  20:.\sensor_CTRL.c **** 
  21:.\sensor_CTRL.c **** extern float error;				/* Sensor error(t) 	  						*/
  22:.\sensor_CTRL.c **** extern float error_lowpass;		/* Sensor error(t) low pass filtered		*/
  23:.\sensor_CTRL.c **** extern float alpha;				/* low pass filter alpha value				*/
  24:.\sensor_CTRL.c **** 
  25:.\sensor_CTRL.c **** extern float error_bef;			/* Sensor error(t-1)  						*/
  26:.\sensor_CTRL.c **** extern float derror;			/* Sensor d/dt(error)						*/
  27:.\sensor_CTRL.c **** extern float ierror;			/* Sensor Integral(error(t))				*/
  28:.\sensor_CTRL.c **** 
  29:.\sensor_CTRL.c **** extern int16 control_var;		/* cv(t) = Kp*angle(t)			  			*/
  30:.\sensor_CTRL.c **** extern uint16 angle_var;		/* Angle Compensation DAC variable			*/
  31:.\sensor_CTRL.c **** extern int16  angle_digi;		/* Angle Compensation SPI variable			*/
  32:.\sensor_CTRL.c **** 
  33:.\sensor_CTRL.c **** extern int16 VSenseMAX;			/* Maximum Sensor Array ADC Voltage			*/
  34:.\sensor_CTRL.c **** extern int16 VSenseSUM;			/* Sum of all Sensor Array ADC Voltage		*/
  35:.\sensor_CTRL.c **** 
  36:.\sensor_CTRL.c **** extern int16 Encoder_now;		/* Driver Motor Encoder(t)					*/
  37:.\sensor_CTRL.c **** extern int16 Encoder_bef;		/* Driver Motor Encoder(t-1)				*/
  38:.\sensor_CTRL.c **** extern int16 DriveVelocity;		/* Driver Motor Velocity(t)					*/
  39:.\sensor_CTRL.c **** 
  40:.\sensor_CTRL.c **** 
  41:.\sensor_CTRL.c **** /* extern Sensor ADC array */
  42:.\sensor_CTRL.c **** extern int16 AdcValue[ADC_MUX_LENGHT];
  43:.\sensor_CTRL.c **** 
  44:.\sensor_CTRL.c **** 
  45:.\sensor_CTRL.c **** /* extern Analog ADXL325 3D accelerometer vars) */
  46:.\sensor_CTRL.c **** struct ANALOG_3D_ACCELEROMETER aacc;
  47:.\sensor_CTRL.c **** 
  48:.\sensor_CTRL.c **** //extern signed long system_dynamic_scalar;	/* x_acc_ADC^2 + y_acc_ADC^2 - (1g_ADC)^2	*/
  49:.\sensor_CTRL.c **** 
  50:.\sensor_CTRL.c **** extern float angle_estim_analog_gyro;	/* estimated angle [deg] from ADXRS646     (analog gyro) 			*
  51:.\sensor_CTRL.c **** extern float angle_estim_digital_gyro;	/* estimated angle [deg] from ADXRS453     (digital gyro)			
  52:.\sensor_CTRL.c **** extern float angle_estim_acc;			/* estimated angle [deg] from ADXL203      (analog accelerometer) 	
  53:.\sensor_CTRL.c **** extern float angle_estim_acc_last_good;	/* angle(t*) i.e. last good angle before linear acceleratio
  54:.\sensor_CTRL.c **** extern float angle_estim_acc_lowpass;	/* Low Pass Filtered estimated angle [deg] (analog accelerome
  55:.\sensor_CTRL.c **** 
  56:.\sensor_CTRL.c **** 
  57:.\sensor_CTRL.c **** /* extern ADXRS646 analog gyroscope vars */
  58:.\sensor_CTRL.c **** //extern int16 gyro_ADC_offset;		/* analog gyroscope ADC offset						*/
  59:.\sensor_CTRL.c **** //extern int16 gyro_ADC;				/* analog gyroscope ADC value signed				*/
  60:.\sensor_CTRL.c **** //extern float gyro_scale;			/* gyro scale from ADC to [deg/sec]					*/
  61:.\sensor_CTRL.c **** //extern float gyro;					/* analog gyroscope float value [deg/sec]			*/
  62:.\sensor_CTRL.c **** //extern float gyro_lowpass;			/* LPF(analog gyro) float value	[deg/sec]			*/
  63:.\sensor_CTRL.c **** //extern float int_gyro;				/* analog gyroscope integrated value				*/
  64:.\sensor_CTRL.c **** //extern float agyro_mean;			/* analog gyro mean_value(t)						*/
  65:.\sensor_CTRL.c **** //extern float agyro_mean_previous;	/* analog gyro mean_value(t-1)						*/
  66:.\sensor_CTRL.c **** extern uint32 iteration;			/* analog gyro mean value iteration counter			*/
  67:.\sensor_CTRL.c **** extern uint8 agyro_messg;			/* analog gyro message passing console --> isr_ctrl	*/
  68:.\sensor_CTRL.c **** 
  69:.\sensor_CTRL.c **** /* extern Analog External ADXRS646 gyroscope vars) */
  70:.\sensor_CTRL.c **** extern struct ANALOG_GYRO agyro;
  71:.\sensor_CTRL.c **** 
  72:.\sensor_CTRL.c **** /* extern ADXRS453 digital gyroscope vars	*/
  73:.\sensor_CTRL.c **** extern float dgyro_rate_float;		/* ADXRS453 Digital Gyro Rate (float) [deg/sec] 	*/
  74:.\sensor_CTRL.c **** extern float dgyro_mean;			/* digital gyro raw mean_value(t)					*/
  75:.\sensor_CTRL.c **** extern float dgyro_mean_previous;	/* digital gyro raw mean_value(t-1)					*/
ARM GAS  C:\Users\Graziano\AppData\Local\Temp\cc0nVCch.s 			page 3


  76:.\sensor_CTRL.c **** extern float dgyro_mean_of;			/* digital gyro ofsetted mean_value(t)				*/
  77:.\sensor_CTRL.c **** extern float dgyro_mean_previous_of;/* digital gyro ofsetted mean_value(t-1)			*/
  78:.\sensor_CTRL.c **** extern uint32 dg_iteration;			/* digital gyro mean value iteration counter		*/
  79:.\sensor_CTRL.c **** extern uint8 dgyro_messg;			/* digital gyro message passing console --> isr_ctrl*/
  80:.\sensor_CTRL.c **** 
  81:.\sensor_CTRL.c **** /* extern estimated control vars */
  82:.\sensor_CTRL.c **** extern float angle;				/* Complementary Filter Estimated angle float [deg]	*/
  83:.\sensor_CTRL.c **** extern float angle_lowpass;
  84:.\sensor_CTRL.c **** extern float angle_estim;	
  85:.\sensor_CTRL.c **** 
  86:.\sensor_CTRL.c **** ///* external ITG-3701 digital gyro vars */
  87:.\sensor_CTRL.c **** //extern float gRes;      				// scale resolutions per LSB for the sensors
  88:.\sensor_CTRL.c **** //extern int16 gyroCount[3];  			// Stores the 16-bit signed gyro output
  89:.\sensor_CTRL.c **** //extern float gx, gy, gz; 				// variables to hold latest sensor data values 
  90:.\sensor_CTRL.c **** //extern float gyroBias[3];			 	// Bias corrections for gyro, accelerometer, and magnetometer
  91:.\sensor_CTRL.c **** //extern float temperature;          		// Stores the ITG3701yro internal chip temperature in degree
  92:.\sensor_CTRL.c **** 
  93:.\sensor_CTRL.c **** /* extern GOBEE param structure */
  94:.\sensor_CTRL.c **** extern struct GOBEE_PARAMS gobee_param;
  95:.\sensor_CTRL.c ****  
  96:.\sensor_CTRL.c **** 
  97:.\sensor_CTRL.c **** /* Local vars Definition */
  98:.\sensor_CTRL.c **** uint8 idx = 0;					/* all pourpose index							*/
  99:.\sensor_CTRL.c **** uint8 dummy = 0;				/* Dummy Local									*/
 100:.\sensor_CTRL.c **** uint8 idxMAX = 0;				/* index: Vsense(index)=VSenseMAX				*/
 101:.\sensor_CTRL.c **** uint8 QuadDecEvent = 0;			/* Quadrature Encoder Status Register Shadow 	*/
 102:.\sensor_CTRL.c **** 
 103:.\sensor_CTRL.c **** float dgyro_offset_fine;
 104:.\sensor_CTRL.c **** 
 105:.\sensor_CTRL.c **** 
 106:.\sensor_CTRL.c **** /* GoBee Sensors Sampling & Control */
 107:.\sensor_CTRL.c **** void sensor_control(void)
 108:.\sensor_CTRL.c **** {
  40              		.loc 1 108 0
  41              		.cfi_startproc
  42              		@ args = 0, pretend = 0, frame = 0
  43              		@ frame_needed = 0, uses_anonymous_args = 0
  44 0000 2DE9F843 		push	{r3, r4, r5, r6, r7, r8, r9, lr}
  45              	.LCFI0:
  46              		.cfi_def_cfa_offset 32
  47              		.cfi_offset 3, -32
  48              		.cfi_offset 4, -28
  49              		.cfi_offset 5, -24
  50              		.cfi_offset 6, -20
  51              		.cfi_offset 7, -16
  52              		.cfi_offset 8, -12
  53              		.cfi_offset 9, -8
  54              		.cfi_offset 14, -4
 109:.\sensor_CTRL.c **** 	/************************************************/
 110:.\sensor_CTRL.c **** 	/* ADXL325 Accelerometer Sampling and scaling	*/
 111:.\sensor_CTRL.c **** 	/************************************************/
 112:.\sensor_CTRL.c **** 	/* Sensivity = 174mV/g							*/
 113:.\sensor_CTRL.c **** 	/* Zero g    = 1,5V								*/
 114:.\sensor_CTRL.c **** 	/*												*/
 115:.\sensor_CTRL.c **** 	/* ADC(int16 signed)=(Vin - 2,5V)*4096/5V		*/
 116:.\sensor_CTRL.c **** 	/* ADC resolution = 12 bit						*/
 117:.\sensor_CTRL.c **** 	/* 												*/
ARM GAS  C:\Users\Graziano\AppData\Local\Temp\cc0nVCch.s 			page 4


 118:.\sensor_CTRL.c **** 	/*  -->       0g  = -819.2	  ADC lsb			*/
 119:.\sensor_CTRL.c **** 	/*	-->       1g  = -676.6592 ADC lsb			*/
 120:.\sensor_CTRL.c **** 	/*  --> delta(1g) = 142.5408  ADC lsb			*/
 121:.\sensor_CTRL.c **** 	/************************************************/
 122:.\sensor_CTRL.c **** 	aacc.x_axis.scale = 0.007015535;	/* 1 / [1g] = 1 / 142.5408 = 0.007015535	*/
 123:.\sensor_CTRL.c **** 	aacc.y_axis.scale = 0.007015535;	/* 1 / [1g] = 1 / 142.5408 = 0.007015535	*/
 124:.\sensor_CTRL.c **** 	aacc.z_axis.scale = 0.007015535;	/* 1 / [1g] = 1 / 142.5408 = 0.007015535	*/
 125:.\sensor_CTRL.c **** 	
 126:.\sensor_CTRL.c **** 	aacc.x_axis.ADC = AdcValue[ADXL_X] + ADC_ACC_ZERO_OFFSET ;
  55              		.loc 1 126 0
  56 0004 7C4B     		ldr	r3, .L25+16
 122:.\sensor_CTRL.c **** 	aacc.x_axis.scale = 0.007015535;	/* 1 / [1g] = 1 / 142.5408 = 0.007015535	*/
  57              		.loc 1 122 0
  58 0006 7D4C     		ldr	r4, .L25+20
 127:.\sensor_CTRL.c **** 	aacc.y_axis.ADC = AdcValue[ADXL_Y] + ADC_ACC_ZERO_OFFSET ;
  59              		.loc 1 127 0
  60 0008 B3F80890 		ldrh	r9, [r3, #8]
 126:.\sensor_CTRL.c **** 	aacc.x_axis.ADC = AdcValue[ADXL_X] + ADC_ACC_ZERO_OFFSET ;
  61              		.loc 1 126 0
  62 000c D888     		ldrh	r0, [r3, #6]
  63              		.loc 1 127 0
  64 000e 09F23336 		addw	r6, r9, #819
 128:.\sensor_CTRL.c **** 	aacc.z_axis.ADC = AdcValue[ADXL_Z] + ADC_ACC_ZERO_OFFSET ;	
  65              		.loc 1 128 0
  66 0012 B3F80A80 		ldrh	r8, [r3, #10]
 127:.\sensor_CTRL.c **** 	aacc.y_axis.ADC = AdcValue[ADXL_Y] + ADC_ACC_ZERO_OFFSET ;
  67              		.loc 1 127 0
  68 0016 1FFA86F9 		uxth	r9, r6
 129:.\sensor_CTRL.c **** 	
 130:.\sensor_CTRL.c **** 	aacc.x_axis.acceleration = (float)(aacc.x_axis.ADC + gobee_param.x_acc_ADC_offset) * aacc.x_axis.s
  69              		.loc 1 130 0
  70 001a 794E     		ldr	r6, .L25+24
 126:.\sensor_CTRL.c **** 	aacc.x_axis.ADC = AdcValue[ADXL_X] + ADC_ACC_ZERO_OFFSET ;
  71              		.loc 1 126 0
  72 001c 00F23331 		addw	r1, r0, #819
  73              		.loc 1 130 0
  74 0020 B6F91630 		ldrsh	r3, [r6, #22]
 122:.\sensor_CTRL.c **** 	aacc.x_axis.scale = 0.007015535;	/* 1 / [1g] = 1 / 142.5408 = 0.007015535	*/
  75              		.loc 1 122 0
  76 0024 774D     		ldr	r5, .L25+28
 126:.\sensor_CTRL.c **** 	aacc.x_axis.ADC = AdcValue[ADXL_X] + ADC_ACC_ZERO_OFFSET ;
  77              		.loc 1 126 0
  78 0026 8AB2     		uxth	r2, r1
 128:.\sensor_CTRL.c **** 	aacc.z_axis.ADC = AdcValue[ADXL_Z] + ADC_ACC_ZERO_OFFSET ;	
  79              		.loc 1 128 0
  80 0028 08F23337 		addw	r7, r8, #819
  81              		.loc 1 130 0
  82 002c 10B2     		sxth	r0, r2
 128:.\sensor_CTRL.c **** 	aacc.z_axis.ADC = AdcValue[ADXL_Z] + ADC_ACC_ZERO_OFFSET ;	
  83              		.loc 1 128 0
  84 002e 1FFA87F8 		uxth	r8, r7
  85              		.loc 1 130 0
  86 0032 C018     		adds	r0, r0, r3
 126:.\sensor_CTRL.c **** 	aacc.x_axis.ADC = AdcValue[ADXL_X] + ADC_ACC_ZERO_OFFSET ;
  87              		.loc 1 126 0
  88 0034 2280     		strh	r2, [r4, #0]	@ movhi
 122:.\sensor_CTRL.c **** 	aacc.x_axis.scale = 0.007015535;	/* 1 / [1g] = 1 / 142.5408 = 0.007015535	*/
ARM GAS  C:\Users\Graziano\AppData\Local\Temp\cc0nVCch.s 			page 5


  89              		.loc 1 122 0
  90 0036 6560     		str	r5, [r4, #4]	@ float
 123:.\sensor_CTRL.c **** 	aacc.y_axis.scale = 0.007015535;	/* 1 / [1g] = 1 / 142.5408 = 0.007015535	*/
  91              		.loc 1 123 0
  92 0038 2561     		str	r5, [r4, #16]	@ float
 124:.\sensor_CTRL.c **** 	aacc.z_axis.scale = 0.007015535;	/* 1 / [1g] = 1 / 142.5408 = 0.007015535	*/
  93              		.loc 1 124 0
  94 003a E561     		str	r5, [r4, #28]	@ float
 127:.\sensor_CTRL.c **** 	aacc.y_axis.ADC = AdcValue[ADXL_Y] + ADC_ACC_ZERO_OFFSET ;
  95              		.loc 1 127 0
  96 003c A4F80C90 		strh	r9, [r4, #12]	@ movhi
 128:.\sensor_CTRL.c **** 	aacc.z_axis.ADC = AdcValue[ADXL_Z] + ADC_ACC_ZERO_OFFSET ;	
  97              		.loc 1 128 0
  98 0040 A4F81880 		strh	r8, [r4, #24]	@ movhi
  99              		.loc 1 130 0
 100 0044 FFF7FEFF 		bl	__aeabi_i2f
 101              	.LVL0:
 102 0048 2946     		mov	r1, r5
 103 004a FFF7FEFF 		bl	__aeabi_fmul
 104              	.LVL1:
 131:.\sensor_CTRL.c **** 	aacc.y_axis.acceleration = (float)(aacc.y_axis.ADC + gobee_param.y_acc_ADC_offset) * aacc.y_axis.s
 105              		.loc 1 131 0
 106 004e B6F91820 		ldrsh	r2, [r6, #24]
 107 0052 0FFA89F1 		sxth	r1, r9
 130:.\sensor_CTRL.c **** 	aacc.x_axis.acceleration = (float)(aacc.x_axis.ADC + gobee_param.x_acc_ADC_offset) * aacc.x_axis.s
 108              		.loc 1 130 0
 109 0056 0746     		mov	r7, r0
 110 0058 A060     		str	r0, [r4, #8]	@ float
 111              		.loc 1 131 0
 112 005a 8818     		adds	r0, r1, r2
 113 005c FFF7FEFF 		bl	__aeabi_i2f
 114              	.LVL2:
 115 0060 2946     		mov	r1, r5
 116 0062 FFF7FEFF 		bl	__aeabi_fmul
 117              	.LVL3:
 132:.\sensor_CTRL.c **** 	aacc.z_axis.acceleration = (float)(aacc.z_axis.ADC + gobee_param.z_acc_ADC_offset) * aacc.z_axis.s
 118              		.loc 1 132 0
 119 0066 B6F91A60 		ldrsh	r6, [r6, #26]
 131:.\sensor_CTRL.c **** 	aacc.y_axis.acceleration = (float)(aacc.y_axis.ADC + gobee_param.y_acc_ADC_offset) * aacc.y_axis.s
 120              		.loc 1 131 0
 121 006a 6061     		str	r0, [r4, #20]	@ float
 122              		.loc 1 132 0
 123 006c 0FFA88F0 		sxth	r0, r8
 124 0070 8019     		adds	r0, r0, r6
 125 0072 FFF7FEFF 		bl	__aeabi_i2f
 126              	.LVL4:
 127 0076 2946     		mov	r1, r5
 128 0078 FFF7FEFF 		bl	__aeabi_fmul
 129              	.LVL5:
 130 007c 2062     		str	r0, [r4, #32]	@ float
 133:.\sensor_CTRL.c **** 
 134:.\sensor_CTRL.c **** 	/************************************************************************************/
 135:.\sensor_CTRL.c **** 	/* Accelerometer Modulo Calculation		 											*/
 136:.\sensor_CTRL.c **** 	/* 																					*/
 137:.\sensor_CTRL.c **** 	/*  modulo = sqrt(x_g^2 + y_g^2 + z_g^2)  [g]										*/
 138:.\sensor_CTRL.c **** 	/************************************************************************************/
 139:.\sensor_CTRL.c **** 	aacc.squared = squaref(aacc.x_axis.acceleration) +					
ARM GAS  C:\Users\Graziano\AppData\Local\Temp\cc0nVCch.s 			page 6


 131              		.loc 1 139 0
 132 007e 3846     		mov	r0, r7
 133 0080 FFF7FEFF 		bl	squaref
 134              	.LVL6:
 135 0084 0546     		mov	r5, r0
 140:.\sensor_CTRL.c **** 				   squaref(aacc.y_axis.acceleration) +		
 136              		.loc 1 140 0
 137 0086 6069     		ldr	r0, [r4, #20]	@ float
 138 0088 FFF7FEFF 		bl	squaref
 139              	.LVL7:
 140 008c 0146     		mov	r1, r0
 139:.\sensor_CTRL.c **** 	aacc.squared = squaref(aacc.x_axis.acceleration) +					
 141              		.loc 1 139 0
 142 008e 2846     		mov	r0, r5
 143 0090 FFF7FEFF 		bl	__aeabi_fadd
 144              	.LVL8:
 145 0094 0746     		mov	r7, r0
 141:.\sensor_CTRL.c **** 				   squaref(aacc.z_axis.acceleration);
 146              		.loc 1 141 0
 147 0096 206A     		ldr	r0, [r4, #32]	@ float
 148 0098 FFF7FEFF 		bl	squaref
 149              	.LVL9:
 150 009c 0146     		mov	r1, r0
 140:.\sensor_CTRL.c **** 				   squaref(aacc.y_axis.acceleration) +		
 151              		.loc 1 140 0
 152 009e 3846     		mov	r0, r7
 153 00a0 FFF7FEFF 		bl	__aeabi_fadd
 154              	.LVL10:
 139:.\sensor_CTRL.c **** 	aacc.squared = squaref(aacc.x_axis.acceleration) +					
 155              		.loc 1 139 0
 156 00a4 6062     		str	r0, [r4, #36]	@ float
 142:.\sensor_CTRL.c **** 				
 143:.\sensor_CTRL.c **** 	aacc.modulo = sqrt((double)aacc.squared);		
 157              		.loc 1 143 0
 158 00a6 FFF7FEFF 		bl	__aeabi_f2d
 159              	.LVL11:
 160 00aa FFF7FEFF 		bl	sqrt
 161              	.LVL12:
 162 00ae FFF7FEFF 		bl	__aeabi_d2f
 163              	.LVL13:
 144:.\sensor_CTRL.c **** 								
 145:.\sensor_CTRL.c **** 	/************************************************************************************/
 146:.\sensor_CTRL.c **** 	/* System Dynamic Scalar Calculation	 											*/
 147:.\sensor_CTRL.c **** 	/* 																					*/
 148:.\sensor_CTRL.c **** 	/*  system dynamic_scalar = x_g^2 + y_g^2 + z_g^2 - (1_g)^2	[g^2]					*/
 149:.\sensor_CTRL.c **** 	/************************************************************************************/
 150:.\sensor_CTRL.c **** 	aacc.system_dynamic_scalar = aacc.squared - 1;
 164              		.loc 1 150 0
 165 00b2 4FF07E51 		mov	r1, #1065353216
 143:.\sensor_CTRL.c **** 	aacc.modulo = sqrt((double)aacc.squared);		
 166              		.loc 1 143 0
 167 00b6 A062     		str	r0, [r4, #40]	@ float
 168              		.loc 1 150 0
 169 00b8 606A     		ldr	r0, [r4, #36]	@ float
 170 00ba FFF7FEFF 		bl	__aeabi_fsub
 171              	.LVL14:
 172 00be E062     		str	r0, [r4, #44]	@ float
ARM GAS  C:\Users\Graziano\AppData\Local\Temp\cc0nVCch.s 			page 7


 151:.\sensor_CTRL.c **** 
 152:.\sensor_CTRL.c **** 	/************************************************************************************/
 153:.\sensor_CTRL.c **** 	/* Euler Phi and Theta angles Calculation (Tilt & Roll)	 							*/
 154:.\sensor_CTRL.c **** 	/* 																					*/
 155:.\sensor_CTRL.c **** 	/*  with sin(x)=x approximation limited between +-25[deg]							*/
 156:.\sensor_CTRL.c **** 	/************************************************************************************/	
 157:.\sensor_CTRL.c **** 	aacc.angle_estim_tilt = aacc.y_axis.acceleration * 57.29577951;	/* estimated angle from accelerome
 173              		.loc 1 157 0
 174 00c0 6069     		ldr	r0, [r4, #20]	@ float
 175 00c2 FFF7FEFF 		bl	__aeabi_f2d
 176              	.LVL15:
 177 00c6 48A3     		adr	r3, .L25
 178 00c8 D3E90023 		ldrd	r2, [r3]
 179 00cc FFF7FEFF 		bl	__aeabi_dmul
 180              	.LVL16:
 181 00d0 FFF7FEFF 		bl	__aeabi_d2f
 182              	.LVL17:
 183 00d4 0646     		mov	r6, r0
 184 00d6 2063     		str	r0, [r4, #48]	@ float
 158:.\sensor_CTRL.c **** 																	/* 57.29577951 = 180/PI								*/
 159:.\sensor_CTRL.c **** 	
 160:.\sensor_CTRL.c **** 	aacc.angle_estim_roll = aacc.x_axis.acceleration * 57.29577951;	/* estimated angle from accelerome
 185              		.loc 1 160 0
 186 00d8 A068     		ldr	r0, [r4, #8]	@ float
 187 00da FFF7FEFF 		bl	__aeabi_f2d
 188              	.LVL18:
 189 00de 42A3     		adr	r3, .L25
 190 00e0 D3E90023 		ldrd	r2, [r3]
 191 00e4 FFF7FEFF 		bl	__aeabi_dmul
 192              	.LVL19:
 193 00e8 FFF7FEFF 		bl	__aeabi_d2f
 194              	.LVL20:
 161:.\sensor_CTRL.c **** 																	/* 57.29577951 = 180/PI								*/	
 162:.\sensor_CTRL.c **** 	/* positive tilt +25 [deg] limiting	*/
 163:.\sensor_CTRL.c **** 	if (aacc.angle_estim_tilt >= +25.0)
 195              		.loc 1 163 0
 196 00ec 464F     		ldr	r7, .L25+32
 160:.\sensor_CTRL.c **** 	aacc.angle_estim_roll = aacc.x_axis.acceleration * 57.29577951;	/* estimated angle from accelerome
 197              		.loc 1 160 0
 198 00ee 0546     		mov	r5, r0
 199 00f0 6063     		str	r0, [r4, #52]	@ float
 200              		.loc 1 163 0
 201 00f2 3946     		mov	r1, r7
 202 00f4 3046     		mov	r0, r6
 203 00f6 FFF7FEFF 		bl	__aeabi_fcmpge
 204              	.LVL21:
 205 00fa 00B1     		cbz	r0, .L2
 164:.\sensor_CTRL.c **** 	{
 165:.\sensor_CTRL.c **** 		aacc.angle_estim_tilt = +25.0;
 206              		.loc 1 165 0
 207 00fc 2763     		str	r7, [r4, #48]	@ float
 208              	.L2:
 166:.\sensor_CTRL.c **** 	}
 167:.\sensor_CTRL.c **** 	
 168:.\sensor_CTRL.c **** 	/* negative tilt -25 [deg] limiting	*/
 169:.\sensor_CTRL.c **** 	if (aacc.angle_estim_tilt <= -25.0)
 209              		.loc 1 169 0
ARM GAS  C:\Users\Graziano\AppData\Local\Temp\cc0nVCch.s 			page 8


 210 00fe 434E     		ldr	r6, .L25+36
 211 0100 206B     		ldr	r0, [r4, #48]	@ float
 212 0102 3146     		mov	r1, r6
 213 0104 FFF7FEFF 		bl	__aeabi_fcmple
 214              	.LVL22:
 215 0108 08B1     		cbz	r0, .L4
 170:.\sensor_CTRL.c **** 	{
 171:.\sensor_CTRL.c **** 		aacc.angle_estim_tilt = -25.0;
 216              		.loc 1 171 0
 217 010a 3C4C     		ldr	r4, .L25+20
 218 010c 2663     		str	r6, [r4, #48]	@ float
 219              	.L4:
 172:.\sensor_CTRL.c **** 	}
 173:.\sensor_CTRL.c **** 	
 174:.\sensor_CTRL.c **** 	/* positive roll +25 [deg] limiting	*/
 175:.\sensor_CTRL.c **** 	if (aacc.angle_estim_roll >= +25.0)
 220              		.loc 1 175 0
 221 010e 3E4E     		ldr	r6, .L25+32
 222 0110 2846     		mov	r0, r5
 223 0112 3146     		mov	r1, r6
 224 0114 FFF7FEFF 		bl	__aeabi_fcmpge
 225              	.LVL23:
 226 0118 384B     		ldr	r3, .L25+20
 227 011a 00B1     		cbz	r0, .L6
 176:.\sensor_CTRL.c **** 	{
 177:.\sensor_CTRL.c **** 		aacc.angle_estim_roll = +25.0;
 228              		.loc 1 177 0
 229 011c 5E63     		str	r6, [r3, #52]	@ float
 230              	.L6:
 178:.\sensor_CTRL.c **** 	}
 179:.\sensor_CTRL.c **** 	
 180:.\sensor_CTRL.c **** 	/* negative roll -25 [deg] limiting	*/
 181:.\sensor_CTRL.c **** 	if (aacc.angle_estim_roll <= -25.0)
 231              		.loc 1 181 0
 232 011e 3B4D     		ldr	r5, .L25+36
 233 0120 586B     		ldr	r0, [r3, #52]	@ float
 234 0122 2946     		mov	r1, r5
 235 0124 FFF7FEFF 		bl	__aeabi_fcmple
 236              	.LVL24:
 237 0128 08B1     		cbz	r0, .L8
 182:.\sensor_CTRL.c **** 	{
 183:.\sensor_CTRL.c **** 		aacc.angle_estim_roll = -25.0;
 238              		.loc 1 183 0
 239 012a 3449     		ldr	r1, .L25+20
 240 012c 4D63     		str	r5, [r1, #52]	@ float
 241              	.L8:
 184:.\sensor_CTRL.c **** 	}	
 185:.\sensor_CTRL.c **** 
 186:.\sensor_CTRL.c **** 	
 187:.\sensor_CTRL.c **** //	/************************************************/
 188:.\sensor_CTRL.c **** //	/* ADXRS646 Gyroscope Sampling and scaling 		*/
 189:.\sensor_CTRL.c **** //	/************************************************/
 190:.\sensor_CTRL.c **** //	/* Sensivity = 7,5mV/°/sec @ Vratio=+5V			*/
 191:.\sensor_CTRL.c **** //	/*												*/
 192:.\sensor_CTRL.c **** //	/* ADC(int16 signed)=(Vin - 2,5V)*4096/5V		*/
 193:.\sensor_CTRL.c **** //	/* 												*/
 194:.\sensor_CTRL.c **** //	/*	-->  1°/sec = +6							*/
ARM GAS  C:\Users\Graziano\AppData\Local\Temp\cc0nVCch.s 			page 9


 195:.\sensor_CTRL.c **** //	/*  --> -1°/sec = -6							*/
 196:.\sensor_CTRL.c **** //	/************************************************/
 197:.\sensor_CTRL.c **** //	
 198:.\sensor_CTRL.c **** //	agyro.scale = 0.162760416 * gobee_param.ana_gyro_scale_sensivity.fnum;	
 199:.\sensor_CTRL.c **** //														/* Attenzione: andrà calibrato sia in offset 	*/
 200:.\sensor_CTRL.c **** //														/* che in temperatura anche la scala!!!			*/
 201:.\sensor_CTRL.c **** //	
 202:.\sensor_CTRL.c **** //
 203:.\sensor_CTRL.c **** //	agyro.ADC = AdcValue[EXT_GYRO_RATE_LPF];
 204:.\sensor_CTRL.c **** //	agyro.rate = (float) (((float)agyro.ADC) * agyro.scale);				/* [deg/sec]	*/
 205:.\sensor_CTRL.c **** //	agyro.rate = (float) (agyro.rate + gobee_param.gyro_offset_fine.fnum);	/* [deg/sec]	*/
 206:.\sensor_CTRL.c **** 
 207:.\sensor_CTRL.c **** 	/********************************************************************************/
 208:.\sensor_CTRL.c **** 	/* Analog Gyro Mean Value Iterative Calculus									*/
 209:.\sensor_CTRL.c **** 	/* iteration >= 2																*/
 210:.\sensor_CTRL.c **** 	/* Calcola il valor medio del gyro analogico senza tener conto dell'offset fine */
 211:.\sensor_CTRL.c **** 	/********************************************************************************/
 212:.\sensor_CTRL.c **** 	if (agyro_messg == AGYRO_MEAN_START)
 242              		.loc 1 212 0
 243 012e 384A     		ldr	r2, .L25+40
 244 0130 384C     		ldr	r4, .L25+44
 245 0132 1078     		ldrb	r0, [r2, #0]	@ zero_extendqisi2
 246 0134 0128     		cmp	r0, #1
 247 0136 07D1     		bne	.L10
 213:.\sensor_CTRL.c **** 	{
 214:.\sensor_CTRL.c **** 		agyro.mean_rate = agyro.rate;
 248              		.loc 1 214 0
 249 0138 A168     		ldr	r1, [r4, #8]	@ float
 215:.\sensor_CTRL.c **** 		agyro.mean_rate_previous = agyro.mean_rate;
 216:.\sensor_CTRL.c **** 		iteration = 2;
 250              		.loc 1 216 0
 251 013a 0220     		movs	r0, #2
 214:.\sensor_CTRL.c **** 		agyro.mean_rate = agyro.rate;
 252              		.loc 1 214 0
 253 013c 2161     		str	r1, [r4, #16]	@ float
 215:.\sensor_CTRL.c **** 		agyro.mean_rate_previous = agyro.mean_rate;
 254              		.loc 1 215 0
 255 013e 6161     		str	r1, [r4, #20]	@ float
 256              		.loc 1 216 0
 257 0140 354C     		ldr	r4, .L25+48
 217:.\sensor_CTRL.c **** 		agyro_messg = AGYRO_MEAN_STARTED;
 258              		.loc 1 217 0
 259 0142 1070     		strb	r0, [r2, #0]
 216:.\sensor_CTRL.c **** 		iteration = 2;
 260              		.loc 1 216 0
 261 0144 2060     		str	r0, [r4, #0]
 262 0146 18E0     		b	.L11
 263              	.L10:
 218:.\sensor_CTRL.c **** 	}
 219:.\sensor_CTRL.c **** 	else
 220:.\sensor_CTRL.c **** 		if (agyro_messg != AGYRO_MEAN_STOP)
 264              		.loc 1 220 0
 265 0148 0328     		cmp	r0, #3
 266 014a 16D0     		beq	.L11
 221:.\sensor_CTRL.c **** 		{
 222:.\sensor_CTRL.c **** 			agyro.mean_rate = (agyro.mean_rate_previous * (iteration - 1) + agyro.rate) / iteration;
 267              		.loc 1 222 0
ARM GAS  C:\Users\Graziano\AppData\Local\Temp\cc0nVCch.s 			page 10


 268 014c 324E     		ldr	r6, .L25+48
 269 014e 3568     		ldr	r5, [r6, #0]
 270 0150 681E     		subs	r0, r5, #1
 271 0152 FFF7FEFF 		bl	__aeabi_ui2f
 272              	.LVL25:
 273 0156 6169     		ldr	r1, [r4, #20]	@ float
 274 0158 FFF7FEFF 		bl	__aeabi_fmul
 275              	.LVL26:
 276 015c A168     		ldr	r1, [r4, #8]	@ float
 277 015e FFF7FEFF 		bl	__aeabi_fadd
 278              	.LVL27:
 279 0162 0746     		mov	r7, r0
 280 0164 2846     		mov	r0, r5
 281 0166 FFF7FEFF 		bl	__aeabi_ui2f
 282              	.LVL28:
 283 016a 0146     		mov	r1, r0
 284 016c 3846     		mov	r0, r7
 285 016e FFF7FEFF 		bl	__aeabi_fdiv
 286              	.LVL29:
 223:.\sensor_CTRL.c **** 			agyro.mean_rate_previous = agyro.mean_rate;
 224:.\sensor_CTRL.c **** 			iteration = iteration + 1;
 287              		.loc 1 224 0
 288 0172 6B1C     		adds	r3, r5, #1
 222:.\sensor_CTRL.c **** 			agyro.mean_rate = (agyro.mean_rate_previous * (iteration - 1) + agyro.rate) / iteration;
 289              		.loc 1 222 0
 290 0174 2061     		str	r0, [r4, #16]	@ float
 223:.\sensor_CTRL.c **** 			agyro.mean_rate_previous = agyro.mean_rate;
 291              		.loc 1 223 0
 292 0176 6061     		str	r0, [r4, #20]	@ float
 293              		.loc 1 224 0
 294 0178 3360     		str	r3, [r6, #0]
 295              	.L11:
 225:.\sensor_CTRL.c **** 		}
 226:.\sensor_CTRL.c **** 
 227:.\sensor_CTRL.c **** 	/****************************************************************************/
 228:.\sensor_CTRL.c **** 	/* analog gyro: Exponential error smoothing function					*/
 229:.\sensor_CTRL.c **** 	/* (exactly like RC first order low pass filter) 							*/
 230:.\sensor_CTRL.c **** 	/* http://en.wikipedia.org/wiki/Low-pass_filter#Discrete-time_realization	*/
 231:.\sensor_CTRL.c **** 	/* http://en.wikipedia.org/wiki/Exponential_smoothing						*/
 232:.\sensor_CTRL.c **** 	/*																			*/
 233:.\sensor_CTRL.c **** 	/* tau = deltaT *(1 - gamma)/gamma											*/
 234:.\sensor_CTRL.c **** 	/*       deltaT = 66,7 msec @ 150Hz											*/
 235:.\sensor_CTRL.c **** 	/*		 beta  = 0.0005														*/
 236:.\sensor_CTRL.c **** 	/*		 --> tau = 13,32 sec (fc = 2 * 3.14 / tau = 0.5Hz)					*/
 237:.\sensor_CTRL.c **** 	/****************************************************************************/
 238:.\sensor_CTRL.c **** 	/* gamma = 1 TO BYPASS FILTER												*/
 239:.\sensor_CTRL.c **** 	/****************************************************************************/
 240:.\sensor_CTRL.c **** 	if (gobee_param.gamma.fnum == 1)
 296              		.loc 1 240 0
 297 017a 214A     		ldr	r2, .L25+24
 298 017c 4FF07E51 		mov	r1, #1065353216
 299 0180 D568     		ldr	r5, [r2, #12]	@ float
 300 0182 244C     		ldr	r4, .L25+44
 301 0184 2846     		mov	r0, r5
 302 0186 FFF7FEFF 		bl	__aeabi_fcmpeq
 303              	.LVL30:
 304 018a 10B1     		cbz	r0, .L23
ARM GAS  C:\Users\Graziano\AppData\Local\Temp\cc0nVCch.s 			page 11


 241:.\sensor_CTRL.c **** 	{
 242:.\sensor_CTRL.c **** 		agyro.rate_lowpass = agyro.rate;
 305              		.loc 1 242 0
 306 018c A368     		ldr	r3, [r4, #8]	@ float
 307 018e E360     		str	r3, [r4, #12]	@ float
 308 0190 0DE0     		b	.L14
 309              	.L23:
 243:.\sensor_CTRL.c **** 	}
 244:.\sensor_CTRL.c **** 	else
 245:.\sensor_CTRL.c **** 	{
 246:.\sensor_CTRL.c **** 		agyro.rate_lowpass = agyro.rate_lowpass + (float)gobee_param.gamma.fnum * (agyro.rate- agyro.rate
 310              		.loc 1 246 0
 311 0192 E668     		ldr	r6, [r4, #12]	@ float
 312 0194 A068     		ldr	r0, [r4, #8]	@ float
 313 0196 3146     		mov	r1, r6
 314 0198 FFF7FEFF 		bl	__aeabi_fsub
 315              	.LVL31:
 316 019c 0146     		mov	r1, r0
 317 019e 2846     		mov	r0, r5
 318 01a0 FFF7FEFF 		bl	__aeabi_fmul
 319              	.LVL32:
 320 01a4 0146     		mov	r1, r0
 321 01a6 3046     		mov	r0, r6
 322 01a8 FFF7FEFF 		bl	__aeabi_fadd
 323              	.LVL33:
 324 01ac E060     		str	r0, [r4, #12]	@ float
 325              	.L14:
 247:.\sensor_CTRL.c **** 	}
 248:.\sensor_CTRL.c **** 
 249:.\sensor_CTRL.c **** 	/* Analog Gyro integration step */
 250:.\sensor_CTRL.c **** 	agyro.angle = agyro.angle + agyro.rate_lowpass * DeltaT_const;	/* [deg] */		
 326              		.loc 1 250 0
 327 01ae 194E     		ldr	r6, .L25+44
 328 01b0 B069     		ldr	r0, [r6, #24]	@ float
 329 01b2 FFF7FEFF 		bl	__aeabi_f2d
 330              	.LVL34:
 331 01b6 0446     		mov	r4, r0
 332 01b8 F068     		ldr	r0, [r6, #12]	@ float
 333 01ba 0D46     		mov	r5, r1
 334 01bc FFF7FEFF 		bl	__aeabi_f2d
 335              	.LVL35:
 336 01c0 0BA3     		adr	r3, .L25+8
 337 01c2 D3E90023 		ldrd	r2, [r3]
 338 01c6 FFF7FEFF 		bl	__aeabi_dmul
 339              	.LVL36:
 340 01ca 0246     		mov	r2, r0
 341 01cc 0B46     		mov	r3, r1
 342 01ce 2046     		mov	r0, r4
 343 01d0 2946     		mov	r1, r5
 344 01d2 FFF7FEFF 		bl	__aeabi_dadd
 345              	.LVL37:
 346 01d6 FFF7FEFF 		bl	__aeabi_d2f
 347              	.LVL38:
 251:.\sensor_CTRL.c **** 	angle = agyro.angle;											/* [deg] */
 348              		.loc 1 251 0
 349 01da 1049     		ldr	r1, .L25+52
 250:.\sensor_CTRL.c **** 	agyro.angle = agyro.angle + agyro.rate_lowpass * DeltaT_const;	/* [deg] */		
ARM GAS  C:\Users\Graziano\AppData\Local\Temp\cc0nVCch.s 			page 12


 350              		.loc 1 250 0
 351 01dc B061     		str	r0, [r6, #24]	@ float
 352              		.loc 1 251 0
 353 01de 0860     		str	r0, [r1, #0]	@ float
 354 01e0 BDE8F883 		pop	{r3, r4, r5, r6, r7, r8, r9, pc}
 355              	.L26:
 356 01e4 AFF30080 		.align	3
 357              	.L25:
 358 01e8 72235D1A 		.word	442311538
 359 01ec DCA54C40 		.word	1078765020
 360 01f0 A2E46B55 		.word	1433134242
 361 01f4 66D8353F 		.word	1060493414
 362 01f8 00000000 		.word	AdcValue
 363 01fc 00000000 		.word	aacc
 364 0200 00000000 		.word	gobee_param
 365 0204 93E2E53B 		.word	1004921491
 366 0208 0000C841 		.word	1103626240
 367 020c 0000C8C1 		.word	-1043857408
 368 0210 00000000 		.word	agyro_messg
 369 0214 00000000 		.word	agyro
 370 0218 00000000 		.word	iteration
 371 021c 00000000 		.word	angle
 372              		.cfi_endproc
 373              	.LFE56:
 374              		.size	sensor_control, .-sensor_control
 375              		.comm	dgyro_offset_fine,4,4
 376              		.global	QuadDecEvent
 377              		.global	idxMAX
 378              		.global	dummy
 379              		.global	idx
 380              		.comm	aacc,56,4
 381              		.comm	gobee_vparam,0,1
 382              		.bss
 383              		.type	QuadDecEvent, %object
 384              		.size	QuadDecEvent, 1
 385              	QuadDecEvent:
 386 0000 00       		.space	1
 387              		.type	idxMAX, %object
 388              		.size	idxMAX, 1
 389              	idxMAX:
 390 0001 00       		.space	1
 391              		.type	dummy, %object
 392              		.size	dummy, 1
 393              	dummy:
 394 0002 00       		.space	1
 395              		.type	idx, %object
 396              		.size	idx, 1
 397              	idx:
 398 0003 00       		.space	1
 399              		.text
 400              	.Letext0:
 401              		.file 2 "c:\\program files (x86)\\cypress\\psoc creator\\3.0\\psoc creator\\import\\gnu_cs\\arm\\4
 402              		.file 3 "./Generated_Source/PSoC5/cytypes.h"
 403              		.file 4 "./gobee.h"
 404              		.file 5 "./Generated_Source/PSoC5/core_cm3.h"
 405              		.file 6 "./gobeelib.h"
 406              		.file 7 "c:\\program files (x86)\\cypress\\psoc creator\\3.0\\psoc creator\\import\\gnu_cs\\arm\\4
ARM GAS  C:\Users\Graziano\AppData\Local\Temp\cc0nVCch.s 			page 13

