ARM GAS  C:\Users\Graziano\AppData\Local\Temp\ccgdNdo1.s 			page 1


   1              		.syntax unified
   2              		.cpu cortex-m3
   3              		.fpu softvfp
   4              		.eabi_attribute 20, 1
   5              		.eabi_attribute 21, 1
   6              		.eabi_attribute 23, 3
   7              		.eabi_attribute 24, 1
   8              		.eabi_attribute 25, 1
   9              		.eabi_attribute 26, 1
  10              		.eabi_attribute 30, 4
  11              		.eabi_attribute 34, 1
  12              		.eabi_attribute 18, 4
  13              		.thumb
  14              		.file	"WaveDAC8_PM.c"
  15              		.text
  16              	.Ltext0:
  17              		.cfi_sections	.debug_frame
  18              		.section	.text.WaveDAC8_Sleep,"ax",%progbits
  19              		.align	1
  20              		.global	WaveDAC8_Sleep
  21              		.thumb
  22              		.thumb_func
  23              		.type	WaveDAC8_Sleep, %function
  24              	WaveDAC8_Sleep:
  25              	.LFB0:
  26              		.file 1 ".\\Generated_Source\\PSoC5\\WaveDAC8_PM.c"
   1:.\Generated_Source\PSoC5/WaveDAC8_PM.c **** /*******************************************************************************
   2:.\Generated_Source\PSoC5/WaveDAC8_PM.c **** * File Name: WaveDAC8_PM.c  
   3:.\Generated_Source\PSoC5/WaveDAC8_PM.c **** * Version 2.0
   4:.\Generated_Source\PSoC5/WaveDAC8_PM.c **** *
   5:.\Generated_Source\PSoC5/WaveDAC8_PM.c **** * Description:
   6:.\Generated_Source\PSoC5/WaveDAC8_PM.c **** *  This file provides the power manager source code to the API for 
   7:.\Generated_Source\PSoC5/WaveDAC8_PM.c **** *  the WaveDAC8 component.
   8:.\Generated_Source\PSoC5/WaveDAC8_PM.c **** *
   9:.\Generated_Source\PSoC5/WaveDAC8_PM.c **** ********************************************************************************
  10:.\Generated_Source\PSoC5/WaveDAC8_PM.c **** * Copyright 2013, Cypress Semiconductor Corporation.  All rights reserved.
  11:.\Generated_Source\PSoC5/WaveDAC8_PM.c **** * You may use this file only in accordance with the license, terms, conditions, 
  12:.\Generated_Source\PSoC5/WaveDAC8_PM.c **** * disclaimers, and limitations in the end user license agreement accompanying 
  13:.\Generated_Source\PSoC5/WaveDAC8_PM.c **** * the software package with which this file was provided.
  14:.\Generated_Source\PSoC5/WaveDAC8_PM.c **** *******************************************************************************/
  15:.\Generated_Source\PSoC5/WaveDAC8_PM.c **** 
  16:.\Generated_Source\PSoC5/WaveDAC8_PM.c **** #include "WaveDAC8.h"
  17:.\Generated_Source\PSoC5/WaveDAC8_PM.c **** 
  18:.\Generated_Source\PSoC5/WaveDAC8_PM.c **** static WaveDAC8_BACKUP_STRUCT  WaveDAC8_backup;
  19:.\Generated_Source\PSoC5/WaveDAC8_PM.c **** 
  20:.\Generated_Source\PSoC5/WaveDAC8_PM.c **** 
  21:.\Generated_Source\PSoC5/WaveDAC8_PM.c **** /*******************************************************************************
  22:.\Generated_Source\PSoC5/WaveDAC8_PM.c **** * Function Name: WaveDAC8_Sleep
  23:.\Generated_Source\PSoC5/WaveDAC8_PM.c **** ********************************************************************************
  24:.\Generated_Source\PSoC5/WaveDAC8_PM.c **** *
  25:.\Generated_Source\PSoC5/WaveDAC8_PM.c **** * Summary:
  26:.\Generated_Source\PSoC5/WaveDAC8_PM.c **** *  Stops the component and saves its configuration. Should be called 
  27:.\Generated_Source\PSoC5/WaveDAC8_PM.c **** *  just prior to entering sleep.
  28:.\Generated_Source\PSoC5/WaveDAC8_PM.c **** *  
  29:.\Generated_Source\PSoC5/WaveDAC8_PM.c **** * Parameters:  
  30:.\Generated_Source\PSoC5/WaveDAC8_PM.c **** *  None
  31:.\Generated_Source\PSoC5/WaveDAC8_PM.c **** *
ARM GAS  C:\Users\Graziano\AppData\Local\Temp\ccgdNdo1.s 			page 2


  32:.\Generated_Source\PSoC5/WaveDAC8_PM.c **** * Return: 
  33:.\Generated_Source\PSoC5/WaveDAC8_PM.c **** *  None
  34:.\Generated_Source\PSoC5/WaveDAC8_PM.c **** *
  35:.\Generated_Source\PSoC5/WaveDAC8_PM.c **** * Global variables:
  36:.\Generated_Source\PSoC5/WaveDAC8_PM.c **** *  WaveDAC8_backup:  The structure field 'enableState' is modified 
  37:.\Generated_Source\PSoC5/WaveDAC8_PM.c **** *  depending on the enable state of the block before entering to sleep mode.
  38:.\Generated_Source\PSoC5/WaveDAC8_PM.c **** *
  39:.\Generated_Source\PSoC5/WaveDAC8_PM.c **** * Reentrant:
  40:.\Generated_Source\PSoC5/WaveDAC8_PM.c **** *  No
  41:.\Generated_Source\PSoC5/WaveDAC8_PM.c **** *
  42:.\Generated_Source\PSoC5/WaveDAC8_PM.c **** *******************************************************************************/
  43:.\Generated_Source\PSoC5/WaveDAC8_PM.c **** void WaveDAC8_Sleep(void) 
  44:.\Generated_Source\PSoC5/WaveDAC8_PM.c **** {
  27              		.loc 1 44 0
  28              		.cfi_startproc
  29              		@ args = 0, pretend = 0, frame = 0
  30              		@ frame_needed = 0, uses_anonymous_args = 0
  31 0000 08B5     		push	{r3, lr}
  32              	.LCFI0:
  33              		.cfi_def_cfa_offset 8
  34              		.cfi_offset 3, -8
  35              		.cfi_offset 14, -4
  45:.\Generated_Source\PSoC5/WaveDAC8_PM.c **** 	/* Save DAC8's enable state */
  46:.\Generated_Source\PSoC5/WaveDAC8_PM.c **** 
  47:.\Generated_Source\PSoC5/WaveDAC8_PM.c **** 	WaveDAC8_backup.enableState = (WaveDAC8_VDAC8_ACT_PWR_EN == 
  48:.\Generated_Source\PSoC5/WaveDAC8_PM.c **** 		(WaveDAC8_VDAC8_PWRMGR_REG & WaveDAC8_VDAC8_ACT_PWR_EN)) ? 1u : 0u ;
  36              		.loc 1 48 0
  37 0002 064B     		ldr	r3, .L2
  47:.\Generated_Source\PSoC5/WaveDAC8_PM.c **** 	WaveDAC8_backup.enableState = (WaveDAC8_VDAC8_ACT_PWR_EN == 
  38              		.loc 1 47 0
  39 0004 0649     		ldr	r1, .L2+4
  40              		.loc 1 48 0
  41 0006 1A78     		ldrb	r2, [r3, #0]	@ zero_extendqisi2
  47:.\Generated_Source\PSoC5/WaveDAC8_PM.c **** 	WaveDAC8_backup.enableState = (WaveDAC8_VDAC8_ACT_PWR_EN == 
  42              		.loc 1 47 0
  43 0008 02F00100 		and	r0, r2, #1
  44 000c 0870     		strb	r0, [r1, #0]
  49:.\Generated_Source\PSoC5/WaveDAC8_PM.c **** 	
  50:.\Generated_Source\PSoC5/WaveDAC8_PM.c **** 	WaveDAC8_Stop();
  45              		.loc 1 50 0
  46 000e FFF7FEFF 		bl	WaveDAC8_Stop
  47              	.LVL0:
  51:.\Generated_Source\PSoC5/WaveDAC8_PM.c **** 	WaveDAC8_SaveConfig();
  52:.\Generated_Source\PSoC5/WaveDAC8_PM.c **** }
  48              		.loc 1 52 0
  49 0012 BDE80840 		pop	{r3, lr}
  51:.\Generated_Source\PSoC5/WaveDAC8_PM.c **** 	WaveDAC8_SaveConfig();
  50              		.loc 1 51 0
  51 0016 FFF7FEBF 		b	WaveDAC8_VDAC8_SaveConfig
  52              	.LVL1:
  53              	.L3:
  54 001a 00BF     		.align	2
  55              	.L2:
  56 001c A8430040 		.word	1073759144
  57 0020 00000000 		.word	.LANCHOR0
  58              		.cfi_endproc
  59              	.LFE0:
ARM GAS  C:\Users\Graziano\AppData\Local\Temp\ccgdNdo1.s 			page 3


  60              		.size	WaveDAC8_Sleep, .-WaveDAC8_Sleep
  61              		.section	.text.WaveDAC8_Wakeup,"ax",%progbits
  62              		.align	1
  63              		.global	WaveDAC8_Wakeup
  64              		.thumb
  65              		.thumb_func
  66              		.type	WaveDAC8_Wakeup, %function
  67              	WaveDAC8_Wakeup:
  68              	.LFB1:
  53:.\Generated_Source\PSoC5/WaveDAC8_PM.c **** 
  54:.\Generated_Source\PSoC5/WaveDAC8_PM.c **** 
  55:.\Generated_Source\PSoC5/WaveDAC8_PM.c **** /*******************************************************************************
  56:.\Generated_Source\PSoC5/WaveDAC8_PM.c **** * Function Name: WaveDAC8_Wakeup
  57:.\Generated_Source\PSoC5/WaveDAC8_PM.c **** ********************************************************************************
  58:.\Generated_Source\PSoC5/WaveDAC8_PM.c **** *
  59:.\Generated_Source\PSoC5/WaveDAC8_PM.c **** * Summary:
  60:.\Generated_Source\PSoC5/WaveDAC8_PM.c **** *  Restores the component configuration. Should be called
  61:.\Generated_Source\PSoC5/WaveDAC8_PM.c **** *  just after awaking from sleep.
  62:.\Generated_Source\PSoC5/WaveDAC8_PM.c **** *  
  63:.\Generated_Source\PSoC5/WaveDAC8_PM.c **** * Parameters:  
  64:.\Generated_Source\PSoC5/WaveDAC8_PM.c **** *  None
  65:.\Generated_Source\PSoC5/WaveDAC8_PM.c **** *
  66:.\Generated_Source\PSoC5/WaveDAC8_PM.c **** * Return: 
  67:.\Generated_Source\PSoC5/WaveDAC8_PM.c **** *  void
  68:.\Generated_Source\PSoC5/WaveDAC8_PM.c **** *
  69:.\Generated_Source\PSoC5/WaveDAC8_PM.c **** * Global variables:
  70:.\Generated_Source\PSoC5/WaveDAC8_PM.c **** *  WaveDAC8_backup:  The structure field 'enableState' is used to 
  71:.\Generated_Source\PSoC5/WaveDAC8_PM.c **** *  restore the enable state of block after wakeup from sleep mode.
  72:.\Generated_Source\PSoC5/WaveDAC8_PM.c **** *
  73:.\Generated_Source\PSoC5/WaveDAC8_PM.c **** * Reentrant:
  74:.\Generated_Source\PSoC5/WaveDAC8_PM.c **** *  No
  75:.\Generated_Source\PSoC5/WaveDAC8_PM.c **** *
  76:.\Generated_Source\PSoC5/WaveDAC8_PM.c **** *******************************************************************************/
  77:.\Generated_Source\PSoC5/WaveDAC8_PM.c **** void WaveDAC8_Wakeup(void) 
  78:.\Generated_Source\PSoC5/WaveDAC8_PM.c **** {
  69              		.loc 1 78 0
  70              		.cfi_startproc
  71              		@ args = 0, pretend = 0, frame = 0
  72              		@ frame_needed = 0, uses_anonymous_args = 0
  73 0000 08B5     		push	{r3, lr}
  74              	.LCFI1:
  75              		.cfi_def_cfa_offset 8
  76              		.cfi_offset 3, -8
  77              		.cfi_offset 14, -4
  79:.\Generated_Source\PSoC5/WaveDAC8_PM.c **** 	WaveDAC8_RestoreConfig();
  78              		.loc 1 79 0
  79 0002 FFF7FEFF 		bl	WaveDAC8_VDAC8_RestoreConfig
  80              	.LVL2:
  80:.\Generated_Source\PSoC5/WaveDAC8_PM.c **** 
  81:.\Generated_Source\PSoC5/WaveDAC8_PM.c **** 	if(WaveDAC8_backup.enableState == 1u)
  81              		.loc 1 81 0
  82 0006 044B     		ldr	r3, .L7
  83 0008 1878     		ldrb	r0, [r3, #0]	@ zero_extendqisi2
  84 000a 0128     		cmp	r0, #1
  85 000c 03D1     		bne	.L4
  82:.\Generated_Source\PSoC5/WaveDAC8_PM.c **** 	{
  83:.\Generated_Source\PSoC5/WaveDAC8_PM.c **** 		WaveDAC8_Enable();
ARM GAS  C:\Users\Graziano\AppData\Local\Temp\ccgdNdo1.s 			page 4


  84:.\Generated_Source\PSoC5/WaveDAC8_PM.c **** 	}
  85:.\Generated_Source\PSoC5/WaveDAC8_PM.c **** }
  86              		.loc 1 85 0
  87 000e BDE80840 		pop	{r3, lr}
  83:.\Generated_Source\PSoC5/WaveDAC8_PM.c **** 		WaveDAC8_Enable();
  88              		.loc 1 83 0
  89 0012 FFF7FEBF 		b	WaveDAC8_Enable
  90              	.LVL3:
  91              	.L4:
  92 0016 08BD     		pop	{r3, pc}
  93              	.L8:
  94              		.align	2
  95              	.L7:
  96 0018 00000000 		.word	.LANCHOR0
  97              		.cfi_endproc
  98              	.LFE1:
  99              		.size	WaveDAC8_Wakeup, .-WaveDAC8_Wakeup
 100              		.bss
 101              		.set	.LANCHOR0,. + 0
 102              		.type	WaveDAC8_backup, %object
 103              		.size	WaveDAC8_backup, 1
 104              	WaveDAC8_backup:
 105 0000 00       		.space	1
 106              		.text
 107              	.Letext0:
 108              		.file 2 ".\\Generated_Source\\PSoC5\\cytypes.h"
 109              		.file 3 ".\\Generated_Source\\PSoC5\\WaveDAC8.h"
 110              		.file 4 "./Generated_Source/PSoC5/WaveDAC8_VDAC8.h"