ARM GAS  C:\Users\Graziano\AppData\Local\Temp\ccpf1ETH.s 			page 1


   1              		.syntax unified
   2              		.cpu cortex-m3
   3              		.fpu softvfp
   4              		.eabi_attribute 20, 1
   5              		.eabi_attribute 21, 1
   6              		.eabi_attribute 23, 3
   7              		.eabi_attribute 24, 1
   8              		.eabi_attribute 25, 1
   9              		.eabi_attribute 26, 1
  10              		.eabi_attribute 30, 4
  11              		.eabi_attribute 34, 1
  12              		.eabi_attribute 18, 4
  13              		.thumb
  14              		.file	"WaveDAC8_Wave2_DMA_dma.c"
  15              		.text
  16              	.Ltext0:
  17              		.cfi_sections	.debug_frame
  18              		.section	.text.WaveDAC8_Wave2_DMA_DmaInitialize,"ax",%progbits
  19              		.align	1
  20              		.global	WaveDAC8_Wave2_DMA_DmaInitialize
  21              		.thumb
  22              		.thumb_func
  23              		.type	WaveDAC8_Wave2_DMA_DmaInitialize, %function
  24              	WaveDAC8_Wave2_DMA_DmaInitialize:
  25              	.LFB0:
  26              		.file 1 ".\\Generated_Source\\PSoC5\\WaveDAC8_Wave2_DMA_dma.c"
   1:.\Generated_Source\PSoC5/WaveDAC8_Wave2_DMA_dma.c **** /***************************************************************************
   2:.\Generated_Source\PSoC5/WaveDAC8_Wave2_DMA_dma.c **** * File Name: WaveDAC8_Wave2_DMA_dma.c  
   3:.\Generated_Source\PSoC5/WaveDAC8_Wave2_DMA_dma.c **** * Version 1.70
   4:.\Generated_Source\PSoC5/WaveDAC8_Wave2_DMA_dma.c **** *
   5:.\Generated_Source\PSoC5/WaveDAC8_Wave2_DMA_dma.c **** *  Description:
   6:.\Generated_Source\PSoC5/WaveDAC8_Wave2_DMA_dma.c **** *   Provides an API for the DMAC component. The API includes functions
   7:.\Generated_Source\PSoC5/WaveDAC8_Wave2_DMA_dma.c **** *   for the DMA controller, DMA channels and Transfer Descriptors.
   8:.\Generated_Source\PSoC5/WaveDAC8_Wave2_DMA_dma.c **** *
   9:.\Generated_Source\PSoC5/WaveDAC8_Wave2_DMA_dma.c **** *
  10:.\Generated_Source\PSoC5/WaveDAC8_Wave2_DMA_dma.c **** *   Note:
  11:.\Generated_Source\PSoC5/WaveDAC8_Wave2_DMA_dma.c **** *     This module requires the developer to finish or fill in the auto
  12:.\Generated_Source\PSoC5/WaveDAC8_Wave2_DMA_dma.c **** *     generated funcions and setup the dma channel and TD's.
  13:.\Generated_Source\PSoC5/WaveDAC8_Wave2_DMA_dma.c **** *
  14:.\Generated_Source\PSoC5/WaveDAC8_Wave2_DMA_dma.c **** ********************************************************************************
  15:.\Generated_Source\PSoC5/WaveDAC8_Wave2_DMA_dma.c **** * Copyright 2008-2010, Cypress Semiconductor Corporation.  All rights reserved.
  16:.\Generated_Source\PSoC5/WaveDAC8_Wave2_DMA_dma.c **** * You may use this file only in accordance with the license, terms, conditions, 
  17:.\Generated_Source\PSoC5/WaveDAC8_Wave2_DMA_dma.c **** * disclaimers, and limitations in the end user license agreement accompanying 
  18:.\Generated_Source\PSoC5/WaveDAC8_Wave2_DMA_dma.c **** * the software package with which this file was provided.
  19:.\Generated_Source\PSoC5/WaveDAC8_Wave2_DMA_dma.c **** ********************************************************************************/
  20:.\Generated_Source\PSoC5/WaveDAC8_Wave2_DMA_dma.c **** #include <CYLIB.H>
  21:.\Generated_Source\PSoC5/WaveDAC8_Wave2_DMA_dma.c **** #include <CYDMAC.H>
  22:.\Generated_Source\PSoC5/WaveDAC8_Wave2_DMA_dma.c **** #include <WaveDAC8_Wave2_DMA_dma.H>
  23:.\Generated_Source\PSoC5/WaveDAC8_Wave2_DMA_dma.c **** 
  24:.\Generated_Source\PSoC5/WaveDAC8_Wave2_DMA_dma.c **** 
  25:.\Generated_Source\PSoC5/WaveDAC8_Wave2_DMA_dma.c **** 
  26:.\Generated_Source\PSoC5/WaveDAC8_Wave2_DMA_dma.c **** /****************************************************************************
  27:.\Generated_Source\PSoC5/WaveDAC8_Wave2_DMA_dma.c **** * 
  28:.\Generated_Source\PSoC5/WaveDAC8_Wave2_DMA_dma.c **** * The following defines are available in Cyfitter.h
  29:.\Generated_Source\PSoC5/WaveDAC8_Wave2_DMA_dma.c **** * 
  30:.\Generated_Source\PSoC5/WaveDAC8_Wave2_DMA_dma.c **** * 
  31:.\Generated_Source\PSoC5/WaveDAC8_Wave2_DMA_dma.c **** * 
ARM GAS  C:\Users\Graziano\AppData\Local\Temp\ccpf1ETH.s 			page 2


  32:.\Generated_Source\PSoC5/WaveDAC8_Wave2_DMA_dma.c **** * WaveDAC8_Wave2_DMA__DRQ_CTL_REG
  33:.\Generated_Source\PSoC5/WaveDAC8_Wave2_DMA_dma.c **** * 
  34:.\Generated_Source\PSoC5/WaveDAC8_Wave2_DMA_dma.c **** * 
  35:.\Generated_Source\PSoC5/WaveDAC8_Wave2_DMA_dma.c **** * WaveDAC8_Wave2_DMA__DRQ_NUMBER
  36:.\Generated_Source\PSoC5/WaveDAC8_Wave2_DMA_dma.c **** * 
  37:.\Generated_Source\PSoC5/WaveDAC8_Wave2_DMA_dma.c **** * Number of TD's used by this channel.
  38:.\Generated_Source\PSoC5/WaveDAC8_Wave2_DMA_dma.c **** * WaveDAC8_Wave2_DMA__NUMBEROF_TDS
  39:.\Generated_Source\PSoC5/WaveDAC8_Wave2_DMA_dma.c **** * 
  40:.\Generated_Source\PSoC5/WaveDAC8_Wave2_DMA_dma.c **** * Priority of this channel.
  41:.\Generated_Source\PSoC5/WaveDAC8_Wave2_DMA_dma.c **** * WaveDAC8_Wave2_DMA__PRIORITY
  42:.\Generated_Source\PSoC5/WaveDAC8_Wave2_DMA_dma.c **** * 
  43:.\Generated_Source\PSoC5/WaveDAC8_Wave2_DMA_dma.c **** * True if WaveDAC8_Wave2_DMA_TERMIN_SEL is used.
  44:.\Generated_Source\PSoC5/WaveDAC8_Wave2_DMA_dma.c **** * WaveDAC8_Wave2_DMA__TERMIN_EN
  45:.\Generated_Source\PSoC5/WaveDAC8_Wave2_DMA_dma.c **** * 
  46:.\Generated_Source\PSoC5/WaveDAC8_Wave2_DMA_dma.c **** * TERMIN interrupt line to signal terminate.
  47:.\Generated_Source\PSoC5/WaveDAC8_Wave2_DMA_dma.c **** * WaveDAC8_Wave2_DMA__TERMIN_SEL
  48:.\Generated_Source\PSoC5/WaveDAC8_Wave2_DMA_dma.c **** * 
  49:.\Generated_Source\PSoC5/WaveDAC8_Wave2_DMA_dma.c **** * 
  50:.\Generated_Source\PSoC5/WaveDAC8_Wave2_DMA_dma.c **** * True if WaveDAC8_Wave2_DMA_TERMOUT0_SEL is used.
  51:.\Generated_Source\PSoC5/WaveDAC8_Wave2_DMA_dma.c **** * WaveDAC8_Wave2_DMA__TERMOUT0_EN
  52:.\Generated_Source\PSoC5/WaveDAC8_Wave2_DMA_dma.c **** * 
  53:.\Generated_Source\PSoC5/WaveDAC8_Wave2_DMA_dma.c **** * 
  54:.\Generated_Source\PSoC5/WaveDAC8_Wave2_DMA_dma.c **** * TERMOUT0 interrupt line to signal completion.
  55:.\Generated_Source\PSoC5/WaveDAC8_Wave2_DMA_dma.c **** * WaveDAC8_Wave2_DMA__TERMOUT0_SEL
  56:.\Generated_Source\PSoC5/WaveDAC8_Wave2_DMA_dma.c **** * 
  57:.\Generated_Source\PSoC5/WaveDAC8_Wave2_DMA_dma.c **** * 
  58:.\Generated_Source\PSoC5/WaveDAC8_Wave2_DMA_dma.c **** * True if WaveDAC8_Wave2_DMA_TERMOUT1_SEL is used.
  59:.\Generated_Source\PSoC5/WaveDAC8_Wave2_DMA_dma.c **** * WaveDAC8_Wave2_DMA__TERMOUT1_EN
  60:.\Generated_Source\PSoC5/WaveDAC8_Wave2_DMA_dma.c **** * 
  61:.\Generated_Source\PSoC5/WaveDAC8_Wave2_DMA_dma.c **** * 
  62:.\Generated_Source\PSoC5/WaveDAC8_Wave2_DMA_dma.c **** * TERMOUT1 interrupt line to signal completion.
  63:.\Generated_Source\PSoC5/WaveDAC8_Wave2_DMA_dma.c **** * WaveDAC8_Wave2_DMA__TERMOUT1_SEL
  64:.\Generated_Source\PSoC5/WaveDAC8_Wave2_DMA_dma.c **** * 
  65:.\Generated_Source\PSoC5/WaveDAC8_Wave2_DMA_dma.c **** ****************************************************************************/
  66:.\Generated_Source\PSoC5/WaveDAC8_Wave2_DMA_dma.c **** 
  67:.\Generated_Source\PSoC5/WaveDAC8_Wave2_DMA_dma.c **** 
  68:.\Generated_Source\PSoC5/WaveDAC8_Wave2_DMA_dma.c **** /* Zero based index of WaveDAC8_Wave2_DMA dma channel */
  69:.\Generated_Source\PSoC5/WaveDAC8_Wave2_DMA_dma.c **** uint8 WaveDAC8_Wave2_DMA_DmaHandle = DMA_INVALID_CHANNEL;
  70:.\Generated_Source\PSoC5/WaveDAC8_Wave2_DMA_dma.c **** 
  71:.\Generated_Source\PSoC5/WaveDAC8_Wave2_DMA_dma.c **** /*********************************************************************
  72:.\Generated_Source\PSoC5/WaveDAC8_Wave2_DMA_dma.c **** * Function Name: uint8 WaveDAC8_Wave2_DMA_DmaInitalize
  73:.\Generated_Source\PSoC5/WaveDAC8_Wave2_DMA_dma.c **** **********************************************************************
  74:.\Generated_Source\PSoC5/WaveDAC8_Wave2_DMA_dma.c **** * Summary:
  75:.\Generated_Source\PSoC5/WaveDAC8_Wave2_DMA_dma.c **** *   Allocates and initialises a channel of the DMAC to be used by the
  76:.\Generated_Source\PSoC5/WaveDAC8_Wave2_DMA_dma.c **** *   caller.
  77:.\Generated_Source\PSoC5/WaveDAC8_Wave2_DMA_dma.c **** *
  78:.\Generated_Source\PSoC5/WaveDAC8_Wave2_DMA_dma.c **** * Parameters:
  79:.\Generated_Source\PSoC5/WaveDAC8_Wave2_DMA_dma.c **** *   BurstCount.
  80:.\Generated_Source\PSoC5/WaveDAC8_Wave2_DMA_dma.c **** *       
  81:.\Generated_Source\PSoC5/WaveDAC8_Wave2_DMA_dma.c **** *       
  82:.\Generated_Source\PSoC5/WaveDAC8_Wave2_DMA_dma.c **** *   ReqestPerBurst.
  83:.\Generated_Source\PSoC5/WaveDAC8_Wave2_DMA_dma.c **** *       
  84:.\Generated_Source\PSoC5/WaveDAC8_Wave2_DMA_dma.c **** *       
  85:.\Generated_Source\PSoC5/WaveDAC8_Wave2_DMA_dma.c **** *   UpperSrcAddress.
  86:.\Generated_Source\PSoC5/WaveDAC8_Wave2_DMA_dma.c **** *       
  87:.\Generated_Source\PSoC5/WaveDAC8_Wave2_DMA_dma.c **** *       
  88:.\Generated_Source\PSoC5/WaveDAC8_Wave2_DMA_dma.c **** *   UpperDestAddress.
ARM GAS  C:\Users\Graziano\AppData\Local\Temp\ccpf1ETH.s 			page 3


  89:.\Generated_Source\PSoC5/WaveDAC8_Wave2_DMA_dma.c **** *       
  90:.\Generated_Source\PSoC5/WaveDAC8_Wave2_DMA_dma.c **** *
  91:.\Generated_Source\PSoC5/WaveDAC8_Wave2_DMA_dma.c **** * Return:
  92:.\Generated_Source\PSoC5/WaveDAC8_Wave2_DMA_dma.c **** *   The channel that can be used by the caller for DMA activity.
  93:.\Generated_Source\PSoC5/WaveDAC8_Wave2_DMA_dma.c **** *   DMA_INVALID_CHANNEL (0xFF) if there are no channels left. 
  94:.\Generated_Source\PSoC5/WaveDAC8_Wave2_DMA_dma.c **** *
  95:.\Generated_Source\PSoC5/WaveDAC8_Wave2_DMA_dma.c **** *
  96:.\Generated_Source\PSoC5/WaveDAC8_Wave2_DMA_dma.c **** *******************************************************************/
  97:.\Generated_Source\PSoC5/WaveDAC8_Wave2_DMA_dma.c **** uint8 WaveDAC8_Wave2_DMA_DmaInitialize(uint8 BurstCount, uint8 ReqestPerBurst, uint16 UpperSrcAddre
  98:.\Generated_Source\PSoC5/WaveDAC8_Wave2_DMA_dma.c **** {
  27              		.loc 1 98 0
  28              		.cfi_startproc
  29              		@ args = 0, pretend = 0, frame = 0
  30              		@ frame_needed = 0, uses_anonymous_args = 0
  31              	.LVL0:
  32 0000 F7B5     		push	{r0, r1, r2, r4, r5, r6, r7, lr}
  33              	.LCFI0:
  34              		.cfi_def_cfa_offset 32
  35              		.cfi_offset 0, -32
  36              		.cfi_offset 1, -28
  37              		.cfi_offset 2, -24
  38              		.cfi_offset 4, -20
  39              		.cfi_offset 5, -16
  40              		.cfi_offset 6, -12
  41              		.cfi_offset 7, -8
  42              		.cfi_offset 14, -4
  43              		.loc 1 98 0
  44 0002 8646     		mov	lr, r0
  99:.\Generated_Source\PSoC5/WaveDAC8_Wave2_DMA_dma.c **** 
 100:.\Generated_Source\PSoC5/WaveDAC8_Wave2_DMA_dma.c ****     /* Allocate a DMA channel. */
 101:.\Generated_Source\PSoC5/WaveDAC8_Wave2_DMA_dma.c ****     WaveDAC8_Wave2_DMA_DmaHandle = (uint8)WaveDAC8_Wave2_DMA__DRQ_NUMBER;
  45              		.loc 1 101 0
  46 0004 0B4C     		ldr	r4, .L2
  98:.\Generated_Source\PSoC5/WaveDAC8_Wave2_DMA_dma.c **** {
  47              		.loc 1 98 0
  48 0006 0F46     		mov	r7, r1
  49 0008 1D46     		mov	r5, r3
 102:.\Generated_Source\PSoC5/WaveDAC8_Wave2_DMA_dma.c **** 
 103:.\Generated_Source\PSoC5/WaveDAC8_Wave2_DMA_dma.c ****     /* Configure the channel. */
 104:.\Generated_Source\PSoC5/WaveDAC8_Wave2_DMA_dma.c ****     (void)CyDmaChSetConfiguration(WaveDAC8_Wave2_DMA_DmaHandle,
  50              		.loc 1 104 0
  51 000a 0023     		movs	r3, #0
  52              	.LVL1:
  53 000c 7146     		mov	r1, lr
  54              	.LVL2:
  55 000e 0093     		str	r3, [sp, #0]
  56 0010 0193     		str	r3, [sp, #4]
  98:.\Generated_Source\PSoC5/WaveDAC8_Wave2_DMA_dma.c **** {
  57              		.loc 1 98 0
  58 0012 1646     		mov	r6, r2
 101:.\Generated_Source\PSoC5/WaveDAC8_Wave2_DMA_dma.c ****     WaveDAC8_Wave2_DMA_DmaHandle = (uint8)WaveDAC8_Wave2_DMA__DRQ_NUMBER;
  59              		.loc 1 101 0
  60 0014 0120     		movs	r0, #1
  61              	.LVL3:
  62              		.loc 1 104 0
  63 0016 3A46     		mov	r2, r7
  64              	.LVL4:
ARM GAS  C:\Users\Graziano\AppData\Local\Temp\ccpf1ETH.s 			page 4


 101:.\Generated_Source\PSoC5/WaveDAC8_Wave2_DMA_dma.c ****     WaveDAC8_Wave2_DMA_DmaHandle = (uint8)WaveDAC8_Wave2_DMA__DRQ_NUMBER;
  65              		.loc 1 101 0
  66 0018 2070     		strb	r0, [r4, #0]
  67              		.loc 1 104 0
  68 001a FFF7FEFF 		bl	CyDmaChSetConfiguration
  69              	.LVL5:
 105:.\Generated_Source\PSoC5/WaveDAC8_Wave2_DMA_dma.c ****                                   BurstCount,
 106:.\Generated_Source\PSoC5/WaveDAC8_Wave2_DMA_dma.c ****                                   ReqestPerBurst,
 107:.\Generated_Source\PSoC5/WaveDAC8_Wave2_DMA_dma.c ****                                   (uint8)WaveDAC8_Wave2_DMA__TERMOUT0_SEL,
 108:.\Generated_Source\PSoC5/WaveDAC8_Wave2_DMA_dma.c ****                                   (uint8)WaveDAC8_Wave2_DMA__TERMOUT1_SEL,
 109:.\Generated_Source\PSoC5/WaveDAC8_Wave2_DMA_dma.c ****                                   (uint8)WaveDAC8_Wave2_DMA__TERMIN_SEL);
 110:.\Generated_Source\PSoC5/WaveDAC8_Wave2_DMA_dma.c **** 
 111:.\Generated_Source\PSoC5/WaveDAC8_Wave2_DMA_dma.c ****     /* Set the extended address for the transfers */
 112:.\Generated_Source\PSoC5/WaveDAC8_Wave2_DMA_dma.c ****     (void)CyDmaChSetExtendedAddress(WaveDAC8_Wave2_DMA_DmaHandle, UpperSrcAddress, UpperDestAddress
  70              		.loc 1 112 0
  71 001e 3146     		mov	r1, r6
  72 0020 2A46     		mov	r2, r5
  73 0022 2078     		ldrb	r0, [r4, #0]	@ zero_extendqisi2
  74 0024 FFF7FEFF 		bl	CyDmaChSetExtendedAddress
  75              	.LVL6:
 113:.\Generated_Source\PSoC5/WaveDAC8_Wave2_DMA_dma.c **** 
 114:.\Generated_Source\PSoC5/WaveDAC8_Wave2_DMA_dma.c ****     /* Set the priority for this channel */
 115:.\Generated_Source\PSoC5/WaveDAC8_Wave2_DMA_dma.c ****     (void)CyDmaChPriority(WaveDAC8_Wave2_DMA_DmaHandle, (uint8)WaveDAC8_Wave2_DMA__PRIORITY);
  76              		.loc 1 115 0
  77 0028 2078     		ldrb	r0, [r4, #0]	@ zero_extendqisi2
  78 002a 0221     		movs	r1, #2
  79 002c FFF7FEFF 		bl	CyDmaChPriority
  80              	.LVL7:
 116:.\Generated_Source\PSoC5/WaveDAC8_Wave2_DMA_dma.c ****     
 117:.\Generated_Source\PSoC5/WaveDAC8_Wave2_DMA_dma.c ****     return WaveDAC8_Wave2_DMA_DmaHandle;
 118:.\Generated_Source\PSoC5/WaveDAC8_Wave2_DMA_dma.c **** }
  81              		.loc 1 118 0
  82 0030 2078     		ldrb	r0, [r4, #0]	@ zero_extendqisi2
  83 0032 FEBD     		pop	{r1, r2, r3, r4, r5, r6, r7, pc}
  84              	.L3:
  85              		.align	2
  86              	.L2:
  87 0034 00000000 		.word	.LANCHOR0
  88              		.cfi_endproc
  89              	.LFE0:
  90              		.size	WaveDAC8_Wave2_DMA_DmaInitialize, .-WaveDAC8_Wave2_DMA_DmaInitialize
  91              		.section	.text.WaveDAC8_Wave2_DMA_DmaRelease,"ax",%progbits
  92              		.align	1
  93              		.global	WaveDAC8_Wave2_DMA_DmaRelease
  94              		.thumb
  95              		.thumb_func
  96              		.type	WaveDAC8_Wave2_DMA_DmaRelease, %function
  97              	WaveDAC8_Wave2_DMA_DmaRelease:
  98              	.LFB1:
 119:.\Generated_Source\PSoC5/WaveDAC8_Wave2_DMA_dma.c **** 
 120:.\Generated_Source\PSoC5/WaveDAC8_Wave2_DMA_dma.c **** /*********************************************************************
 121:.\Generated_Source\PSoC5/WaveDAC8_Wave2_DMA_dma.c **** * Function Name: void WaveDAC8_Wave2_DMA_DmaRelease
 122:.\Generated_Source\PSoC5/WaveDAC8_Wave2_DMA_dma.c **** **********************************************************************
 123:.\Generated_Source\PSoC5/WaveDAC8_Wave2_DMA_dma.c **** * Summary:
 124:.\Generated_Source\PSoC5/WaveDAC8_Wave2_DMA_dma.c **** *   Frees the channel associated with WaveDAC8_Wave2_DMA.
 125:.\Generated_Source\PSoC5/WaveDAC8_Wave2_DMA_dma.c **** *
 126:.\Generated_Source\PSoC5/WaveDAC8_Wave2_DMA_dma.c **** *
ARM GAS  C:\Users\Graziano\AppData\Local\Temp\ccpf1ETH.s 			page 5


 127:.\Generated_Source\PSoC5/WaveDAC8_Wave2_DMA_dma.c **** * Parameters:
 128:.\Generated_Source\PSoC5/WaveDAC8_Wave2_DMA_dma.c **** *   void.
 129:.\Generated_Source\PSoC5/WaveDAC8_Wave2_DMA_dma.c **** *
 130:.\Generated_Source\PSoC5/WaveDAC8_Wave2_DMA_dma.c **** *
 131:.\Generated_Source\PSoC5/WaveDAC8_Wave2_DMA_dma.c **** *
 132:.\Generated_Source\PSoC5/WaveDAC8_Wave2_DMA_dma.c **** * Return:
 133:.\Generated_Source\PSoC5/WaveDAC8_Wave2_DMA_dma.c **** *   void.
 134:.\Generated_Source\PSoC5/WaveDAC8_Wave2_DMA_dma.c **** *
 135:.\Generated_Source\PSoC5/WaveDAC8_Wave2_DMA_dma.c **** *******************************************************************/
 136:.\Generated_Source\PSoC5/WaveDAC8_Wave2_DMA_dma.c **** void WaveDAC8_Wave2_DMA_DmaRelease(void) 
 137:.\Generated_Source\PSoC5/WaveDAC8_Wave2_DMA_dma.c **** {
  99              		.loc 1 137 0
 100              		.cfi_startproc
 101              		@ args = 0, pretend = 0, frame = 0
 102              		@ frame_needed = 0, uses_anonymous_args = 0
 103              		@ link register save eliminated.
 138:.\Generated_Source\PSoC5/WaveDAC8_Wave2_DMA_dma.c ****     /* Disable the channel */
 139:.\Generated_Source\PSoC5/WaveDAC8_Wave2_DMA_dma.c ****     (void)CyDmaChDisable(WaveDAC8_Wave2_DMA_DmaHandle);
 104              		.loc 1 139 0
 105 0000 014B     		ldr	r3, .L5
 106 0002 1878     		ldrb	r0, [r3, #0]	@ zero_extendqisi2
 140:.\Generated_Source\PSoC5/WaveDAC8_Wave2_DMA_dma.c **** }
 107              		.loc 1 140 0
 139:.\Generated_Source\PSoC5/WaveDAC8_Wave2_DMA_dma.c ****     (void)CyDmaChDisable(WaveDAC8_Wave2_DMA_DmaHandle);
 108              		.loc 1 139 0
 109 0004 FFF7FEBF 		b	CyDmaChDisable
 110              	.LVL8:
 111              	.L6:
 112              		.align	2
 113              	.L5:
 114 0008 00000000 		.word	.LANCHOR0
 115              		.cfi_endproc
 116              	.LFE1:
 117              		.size	WaveDAC8_Wave2_DMA_DmaRelease, .-WaveDAC8_Wave2_DMA_DmaRelease
 118              		.global	WaveDAC8_Wave2_DMA_DmaHandle
 119              		.data
 120              		.set	.LANCHOR0,. + 0
 121              		.type	WaveDAC8_Wave2_DMA_DmaHandle, %object
 122              		.size	WaveDAC8_Wave2_DMA_DmaHandle, 1
 123              	WaveDAC8_Wave2_DMA_DmaHandle:
 124 0000 FF       		.byte	-1
 125              		.text
 126              	.Letext0:
 127              		.file 2 "./Generated_Source/PSoC5/cytypes.h"
 128              		.file 3 "./Generated_Source/PSoC5/CYDMAC.H"