ARM GAS  C:\Users\Graziano\AppData\Local\Temp\ccEMxnit.s 			page 1


   1              		.syntax unified
   2              		.cpu cortex-m3
   3              		.fpu softvfp
   4              		.eabi_attribute 20, 1
   5              		.eabi_attribute 21, 1
   6              		.eabi_attribute 23, 3
   7              		.eabi_attribute 24, 1
   8              		.eabi_attribute 25, 1
   9              		.eabi_attribute 26, 1
  10              		.eabi_attribute 30, 4
  11              		.eabi_attribute 34, 1
  12              		.eabi_attribute 18, 4
  13              		.thumb
  14              		.file	"WaveDAC8_BuffAmp_PM.c"
  15              		.text
  16              	.Ltext0:
  17              		.cfi_sections	.debug_frame
  18              		.section	.text.WaveDAC8_BuffAmp_SaveConfig,"ax",%progbits
  19              		.align	1
  20              		.global	WaveDAC8_BuffAmp_SaveConfig
  21              		.thumb
  22              		.thumb_func
  23              		.type	WaveDAC8_BuffAmp_SaveConfig, %function
  24              	WaveDAC8_BuffAmp_SaveConfig:
  25              	.LFB0:
  26              		.file 1 ".\\Generated_Source\\PSoC5\\WaveDAC8_BuffAmp_PM.c"
   1:.\Generated_Source\PSoC5/WaveDAC8_BuffAmp_PM.c **** /*******************************************************************************
   2:.\Generated_Source\PSoC5/WaveDAC8_BuffAmp_PM.c **** * File Name: WaveDAC8_BuffAmp_PM.c
   3:.\Generated_Source\PSoC5/WaveDAC8_BuffAmp_PM.c **** * Version 1.90
   4:.\Generated_Source\PSoC5/WaveDAC8_BuffAmp_PM.c **** *
   5:.\Generated_Source\PSoC5/WaveDAC8_BuffAmp_PM.c **** * Description:
   6:.\Generated_Source\PSoC5/WaveDAC8_BuffAmp_PM.c **** *  This file provides the power management source code to the API for the 
   7:.\Generated_Source\PSoC5/WaveDAC8_BuffAmp_PM.c **** *  OpAmp (Analog Buffer) component.
   8:.\Generated_Source\PSoC5/WaveDAC8_BuffAmp_PM.c **** *
   9:.\Generated_Source\PSoC5/WaveDAC8_BuffAmp_PM.c **** * Note:
  10:.\Generated_Source\PSoC5/WaveDAC8_BuffAmp_PM.c **** *
  11:.\Generated_Source\PSoC5/WaveDAC8_BuffAmp_PM.c **** ********************************************************************************
  12:.\Generated_Source\PSoC5/WaveDAC8_BuffAmp_PM.c **** * Copyright 2008-2012, Cypress Semiconductor Corporation.  All rights reserved.
  13:.\Generated_Source\PSoC5/WaveDAC8_BuffAmp_PM.c **** * You may use this file only in accordance with the license, terms, conditions, 
  14:.\Generated_Source\PSoC5/WaveDAC8_BuffAmp_PM.c **** * disclaimers, and limitations in the end user license agreement accompanying 
  15:.\Generated_Source\PSoC5/WaveDAC8_BuffAmp_PM.c **** * the software package with which this file was provided.
  16:.\Generated_Source\PSoC5/WaveDAC8_BuffAmp_PM.c **** *******************************************************************************/
  17:.\Generated_Source\PSoC5/WaveDAC8_BuffAmp_PM.c **** 
  18:.\Generated_Source\PSoC5/WaveDAC8_BuffAmp_PM.c **** #include "WaveDAC8_BuffAmp.h"
  19:.\Generated_Source\PSoC5/WaveDAC8_BuffAmp_PM.c **** 
  20:.\Generated_Source\PSoC5/WaveDAC8_BuffAmp_PM.c **** static WaveDAC8_BuffAmp_BACKUP_STRUCT  WaveDAC8_BuffAmp_backup;
  21:.\Generated_Source\PSoC5/WaveDAC8_BuffAmp_PM.c **** 
  22:.\Generated_Source\PSoC5/WaveDAC8_BuffAmp_PM.c **** 
  23:.\Generated_Source\PSoC5/WaveDAC8_BuffAmp_PM.c **** /*******************************************************************************  
  24:.\Generated_Source\PSoC5/WaveDAC8_BuffAmp_PM.c **** * Function Name: WaveDAC8_BuffAmp_SaveConfig
  25:.\Generated_Source\PSoC5/WaveDAC8_BuffAmp_PM.c **** ********************************************************************************
  26:.\Generated_Source\PSoC5/WaveDAC8_BuffAmp_PM.c **** *
  27:.\Generated_Source\PSoC5/WaveDAC8_BuffAmp_PM.c **** * Summary:
  28:.\Generated_Source\PSoC5/WaveDAC8_BuffAmp_PM.c **** *  Saves the current user configuration registers.
  29:.\Generated_Source\PSoC5/WaveDAC8_BuffAmp_PM.c **** * 
  30:.\Generated_Source\PSoC5/WaveDAC8_BuffAmp_PM.c **** * Parameters:
  31:.\Generated_Source\PSoC5/WaveDAC8_BuffAmp_PM.c **** *  void
ARM GAS  C:\Users\Graziano\AppData\Local\Temp\ccEMxnit.s 			page 2


  32:.\Generated_Source\PSoC5/WaveDAC8_BuffAmp_PM.c **** * 
  33:.\Generated_Source\PSoC5/WaveDAC8_BuffAmp_PM.c **** * Return:
  34:.\Generated_Source\PSoC5/WaveDAC8_BuffAmp_PM.c **** *  void
  35:.\Generated_Source\PSoC5/WaveDAC8_BuffAmp_PM.c **** *
  36:.\Generated_Source\PSoC5/WaveDAC8_BuffAmp_PM.c **** *******************************************************************************/
  37:.\Generated_Source\PSoC5/WaveDAC8_BuffAmp_PM.c **** void WaveDAC8_BuffAmp_SaveConfig(void) 
  38:.\Generated_Source\PSoC5/WaveDAC8_BuffAmp_PM.c **** {
  27              		.loc 1 38 0
  28              		.cfi_startproc
  29              		@ args = 0, pretend = 0, frame = 0
  30              		@ frame_needed = 0, uses_anonymous_args = 0
  31              		@ link register save eliminated.
  32 0000 7047     		bx	lr
  33              		.cfi_endproc
  34              	.LFE0:
  35              		.size	WaveDAC8_BuffAmp_SaveConfig, .-WaveDAC8_BuffAmp_SaveConfig
  36              		.section	.text.WaveDAC8_BuffAmp_RestoreConfig,"ax",%progbits
  37              		.align	1
  38              		.global	WaveDAC8_BuffAmp_RestoreConfig
  39              		.thumb
  40              		.thumb_func
  41              		.type	WaveDAC8_BuffAmp_RestoreConfig, %function
  42              	WaveDAC8_BuffAmp_RestoreConfig:
  43              	.LFB1:
  39:.\Generated_Source\PSoC5/WaveDAC8_BuffAmp_PM.c ****     /* Nothing to save as registers are System reset on retention flops */
  40:.\Generated_Source\PSoC5/WaveDAC8_BuffAmp_PM.c **** }
  41:.\Generated_Source\PSoC5/WaveDAC8_BuffAmp_PM.c **** 
  42:.\Generated_Source\PSoC5/WaveDAC8_BuffAmp_PM.c **** 
  43:.\Generated_Source\PSoC5/WaveDAC8_BuffAmp_PM.c **** /*******************************************************************************  
  44:.\Generated_Source\PSoC5/WaveDAC8_BuffAmp_PM.c **** * Function Name: WaveDAC8_BuffAmp_RestoreConfig
  45:.\Generated_Source\PSoC5/WaveDAC8_BuffAmp_PM.c **** ********************************************************************************
  46:.\Generated_Source\PSoC5/WaveDAC8_BuffAmp_PM.c **** *
  47:.\Generated_Source\PSoC5/WaveDAC8_BuffAmp_PM.c **** * Summary:
  48:.\Generated_Source\PSoC5/WaveDAC8_BuffAmp_PM.c **** *  Restores the current user configuration registers.
  49:.\Generated_Source\PSoC5/WaveDAC8_BuffAmp_PM.c **** *
  50:.\Generated_Source\PSoC5/WaveDAC8_BuffAmp_PM.c **** * Parameters:
  51:.\Generated_Source\PSoC5/WaveDAC8_BuffAmp_PM.c **** *  void
  52:.\Generated_Source\PSoC5/WaveDAC8_BuffAmp_PM.c **** *
  53:.\Generated_Source\PSoC5/WaveDAC8_BuffAmp_PM.c **** * Return:
  54:.\Generated_Source\PSoC5/WaveDAC8_BuffAmp_PM.c **** *  void
  55:.\Generated_Source\PSoC5/WaveDAC8_BuffAmp_PM.c **** *
  56:.\Generated_Source\PSoC5/WaveDAC8_BuffAmp_PM.c **** *******************************************************************************/
  57:.\Generated_Source\PSoC5/WaveDAC8_BuffAmp_PM.c **** void WaveDAC8_BuffAmp_RestoreConfig(void) 
  58:.\Generated_Source\PSoC5/WaveDAC8_BuffAmp_PM.c **** {
  44              		.loc 1 58 0
  45              		.cfi_startproc
  46              		@ args = 0, pretend = 0, frame = 0
  47              		@ frame_needed = 0, uses_anonymous_args = 0
  48              		@ link register save eliminated.
  49 0000 7047     		bx	lr
  50              		.cfi_endproc
  51              	.LFE1:
  52              		.size	WaveDAC8_BuffAmp_RestoreConfig, .-WaveDAC8_BuffAmp_RestoreConfig
  53              		.section	.text.WaveDAC8_BuffAmp_Sleep,"ax",%progbits
  54              		.align	1
  55              		.global	WaveDAC8_BuffAmp_Sleep
  56              		.thumb
ARM GAS  C:\Users\Graziano\AppData\Local\Temp\ccEMxnit.s 			page 3


  57              		.thumb_func
  58              		.type	WaveDAC8_BuffAmp_Sleep, %function
  59              	WaveDAC8_BuffAmp_Sleep:
  60              	.LFB2:
  59:.\Generated_Source\PSoC5/WaveDAC8_BuffAmp_PM.c ****     /* Nothing to restore */
  60:.\Generated_Source\PSoC5/WaveDAC8_BuffAmp_PM.c **** }
  61:.\Generated_Source\PSoC5/WaveDAC8_BuffAmp_PM.c **** 
  62:.\Generated_Source\PSoC5/WaveDAC8_BuffAmp_PM.c **** 
  63:.\Generated_Source\PSoC5/WaveDAC8_BuffAmp_PM.c **** /*******************************************************************************   
  64:.\Generated_Source\PSoC5/WaveDAC8_BuffAmp_PM.c **** * Function Name: WaveDAC8_BuffAmp_Sleep
  65:.\Generated_Source\PSoC5/WaveDAC8_BuffAmp_PM.c **** ********************************************************************************
  66:.\Generated_Source\PSoC5/WaveDAC8_BuffAmp_PM.c **** *
  67:.\Generated_Source\PSoC5/WaveDAC8_BuffAmp_PM.c **** * Summary:
  68:.\Generated_Source\PSoC5/WaveDAC8_BuffAmp_PM.c **** *  Disables block's operation and saves its configuration. Should be called 
  69:.\Generated_Source\PSoC5/WaveDAC8_BuffAmp_PM.c **** *  just prior to entering sleep.
  70:.\Generated_Source\PSoC5/WaveDAC8_BuffAmp_PM.c **** *
  71:.\Generated_Source\PSoC5/WaveDAC8_BuffAmp_PM.c **** * Parameters:
  72:.\Generated_Source\PSoC5/WaveDAC8_BuffAmp_PM.c **** *  void
  73:.\Generated_Source\PSoC5/WaveDAC8_BuffAmp_PM.c **** *
  74:.\Generated_Source\PSoC5/WaveDAC8_BuffAmp_PM.c **** * Return:
  75:.\Generated_Source\PSoC5/WaveDAC8_BuffAmp_PM.c **** *  void
  76:.\Generated_Source\PSoC5/WaveDAC8_BuffAmp_PM.c **** *
  77:.\Generated_Source\PSoC5/WaveDAC8_BuffAmp_PM.c **** * Global variables:
  78:.\Generated_Source\PSoC5/WaveDAC8_BuffAmp_PM.c **** *  WaveDAC8_BuffAmp_backup: The structure field 'enableState' is modified 
  79:.\Generated_Source\PSoC5/WaveDAC8_BuffAmp_PM.c **** *  depending on the enable state of the block before entering to sleep mode.
  80:.\Generated_Source\PSoC5/WaveDAC8_BuffAmp_PM.c **** *
  81:.\Generated_Source\PSoC5/WaveDAC8_BuffAmp_PM.c **** *******************************************************************************/
  82:.\Generated_Source\PSoC5/WaveDAC8_BuffAmp_PM.c **** void WaveDAC8_BuffAmp_Sleep(void) 
  83:.\Generated_Source\PSoC5/WaveDAC8_BuffAmp_PM.c **** {
  61              		.loc 1 83 0
  62              		.cfi_startproc
  63              		@ args = 0, pretend = 0, frame = 0
  64              		@ frame_needed = 0, uses_anonymous_args = 0
  65              		@ link register save eliminated.
  84:.\Generated_Source\PSoC5/WaveDAC8_BuffAmp_PM.c ****     /* Save OpAmp enable state */
  85:.\Generated_Source\PSoC5/WaveDAC8_BuffAmp_PM.c ****     if((WaveDAC8_BuffAmp_PM_ACT_CFG_REG & WaveDAC8_BuffAmp_ACT_PWR_EN) != 0u)
  66              		.loc 1 85 0
  67 0000 054B     		ldr	r3, .L6
  68 0002 0649     		ldr	r1, .L6+4
  69 0004 1878     		ldrb	r0, [r3, #0]	@ zero_extendqisi2
  70 0006 10F00102 		ands	r2, r0, #1
  71 000a 03D0     		beq	.L4
  86:.\Generated_Source\PSoC5/WaveDAC8_BuffAmp_PM.c ****     {
  87:.\Generated_Source\PSoC5/WaveDAC8_BuffAmp_PM.c ****         /* Component is enabled */
  88:.\Generated_Source\PSoC5/WaveDAC8_BuffAmp_PM.c ****         WaveDAC8_BuffAmp_backup.enableState = 1u;
  72              		.loc 1 88 0
  73 000c 0123     		movs	r3, #1
  74 000e 0B70     		strb	r3, [r1, #0]
  89:.\Generated_Source\PSoC5/WaveDAC8_BuffAmp_PM.c ****          /* Stops the component */
  90:.\Generated_Source\PSoC5/WaveDAC8_BuffAmp_PM.c ****          WaveDAC8_BuffAmp_Stop();
  91:.\Generated_Source\PSoC5/WaveDAC8_BuffAmp_PM.c ****     }
  92:.\Generated_Source\PSoC5/WaveDAC8_BuffAmp_PM.c ****     else
  93:.\Generated_Source\PSoC5/WaveDAC8_BuffAmp_PM.c ****     {
  94:.\Generated_Source\PSoC5/WaveDAC8_BuffAmp_PM.c ****         /* Component is disabled */
  95:.\Generated_Source\PSoC5/WaveDAC8_BuffAmp_PM.c ****         WaveDAC8_BuffAmp_backup.enableState = 0u;
  96:.\Generated_Source\PSoC5/WaveDAC8_BuffAmp_PM.c ****     }
  97:.\Generated_Source\PSoC5/WaveDAC8_BuffAmp_PM.c ****     /* Saves the configuration */
ARM GAS  C:\Users\Graziano\AppData\Local\Temp\ccEMxnit.s 			page 4


  98:.\Generated_Source\PSoC5/WaveDAC8_BuffAmp_PM.c ****     WaveDAC8_BuffAmp_SaveConfig();
  99:.\Generated_Source\PSoC5/WaveDAC8_BuffAmp_PM.c **** }
  75              		.loc 1 99 0
  90:.\Generated_Source\PSoC5/WaveDAC8_BuffAmp_PM.c ****          WaveDAC8_BuffAmp_Stop();
  76              		.loc 1 90 0
  77 0010 FFF7FEBF 		b	WaveDAC8_BuffAmp_Stop
  78              	.LVL0:
  79              	.L4:
  95:.\Generated_Source\PSoC5/WaveDAC8_BuffAmp_PM.c ****         WaveDAC8_BuffAmp_backup.enableState = 0u;
  80              		.loc 1 95 0
  81 0014 0A70     		strb	r2, [r1, #0]
  82 0016 7047     		bx	lr
  83              	.L7:
  84              		.align	2
  85              	.L6:
  86 0018 A4430040 		.word	1073759140
  87 001c 00000000 		.word	.LANCHOR0
  88              		.cfi_endproc
  89              	.LFE2:
  90              		.size	WaveDAC8_BuffAmp_Sleep, .-WaveDAC8_BuffAmp_Sleep
  91              		.section	.text.WaveDAC8_BuffAmp_Wakeup,"ax",%progbits
  92              		.align	1
  93              		.global	WaveDAC8_BuffAmp_Wakeup
  94              		.thumb
  95              		.thumb_func
  96              		.type	WaveDAC8_BuffAmp_Wakeup, %function
  97              	WaveDAC8_BuffAmp_Wakeup:
  98              	.LFB3:
 100:.\Generated_Source\PSoC5/WaveDAC8_BuffAmp_PM.c **** 
 101:.\Generated_Source\PSoC5/WaveDAC8_BuffAmp_PM.c **** 
 102:.\Generated_Source\PSoC5/WaveDAC8_BuffAmp_PM.c **** /*******************************************************************************  
 103:.\Generated_Source\PSoC5/WaveDAC8_BuffAmp_PM.c **** * Function Name: WaveDAC8_BuffAmp_Wakeup
 104:.\Generated_Source\PSoC5/WaveDAC8_BuffAmp_PM.c **** ********************************************************************************
 105:.\Generated_Source\PSoC5/WaveDAC8_BuffAmp_PM.c **** *
 106:.\Generated_Source\PSoC5/WaveDAC8_BuffAmp_PM.c **** * Summary:
 107:.\Generated_Source\PSoC5/WaveDAC8_BuffAmp_PM.c **** *  Enables block's operation and restores its configuration. Should be called
 108:.\Generated_Source\PSoC5/WaveDAC8_BuffAmp_PM.c **** *  just after awaking from sleep.
 109:.\Generated_Source\PSoC5/WaveDAC8_BuffAmp_PM.c **** *
 110:.\Generated_Source\PSoC5/WaveDAC8_BuffAmp_PM.c **** * Parameters:
 111:.\Generated_Source\PSoC5/WaveDAC8_BuffAmp_PM.c **** *  void
 112:.\Generated_Source\PSoC5/WaveDAC8_BuffAmp_PM.c **** *
 113:.\Generated_Source\PSoC5/WaveDAC8_BuffAmp_PM.c **** * Return:
 114:.\Generated_Source\PSoC5/WaveDAC8_BuffAmp_PM.c **** *  void
 115:.\Generated_Source\PSoC5/WaveDAC8_BuffAmp_PM.c **** *
 116:.\Generated_Source\PSoC5/WaveDAC8_BuffAmp_PM.c **** * Global variables:
 117:.\Generated_Source\PSoC5/WaveDAC8_BuffAmp_PM.c **** *  WaveDAC8_BuffAmp_backup: The structure field 'enableState' is used to 
 118:.\Generated_Source\PSoC5/WaveDAC8_BuffAmp_PM.c **** *  restore the enable state of block after wakeup from sleep mode.
 119:.\Generated_Source\PSoC5/WaveDAC8_BuffAmp_PM.c **** *
 120:.\Generated_Source\PSoC5/WaveDAC8_BuffAmp_PM.c **** *******************************************************************************/
 121:.\Generated_Source\PSoC5/WaveDAC8_BuffAmp_PM.c **** void WaveDAC8_BuffAmp_Wakeup(void) 
 122:.\Generated_Source\PSoC5/WaveDAC8_BuffAmp_PM.c **** {
  99              		.loc 1 122 0
 100              		.cfi_startproc
 101              		@ args = 0, pretend = 0, frame = 0
 102              		@ frame_needed = 0, uses_anonymous_args = 0
 103              		@ link register save eliminated.
 123:.\Generated_Source\PSoC5/WaveDAC8_BuffAmp_PM.c ****     /* Restore the user configuration */
ARM GAS  C:\Users\Graziano\AppData\Local\Temp\ccEMxnit.s 			page 5


 124:.\Generated_Source\PSoC5/WaveDAC8_BuffAmp_PM.c ****     WaveDAC8_BuffAmp_RestoreConfig();
 125:.\Generated_Source\PSoC5/WaveDAC8_BuffAmp_PM.c **** 
 126:.\Generated_Source\PSoC5/WaveDAC8_BuffAmp_PM.c ****     /* Enables the component operation */
 127:.\Generated_Source\PSoC5/WaveDAC8_BuffAmp_PM.c ****     if(WaveDAC8_BuffAmp_backup.enableState == 1u)
 104              		.loc 1 127 0
 105 0000 034B     		ldr	r3, .L10
 106 0002 1878     		ldrb	r0, [r3, #0]	@ zero_extendqisi2
 107 0004 0128     		cmp	r0, #1
 108 0006 01D1     		bne	.L8
 128:.\Generated_Source\PSoC5/WaveDAC8_BuffAmp_PM.c ****     {
 129:.\Generated_Source\PSoC5/WaveDAC8_BuffAmp_PM.c ****         WaveDAC8_BuffAmp_Enable();
 130:.\Generated_Source\PSoC5/WaveDAC8_BuffAmp_PM.c ****     } /* Do nothing if component was disable before */
 131:.\Generated_Source\PSoC5/WaveDAC8_BuffAmp_PM.c **** }
 109              		.loc 1 131 0
 129:.\Generated_Source\PSoC5/WaveDAC8_BuffAmp_PM.c ****         WaveDAC8_BuffAmp_Enable();
 110              		.loc 1 129 0
 111 0008 FFF7FEBF 		b	WaveDAC8_BuffAmp_Enable
 112              	.LVL1:
 113              	.L8:
 114 000c 7047     		bx	lr
 115              	.L11:
 116 000e 00BF     		.align	2
 117              	.L10:
 118 0010 00000000 		.word	.LANCHOR0
 119              		.cfi_endproc
 120              	.LFE3:
 121              		.size	WaveDAC8_BuffAmp_Wakeup, .-WaveDAC8_BuffAmp_Wakeup
 122              		.bss
 123              		.set	.LANCHOR0,. + 0
 124              		.type	WaveDAC8_BuffAmp_backup, %object
 125              		.size	WaveDAC8_BuffAmp_backup, 1
 126              	WaveDAC8_BuffAmp_backup:
 127 0000 00       		.space	1
 128              		.text
 129              	.Letext0:
 130              		.file 2 ".\\Generated_Source\\PSoC5\\cytypes.h"
 131              		.file 3 ".\\Generated_Source\\PSoC5\\WaveDAC8_BuffAmp.h"