ARM GAS  C:\DOCUME~1\user\IMPOST~1\Temp\ccIKX0Dc.s 			page 1


   1              		.syntax unified
   2              		.cpu cortex-m3
   3              		.fpu softvfp
   4              		.eabi_attribute 20, 1
   5              		.eabi_attribute 21, 1
   6              		.eabi_attribute 23, 3
   7              		.eabi_attribute 24, 1
   8              		.eabi_attribute 25, 1
   9              		.eabi_attribute 26, 1
  10              		.eabi_attribute 30, 6
  11              		.eabi_attribute 34, 1
  12              		.eabi_attribute 18, 4
  13              		.thumb
  14              		.file	"ADXRS453.c"
  15              		.text
  16              	.Ltext0:
  17              		.cfi_sections	.debug_frame
  18              		.comm	gobee_vparam,0,4
  19              		.global	__aeabi_i2f
  20              		.global	__aeabi_fdiv
  21              		.section	.text.dgyro_SPI32toFloat,"ax",%progbits
  22              		.align	2
  23              		.global	dgyro_SPI32toFloat
  24              		.thumb
  25              		.thumb_func
  26              		.type	dgyro_SPI32toFloat, %function
  27              	dgyro_SPI32toFloat:
  28              	.LFB56:
  29              		.file 1 ".\\ADXRS453.c"
   1:.\ADXRS453.c  **** /* ========================================
   2:.\ADXRS453.c  ****  *
   3:.\ADXRS453.c  ****  * ADSRS453 Digital Gyroscope Functions library
   4:.\ADXRS453.c  ****  *
   5:.\ADXRS453.c  ****  * Copyright Logic brainstorm, 2013
   6:.\ADXRS453.c  ****  * All Rights Reserved
   7:.\ADXRS453.c  ****  * UNPUBLISHED, LICENSED SOFTWARE.
   8:.\ADXRS453.c  ****  *
   9:.\ADXRS453.c  ****  * CONFIDENTIAL AND PROPRIETARY INFORMATION
  10:.\ADXRS453.c  ****  * WHICH IS THE PROPERTY OF Logic brainstorm.
  11:.\ADXRS453.c  ****  *
  12:.\ADXRS453.c  ****  * ========================================
  13:.\ADXRS453.c  **** */
  14:.\ADXRS453.c  **** 
  15:.\ADXRS453.c  **** /* Include files */
  16:.\ADXRS453.c  **** #include <device.h>
  17:.\ADXRS453.c  **** #include <gobee.h>
  18:.\ADXRS453.c  **** #include <gobeelib.h>
  19:.\ADXRS453.c  **** #include <console.h>
  20:.\ADXRS453.c  **** 
  21:.\ADXRS453.c  **** /* External Global Wars */
  22:.\ADXRS453.c  **** extern struct GOBEE_PARAMS gobee_param;
  23:.\ADXRS453.c  **** 
  24:.\ADXRS453.c  **** 
  25:.\ADXRS453.c  **** // ************************************
  26:.\ADXRS453.c  **** // *** Low level interface Fuctions ***
  27:.\ADXRS453.c  **** // ************************************
  28:.\ADXRS453.c  **** 
ARM GAS  C:\DOCUME~1\user\IMPOST~1\Temp\ccIKX0Dc.s 			page 2


  29:.\ADXRS453.c  **** /* ADXRS453 Initialization */
  30:.\ADXRS453.c  **** //void init_ADXRS453(void)
  31:.\ADXRS453.c  **** //{
  32:.\ADXRS453.c  **** //	Control_Reg_SPIM_ADXRS_Write(0xFF);		/* SPI /CS <-- 1 					*/
  33:.\ADXRS453.c  **** //	SPIM_ADXRS_ClearRxBuffer();				/* Clear Rx Buffer					*/
  34:.\ADXRS453.c  **** //	SPIM_ADXRS_ClearTxBuffer();				/* Clear Tx Buffer					*/
  35:.\ADXRS453.c  **** //	SPIM_ADXRS_ClearFIFO();					/* Clear FIFO						*/	
  36:.\ADXRS453.c  **** //	SPIM_ADXRS_Start();						/* Enable and Start ADXRS453 SPI	*/
  37:.\ADXRS453.c  **** //}
  38:.\ADXRS453.c  **** 
  39:.\ADXRS453.c  **** ///****************************************************************/
  40:.\ADXRS453.c  **** ///* 32 bit SPI general transaction								*/
  41:.\ADXRS453.c  **** ///*	 TX_Payload = 32 bit to transmit over SPI					*/
  42:.\ADXRS453.c  **** ///*   return     = 32 bit SPI response							*/
  43:.\ADXRS453.c  **** ///*																*/
  44:.\ADXRS453.c  **** ///*   NO IMPLICIT ERRORS OR PARITY CHECK							*/
  45:.\ADXRS453.c  **** ///****************************************************************/
  46:.\ADXRS453.c  **** //
  47:.\ADXRS453.c  **** //unsigned long int SPIM32_Transaction(unsigned long int TX_Payload)
  48:.\ADXRS453.c  **** //{
  49:.\ADXRS453.c  **** //
  50:.\ADXRS453.c  **** //	//Local vars declaration
  51:.\ADXRS453.c  **** //	uint16 SPIM_Rx_WordL=0;
  52:.\ADXRS453.c  **** //	uint16 SPIM_Rx_WordH=0;
  53:.\ADXRS453.c  **** //	uint16 Payload_Word=0;
  54:.\ADXRS453.c  **** //	unsigned long int SPIM_Rx_Long=0;		/* 32 bit ADXRS453 SPI Response 					*/
  55:.\ADXRS453.c  **** //
  56:.\ADXRS453.c  **** //
  57:.\ADXRS453.c  **** //	// Function Code
  58:.\ADXRS453.c  **** //	Control_Reg_SPIM_ADXRS_Write(0xFF);		/* SPI /CS <-- 1 									*/
  59:.\ADXRS453.c  **** //	//CyDelayUs(1);							/* 1 usec delay (Tlead = 1/2xtsclk ns min)			*/
  60:.\ADXRS453.c  **** //	Control_Reg_SPIM_ADXRS_Write(0x00);		/* SPI /CS <-- 0 									*/	
  61:.\ADXRS453.c  **** //	
  62:.\ADXRS453.c  **** //	Payload_Word = (uint16)(TX_Payload >> 16);		/*													*/
  63:.\ADXRS453.c  **** //	SPIM_ADXRS_WriteTxData(Payload_Word);			/* First Word (High) Transfer						*/
  64:.\ADXRS453.c  **** //
  65:.\ADXRS453.c  **** //	CyDelayUs(2);							/* 2 usec delay (Ttd = 0.1usec min)					*/
  66:.\ADXRS453.c  **** //
  67:.\ADXRS453.c  **** //	Payload_Word = (uint16)(TX_Payload & 0xFFFF);	/*													*/
  68:.\ADXRS453.c  **** //	SPIM_ADXRS_WriteTxData(Payload_Word);			/* Second Word (Low) Transfer						*/
  69:.\ADXRS453.c  **** //
  70:.\ADXRS453.c  **** //	CyDelayUs(17);							/* 16bit + 1 usec delay	 (Tlag.csmin = 1/2xtsclk ns	min)	*/
  71:.\ADXRS453.c  **** //	Control_Reg_SPIM_ADXRS_Write(0xFF);		/* SPI /CS <-- 1 									*/	
  72:.\ADXRS453.c  **** //	
  73:.\ADXRS453.c  **** //	SPIM_Rx_WordH = SPIM_ADXRS_ReadRxData();/* SPIM_Rx_WordH <-- first 16 bit of SPI Response	*/
  74:.\ADXRS453.c  **** //	SPIM_Rx_WordL = SPIM_ADXRS_ReadRxData();/* SPIM_Rx_WordL <-- last 16 bit of SPI Response	*/
  75:.\ADXRS453.c  **** //	
  76:.\ADXRS453.c  **** //	SPIM_Rx_Long = ((unsigned long int)SPIM_Rx_WordH << 16) | (unsigned long int)SPIM_Rx_WordL;
  77:.\ADXRS453.c  **** //	
  78:.\ADXRS453.c  **** //	return (SPIM_Rx_Long);
  79:.\ADXRS453.c  **** //}
  80:.\ADXRS453.c  **** 
  81:.\ADXRS453.c  **** 
  82:.\ADXRS453.c  **** ///****************************************************************/
  83:.\ADXRS453.c  **** ///* 32 bit SPI fixed transaction: Read Sensor Data				*/
  84:.\ADXRS453.c  **** ///*	 TX_Payload = Read Sensor Data Command						*/
  85:.\ADXRS453.c  **** ///*   return     = 32 bit Sensor Data SPI response				*/
ARM GAS  C:\DOCUME~1\user\IMPOST~1\Temp\ccIKX0Dc.s 			page 3


  86:.\ADXRS453.c  **** ///*																*/
  87:.\ADXRS453.c  **** ///*   NO IMPLICIT ERRORS OR PARITY CHECK							*/
  88:.\ADXRS453.c  **** ///****************************************************************/
  89:.\ADXRS453.c  **** //
  90:.\ADXRS453.c  **** //unsigned long int SPIM32_ReadSensorData(void)
  91:.\ADXRS453.c  **** //{
  92:.\ADXRS453.c  **** //
  93:.\ADXRS453.c  **** //	//Local vars declaration
  94:.\ADXRS453.c  **** //	uint16 SPIM_Rx_WordL=0;
  95:.\ADXRS453.c  **** //	uint16 SPIM_Rx_WordH=0;
  96:.\ADXRS453.c  **** //	unsigned long int SPIM_Rx_Long=0;		/* 32 bit ADXRS453 SPI Response 					*/
  97:.\ADXRS453.c  **** //
  98:.\ADXRS453.c  **** //
  99:.\ADXRS453.c  **** //	// Function Code
 100:.\ADXRS453.c  **** //	Control_Reg_SPIM_ADXRS_Write(0xFF);		/* SPI /CS <-- 1 									*/
 101:.\ADXRS453.c  **** //	//CyDelayUs(0);							/* 0 usec delay (Tlead = 1/2xtsclk ns min)			*/
 102:.\ADXRS453.c  **** //	Control_Reg_SPIM_ADXRS_Write(0x00);		/* SPI /CS <-- 0 									*/	
 103:.\ADXRS453.c  **** //	
 104:.\ADXRS453.c  **** //	SPIM_ADXRS_WriteTxData(0x2000);			/* First Word (High) Transfer						*/
 105:.\ADXRS453.c  **** //											/* Sensor Data Commad bits 31:16					*/
 106:.\ADXRS453.c  **** //
 107:.\ADXRS453.c  **** //	CyDelayUs(2);							/* 2 usec delay (Ttd = 0.1usec min)					*/
 108:.\ADXRS453.c  **** //
 109:.\ADXRS453.c  **** //	SPIM_ADXRS_WriteTxData(0x0000);			/* Second Word (Low) Transfer						*/
 110:.\ADXRS453.c  **** //											/* Sensor Data Commad bits 15:0						*/	
 111:.\ADXRS453.c  **** //
 112:.\ADXRS453.c  **** //	CyDelayUs(17);							/* 16bit + 1 usec delay	 (Tlag.csmin = 1/2xtsclk ns	min)	*/
 113:.\ADXRS453.c  **** //	Control_Reg_SPIM_ADXRS_Write(0xFF);		/* SPI /CS <-- 1 									*/	
 114:.\ADXRS453.c  **** //	
 115:.\ADXRS453.c  **** //	SPIM_Rx_WordH = SPIM_ADXRS_ReadRxData();/* SPIM_Rx_WordH <-- first 16 bit of SPI Response	*/
 116:.\ADXRS453.c  **** //	SPIM_Rx_WordL = SPIM_ADXRS_ReadRxData();/* SPIM_Rx_WordL <-- last 16 bit of SPI Response	*/
 117:.\ADXRS453.c  **** //	
 118:.\ADXRS453.c  **** //	SPIM_Rx_Long = ((unsigned long int)SPIM_Rx_WordH << 16) | (unsigned long int)SPIM_Rx_WordL;
 119:.\ADXRS453.c  **** //	
 120:.\ADXRS453.c  **** //	return (SPIM_Rx_Long);
 121:.\ADXRS453.c  **** //}
 122:.\ADXRS453.c  **** 
 123:.\ADXRS453.c  **** /****************************************************************/
 124:.\ADXRS453.c  **** /* 32 bit SPI Response to Gyro Velocity float					*/
 125:.\ADXRS453.c  **** /*	 SPIM_Rx_Long = 32 bit Sensor Data from ADXRS453 gyro		*/
 126:.\ADXRS453.c  **** /*   return     = (float)gyro angular velocity data [deg/sec]	*/
 127:.\ADXRS453.c  **** /*																*/
 128:.\ADXRS453.c  **** /*   NO IMPLICIT ERRORS OR PARITY CHECK							*/
 129:.\ADXRS453.c  **** /****************************************************************/
 130:.\ADXRS453.c  **** 
 131:.\ADXRS453.c  **** float dgyro_SPI32toFloat(unsigned long int SPIM_Rx_Long)
 132:.\ADXRS453.c  **** {
  30              		.loc 1 132 0
  31              		.cfi_startproc
  32              		@ args = 0, pretend = 0, frame = 16
  33              		@ frame_needed = 1, uses_anonymous_args = 0
  34 0000 80B5     		push	{r7, lr}
  35              	.LCFI0:
  36              		.cfi_def_cfa_offset 8
  37              		.cfi_offset 7, -8
  38              		.cfi_offset 14, -4
  39 0002 84B0     		sub	sp, sp, #16
ARM GAS  C:\DOCUME~1\user\IMPOST~1\Temp\ccIKX0Dc.s 			page 4


  40              	.LCFI1:
  41              		.cfi_def_cfa_offset 24
  42 0004 00AF     		add	r7, sp, #0
  43              	.LCFI2:
  44              		.cfi_def_cfa_register 7
  45 0006 7860     		str	r0, [r7, #4]
 133:.\ADXRS453.c  **** 	//Local vars declaration
 134:.\ADXRS453.c  **** 	float dgyro_response;	
 135:.\ADXRS453.c  **** 	
 136:.\ADXRS453.c  **** 	// Function Code
 137:.\ADXRS453.c  **** 	dgyro_response = (((float)((int16)(SPIM_Rx_Long >> 10)))/80);	/* Scale Factor = 80 LSB/°sec */
  46              		.loc 1 137 0
  47 0008 7B68     		ldr	r3, [r7, #4]
  48 000a 4FEA9323 		lsr	r3, r3, #10
  49 000e 9BB2     		uxth	r3, r3
  50 0010 1BB2     		sxth	r3, r3
  51 0012 1846     		mov	r0, r3
  52 0014 FFF7FEFF 		bl	__aeabi_i2f
  53 0018 0346     		mov	r3, r0
  54 001a 1846     		mov	r0, r3
  55 001c 4FF00001 		mov	r1, #0
  56 0020 C4F2A021 		movt	r1, 17056
  57 0024 FFF7FEFF 		bl	__aeabi_fdiv
  58 0028 0346     		mov	r3, r0
  59 002a FB60     		str	r3, [r7, #12]	@ float
 138:.\ADXRS453.c  **** 	
 139:.\ADXRS453.c  **** 	return (dgyro_response);
  60              		.loc 1 139 0
  61 002c FB68     		ldr	r3, [r7, #12]	@ float
 140:.\ADXRS453.c  **** 	
 141:.\ADXRS453.c  **** }
  62              		.loc 1 141 0
  63 002e 1846     		mov	r0, r3
  64 0030 07F11007 		add	r7, r7, #16
  65 0034 BD46     		mov	sp, r7
  66 0036 80BD     		pop	{r7, pc}
  67              		.cfi_endproc
  68              	.LFE56:
  69              		.size	dgyro_SPI32toFloat, .-dgyro_SPI32toFloat
  70              		.text
  71              	.Letext0:
  72              		.file 2 "c:\\programmi\\cypress\\psoc creator\\3.0\\psoc creator\\import\\gnu_cs\\arm\\4.7.3\\bin\
  73              		.file 3 "./Generated_Source/PSoC5/cytypes.h"
  74              		.file 4 "./Generated_Source/PSoC5/core_cm3.h"
  75              		.file 5 "./gobee.h"