ARM GAS  C:\Users\gravi\AppData\Local\Temp\ccw0mxue.s 			page 1


   1              		.syntax unified
   2              		.cpu cortex-m3
   3              		.fpu softvfp
   4              		.eabi_attribute 20, 1
   5              		.eabi_attribute 21, 1
   6              		.eabi_attribute 23, 3
   7              		.eabi_attribute 24, 1
   8              		.eabi_attribute 25, 1
   9              		.eabi_attribute 26, 1
  10              		.eabi_attribute 30, 6
  11              		.eabi_attribute 34, 1
  12              		.eabi_attribute 18, 4
  13              		.thumb
  14              		.file	"AMuxSeq.c"
  15              		.text
  16              	.Ltext0:
  17              		.cfi_sections	.debug_frame
  18              		.global	AMuxSeq_initVar
  19              		.bss
  20              		.type	AMuxSeq_initVar, %object
  21              		.size	AMuxSeq_initVar, 1
  22              	AMuxSeq_initVar:
  23 0000 00       		.space	1
  24              		.section	.text.AMuxSeq_Start,"ax",%progbits
  25              		.align	2
  26              		.global	AMuxSeq_Start
  27              		.thumb
  28              		.thumb_func
  29              		.type	AMuxSeq_Start, %function
  30              	AMuxSeq_Start:
  31              	.LFB0:
  32              		.file 1 ".\\Generated_Source\\PSoC5\\AMuxSeq.c"
   1:.\Generated_Source\PSoC5/AMuxSeq.c **** /*******************************************************************************
   2:.\Generated_Source\PSoC5/AMuxSeq.c **** * File Name: AMuxSeq.c
   3:.\Generated_Source\PSoC5/AMuxSeq.c **** * Version 1.80
   4:.\Generated_Source\PSoC5/AMuxSeq.c **** *
   5:.\Generated_Source\PSoC5/AMuxSeq.c **** *  Description:
   6:.\Generated_Source\PSoC5/AMuxSeq.c **** *    This file contains functions for the AMuxSeq.
   7:.\Generated_Source\PSoC5/AMuxSeq.c **** *
   8:.\Generated_Source\PSoC5/AMuxSeq.c **** *   Note:
   9:.\Generated_Source\PSoC5/AMuxSeq.c **** *
  10:.\Generated_Source\PSoC5/AMuxSeq.c **** *******************************************************************************
  11:.\Generated_Source\PSoC5/AMuxSeq.c **** * Copyright 2008-2010, Cypress Semiconductor Corporation.  All rights reserved.
  12:.\Generated_Source\PSoC5/AMuxSeq.c **** * You may use this file only in accordance with the license, terms, conditions, 
  13:.\Generated_Source\PSoC5/AMuxSeq.c **** * disclaimers, and limitations in the end user license agreement accompanying 
  14:.\Generated_Source\PSoC5/AMuxSeq.c **** * the software package with which this file was provided.
  15:.\Generated_Source\PSoC5/AMuxSeq.c **** ********************************************************************************/
  16:.\Generated_Source\PSoC5/AMuxSeq.c **** 
  17:.\Generated_Source\PSoC5/AMuxSeq.c **** #include "AMuxSeq.h"
  18:.\Generated_Source\PSoC5/AMuxSeq.c **** 
  19:.\Generated_Source\PSoC5/AMuxSeq.c **** uint8 AMuxSeq_initVar = 0u;
  20:.\Generated_Source\PSoC5/AMuxSeq.c **** 
  21:.\Generated_Source\PSoC5/AMuxSeq.c **** 
  22:.\Generated_Source\PSoC5/AMuxSeq.c **** /*******************************************************************************
  23:.\Generated_Source\PSoC5/AMuxSeq.c **** * Function Name: AMuxSeq_Start
  24:.\Generated_Source\PSoC5/AMuxSeq.c **** ********************************************************************************
  25:.\Generated_Source\PSoC5/AMuxSeq.c **** * Summary:
ARM GAS  C:\Users\gravi\AppData\Local\Temp\ccw0mxue.s 			page 2


  26:.\Generated_Source\PSoC5/AMuxSeq.c **** *  Disconnect all channels. The next time Next is called, channel 0 will be
  27:.\Generated_Source\PSoC5/AMuxSeq.c **** *  connected.
  28:.\Generated_Source\PSoC5/AMuxSeq.c **** *
  29:.\Generated_Source\PSoC5/AMuxSeq.c **** * Parameters:
  30:.\Generated_Source\PSoC5/AMuxSeq.c **** *  void
  31:.\Generated_Source\PSoC5/AMuxSeq.c **** *
  32:.\Generated_Source\PSoC5/AMuxSeq.c **** * Return:
  33:.\Generated_Source\PSoC5/AMuxSeq.c **** *  void
  34:.\Generated_Source\PSoC5/AMuxSeq.c **** *
  35:.\Generated_Source\PSoC5/AMuxSeq.c **** *******************************************************************************/
  36:.\Generated_Source\PSoC5/AMuxSeq.c **** void AMuxSeq_Start(void)
  37:.\Generated_Source\PSoC5/AMuxSeq.c **** {
  33              		.loc 1 37 0
  34              		.cfi_startproc
  35              		@ args = 0, pretend = 0, frame = 0
  36              		@ frame_needed = 1, uses_anonymous_args = 0
  37 0000 80B5     		push	{r7, lr}
  38              	.LCFI0:
  39              		.cfi_def_cfa_offset 8
  40              		.cfi_offset 7, -8
  41              		.cfi_offset 14, -4
  42 0002 00AF     		add	r7, sp, #0
  43              	.LCFI1:
  44              		.cfi_def_cfa_register 7
  38:.\Generated_Source\PSoC5/AMuxSeq.c ****     AMuxSeq_DisconnectAll();
  45              		.loc 1 38 0
  46 0004 FFF7FEFF 		bl	AMuxSeq_DisconnectAll
  39:.\Generated_Source\PSoC5/AMuxSeq.c ****     AMuxSeq_initVar = 1u;
  47              		.loc 1 39 0
  48 0008 40F20003 		movw	r3, #:lower16:AMuxSeq_initVar
  49 000c C0F20003 		movt	r3, #:upper16:AMuxSeq_initVar
  50 0010 4FF00102 		mov	r2, #1
  51 0014 1A70     		strb	r2, [r3, #0]
  40:.\Generated_Source\PSoC5/AMuxSeq.c **** }
  52              		.loc 1 40 0
  53 0016 80BD     		pop	{r7, pc}
  54              		.cfi_endproc
  55              	.LFE0:
  56              		.size	AMuxSeq_Start, .-AMuxSeq_Start
  57              		.section	.text.AMuxSeq_Init,"ax",%progbits
  58              		.align	2
  59              		.global	AMuxSeq_Init
  60              		.thumb
  61              		.thumb_func
  62              		.type	AMuxSeq_Init, %function
  63              	AMuxSeq_Init:
  64              	.LFB1:
  41:.\Generated_Source\PSoC5/AMuxSeq.c **** 
  42:.\Generated_Source\PSoC5/AMuxSeq.c **** 
  43:.\Generated_Source\PSoC5/AMuxSeq.c **** /*******************************************************************************
  44:.\Generated_Source\PSoC5/AMuxSeq.c **** * Function Name: AMuxSeq_Init
  45:.\Generated_Source\PSoC5/AMuxSeq.c **** ********************************************************************************
  46:.\Generated_Source\PSoC5/AMuxSeq.c **** * Summary:
  47:.\Generated_Source\PSoC5/AMuxSeq.c **** *  Disconnect all channels. The next time Next is called, channel 0 will be
  48:.\Generated_Source\PSoC5/AMuxSeq.c **** *  connected.
  49:.\Generated_Source\PSoC5/AMuxSeq.c **** *
  50:.\Generated_Source\PSoC5/AMuxSeq.c **** * Parameters:
ARM GAS  C:\Users\gravi\AppData\Local\Temp\ccw0mxue.s 			page 3


  51:.\Generated_Source\PSoC5/AMuxSeq.c **** *  void
  52:.\Generated_Source\PSoC5/AMuxSeq.c **** *
  53:.\Generated_Source\PSoC5/AMuxSeq.c **** * Return:
  54:.\Generated_Source\PSoC5/AMuxSeq.c **** *  void
  55:.\Generated_Source\PSoC5/AMuxSeq.c **** *
  56:.\Generated_Source\PSoC5/AMuxSeq.c **** *******************************************************************************/
  57:.\Generated_Source\PSoC5/AMuxSeq.c **** void AMuxSeq_Init(void)
  58:.\Generated_Source\PSoC5/AMuxSeq.c **** {
  65              		.loc 1 58 0
  66              		.cfi_startproc
  67              		@ args = 0, pretend = 0, frame = 0
  68              		@ frame_needed = 1, uses_anonymous_args = 0
  69 0000 80B5     		push	{r7, lr}
  70              	.LCFI2:
  71              		.cfi_def_cfa_offset 8
  72              		.cfi_offset 7, -8
  73              		.cfi_offset 14, -4
  74 0002 00AF     		add	r7, sp, #0
  75              	.LCFI3:
  76              		.cfi_def_cfa_register 7
  59:.\Generated_Source\PSoC5/AMuxSeq.c ****     AMuxSeq_DisconnectAll();
  77              		.loc 1 59 0
  78 0004 FFF7FEFF 		bl	AMuxSeq_DisconnectAll
  60:.\Generated_Source\PSoC5/AMuxSeq.c **** }
  79              		.loc 1 60 0
  80 0008 80BD     		pop	{r7, pc}
  81              		.cfi_endproc
  82              	.LFE1:
  83              		.size	AMuxSeq_Init, .-AMuxSeq_Init
  84 000a 00BF     		.section	.text.AMuxSeq_Stop,"ax",%progbits
  85              		.align	2
  86              		.global	AMuxSeq_Stop
  87              		.thumb
  88              		.thumb_func
  89              		.type	AMuxSeq_Stop, %function
  90              	AMuxSeq_Stop:
  91              	.LFB2:
  61:.\Generated_Source\PSoC5/AMuxSeq.c **** 
  62:.\Generated_Source\PSoC5/AMuxSeq.c **** 
  63:.\Generated_Source\PSoC5/AMuxSeq.c **** /*******************************************************************************
  64:.\Generated_Source\PSoC5/AMuxSeq.c **** * Function Name: AMuxSeq_Stop
  65:.\Generated_Source\PSoC5/AMuxSeq.c **** ********************************************************************************
  66:.\Generated_Source\PSoC5/AMuxSeq.c **** * Summary:
  67:.\Generated_Source\PSoC5/AMuxSeq.c **** *  Disconnect all channels. The next time Next is called, channel 0 will be
  68:.\Generated_Source\PSoC5/AMuxSeq.c **** *  connected.
  69:.\Generated_Source\PSoC5/AMuxSeq.c **** *
  70:.\Generated_Source\PSoC5/AMuxSeq.c **** * Parameters:
  71:.\Generated_Source\PSoC5/AMuxSeq.c **** *  void
  72:.\Generated_Source\PSoC5/AMuxSeq.c **** *
  73:.\Generated_Source\PSoC5/AMuxSeq.c **** * Return:
  74:.\Generated_Source\PSoC5/AMuxSeq.c **** *  void
  75:.\Generated_Source\PSoC5/AMuxSeq.c **** *
  76:.\Generated_Source\PSoC5/AMuxSeq.c **** *******************************************************************************/
  77:.\Generated_Source\PSoC5/AMuxSeq.c **** void AMuxSeq_Stop(void)
  78:.\Generated_Source\PSoC5/AMuxSeq.c **** {
  92              		.loc 1 78 0
  93              		.cfi_startproc
ARM GAS  C:\Users\gravi\AppData\Local\Temp\ccw0mxue.s 			page 4


  94              		@ args = 0, pretend = 0, frame = 0
  95              		@ frame_needed = 1, uses_anonymous_args = 0
  96 0000 80B5     		push	{r7, lr}
  97              	.LCFI4:
  98              		.cfi_def_cfa_offset 8
  99              		.cfi_offset 7, -8
 100              		.cfi_offset 14, -4
 101 0002 00AF     		add	r7, sp, #0
 102              	.LCFI5:
 103              		.cfi_def_cfa_register 7
  79:.\Generated_Source\PSoC5/AMuxSeq.c ****     AMuxSeq_DisconnectAll();
 104              		.loc 1 79 0
 105 0004 FFF7FEFF 		bl	AMuxSeq_DisconnectAll
  80:.\Generated_Source\PSoC5/AMuxSeq.c **** }
 106              		.loc 1 80 0
 107 0008 80BD     		pop	{r7, pc}
 108              		.cfi_endproc
 109              	.LFE2:
 110              		.size	AMuxSeq_Stop, .-AMuxSeq_Stop
 111 000a 00BF     		.section	.text.AMuxSeq_GetChannel,"ax",%progbits
 112              		.align	2
 113              		.global	AMuxSeq_GetChannel
 114              		.thumb
 115              		.thumb_func
 116              		.type	AMuxSeq_GetChannel, %function
 117              	AMuxSeq_GetChannel:
 118              	.LFB3:
  81:.\Generated_Source\PSoC5/AMuxSeq.c **** 
  82:.\Generated_Source\PSoC5/AMuxSeq.c **** #if (AMuxSeq_MUXTYPE == AMuxSeq_MUX_DIFF)
  83:.\Generated_Source\PSoC5/AMuxSeq.c **** 
  84:.\Generated_Source\PSoC5/AMuxSeq.c **** /*******************************************************************************
  85:.\Generated_Source\PSoC5/AMuxSeq.c **** * Function Name: AMuxSeq_Next
  86:.\Generated_Source\PSoC5/AMuxSeq.c **** ********************************************************************************
  87:.\Generated_Source\PSoC5/AMuxSeq.c **** * Summary:
  88:.\Generated_Source\PSoC5/AMuxSeq.c **** *  Disconnects the previous channel and connects the next one in the sequence.
  89:.\Generated_Source\PSoC5/AMuxSeq.c **** *  When Next is called for the first time after Init, Start, Enable, Stop, or
  90:.\Generated_Source\PSoC5/AMuxSeq.c **** *  DisconnectAll, it connects channel 0.
  91:.\Generated_Source\PSoC5/AMuxSeq.c **** *
  92:.\Generated_Source\PSoC5/AMuxSeq.c **** * Parameters:
  93:.\Generated_Source\PSoC5/AMuxSeq.c **** *  void
  94:.\Generated_Source\PSoC5/AMuxSeq.c **** *
  95:.\Generated_Source\PSoC5/AMuxSeq.c **** * Return:
  96:.\Generated_Source\PSoC5/AMuxSeq.c **** *  void
  97:.\Generated_Source\PSoC5/AMuxSeq.c **** *
  98:.\Generated_Source\PSoC5/AMuxSeq.c **** *******************************************************************************/
  99:.\Generated_Source\PSoC5/AMuxSeq.c **** void AMuxSeq_Next(void)
 100:.\Generated_Source\PSoC5/AMuxSeq.c **** {
 101:.\Generated_Source\PSoC5/AMuxSeq.c ****     AMuxSeq_CYAMUXSIDE_A_Next();
 102:.\Generated_Source\PSoC5/AMuxSeq.c ****     AMuxSeq_CYAMUXSIDE_B_Next();
 103:.\Generated_Source\PSoC5/AMuxSeq.c **** }
 104:.\Generated_Source\PSoC5/AMuxSeq.c **** 
 105:.\Generated_Source\PSoC5/AMuxSeq.c **** 
 106:.\Generated_Source\PSoC5/AMuxSeq.c **** /*******************************************************************************
 107:.\Generated_Source\PSoC5/AMuxSeq.c **** * Function Name: AMuxSeq_DisconnectAll
 108:.\Generated_Source\PSoC5/AMuxSeq.c **** ********************************************************************************
 109:.\Generated_Source\PSoC5/AMuxSeq.c **** * Summary:
 110:.\Generated_Source\PSoC5/AMuxSeq.c **** *  This function disconnects all channels. The next time Next is called, channel
ARM GAS  C:\Users\gravi\AppData\Local\Temp\ccw0mxue.s 			page 5


 111:.\Generated_Source\PSoC5/AMuxSeq.c **** *  0 will be connected.
 112:.\Generated_Source\PSoC5/AMuxSeq.c **** *
 113:.\Generated_Source\PSoC5/AMuxSeq.c **** * Parameters:
 114:.\Generated_Source\PSoC5/AMuxSeq.c **** *  void
 115:.\Generated_Source\PSoC5/AMuxSeq.c **** *
 116:.\Generated_Source\PSoC5/AMuxSeq.c **** * Return:
 117:.\Generated_Source\PSoC5/AMuxSeq.c **** *  void
 118:.\Generated_Source\PSoC5/AMuxSeq.c **** *
 119:.\Generated_Source\PSoC5/AMuxSeq.c **** *******************************************************************************/
 120:.\Generated_Source\PSoC5/AMuxSeq.c **** void AMuxSeq_DisconnectAll(void)
 121:.\Generated_Source\PSoC5/AMuxSeq.c **** {
 122:.\Generated_Source\PSoC5/AMuxSeq.c ****     AMuxSeq_CYAMUXSIDE_A_DisconnectAll();
 123:.\Generated_Source\PSoC5/AMuxSeq.c ****     AMuxSeq_CYAMUXSIDE_B_DisconnectAll();
 124:.\Generated_Source\PSoC5/AMuxSeq.c **** }
 125:.\Generated_Source\PSoC5/AMuxSeq.c **** 
 126:.\Generated_Source\PSoC5/AMuxSeq.c **** 
 127:.\Generated_Source\PSoC5/AMuxSeq.c **** /*******************************************************************************
 128:.\Generated_Source\PSoC5/AMuxSeq.c **** * Function Name: AMuxSeq_GetChannel
 129:.\Generated_Source\PSoC5/AMuxSeq.c **** ********************************************************************************
 130:.\Generated_Source\PSoC5/AMuxSeq.c **** * Summary:
 131:.\Generated_Source\PSoC5/AMuxSeq.c **** *  The currently connected channel is retuned. If no channel is connected
 132:.\Generated_Source\PSoC5/AMuxSeq.c **** *  returns -1.
 133:.\Generated_Source\PSoC5/AMuxSeq.c **** *
 134:.\Generated_Source\PSoC5/AMuxSeq.c **** * Parameters:
 135:.\Generated_Source\PSoC5/AMuxSeq.c **** *  void
 136:.\Generated_Source\PSoC5/AMuxSeq.c **** *
 137:.\Generated_Source\PSoC5/AMuxSeq.c **** * Return:
 138:.\Generated_Source\PSoC5/AMuxSeq.c **** *  The current channel or -1.
 139:.\Generated_Source\PSoC5/AMuxSeq.c **** *
 140:.\Generated_Source\PSoC5/AMuxSeq.c **** *******************************************************************************/
 141:.\Generated_Source\PSoC5/AMuxSeq.c **** int8 AMuxSeq_GetChannel(void)
 142:.\Generated_Source\PSoC5/AMuxSeq.c **** {
 143:.\Generated_Source\PSoC5/AMuxSeq.c ****     return AMuxSeq_CYAMUXSIDE_A_curChannel;
 144:.\Generated_Source\PSoC5/AMuxSeq.c **** }
 145:.\Generated_Source\PSoC5/AMuxSeq.c **** 
 146:.\Generated_Source\PSoC5/AMuxSeq.c **** #else
 147:.\Generated_Source\PSoC5/AMuxSeq.c **** 
 148:.\Generated_Source\PSoC5/AMuxSeq.c **** /*******************************************************************************
 149:.\Generated_Source\PSoC5/AMuxSeq.c **** * Function Name: AMuxSeq_GetChannel
 150:.\Generated_Source\PSoC5/AMuxSeq.c **** ********************************************************************************
 151:.\Generated_Source\PSoC5/AMuxSeq.c **** * Summary:
 152:.\Generated_Source\PSoC5/AMuxSeq.c **** *  The currently connected channel is retuned. If no channel is connected
 153:.\Generated_Source\PSoC5/AMuxSeq.c **** *  returns -1.
 154:.\Generated_Source\PSoC5/AMuxSeq.c **** *
 155:.\Generated_Source\PSoC5/AMuxSeq.c **** * Parameters:
 156:.\Generated_Source\PSoC5/AMuxSeq.c **** *  void
 157:.\Generated_Source\PSoC5/AMuxSeq.c **** *
 158:.\Generated_Source\PSoC5/AMuxSeq.c **** * Return:
 159:.\Generated_Source\PSoC5/AMuxSeq.c **** *  The current channel or -1.
 160:.\Generated_Source\PSoC5/AMuxSeq.c **** *
 161:.\Generated_Source\PSoC5/AMuxSeq.c **** *******************************************************************************/
 162:.\Generated_Source\PSoC5/AMuxSeq.c **** int8 AMuxSeq_GetChannel(void)
 163:.\Generated_Source\PSoC5/AMuxSeq.c **** {
 119              		.loc 1 163 0
 120              		.cfi_startproc
 121              		@ args = 0, pretend = 0, frame = 0
 122              		@ frame_needed = 1, uses_anonymous_args = 0
ARM GAS  C:\Users\gravi\AppData\Local\Temp\ccw0mxue.s 			page 6


 123              		@ link register save eliminated.
 124 0000 80B4     		push	{r7}
 125              	.LCFI6:
 126              		.cfi_def_cfa_offset 4
 127              		.cfi_offset 7, -4
 128 0002 00AF     		add	r7, sp, #0
 129              	.LCFI7:
 130              		.cfi_def_cfa_register 7
 164:.\Generated_Source\PSoC5/AMuxSeq.c ****     return AMuxSeq_curChannel;
 131              		.loc 1 164 0
 132 0004 40F20003 		movw	r3, #:lower16:AMuxSeq_curChannel
 133 0008 C0F20003 		movt	r3, #:upper16:AMuxSeq_curChannel
 134 000c 1B78     		ldrb	r3, [r3, #0]	@ zero_extendqisi2
 135 000e 5BB2     		sxtb	r3, r3
 165:.\Generated_Source\PSoC5/AMuxSeq.c **** }
 136              		.loc 1 165 0
 137 0010 1846     		mov	r0, r3
 138 0012 BD46     		mov	sp, r7
 139 0014 80BC     		pop	{r7}
 140 0016 7047     		bx	lr
 141              		.cfi_endproc
 142              	.LFE3:
 143              		.size	AMuxSeq_GetChannel, .-AMuxSeq_GetChannel
 144              		.text
 145              	.Letext0:
 146              		.file 2 ".\\Generated_Source\\PSoC5\\cytypes.h"
 147              		.file 3 ".\\Generated_Source\\PSoC5\\cyfitter_cfg.h"