ARM GAS  C:\Users\gravi\AppData\Local\Temp\cczW92Yj.s 			page 1


   1              		.syntax unified
   2              		.cpu cortex-m3
   3              		.fpu softvfp
   4              		.eabi_attribute 20, 1
   5              		.eabi_attribute 21, 1
   6              		.eabi_attribute 23, 3
   7              		.eabi_attribute 24, 1
   8              		.eabi_attribute 25, 1
   9              		.eabi_attribute 26, 1
  10              		.eabi_attribute 30, 6
  11              		.eabi_attribute 34, 1
  12              		.eabi_attribute 18, 4
  13              		.thumb
  14              		.file	"clu.c"
  15              		.text
  16              	.Ltext0:
  17              		.cfi_sections	.debug_frame
  18              		.section	.rodata
  19              		.align	2
  20              	.LC0:
  21 0000 2343414D 		.ascii	"#CAMERAON\000"
  21      4552414F 
  21      4E00
  22 000a 0000     		.align	2
  23              	.LC1:
  24 000c 23505452 		.ascii	"#PTRAP +90 0.3 10\000"
  24      4150202B 
  24      39302030 
  24      2E332031 
  24      3000
  25 001e 0000     		.align	2
  26              	.LC2:
  27 0020 23545452 		.ascii	"#TTRAP +90 0.2 10\000"
  27      4150202B 
  27      39302030 
  27      2E322031 
  27      3000
  28 0032 0000     		.align	2
  29              	.LC3:
  30 0034 23504154 		.ascii	"#PATHEXEC\000"
  30      48455845 
  30      4300
  31 003e 0000     		.align	2
  32              	.LC4:
  33 0040 2343414D 		.ascii	"#CAMERAOFF\000"
  33      4552414F 
  33      464600
  34 004b 00       		.align	2
  35              	.LC5:
  36 004c 23434C55 		.ascii	"#CLUEND\000"
  36      454E4400 
  37              		.align	2
  38              	.LC6:
  39 0054 2354474F 		.ascii	"#TGOTOH\000"
  39      544F4800 
  40              		.align	2
  41              	.LC7:
ARM GAS  C:\Users\gravi\AppData\Local\Temp\cczW92Yj.s 			page 2


  42 005c 23504155 		.ascii	"#PAUSE 5.5\000"
  42      53452035 
  42      2E3500
  43 0067 00       		.align	2
  44              	.LC8:
  45 0068 23505452 		.ascii	"#PTRAP +180 0.2 10\000"
  45      4150202B 
  45      31383020 
  45      302E3220 
  45      313000
  46 007b 00       		.align	2
  47              	.LC9:
  48 007c 23504155 		.ascii	"#PAUSE 10\000"
  48      53452031 
  48      3000
  49 0086 0000     		.align	2
  50              	.LC10:
  51 0088 23504155 		.ascii	"#PAUSE 5\000"
  51      53452035 
  51      00
  52 0091 000000   		.align	2
  53              	.LC11:
  54 0094 23545452 		.ascii	"#TTRAP +180 0.2 10\000"
  54      4150202B 
  54      31383020 
  54      302E3220 
  54      313000
  55 00a7 00       		.align	2
  56              	.LC12:
  57 00a8 23505452 		.ascii	"#PTRAP +180 0.2 15\000"
  57      4150202B 
  57      31383020 
  57      302E3220 
  57      313500
  58 00bb 00       		.align	2
  59              	.LC13:
  60 00bc 23474F54 		.ascii	"#GOTOH\000"
  60      4F4800
  61 00c3 00       		.align	2
  62              	.LC14:
  63 00c4 23505451 		.ascii	"#PTQ 21 0.3 5\000"
  63      20323120 
  63      302E3320 
  63      3500
  64 00d2 0000     		.align	2
  65              	.LC15:
  66 00d4 23505451 		.ascii	"#PTQ 41 0.3 5\000"
  66      20343120 
  66      302E3320 
  66      3500
  67 00e2 0000     		.align	2
  68              	.LC16:
  69 00e4 23505451 		.ascii	"#PTQ 31 0.3 5\000"
  69      20333120 
  69      302E3320 
  69      3500
  70 00f2 0000     		.align	2
ARM GAS  C:\Users\gravi\AppData\Local\Temp\cczW92Yj.s 			page 3


  71              	.LC17:
  72 00f4 23545452 		.ascii	"#TTRAP +35 0.2 2\000"
  72      4150202B 
  72      33352030 
  72      2E322032 
  72      00
  73 0105 000000   		.align	2
  74              	.LC18:
  75 0108 23505452 		.ascii	"#PTRAP +180 0.2 1.5\000"
  75      4150202B 
  75      31383020 
  75      302E3220 
  75      312E3500 
  76              		.align	2
  77              	.LC19:
  78 011c 23505452 		.ascii	"#PTRAP +120 0.2 10\000"
  78      4150202B 
  78      31323020 
  78      302E3220 
  78      313000
  79 012f 00       		.align	2
  80              	.LC20:
  81 0130 23505452 		.ascii	"#PTRAP +720 0.2 10\000"
  81      4150202B 
  81      37323020 
  81      302E3220 
  81      313000
  82 0143 00       		.align	2
  83              	.LC21:
  84 0144 23504155 		.ascii	"#PAUSE 0.1\000"
  84      53452030 
  84      2E3100
  85 014f 00       		.align	2
  86              	.LC22:
  87 0150 23505452 		.ascii	"#PTRAP -720 0.2 10\000"
  87      4150202D 
  87      37323020 
  87      302E3220 
  87      313000
  88 0163 00       		.align	2
  89              	.LC23:
  90 0164 23504155 		.ascii	"#PAUSE 3\000"
  90      53452033 
  90      00
  91 016d 000000   		.align	2
  92              	.LC24:
  93 0170 23505452 		.ascii	"#PTRAP +160 0.2 5\000"
  93      4150202B 
  93      31363020 
  93      302E3220 
  93      3500
  94 0182 0000     		.align	2
  95              	.LC25:
  96 0184 23504155 		.ascii	"#PAUSE 1\000"
  96      53452031 
  96      00
  97 018d 000000   		.align	2
ARM GAS  C:\Users\gravi\AppData\Local\Temp\cczW92Yj.s 			page 4


  98              	.LC26:
  99 0190 23505452 		.ascii	"#PTRAP -160 0.2 1.5\000"
  99      4150202D 
  99      31363020 
  99      302E3220 
  99      312E3500 
 100              		.align	2
 101              	.LC27:
 102 01a4 23505452 		.ascii	"#PTRAP +160 0.2 1.5\000"
 102      4150202B 
 102      31363020 
 102      302E3220 
 102      312E3500 
 103              		.align	2
 104              	.LC28:
 105 01b8 23545452 		.ascii	"#TTRAP +30 0.2 1.5\000"
 105      4150202B 
 105      33302030 
 105      2E322031 
 105      2E3500
 106 01cb 00       		.align	2
 107              	.LC29:
 108 01cc 23505452 		.ascii	"#PTRAP -80 0.2 0.75\000"
 108      4150202D 
 108      38302030 
 108      2E322030 
 108      2E373500 
 109              		.align	2
 110              	.LC30:
 111 01e0 23545452 		.ascii	"#TTRAP -60 0.2 0.75\000"
 111      4150202D 
 111      36302030 
 111      2E322030 
 111      2E373500 
 112              		.align	2
 113              	.LC31:
 114 01f4 23505452 		.ascii	"#PTRAP +60 0.2 1.5\000"
 114      4150202B 
 114      36302030 
 114      2E322031 
 114      2E3500
 115 0207 00       		.align	2
 116              	.LC32:
 117 0208 23505452 		.ascii	"#PTRAP +180 0.2 4\000"
 117      4150202B 
 117      31383020 
 117      302E3220 
 117      3400
 118 021a 0000     		.align	2
 119              	.LC33:
 120 021c 23545452 		.ascii	"#TTRAP +35 0.2 4\000"
 120      4150202B 
 120      33352030 
 120      2E322034 
 120      00
 121 022d 000000   		.align	2
 122              	.LC34:
ARM GAS  C:\Users\gravi\AppData\Local\Temp\cczW92Yj.s 			page 5


 123 0230 23505452 		.ascii	"#PTRAP +200 0.2 2.5\000"
 123      4150202B 
 123      32303020 
 123      302E3220 
 123      322E3500 
 124              		.align	2
 125              	.LC35:
 126 0244 23545452 		.ascii	"#TTRAP +45 0.2 2.5\000"
 126      4150202B 
 126      34352030 
 126      2E322032 
 126      2E3500
 127 0257 00       		.align	2
 128              	.LC36:
 129 0258 23505452 		.ascii	"#PTRAP -50 0.2 0.75\000"
 129      4150202D 
 129      35302030 
 129      2E322030 
 129      2E373500 
 130              		.align	2
 131              	.LC37:
 132 026c 23545452 		.ascii	"#TTRAP -30 0.2 0.75\000"
 132      4150202D 
 132      33302030 
 132      2E322030 
 132      2E373500 
 133              		.align	2
 134              	.LC38:
 135 0280 23505452 		.ascii	"#PTRAP +30 0.2 1.5\000"
 135      4150202B 
 135      33302030 
 135      2E322031 
 135      2E3500
 136 0293 00       		.align	2
 137              	.LC39:
 138 0294 23545452 		.ascii	"#TTRAP +20 0.2 1.5\000"
 138      4150202B 
 138      32302030 
 138      2E322031 
 138      2E3500
 139 02a7 00       		.align	2
 140              	.LC40:
 141 02a8 23545452 		.ascii	"#TTRAP -45 0.2 3\000"
 141      4150202D 
 141      34352030 
 141      2E322033 
 141      00
 142 02b9 000000   		.align	2
 143              	.LC41:
 144 02bc 23505452 		.ascii	"#PTRAP +360 0.2 4\000"
 144      4150202B 
 144      33363020 
 144      302E3220 
 144      3400
 145 02ce 0000     		.align	2
 146              	.LC42:
 147 02d0 23545452 		.ascii	"#TTRAP -45 0.2 2\000"
ARM GAS  C:\Users\gravi\AppData\Local\Temp\cczW92Yj.s 			page 6


 147      4150202D 
 147      34352030 
 147      2E322032 
 147      00
 148 02e1 000000   		.align	2
 149              	.LC43:
 150 02e4 23505452 		.ascii	"#PTRAP -90 0.2 1.0\000"
 150      4150202D 
 150      39302030 
 150      2E322031 
 150      2E3000
 151 02f7 00       		.align	2
 152              	.LC44:
 153 02f8 23545452 		.ascii	"#TTRAP -25 0.2 1.0\000"
 153      4150202D 
 153      32352030 
 153      2E322031 
 153      2E3000
 154 030b 00       		.align	2
 155              	.LC45:
 156 030c 23505452 		.ascii	"#PTRAP +180 0.2 2\000"
 156      4150202B 
 156      31383020 
 156      302E3220 
 156      3200
 157 031e 0000     		.align	2
 158              	.LC46:
 159 0320 23505452 		.ascii	"#PTRAP -90 0.2 1\000"
 159      4150202D 
 159      39302030 
 159      2E322031 
 159      00
 160 0331 000000   		.align	2
 161              	.LC47:
 162 0334 23545452 		.ascii	"#TTRAP -20 0.2 1\000"
 162      4150202D 
 162      32302030 
 162      2E322031 
 162      00
 163 0345 000000   		.align	2
 164              	.LC48:
 165 0348 23505451 		.ascii	"#PTQ 11 0.3 3\000"
 165      20313120 
 165      302E3320 
 165      3300
 166 0356 0000     		.align	2
 167              	.LC49:
 168 0358 23505451 		.ascii	"#PTQ 11 0.3 1.5\000"
 168      20313120 
 168      302E3320 
 168      312E3500 
 169              		.align	2
 170              	.LC50:
 171 0368 23505451 		.ascii	"#PTQ 21 0.3 6\000"
 171      20323120 
 171      302E3320 
 171      3600
ARM GAS  C:\Users\gravi\AppData\Local\Temp\cczW92Yj.s 			page 7


 172 0376 0000     		.align	2
 173              	.LC51:
 174 0378 23504155 		.ascii	"#PAUSE 0.5\000"
 174      53452030 
 174      2E3500
 175 0383 00       		.align	2
 176              	.LC52:
 177 0384 23505451 		.ascii	"#PTQ 15 0.3 3\000"
 177      20313520 
 177      302E3320 
 177      3300
 178 0392 0000     		.align	2
 179              	.LC53:
 180 0394 23505451 		.ascii	"#PTQ 43 0.3 1.5\000"
 180      20343320 
 180      302E3320 
 180      312E3500 
 181              		.align	2
 182              	.LC54:
 183 03a4 23505451 		.ascii	"#PTQ 40 0.3 12\000"
 183      20343020 
 183      302E3320 
 183      313200
 184 03b3 00       		.align	2
 185              	.LC55:
 186 03b4 23505452 		.ascii	"#PTRAP 120 0.3 12\000"
 186      41502031 
 186      32302030 
 186      2E332031 
 186      3200
 187 03c6 0000     		.align	2
 188              	.LC56:
 189 03c8 23505452 		.ascii	"#PTRAP -120 0.3 6\000"
 189      4150202D 
 189      31323020 
 189      302E3320 
 189      3600
 190 03da 0000     		.align	2
 191              	.LC57:
 192 03dc 23505451 		.ascii	"#PTQ 51 0.3 12\000"
 192      20353120 
 192      302E3320 
 192      313200
 193 03eb 00       		.align	2
 194              	.LC58:
 195 03ec 23505451 		.ascii	"#PTQ 44 0.3 1.5\000"
 195      20343420 
 195      302E3320 
 195      312E3500 
 196              		.align	2
 197              	.LC59:
 198 03fc 23505452 		.ascii	"#PTRAP -300 0.3 20\000"
 198      4150202D 
 198      33303020 
 198      302E3320 
 198      323000
 199 040f 00       		.align	2
ARM GAS  C:\Users\gravi\AppData\Local\Temp\cczW92Yj.s 			page 8


 200              	.LC60:
 201 0410 23505451 		.ascii	"#PTQ 21 0.3 1.5\000"
 201      20323120 
 201      302E3320 
 201      312E3500 
 202              		.align	2
 203              	.LC61:
 204 0420 23505451 		.ascii	"#PTQ 11 0.2 1.5\000"
 204      20313120 
 204      302E3220 
 204      312E3500 
 205              		.align	2
 206              	.LC62:
 207 0430 23505452 		.ascii	"#PTRAP +1440 0.2 20\000"
 207      4150202B 
 207      31343430 
 207      20302E32 
 207      20323000 
 208              		.align	2
 209              	.LC63:
 210 0444 23505451 		.ascii	"#PTQ 40 0.2 1.5\000"
 210      20343020 
 210      302E3220 
 210      312E3500 
 211              		.align	2
 212              	.LC64:
 213 0454 23505452 		.ascii	"#PTRAP +45 0.4 0.5\000"
 213      4150202B 
 213      34352030 
 213      2E342030 
 213      2E3500
 214 0467 00       		.align	2
 215              	.LC65:
 216 0468 23505452 		.ascii	"#PTRAP -90 0.4 1\000"
 216      4150202D 
 216      39302030 
 216      2E342031 
 216      00
 217 0479 000000   		.align	2
 218              	.LC66:
 219 047c 23505452 		.ascii	"#PTRAP +90 0.4 1\000"
 219      4150202B 
 219      39302030 
 219      2E342031 
 219      00
 220 048d 000000   		.align	2
 221              	.LC67:
 222 0490 23505451 		.ascii	"#PTQ 40 0.4 4\000"
 222      20343020 
 222      302E3420 
 222      3400
 223 049e 0000     		.align	2
 224              	.LC68:
 225 04a0 23504155 		.ascii	"#PAUSE 2\000"
 225      53452032 
 225      00
 226 04a9 000000   		.align	2
ARM GAS  C:\Users\gravi\AppData\Local\Temp\cczW92Yj.s 			page 9


 227              	.LC69:
 228 04ac 23505451 		.ascii	"#PTQ 14 0.2 1.5\000"
 228      20313420 
 228      302E3220 
 228      312E3500 
 229              		.align	2
 230              	.LC70:
 231 04bc 23505451 		.ascii	"#PTQ 17 0.2 1.5\000"
 231      20313720 
 231      302E3220 
 231      312E3500 
 232              		.align	2
 233              	.LC71:
 234 04cc 23504155 		.ascii	"#PAUSE 1.5\000"
 234      53452031 
 234      2E3500
 235 04d7 00       		.align	2
 236              	.LC72:
 237 04d8 23505451 		.ascii	"#PTQ 31 0.2 9\000"
 237      20333120 
 237      302E3220 
 237      3900
 238 04e6 0000     		.align	2
 239              	.LC73:
 240 04e8 23505451 		.ascii	"#PTQ 42 0.2 1.5\000"
 240      20343220 
 240      302E3220 
 240      312E3500 
 241              		.align	2
 242              	.LC74:
 243 04f8 23505451 		.ascii	"#PTQ 41 0.2 1.5\000"
 243      20343120 
 243      302E3220 
 243      312E3500 
 244              		.align	2
 245              	.LC75:
 246 0508 23505451 		.ascii	"#PTQ 51 0.2 9\000"
 246      20353120 
 246      302E3220 
 246      3900
 247 0516 0000     		.align	2
 248              	.LC76:
 249 0518 23505451 		.ascii	"#PTQ 13 0.2 1.5\000"
 249      20313320 
 249      302E3220 
 249      312E3500 
 250              		.align	2
 251              	.LC77:
 252 0528 23505452 		.ascii	"#PTRAP +1620  0.2 28\000"
 252      4150202B 
 252      31363230 
 252      2020302E 
 252      32203238 
 253 053d 000000   		.align	2
 254              	.LC78:
 255 0540 23545452 		.ascii	"#TTRAP +120   0.2 28\000"
 255      4150202B 
ARM GAS  C:\Users\gravi\AppData\Local\Temp\cczW92Yj.s 			page 10


 255      31323020 
 255      2020302E 
 255      32203238 
 256 0555 000000   		.align	2
 257              	.LC79:
 258 0558 23505451 		.ascii	"#PTQ 21 0.2 1.5\000"
 258      20323120 
 258      302E3220 
 258      312E3500 
 259              		.align	2
 260              	.LC80:
 261 0568 23505452 		.ascii	"#PTRAP +360   0.2 10\000"
 261      4150202B 
 261      33363020 
 261      2020302E 
 261      32203130 
 262 057d 000000   		.align	2
 263              	.LC81:
 264 0580 23545452 		.ascii	"#TTRAP +100   0.2 10\000"
 264      4150202B 
 264      31303020 
 264      2020302E 
 264      32203130 
 265 0595 000000   		.align	2
 266              	.LC82:
 267 0598 23505451 		.ascii	"#PTQ 11 0.2 2\000"
 267      20313120 
 267      302E3220 
 267      3200
 268 05a6 0000     		.align	2
 269              	.LC83:
 270 05a8 23505451 		.ascii	"#PTQ 99 0.2 1\000"
 270      20393920 
 270      302E3220 
 270      3100
 271              		.section	.text.InitAllClus,"ax",%progbits
 272              		.align	2
 273              		.global	InitAllClus
 274              		.thumb
 275              		.thumb_func
 276              		.type	InitAllClus, %function
 277              	InitAllClus:
 278              	.LFB56:
 279              		.file 1 ".\\clu.c"
   1:.\clu.c       **** /* ========================================
   2:.\clu.c       ****  *
   3:.\clu.c       ****  * Copyright YOUR COMPANY, THE YEAR
   4:.\clu.c       ****  * All Rights Reserved
   5:.\clu.c       ****  * UNPUBLISHED, LICENSED SOFTWARE.
   6:.\clu.c       ****  *
   7:.\clu.c       ****  * CONFIDENTIAL AND PROPRIETARY INFORMATION
   8:.\clu.c       ****  * WHICH IS THE PROPERTY OF your company.
   9:.\clu.c       ****  *
  10:.\clu.c       ****  * ========================================
  11:.\clu.c       **** */
  12:.\clu.c       **** #include <device.h>
  13:.\clu.c       **** #include <string.h>
ARM GAS  C:\Users\gravi\AppData\Local\Temp\cczW92Yj.s 			page 11


  14:.\clu.c       **** #include <math.h>
  15:.\clu.c       **** #include <stdio.h>
  16:.\clu.c       **** #include <gobee.h>
  17:.\clu.c       **** #include <gobeelib.h>
  18:.\clu.c       **** #include <clu.h>
  19:.\clu.c       **** 
  20:.\clu.c       **** /* EXTERN CLU Array 			*/
  21:.\clu.c       **** extern clu_type clu[MAX_CLU_NUMBER];
  22:.\clu.c       **** 
  23:.\clu.c       **** /* EXTERN CLU Sequence Array 	*/
  24:.\clu.c       **** extern uint8 clu_sequence[MAX_CLU_SEQUENCE_STEPS];
  25:.\clu.c       **** 
  26:.\clu.c       **** 
  27:.\clu.c       **** /********************************************************************************/
  28:.\clu.c       **** /* Constant CLUs Initialization													*/
  29:.\clu.c       **** /* GML 1.0																		*/
  30:.\clu.c       **** /********************************************************************************/
  31:.\clu.c       **** /*																				*/
  32:.\clu.c       **** /* clu[0..MAX_CLU_NUMBER-1][0..MAX_CLU_STEPS-1] = "CLU_CMDSTRING_SIZE chars"	*/
  33:.\clu.c       **** /*																				*/
  34:.\clu.c       **** /* MAX_CLU_NUMBER 	   	50														*/
  35:.\clu.c       **** /* MAX_CLU_STEPS 	   	21														*/
  36:.\clu.c       **** /* CLU_CMDSTRING_SIZE 	25														*/
  37:.\clu.c       **** /********************************************************************************/
  38:.\clu.c       **** void InitAllClus(void)
  39:.\clu.c       **** {
 280              		.loc 1 39 0
 281              		.cfi_startproc
 282              		@ args = 0, pretend = 0, frame = 0
 283              		@ frame_needed = 1, uses_anonymous_args = 0
 284 0000 B0B5     		push	{r4, r5, r7, lr}
 285              	.LCFI0:
 286              		.cfi_def_cfa_offset 16
 287              		.cfi_offset 4, -16
 288              		.cfi_offset 5, -12
 289              		.cfi_offset 7, -8
 290              		.cfi_offset 14, -4
 291 0002 00AF     		add	r7, sp, #0
 292              	.LCFI1:
 293              		.cfi_def_cfa_register 7
  40:.\clu.c       **** 	ClearAllClus();
 294              		.loc 1 40 0
 295 0004 FFF7FEFF 		bl	ClearAllClus
  41:.\clu.c       **** 	
  42:.\clu.c       **** 	/*----------------------------------------------*/
  43:.\clu.c       **** 	/* CLU 00 INIT									*/
  44:.\clu.c       **** 	/*                 "########################\0" */
  45:.\clu.c       **** 	/*----------------------------------------------*/	
  46:.\clu.c       **** 	sprintf(clu[0][0], "#CAMERAON");	
 296              		.loc 1 46 0
 297 0008 40F20002 		movw	r2, #:lower16:clu
 298 000c C0F20002 		movt	r2, #:upper16:clu
 299 0010 40F20003 		movw	r3, #:lower16:.LC0
 300 0014 C0F20003 		movt	r3, #:upper16:.LC0
 301 0018 03CB     		ldmia	r3!, {r0, r1}
 302 001a 1060     		str	r0, [r2, #0]	@ unaligned
 303 001c 5160     		str	r1, [r2, #4]	@ unaligned
ARM GAS  C:\Users\gravi\AppData\Local\Temp\cczW92Yj.s 			page 12


 304 001e 1B88     		ldrh	r3, [r3, #0]	@ unaligned
 305 0020 1381     		strh	r3, [r2, #8]	@ unaligned
  47:.\clu.c       **** 	sprintf(clu[0][1], "#PTRAP +90 0.3 10");
 306              		.loc 1 47 0
 307 0022 D14A     		ldr	r2, .L2
 308 0024 40F20003 		movw	r3, #:lower16:.LC1
 309 0028 C0F20003 		movt	r3, #:upper16:.LC1
 310 002c 1546     		mov	r5, r2
 311 002e 1C46     		mov	r4, r3
 312 0030 0FCC     		ldmia	r4!, {r0, r1, r2, r3}
 313 0032 2860     		str	r0, [r5, #0]	@ unaligned
 314 0034 6960     		str	r1, [r5, #4]	@ unaligned
 315 0036 AA60     		str	r2, [r5, #8]	@ unaligned
 316 0038 EB60     		str	r3, [r5, #12]	@ unaligned
 317 003a 2388     		ldrh	r3, [r4, #0]	@ unaligned
 318 003c 2B82     		strh	r3, [r5, #16]	@ unaligned
  48:.\clu.c       **** 	sprintf(clu[0][2], "#TTRAP +90 0.2 10");	
 319              		.loc 1 48 0
 320 003e CB4A     		ldr	r2, .L2+4
 321 0040 40F20003 		movw	r3, #:lower16:.LC2
 322 0044 C0F20003 		movt	r3, #:upper16:.LC2
 323 0048 1546     		mov	r5, r2
 324 004a 1C46     		mov	r4, r3
 325 004c 0FCC     		ldmia	r4!, {r0, r1, r2, r3}
 326 004e 2860     		str	r0, [r5, #0]	@ unaligned
 327 0050 6960     		str	r1, [r5, #4]	@ unaligned
 328 0052 AA60     		str	r2, [r5, #8]	@ unaligned
 329 0054 EB60     		str	r3, [r5, #12]	@ unaligned
 330 0056 2388     		ldrh	r3, [r4, #0]	@ unaligned
 331 0058 2B82     		strh	r3, [r5, #16]	@ unaligned
  49:.\clu.c       **** 	sprintf(clu[0][3], "#PATHEXEC");
 332              		.loc 1 49 0
 333 005a C54A     		ldr	r2, .L2+8
 334 005c 40F20003 		movw	r3, #:lower16:.LC3
 335 0060 C0F20003 		movt	r3, #:upper16:.LC3
 336 0064 03CB     		ldmia	r3!, {r0, r1}
 337 0066 1060     		str	r0, [r2, #0]	@ unaligned
 338 0068 5160     		str	r1, [r2, #4]	@ unaligned
 339 006a 1B88     		ldrh	r3, [r3, #0]	@ unaligned
 340 006c 1381     		strh	r3, [r2, #8]	@ unaligned
  50:.\clu.c       **** 	sprintf(clu[0][4], "#CAMERAOFF");	
 341              		.loc 1 50 0
 342 006e C14A     		ldr	r2, .L2+12
 343 0070 40F20003 		movw	r3, #:lower16:.LC4
 344 0074 C0F20003 		movt	r3, #:upper16:.LC4
 345 0078 03CB     		ldmia	r3!, {r0, r1}
 346 007a 1060     		str	r0, [r2, #0]	@ unaligned
 347 007c 5160     		str	r1, [r2, #4]	@ unaligned
 348 007e 1988     		ldrh	r1, [r3, #0]	@ unaligned
 349 0080 9B78     		ldrb	r3, [r3, #2]
 350 0082 1181     		strh	r1, [r2, #8]	@ unaligned
 351 0084 9372     		strb	r3, [r2, #10]
  51:.\clu.c       **** 	sprintf(clu[0][5], "#CLUEND");
 352              		.loc 1 51 0
 353 0086 BC4A     		ldr	r2, .L2+16
 354 0088 40F20003 		movw	r3, #:lower16:.LC5
 355 008c C0F20003 		movt	r3, #:upper16:.LC5
ARM GAS  C:\Users\gravi\AppData\Local\Temp\cczW92Yj.s 			page 13


 356 0090 03CB     		ldmia	r3!, {r0, r1}
 357 0092 1060     		str	r0, [r2, #0]	@ unaligned
 358 0094 5160     		str	r1, [r2, #4]	@ unaligned
  52:.\clu.c       **** 	
  53:.\clu.c       **** 	
  54:.\clu.c       **** 	/*----------------------------------------------*/
  55:.\clu.c       **** 	/* CLU 01 INIT									*/
  56:.\clu.c       **** 	/*                 "########################\0" */
  57:.\clu.c       **** 	/*----------------------------------------------*/	
  58:.\clu.c       **** 	sprintf(clu[1][0], "#TGOTOH");	
 359              		.loc 1 58 0
 360 0096 B94A     		ldr	r2, .L2+20
 361 0098 40F20003 		movw	r3, #:lower16:.LC6
 362 009c C0F20003 		movt	r3, #:upper16:.LC6
 363 00a0 03CB     		ldmia	r3!, {r0, r1}
 364 00a2 1060     		str	r0, [r2, #0]	@ unaligned
 365 00a4 5160     		str	r1, [r2, #4]	@ unaligned
  59:.\clu.c       **** 	sprintf(clu[1][1], "#CAMERAON");	
 366              		.loc 1 59 0
 367 00a6 B64A     		ldr	r2, .L2+24
 368 00a8 40F20003 		movw	r3, #:lower16:.LC0
 369 00ac C0F20003 		movt	r3, #:upper16:.LC0
 370 00b0 03CB     		ldmia	r3!, {r0, r1}
 371 00b2 1060     		str	r0, [r2, #0]	@ unaligned
 372 00b4 5160     		str	r1, [r2, #4]	@ unaligned
 373 00b6 1B88     		ldrh	r3, [r3, #0]	@ unaligned
 374 00b8 1381     		strh	r3, [r2, #8]	@ unaligned
  60:.\clu.c       **** 	sprintf(clu[1][2], "#PAUSE 5.5");
 375              		.loc 1 60 0
 376 00ba B24A     		ldr	r2, .L2+28
 377 00bc 40F20003 		movw	r3, #:lower16:.LC7
 378 00c0 C0F20003 		movt	r3, #:upper16:.LC7
 379 00c4 03CB     		ldmia	r3!, {r0, r1}
 380 00c6 1060     		str	r0, [r2, #0]	@ unaligned
 381 00c8 5160     		str	r1, [r2, #4]	@ unaligned
 382 00ca 1988     		ldrh	r1, [r3, #0]	@ unaligned
 383 00cc 9B78     		ldrb	r3, [r3, #2]
 384 00ce 1181     		strh	r1, [r2, #8]	@ unaligned
 385 00d0 9372     		strb	r3, [r2, #10]
  61:.\clu.c       **** 	sprintf(clu[1][3], "#PTRAP +180 0.2 10");	
 386              		.loc 1 61 0
 387 00d2 AD4A     		ldr	r2, .L2+32
 388 00d4 40F20003 		movw	r3, #:lower16:.LC8
 389 00d8 C0F20003 		movt	r3, #:upper16:.LC8
 390 00dc 1546     		mov	r5, r2
 391 00de 1C46     		mov	r4, r3
 392 00e0 0FCC     		ldmia	r4!, {r0, r1, r2, r3}
 393 00e2 2860     		str	r0, [r5, #0]	@ unaligned
 394 00e4 6960     		str	r1, [r5, #4]	@ unaligned
 395 00e6 AA60     		str	r2, [r5, #8]	@ unaligned
 396 00e8 EB60     		str	r3, [r5, #12]	@ unaligned
 397 00ea 2288     		ldrh	r2, [r4, #0]	@ unaligned
 398 00ec A378     		ldrb	r3, [r4, #2]
 399 00ee 2A82     		strh	r2, [r5, #16]	@ unaligned
 400 00f0 AB74     		strb	r3, [r5, #18]
  62:.\clu.c       **** 	sprintf(clu[1][4], "#PATHEXEC");
 401              		.loc 1 62 0
ARM GAS  C:\Users\gravi\AppData\Local\Temp\cczW92Yj.s 			page 14


 402 00f2 A64A     		ldr	r2, .L2+36
 403 00f4 40F20003 		movw	r3, #:lower16:.LC3
 404 00f8 C0F20003 		movt	r3, #:upper16:.LC3
 405 00fc 03CB     		ldmia	r3!, {r0, r1}
 406 00fe 1060     		str	r0, [r2, #0]	@ unaligned
 407 0100 5160     		str	r1, [r2, #4]	@ unaligned
 408 0102 1B88     		ldrh	r3, [r3, #0]	@ unaligned
 409 0104 1381     		strh	r3, [r2, #8]	@ unaligned
  63:.\clu.c       **** 	sprintf(clu[1][5], "#PAUSE 10");	
 410              		.loc 1 63 0
 411 0106 A24A     		ldr	r2, .L2+40
 412 0108 40F20003 		movw	r3, #:lower16:.LC9
 413 010c C0F20003 		movt	r3, #:upper16:.LC9
 414 0110 03CB     		ldmia	r3!, {r0, r1}
 415 0112 1060     		str	r0, [r2, #0]	@ unaligned
 416 0114 5160     		str	r1, [r2, #4]	@ unaligned
 417 0116 1B88     		ldrh	r3, [r3, #0]	@ unaligned
 418 0118 1381     		strh	r3, [r2, #8]	@ unaligned
  64:.\clu.c       **** 	sprintf(clu[1][6], "#CAMERAOFF");	
 419              		.loc 1 64 0
 420 011a 9E4A     		ldr	r2, .L2+44
 421 011c 40F20003 		movw	r3, #:lower16:.LC4
 422 0120 C0F20003 		movt	r3, #:upper16:.LC4
 423 0124 03CB     		ldmia	r3!, {r0, r1}
 424 0126 1060     		str	r0, [r2, #0]	@ unaligned
 425 0128 5160     		str	r1, [r2, #4]	@ unaligned
 426 012a 1988     		ldrh	r1, [r3, #0]	@ unaligned
 427 012c 9B78     		ldrb	r3, [r3, #2]
 428 012e 1181     		strh	r1, [r2, #8]	@ unaligned
 429 0130 9372     		strb	r3, [r2, #10]
  65:.\clu.c       **** 	sprintf(clu[1][7], "#CLUEND");	
 430              		.loc 1 65 0
 431 0132 994A     		ldr	r2, .L2+48
 432 0134 40F20003 		movw	r3, #:lower16:.LC5
 433 0138 C0F20003 		movt	r3, #:upper16:.LC5
 434 013c 03CB     		ldmia	r3!, {r0, r1}
 435 013e 1060     		str	r0, [r2, #0]	@ unaligned
 436 0140 5160     		str	r1, [r2, #4]	@ unaligned
  66:.\clu.c       **** 
  67:.\clu.c       **** 	
  68:.\clu.c       **** 	/*----------------------------------------------*/
  69:.\clu.c       **** 	/* CLU 02 INIT									*/
  70:.\clu.c       **** 	/*                 "########################\0" */
  71:.\clu.c       **** 	/*----------------------------------------------*/	
  72:.\clu.c       **** 	sprintf(clu[2][0], "#CAMERAON");
 437              		.loc 1 72 0
 438 0142 964A     		ldr	r2, .L2+52
 439 0144 40F20003 		movw	r3, #:lower16:.LC0
 440 0148 C0F20003 		movt	r3, #:upper16:.LC0
 441 014c 03CB     		ldmia	r3!, {r0, r1}
 442 014e 1060     		str	r0, [r2, #0]	@ unaligned
 443 0150 5160     		str	r1, [r2, #4]	@ unaligned
 444 0152 1B88     		ldrh	r3, [r3, #0]	@ unaligned
 445 0154 1381     		strh	r3, [r2, #8]	@ unaligned
  73:.\clu.c       **** 	sprintf(clu[2][1], "#PAUSE 5");	
 446              		.loc 1 73 0
 447 0156 924A     		ldr	r2, .L2+56
ARM GAS  C:\Users\gravi\AppData\Local\Temp\cczW92Yj.s 			page 15


 448 0158 40F20003 		movw	r3, #:lower16:.LC10
 449 015c C0F20003 		movt	r3, #:upper16:.LC10
 450 0160 03CB     		ldmia	r3!, {r0, r1}
 451 0162 1060     		str	r0, [r2, #0]	@ unaligned
 452 0164 5160     		str	r1, [r2, #4]	@ unaligned
 453 0166 1B78     		ldrb	r3, [r3, #0]
 454 0168 1372     		strb	r3, [r2, #8]
  74:.\clu.c       **** 	sprintf(clu[2][2], "#TTRAP +180 0.2 10");	
 455              		.loc 1 74 0
 456 016a 8E4A     		ldr	r2, .L2+60
 457 016c 40F20003 		movw	r3, #:lower16:.LC11
 458 0170 C0F20003 		movt	r3, #:upper16:.LC11
 459 0174 1546     		mov	r5, r2
 460 0176 1C46     		mov	r4, r3
 461 0178 0FCC     		ldmia	r4!, {r0, r1, r2, r3}
 462 017a 2860     		str	r0, [r5, #0]	@ unaligned
 463 017c 6960     		str	r1, [r5, #4]	@ unaligned
 464 017e AA60     		str	r2, [r5, #8]	@ unaligned
 465 0180 EB60     		str	r3, [r5, #12]	@ unaligned
 466 0182 2288     		ldrh	r2, [r4, #0]	@ unaligned
 467 0184 A378     		ldrb	r3, [r4, #2]
 468 0186 2A82     		strh	r2, [r5, #16]	@ unaligned
 469 0188 AB74     		strb	r3, [r5, #18]
  75:.\clu.c       **** 	sprintf(clu[2][3], "#PATHEXEC");
 470              		.loc 1 75 0
 471 018a 874A     		ldr	r2, .L2+64
 472 018c 40F20003 		movw	r3, #:lower16:.LC3
 473 0190 C0F20003 		movt	r3, #:upper16:.LC3
 474 0194 03CB     		ldmia	r3!, {r0, r1}
 475 0196 1060     		str	r0, [r2, #0]	@ unaligned
 476 0198 5160     		str	r1, [r2, #4]	@ unaligned
 477 019a 1B88     		ldrh	r3, [r3, #0]	@ unaligned
 478 019c 1381     		strh	r3, [r2, #8]	@ unaligned
  76:.\clu.c       **** 	sprintf(clu[2][4], "#PAUSE 10");	
 479              		.loc 1 76 0
 480 019e 834A     		ldr	r2, .L2+68
 481 01a0 40F20003 		movw	r3, #:lower16:.LC9
 482 01a4 C0F20003 		movt	r3, #:upper16:.LC9
 483 01a8 03CB     		ldmia	r3!, {r0, r1}
 484 01aa 1060     		str	r0, [r2, #0]	@ unaligned
 485 01ac 5160     		str	r1, [r2, #4]	@ unaligned
 486 01ae 1B88     		ldrh	r3, [r3, #0]	@ unaligned
 487 01b0 1381     		strh	r3, [r2, #8]	@ unaligned
  77:.\clu.c       **** 	sprintf(clu[2][5], "#CAMERAOFF");		
 488              		.loc 1 77 0
 489 01b2 7F4A     		ldr	r2, .L2+72
 490 01b4 40F20003 		movw	r3, #:lower16:.LC4
 491 01b8 C0F20003 		movt	r3, #:upper16:.LC4
 492 01bc 03CB     		ldmia	r3!, {r0, r1}
 493 01be 1060     		str	r0, [r2, #0]	@ unaligned
 494 01c0 5160     		str	r1, [r2, #4]	@ unaligned
 495 01c2 1988     		ldrh	r1, [r3, #0]	@ unaligned
 496 01c4 9B78     		ldrb	r3, [r3, #2]
 497 01c6 1181     		strh	r1, [r2, #8]	@ unaligned
 498 01c8 9372     		strb	r3, [r2, #10]
  78:.\clu.c       **** 	sprintf(clu[2][6], "#CLUEND");		
 499              		.loc 1 78 0
ARM GAS  C:\Users\gravi\AppData\Local\Temp\cczW92Yj.s 			page 16


 500 01ca 7A4A     		ldr	r2, .L2+76
 501 01cc 40F20003 		movw	r3, #:lower16:.LC5
 502 01d0 C0F20003 		movt	r3, #:upper16:.LC5
 503 01d4 03CB     		ldmia	r3!, {r0, r1}
 504 01d6 1060     		str	r0, [r2, #0]	@ unaligned
 505 01d8 5160     		str	r1, [r2, #4]	@ unaligned
  79:.\clu.c       **** 	
  80:.\clu.c       **** 	
  81:.\clu.c       **** 	/*----------------------------------------------*/
  82:.\clu.c       **** 	/* CLU 03 INIT									*/
  83:.\clu.c       **** 	/*                 "########################\0" */
  84:.\clu.c       **** 	/*----------------------------------------------*/	
  85:.\clu.c       **** 	sprintf(clu[3][0], "#CAMERAON");
 506              		.loc 1 85 0
 507 01da 774A     		ldr	r2, .L2+80
 508 01dc 40F20003 		movw	r3, #:lower16:.LC0
 509 01e0 C0F20003 		movt	r3, #:upper16:.LC0
 510 01e4 03CB     		ldmia	r3!, {r0, r1}
 511 01e6 1060     		str	r0, [r2, #0]	@ unaligned
 512 01e8 5160     		str	r1, [r2, #4]	@ unaligned
 513 01ea 1B88     		ldrh	r3, [r3, #0]	@ unaligned
 514 01ec 1381     		strh	r3, [r2, #8]	@ unaligned
  86:.\clu.c       **** 	sprintf(clu[3][1], "#PAUSE 5");	
 515              		.loc 1 86 0
 516 01ee 734A     		ldr	r2, .L2+84
 517 01f0 40F20003 		movw	r3, #:lower16:.LC10
 518 01f4 C0F20003 		movt	r3, #:upper16:.LC10
 519 01f8 03CB     		ldmia	r3!, {r0, r1}
 520 01fa 1060     		str	r0, [r2, #0]	@ unaligned
 521 01fc 5160     		str	r1, [r2, #4]	@ unaligned
 522 01fe 1B78     		ldrb	r3, [r3, #0]
 523 0200 1372     		strb	r3, [r2, #8]
  87:.\clu.c       **** 	sprintf(clu[3][2], "#TTRAP +180 0.2 10");	
 524              		.loc 1 87 0
 525 0202 6F4A     		ldr	r2, .L2+88
 526 0204 40F20003 		movw	r3, #:lower16:.LC11
 527 0208 C0F20003 		movt	r3, #:upper16:.LC11
 528 020c 1546     		mov	r5, r2
 529 020e 1C46     		mov	r4, r3
 530 0210 0FCC     		ldmia	r4!, {r0, r1, r2, r3}
 531 0212 2860     		str	r0, [r5, #0]	@ unaligned
 532 0214 6960     		str	r1, [r5, #4]	@ unaligned
 533 0216 AA60     		str	r2, [r5, #8]	@ unaligned
 534 0218 EB60     		str	r3, [r5, #12]	@ unaligned
 535 021a 2288     		ldrh	r2, [r4, #0]	@ unaligned
 536 021c A378     		ldrb	r3, [r4, #2]
 537 021e 2A82     		strh	r2, [r5, #16]	@ unaligned
 538 0220 AB74     		strb	r3, [r5, #18]
  88:.\clu.c       **** 	sprintf(clu[3][3], "#PTRAP +180 0.2 15");	
 539              		.loc 1 88 0
 540 0222 684A     		ldr	r2, .L2+92
 541 0224 40F20003 		movw	r3, #:lower16:.LC12
 542 0228 C0F20003 		movt	r3, #:upper16:.LC12
 543 022c 1546     		mov	r5, r2
 544 022e 1C46     		mov	r4, r3
 545 0230 0FCC     		ldmia	r4!, {r0, r1, r2, r3}
 546 0232 2860     		str	r0, [r5, #0]	@ unaligned
ARM GAS  C:\Users\gravi\AppData\Local\Temp\cczW92Yj.s 			page 17


 547 0234 6960     		str	r1, [r5, #4]	@ unaligned
 548 0236 AA60     		str	r2, [r5, #8]	@ unaligned
 549 0238 EB60     		str	r3, [r5, #12]	@ unaligned
 550 023a 2288     		ldrh	r2, [r4, #0]	@ unaligned
 551 023c A378     		ldrb	r3, [r4, #2]
 552 023e 2A82     		strh	r2, [r5, #16]	@ unaligned
 553 0240 AB74     		strb	r3, [r5, #18]
  89:.\clu.c       **** 	sprintf(clu[3][4], "#PATHEXEC");
 554              		.loc 1 89 0
 555 0242 614A     		ldr	r2, .L2+96
 556 0244 40F20003 		movw	r3, #:lower16:.LC3
 557 0248 C0F20003 		movt	r3, #:upper16:.LC3
 558 024c 03CB     		ldmia	r3!, {r0, r1}
 559 024e 1060     		str	r0, [r2, #0]	@ unaligned
 560 0250 5160     		str	r1, [r2, #4]	@ unaligned
 561 0252 1B88     		ldrh	r3, [r3, #0]	@ unaligned
 562 0254 1381     		strh	r3, [r2, #8]	@ unaligned
  90:.\clu.c       **** 	sprintf(clu[3][5], "#PAUSE 10");	
 563              		.loc 1 90 0
 564 0256 5D4A     		ldr	r2, .L2+100
 565 0258 40F20003 		movw	r3, #:lower16:.LC9
 566 025c C0F20003 		movt	r3, #:upper16:.LC9
 567 0260 03CB     		ldmia	r3!, {r0, r1}
 568 0262 1060     		str	r0, [r2, #0]	@ unaligned
 569 0264 5160     		str	r1, [r2, #4]	@ unaligned
 570 0266 1B88     		ldrh	r3, [r3, #0]	@ unaligned
 571 0268 1381     		strh	r3, [r2, #8]	@ unaligned
  91:.\clu.c       **** 	sprintf(clu[3][6], "#CAMERAOFF");	
 572              		.loc 1 91 0
 573 026a 594A     		ldr	r2, .L2+104
 574 026c 40F20003 		movw	r3, #:lower16:.LC4
 575 0270 C0F20003 		movt	r3, #:upper16:.LC4
 576 0274 03CB     		ldmia	r3!, {r0, r1}
 577 0276 1060     		str	r0, [r2, #0]	@ unaligned
 578 0278 5160     		str	r1, [r2, #4]	@ unaligned
 579 027a 1988     		ldrh	r1, [r3, #0]	@ unaligned
 580 027c 9B78     		ldrb	r3, [r3, #2]
 581 027e 1181     		strh	r1, [r2, #8]	@ unaligned
 582 0280 9372     		strb	r3, [r2, #10]
  92:.\clu.c       **** 	sprintf(clu[3][7], "#GOTOH");	
 583              		.loc 1 92 0
 584 0282 544B     		ldr	r3, .L2+108
 585 0284 40F20002 		movw	r2, #:lower16:.LC13
 586 0288 C0F20002 		movt	r2, #:upper16:.LC13
 587 028c 1068     		ldr	r0, [r2, #0]	@ unaligned
 588 028e 1860     		str	r0, [r3, #0]	@ unaligned
 589 0290 9188     		ldrh	r1, [r2, #4]	@ unaligned
 590 0292 9279     		ldrb	r2, [r2, #6]
 591 0294 9980     		strh	r1, [r3, #4]	@ unaligned
 592 0296 9A71     		strb	r2, [r3, #6]
  93:.\clu.c       **** 	sprintf(clu[3][8], "#CLUEND");	
 593              		.loc 1 93 0
 594 0298 4F4A     		ldr	r2, .L2+112
 595 029a 40F20003 		movw	r3, #:lower16:.LC5
 596 029e C0F20003 		movt	r3, #:upper16:.LC5
 597 02a2 03CB     		ldmia	r3!, {r0, r1}
 598 02a4 1060     		str	r0, [r2, #0]	@ unaligned
ARM GAS  C:\Users\gravi\AppData\Local\Temp\cczW92Yj.s 			page 18


 599 02a6 5160     		str	r1, [r2, #4]	@ unaligned
  94:.\clu.c       **** 	
  95:.\clu.c       **** 	
  96:.\clu.c       **** 	/*----------------------------------------------*/
  97:.\clu.c       **** 	/* CLU 04 INIT									*/
  98:.\clu.c       **** 	/* GOTO WHEEL (Q21)								*/
  99:.\clu.c       **** 	/*                 "########################\0" */
 100:.\clu.c       **** 	/*----------------------------------------------*/	
 101:.\clu.c       **** 	sprintf(clu[4][0], "#CAMERAON");	
 600              		.loc 1 101 0
 601 02a8 4C4A     		ldr	r2, .L2+116
 602 02aa 40F20003 		movw	r3, #:lower16:.LC0
 603 02ae C0F20003 		movt	r3, #:upper16:.LC0
 604 02b2 03CB     		ldmia	r3!, {r0, r1}
 605 02b4 1060     		str	r0, [r2, #0]	@ unaligned
 606 02b6 5160     		str	r1, [r2, #4]	@ unaligned
 607 02b8 1B88     		ldrh	r3, [r3, #0]	@ unaligned
 608 02ba 1381     		strh	r3, [r2, #8]	@ unaligned
 102:.\clu.c       **** 	sprintf(clu[4][1], "#PTQ 21 0.3 5");	
 609              		.loc 1 102 0
 610 02bc 484A     		ldr	r2, .L2+120
 611 02be 40F20003 		movw	r3, #:lower16:.LC14
 612 02c2 C0F20003 		movt	r3, #:upper16:.LC14
 613 02c6 1446     		mov	r4, r2
 614 02c8 07CB     		ldmia	r3!, {r0, r1, r2}
 615 02ca 2060     		str	r0, [r4, #0]	@ unaligned
 616 02cc 6160     		str	r1, [r4, #4]	@ unaligned
 617 02ce A260     		str	r2, [r4, #8]	@ unaligned
 618 02d0 1B88     		ldrh	r3, [r3, #0]	@ unaligned
 619 02d2 A381     		strh	r3, [r4, #12]	@ unaligned
 103:.\clu.c       **** 	sprintf(clu[4][2], "#PATHEXEC");
 620              		.loc 1 103 0
 621 02d4 434A     		ldr	r2, .L2+124
 622 02d6 40F20003 		movw	r3, #:lower16:.LC3
 623 02da C0F20003 		movt	r3, #:upper16:.LC3
 624 02de 03CB     		ldmia	r3!, {r0, r1}
 625 02e0 1060     		str	r0, [r2, #0]	@ unaligned
 626 02e2 5160     		str	r1, [r2, #4]	@ unaligned
 627 02e4 1B88     		ldrh	r3, [r3, #0]	@ unaligned
 628 02e6 1381     		strh	r3, [r2, #8]	@ unaligned
 104:.\clu.c       **** 	sprintf(clu[4][3], "#PAUSE 10");	
 629              		.loc 1 104 0
 630 02e8 3F4A     		ldr	r2, .L2+128
 631 02ea 40F20003 		movw	r3, #:lower16:.LC9
 632 02ee C0F20003 		movt	r3, #:upper16:.LC9
 633 02f2 03CB     		ldmia	r3!, {r0, r1}
 634 02f4 1060     		str	r0, [r2, #0]	@ unaligned
 635 02f6 5160     		str	r1, [r2, #4]	@ unaligned
 636 02f8 1B88     		ldrh	r3, [r3, #0]	@ unaligned
 637 02fa 1381     		strh	r3, [r2, #8]	@ unaligned
 105:.\clu.c       **** 	sprintf(clu[4][4], "#CAMERAOFF");	
 638              		.loc 1 105 0
 639 02fc 3B4A     		ldr	r2, .L2+132
 640 02fe 40F20003 		movw	r3, #:lower16:.LC4
 641 0302 C0F20003 		movt	r3, #:upper16:.LC4
 642 0306 03CB     		ldmia	r3!, {r0, r1}
 643 0308 1060     		str	r0, [r2, #0]	@ unaligned
ARM GAS  C:\Users\gravi\AppData\Local\Temp\cczW92Yj.s 			page 19


 644 030a 5160     		str	r1, [r2, #4]	@ unaligned
 645 030c 1988     		ldrh	r1, [r3, #0]	@ unaligned
 646 030e 9B78     		ldrb	r3, [r3, #2]
 647 0310 1181     		strh	r1, [r2, #8]	@ unaligned
 648 0312 9372     		strb	r3, [r2, #10]
 106:.\clu.c       **** 	sprintf(clu[4][5], "#CLUEND");
 649              		.loc 1 106 0
 650 0314 364A     		ldr	r2, .L2+136
 651 0316 40F20003 		movw	r3, #:lower16:.LC5
 652 031a C0F20003 		movt	r3, #:upper16:.LC5
 653 031e 03CB     		ldmia	r3!, {r0, r1}
 654 0320 1060     		str	r0, [r2, #0]	@ unaligned
 655 0322 5160     		str	r1, [r2, #4]	@ unaligned
 107:.\clu.c       **** 	
 108:.\clu.c       **** 	
 109:.\clu.c       **** 	/*----------------------------------------------*/
 110:.\clu.c       **** 	/* CLU 05 INIT									*/
 111:.\clu.c       **** 	/* GOTO PANORAMA DX (Q41)						*/
 112:.\clu.c       **** 	/*                 "########################\0" */
 113:.\clu.c       **** 	/*----------------------------------------------*/	
 114:.\clu.c       **** 	sprintf(clu[5][0], "#CAMERAON");	
 656              		.loc 1 114 0
 657 0324 334A     		ldr	r2, .L2+140
 658 0326 40F20003 		movw	r3, #:lower16:.LC0
 659 032a C0F20003 		movt	r3, #:upper16:.LC0
 660 032e 03CB     		ldmia	r3!, {r0, r1}
 661 0330 1060     		str	r0, [r2, #0]	@ unaligned
 662 0332 5160     		str	r1, [r2, #4]	@ unaligned
 663 0334 1B88     		ldrh	r3, [r3, #0]	@ unaligned
 664 0336 1381     		strh	r3, [r2, #8]	@ unaligned
 115:.\clu.c       **** 	sprintf(clu[5][1], "#PTQ 41 0.3 5");	
 665              		.loc 1 115 0
 666 0338 2F4A     		ldr	r2, .L2+144
 667 033a 40F20003 		movw	r3, #:lower16:.LC15
 668 033e C0F20003 		movt	r3, #:upper16:.LC15
 669 0342 1446     		mov	r4, r2
 670 0344 07CB     		ldmia	r3!, {r0, r1, r2}
 671 0346 2060     		str	r0, [r4, #0]	@ unaligned
 672 0348 6160     		str	r1, [r4, #4]	@ unaligned
 673 034a A260     		str	r2, [r4, #8]	@ unaligned
 674 034c 1B88     		ldrh	r3, [r3, #0]	@ unaligned
 675 034e A381     		strh	r3, [r4, #12]	@ unaligned
 116:.\clu.c       **** 	sprintf(clu[5][2], "#PATHEXEC");
 676              		.loc 1 116 0
 677 0350 2A4A     		ldr	r2, .L2+148
 678 0352 40F20003 		movw	r3, #:lower16:.LC3
 679 0356 C0F20003 		movt	r3, #:upper16:.LC3
 680 035a 03CB     		ldmia	r3!, {r0, r1}
 681 035c 1060     		str	r0, [r2, #0]	@ unaligned
 682 035e 5160     		str	r1, [r2, #4]	@ unaligned
 683 0360 1B88     		ldrh	r3, [r3, #0]	@ unaligned
 684 0362 1381     		strh	r3, [r2, #8]	@ unaligned
 685 0364 4CE0     		b	.L3
 686              	.L4:
 687 0366 00BF     		.align	2
 688              	.L2:
 689 0368 19000000 		.word	clu+25
ARM GAS  C:\Users\gravi\AppData\Local\Temp\cczW92Yj.s 			page 20


 690 036c 32000000 		.word	clu+50
 691 0370 4B000000 		.word	clu+75
 692 0374 64000000 		.word	clu+100
 693 0378 7D000000 		.word	clu+125
 694 037c 0D020000 		.word	clu+525
 695 0380 26020000 		.word	clu+550
 696 0384 3F020000 		.word	clu+575
 697 0388 58020000 		.word	clu+600
 698 038c 71020000 		.word	clu+625
 699 0390 8A020000 		.word	clu+650
 700 0394 A3020000 		.word	clu+675
 701 0398 BC020000 		.word	clu+700
 702 039c 1A040000 		.word	clu+1050
 703 03a0 33040000 		.word	clu+1075
 704 03a4 4C040000 		.word	clu+1100
 705 03a8 65040000 		.word	clu+1125
 706 03ac 7E040000 		.word	clu+1150
 707 03b0 97040000 		.word	clu+1175
 708 03b4 B0040000 		.word	clu+1200
 709 03b8 27060000 		.word	clu+1575
 710 03bc 40060000 		.word	clu+1600
 711 03c0 59060000 		.word	clu+1625
 712 03c4 72060000 		.word	clu+1650
 713 03c8 8B060000 		.word	clu+1675
 714 03cc A4060000 		.word	clu+1700
 715 03d0 BD060000 		.word	clu+1725
 716 03d4 D6060000 		.word	clu+1750
 717 03d8 EF060000 		.word	clu+1775
 718 03dc 34080000 		.word	clu+2100
 719 03e0 4D080000 		.word	clu+2125
 720 03e4 66080000 		.word	clu+2150
 721 03e8 7F080000 		.word	clu+2175
 722 03ec 98080000 		.word	clu+2200
 723 03f0 B1080000 		.word	clu+2225
 724 03f4 410A0000 		.word	clu+2625
 725 03f8 5A0A0000 		.word	clu+2650
 726 03fc 730A0000 		.word	clu+2675
 727              	.L3:
 117:.\clu.c       **** 	sprintf(clu[5][3], "#PAUSE 10");	
 728              		.loc 1 117 0
 729 0400 D14A     		ldr	r2, .L5
 730 0402 40F20003 		movw	r3, #:lower16:.LC9
 731 0406 C0F20003 		movt	r3, #:upper16:.LC9
 732 040a 03CB     		ldmia	r3!, {r0, r1}
 733 040c 1060     		str	r0, [r2, #0]	@ unaligned
 734 040e 5160     		str	r1, [r2, #4]	@ unaligned
 735 0410 1B88     		ldrh	r3, [r3, #0]	@ unaligned
 736 0412 1381     		strh	r3, [r2, #8]	@ unaligned
 118:.\clu.c       **** 	sprintf(clu[5][4], "#CAMERAOFF");	
 737              		.loc 1 118 0
 738 0414 CD4A     		ldr	r2, .L5+4
 739 0416 40F20003 		movw	r3, #:lower16:.LC4
 740 041a C0F20003 		movt	r3, #:upper16:.LC4
 741 041e 03CB     		ldmia	r3!, {r0, r1}
 742 0420 1060     		str	r0, [r2, #0]	@ unaligned
 743 0422 5160     		str	r1, [r2, #4]	@ unaligned
 744 0424 1988     		ldrh	r1, [r3, #0]	@ unaligned
ARM GAS  C:\Users\gravi\AppData\Local\Temp\cczW92Yj.s 			page 21


 745 0426 9B78     		ldrb	r3, [r3, #2]
 746 0428 1181     		strh	r1, [r2, #8]	@ unaligned
 747 042a 9372     		strb	r3, [r2, #10]
 119:.\clu.c       **** 	sprintf(clu[5][5], "#CLUEND");	
 748              		.loc 1 119 0
 749 042c C84A     		ldr	r2, .L5+8
 750 042e 40F20003 		movw	r3, #:lower16:.LC5
 751 0432 C0F20003 		movt	r3, #:upper16:.LC5
 752 0436 03CB     		ldmia	r3!, {r0, r1}
 753 0438 1060     		str	r0, [r2, #0]	@ unaligned
 754 043a 5160     		str	r1, [r2, #4]	@ unaligned
 120:.\clu.c       **** 	
 121:.\clu.c       **** 	
 122:.\clu.c       **** 	/*----------------------------------------------*/
 123:.\clu.c       **** 	/* CLU 06 INIT									*/
 124:.\clu.c       **** 	/* GOTO ROAD (Q31)								*/
 125:.\clu.c       **** 	/*                 "########################\0" */
 126:.\clu.c       **** 	/*----------------------------------------------*/	
 127:.\clu.c       **** 	sprintf(clu[6][0], "#CAMERAON");	
 755              		.loc 1 127 0
 756 043c C54A     		ldr	r2, .L5+12
 757 043e 40F20003 		movw	r3, #:lower16:.LC0
 758 0442 C0F20003 		movt	r3, #:upper16:.LC0
 759 0446 03CB     		ldmia	r3!, {r0, r1}
 760 0448 1060     		str	r0, [r2, #0]	@ unaligned
 761 044a 5160     		str	r1, [r2, #4]	@ unaligned
 762 044c 1B88     		ldrh	r3, [r3, #0]	@ unaligned
 763 044e 1381     		strh	r3, [r2, #8]	@ unaligned
 128:.\clu.c       **** 	sprintf(clu[6][1], "#PTQ 31 0.3 5");	
 764              		.loc 1 128 0
 765 0450 C14A     		ldr	r2, .L5+16
 766 0452 40F20003 		movw	r3, #:lower16:.LC16
 767 0456 C0F20003 		movt	r3, #:upper16:.LC16
 768 045a 1446     		mov	r4, r2
 769 045c 07CB     		ldmia	r3!, {r0, r1, r2}
 770 045e 2060     		str	r0, [r4, #0]	@ unaligned
 771 0460 6160     		str	r1, [r4, #4]	@ unaligned
 772 0462 A260     		str	r2, [r4, #8]	@ unaligned
 773 0464 1B88     		ldrh	r3, [r3, #0]	@ unaligned
 774 0466 A381     		strh	r3, [r4, #12]	@ unaligned
 129:.\clu.c       **** 	sprintf(clu[6][2], "#PATHEXEC");
 775              		.loc 1 129 0
 776 0468 BC4A     		ldr	r2, .L5+20
 777 046a 40F20003 		movw	r3, #:lower16:.LC3
 778 046e C0F20003 		movt	r3, #:upper16:.LC3
 779 0472 03CB     		ldmia	r3!, {r0, r1}
 780 0474 1060     		str	r0, [r2, #0]	@ unaligned
 781 0476 5160     		str	r1, [r2, #4]	@ unaligned
 782 0478 1B88     		ldrh	r3, [r3, #0]	@ unaligned
 783 047a 1381     		strh	r3, [r2, #8]	@ unaligned
 130:.\clu.c       **** 	sprintf(clu[6][3], "#PAUSE 10");	
 784              		.loc 1 130 0
 785 047c B84A     		ldr	r2, .L5+24
 786 047e 40F20003 		movw	r3, #:lower16:.LC9
 787 0482 C0F20003 		movt	r3, #:upper16:.LC9
 788 0486 03CB     		ldmia	r3!, {r0, r1}
 789 0488 1060     		str	r0, [r2, #0]	@ unaligned
ARM GAS  C:\Users\gravi\AppData\Local\Temp\cczW92Yj.s 			page 22


 790 048a 5160     		str	r1, [r2, #4]	@ unaligned
 791 048c 1B88     		ldrh	r3, [r3, #0]	@ unaligned
 792 048e 1381     		strh	r3, [r2, #8]	@ unaligned
 131:.\clu.c       **** 	sprintf(clu[6][4], "#CAMERAOFF");	
 793              		.loc 1 131 0
 794 0490 B44A     		ldr	r2, .L5+28
 795 0492 40F20003 		movw	r3, #:lower16:.LC4
 796 0496 C0F20003 		movt	r3, #:upper16:.LC4
 797 049a 03CB     		ldmia	r3!, {r0, r1}
 798 049c 1060     		str	r0, [r2, #0]	@ unaligned
 799 049e 5160     		str	r1, [r2, #4]	@ unaligned
 800 04a0 1988     		ldrh	r1, [r3, #0]	@ unaligned
 801 04a2 9B78     		ldrb	r3, [r3, #2]
 802 04a4 1181     		strh	r1, [r2, #8]	@ unaligned
 803 04a6 9372     		strb	r3, [r2, #10]
 132:.\clu.c       **** 	sprintf(clu[6][5], "#CLUEND");
 804              		.loc 1 132 0
 805 04a8 AF4A     		ldr	r2, .L5+32
 806 04aa 40F20003 		movw	r3, #:lower16:.LC5
 807 04ae C0F20003 		movt	r3, #:upper16:.LC5
 808 04b2 03CB     		ldmia	r3!, {r0, r1}
 809 04b4 1060     		str	r0, [r2, #0]	@ unaligned
 810 04b6 5160     		str	r1, [r2, #4]	@ unaligned
 133:.\clu.c       **** 
 134:.\clu.c       **** 	
 135:.\clu.c       **** 	/*----------------------------------------------*/
 136:.\clu.c       **** 	/* CLU 10 INIT									*/
 137:.\clu.c       **** 	/* SM_MOVING_TO_FACE							*/
 138:.\clu.c       **** 	/*                 "########################\0" */
 139:.\clu.c       **** 	/*----------------------------------------------*/	
 140:.\clu.c       **** 	sprintf(clu[10][0], "#CAMERAON");	
 811              		.loc 1 140 0
 812 04b8 AC4A     		ldr	r2, .L5+36
 813 04ba 40F20003 		movw	r3, #:lower16:.LC0
 814 04be C0F20003 		movt	r3, #:upper16:.LC0
 815 04c2 03CB     		ldmia	r3!, {r0, r1}
 816 04c4 1060     		str	r0, [r2, #0]	@ unaligned
 817 04c6 5160     		str	r1, [r2, #4]	@ unaligned
 818 04c8 1B88     		ldrh	r3, [r3, #0]	@ unaligned
 819 04ca 1381     		strh	r3, [r2, #8]	@ unaligned
 141:.\clu.c       **** 	sprintf(clu[10][1], "#TTRAP +35 0.2 2");	
 820              		.loc 1 141 0
 821 04cc A84A     		ldr	r2, .L5+40
 822 04ce 40F20003 		movw	r3, #:lower16:.LC17
 823 04d2 C0F20003 		movt	r3, #:upper16:.LC17
 824 04d6 1546     		mov	r5, r2
 825 04d8 1C46     		mov	r4, r3
 826 04da 0FCC     		ldmia	r4!, {r0, r1, r2, r3}
 827 04dc 2860     		str	r0, [r5, #0]	@ unaligned
 828 04de 6960     		str	r1, [r5, #4]	@ unaligned
 829 04e0 AA60     		str	r2, [r5, #8]	@ unaligned
 830 04e2 EB60     		str	r3, [r5, #12]	@ unaligned
 831 04e4 2378     		ldrb	r3, [r4, #0]
 832 04e6 2B74     		strb	r3, [r5, #16]
 142:.\clu.c       **** 	sprintf(clu[10][2], "#PTRAP +180 0.2 1.5");	
 833              		.loc 1 142 0
 834 04e8 A24A     		ldr	r2, .L5+44
ARM GAS  C:\Users\gravi\AppData\Local\Temp\cczW92Yj.s 			page 23


 835 04ea 40F20003 		movw	r3, #:lower16:.LC18
 836 04ee C0F20003 		movt	r3, #:upper16:.LC18
 837 04f2 1546     		mov	r5, r2
 838 04f4 1C46     		mov	r4, r3
 839 04f6 0FCC     		ldmia	r4!, {r0, r1, r2, r3}
 840 04f8 2860     		str	r0, [r5, #0]	@ unaligned
 841 04fa 6960     		str	r1, [r5, #4]	@ unaligned
 842 04fc AA60     		str	r2, [r5, #8]	@ unaligned
 843 04fe EB60     		str	r3, [r5, #12]	@ unaligned
 844 0500 2068     		ldr	r0, [r4, #0]	@ unaligned
 845 0502 2861     		str	r0, [r5, #16]	@ unaligned
 143:.\clu.c       **** 	sprintf(clu[10][3], "#PATHEXEC");
 846              		.loc 1 143 0
 847 0504 9C4A     		ldr	r2, .L5+48
 848 0506 40F20003 		movw	r3, #:lower16:.LC3
 849 050a C0F20003 		movt	r3, #:upper16:.LC3
 850 050e 03CB     		ldmia	r3!, {r0, r1}
 851 0510 1060     		str	r0, [r2, #0]	@ unaligned
 852 0512 5160     		str	r1, [r2, #4]	@ unaligned
 853 0514 1B88     		ldrh	r3, [r3, #0]	@ unaligned
 854 0516 1381     		strh	r3, [r2, #8]	@ unaligned
 144:.\clu.c       **** 	sprintf(clu[10][4], "#CAMERAOFF");	
 855              		.loc 1 144 0
 856 0518 984A     		ldr	r2, .L5+52
 857 051a 40F20003 		movw	r3, #:lower16:.LC4
 858 051e C0F20003 		movt	r3, #:upper16:.LC4
 859 0522 03CB     		ldmia	r3!, {r0, r1}
 860 0524 1060     		str	r0, [r2, #0]	@ unaligned
 861 0526 5160     		str	r1, [r2, #4]	@ unaligned
 862 0528 1988     		ldrh	r1, [r3, #0]	@ unaligned
 863 052a 9B78     		ldrb	r3, [r3, #2]
 864 052c 1181     		strh	r1, [r2, #8]	@ unaligned
 865 052e 9372     		strb	r3, [r2, #10]
 145:.\clu.c       **** 	sprintf(clu[10][5], "#CLUEND");
 866              		.loc 1 145 0
 867 0530 934A     		ldr	r2, .L5+56
 868 0532 40F20003 		movw	r3, #:lower16:.LC5
 869 0536 C0F20003 		movt	r3, #:upper16:.LC5
 870 053a 03CB     		ldmia	r3!, {r0, r1}
 871 053c 1060     		str	r0, [r2, #0]	@ unaligned
 872 053e 5160     		str	r1, [r2, #4]	@ unaligned
 146:.\clu.c       **** 	
 147:.\clu.c       **** 	/*----------------------------------------------*/
 148:.\clu.c       **** 	/* CLU 11 INIT									*/
 149:.\clu.c       **** 	/* GOTO HOME PAN & TILT							*/
 150:.\clu.c       **** 	/*                 "########################\0" */
 151:.\clu.c       **** 	/*----------------------------------------------*/	
 152:.\clu.c       **** 	sprintf(clu[11][0], "#GOTOH");		
 873              		.loc 1 152 0
 874 0540 904B     		ldr	r3, .L5+60
 875 0542 40F20002 		movw	r2, #:lower16:.LC13
 876 0546 C0F20002 		movt	r2, #:upper16:.LC13
 877 054a 1068     		ldr	r0, [r2, #0]	@ unaligned
 878 054c 1860     		str	r0, [r3, #0]	@ unaligned
 879 054e 9188     		ldrh	r1, [r2, #4]	@ unaligned
 880 0550 9279     		ldrb	r2, [r2, #6]
 881 0552 9980     		strh	r1, [r3, #4]	@ unaligned
ARM GAS  C:\Users\gravi\AppData\Local\Temp\cczW92Yj.s 			page 24


 882 0554 9A71     		strb	r2, [r3, #6]
 153:.\clu.c       **** 	sprintf(clu[11][1], "#CLUEND");
 883              		.loc 1 153 0
 884 0556 8C4A     		ldr	r2, .L5+64
 885 0558 40F20003 		movw	r3, #:lower16:.LC5
 886 055c C0F20003 		movt	r3, #:upper16:.LC5
 887 0560 03CB     		ldmia	r3!, {r0, r1}
 888 0562 1060     		str	r0, [r2, #0]	@ unaligned
 889 0564 5160     		str	r1, [r2, #4]	@ unaligned
 154:.\clu.c       **** 	
 155:.\clu.c       **** 	
 156:.\clu.c       **** 	/*----------------------------------------------*/
 157:.\clu.c       **** 	/* CLU 12 INIT									*/
 158:.\clu.c       **** 	/* MOVING_PANORAMIC PAN	(GENERIC STYLE)			*/
 159:.\clu.c       **** 	/*                 "########################\0" */
 160:.\clu.c       **** 	/*----------------------------------------------*/	
 161:.\clu.c       **** 	sprintf(clu[12][0], "#CAMERAON");	
 890              		.loc 1 161 0
 891 0566 894A     		ldr	r2, .L5+68
 892 0568 40F20003 		movw	r3, #:lower16:.LC0
 893 056c C0F20003 		movt	r3, #:upper16:.LC0
 894 0570 03CB     		ldmia	r3!, {r0, r1}
 895 0572 1060     		str	r0, [r2, #0]	@ unaligned
 896 0574 5160     		str	r1, [r2, #4]	@ unaligned
 897 0576 1B88     		ldrh	r3, [r3, #0]	@ unaligned
 898 0578 1381     		strh	r3, [r2, #8]	@ unaligned
 162:.\clu.c       **** 	sprintf(clu[12][1], "#PTRAP +120 0.2 10");	
 899              		.loc 1 162 0
 900 057a 854A     		ldr	r2, .L5+72
 901 057c 40F20003 		movw	r3, #:lower16:.LC19
 902 0580 C0F20003 		movt	r3, #:upper16:.LC19
 903 0584 1546     		mov	r5, r2
 904 0586 1C46     		mov	r4, r3
 905 0588 0FCC     		ldmia	r4!, {r0, r1, r2, r3}
 906 058a 2860     		str	r0, [r5, #0]	@ unaligned
 907 058c 6960     		str	r1, [r5, #4]	@ unaligned
 908 058e AA60     		str	r2, [r5, #8]	@ unaligned
 909 0590 EB60     		str	r3, [r5, #12]	@ unaligned
 910 0592 2288     		ldrh	r2, [r4, #0]	@ unaligned
 911 0594 A378     		ldrb	r3, [r4, #2]
 912 0596 2A82     		strh	r2, [r5, #16]	@ unaligned
 913 0598 AB74     		strb	r3, [r5, #18]
 163:.\clu.c       **** 	sprintf(clu[12][2], "#PATHEXEC");
 914              		.loc 1 163 0
 915 059a 7E4A     		ldr	r2, .L5+76
 916 059c 40F20003 		movw	r3, #:lower16:.LC3
 917 05a0 C0F20003 		movt	r3, #:upper16:.LC3
 918 05a4 03CB     		ldmia	r3!, {r0, r1}
 919 05a6 1060     		str	r0, [r2, #0]	@ unaligned
 920 05a8 5160     		str	r1, [r2, #4]	@ unaligned
 921 05aa 1B88     		ldrh	r3, [r3, #0]	@ unaligned
 922 05ac 1381     		strh	r3, [r2, #8]	@ unaligned
 164:.\clu.c       **** 	sprintf(clu[12][3], "#PAUSE 5");	
 923              		.loc 1 164 0
 924 05ae 7A4A     		ldr	r2, .L5+80
 925 05b0 40F20003 		movw	r3, #:lower16:.LC10
 926 05b4 C0F20003 		movt	r3, #:upper16:.LC10
ARM GAS  C:\Users\gravi\AppData\Local\Temp\cczW92Yj.s 			page 25


 927 05b8 03CB     		ldmia	r3!, {r0, r1}
 928 05ba 1060     		str	r0, [r2, #0]	@ unaligned
 929 05bc 5160     		str	r1, [r2, #4]	@ unaligned
 930 05be 1B78     		ldrb	r3, [r3, #0]
 931 05c0 1372     		strb	r3, [r2, #8]
 165:.\clu.c       **** 	sprintf(clu[12][4], "#CAMERAOFF");
 932              		.loc 1 165 0
 933 05c2 764A     		ldr	r2, .L5+84
 934 05c4 40F20003 		movw	r3, #:lower16:.LC4
 935 05c8 C0F20003 		movt	r3, #:upper16:.LC4
 936 05cc 03CB     		ldmia	r3!, {r0, r1}
 937 05ce 1060     		str	r0, [r2, #0]	@ unaligned
 938 05d0 5160     		str	r1, [r2, #4]	@ unaligned
 939 05d2 1988     		ldrh	r1, [r3, #0]	@ unaligned
 940 05d4 9B78     		ldrb	r3, [r3, #2]
 941 05d6 1181     		strh	r1, [r2, #8]	@ unaligned
 942 05d8 9372     		strb	r3, [r2, #10]
 166:.\clu.c       **** 	sprintf(clu[12][5], "#GOTOH");	
 943              		.loc 1 166 0
 944 05da 714B     		ldr	r3, .L5+88
 945 05dc 40F20002 		movw	r2, #:lower16:.LC13
 946 05e0 C0F20002 		movt	r2, #:upper16:.LC13
 947 05e4 1068     		ldr	r0, [r2, #0]	@ unaligned
 948 05e6 1860     		str	r0, [r3, #0]	@ unaligned
 949 05e8 9188     		ldrh	r1, [r2, #4]	@ unaligned
 950 05ea 9279     		ldrb	r2, [r2, #6]
 951 05ec 9980     		strh	r1, [r3, #4]	@ unaligned
 952 05ee 9A71     		strb	r2, [r3, #6]
 167:.\clu.c       **** 	sprintf(clu[12][6], "#CLUEND");	
 953              		.loc 1 167 0
 954 05f0 6C4A     		ldr	r2, .L5+92
 955 05f2 40F20003 		movw	r3, #:lower16:.LC5
 956 05f6 C0F20003 		movt	r3, #:upper16:.LC5
 957 05fa 03CB     		ldmia	r3!, {r0, r1}
 958 05fc 1060     		str	r0, [r2, #0]	@ unaligned
 959 05fe 5160     		str	r1, [r2, #4]	@ unaligned
 168:.\clu.c       **** 	
 169:.\clu.c       **** 	
 170:.\clu.c       **** 	/*----------------------------------------------*/
 171:.\clu.c       **** 	/* CLU 13 INIT									*/
 172:.\clu.c       **** 	/* JUMP PAN	(SLOW)								*/
 173:.\clu.c       **** 	/*                 "########################\0" */
 174:.\clu.c       **** 	/*----------------------------------------------*/
 175:.\clu.c       **** 	sprintf(clu[13][0], "#CAMERAON");	
 960              		.loc 1 175 0
 961 0600 694A     		ldr	r2, .L5+96
 962 0602 40F20003 		movw	r3, #:lower16:.LC0
 963 0606 C0F20003 		movt	r3, #:upper16:.LC0
 964 060a 03CB     		ldmia	r3!, {r0, r1}
 965 060c 1060     		str	r0, [r2, #0]	@ unaligned
 966 060e 5160     		str	r1, [r2, #4]	@ unaligned
 967 0610 1B88     		ldrh	r3, [r3, #0]	@ unaligned
 968 0612 1381     		strh	r3, [r2, #8]	@ unaligned
 176:.\clu.c       **** 	sprintf(clu[13][1], "#PTRAP +720 0.2 10");
 969              		.loc 1 176 0
 970 0614 654A     		ldr	r2, .L5+100
 971 0616 40F20003 		movw	r3, #:lower16:.LC20
ARM GAS  C:\Users\gravi\AppData\Local\Temp\cczW92Yj.s 			page 26


 972 061a C0F20003 		movt	r3, #:upper16:.LC20
 973 061e 1546     		mov	r5, r2
 974 0620 1C46     		mov	r4, r3
 975 0622 0FCC     		ldmia	r4!, {r0, r1, r2, r3}
 976 0624 2860     		str	r0, [r5, #0]	@ unaligned
 977 0626 6960     		str	r1, [r5, #4]	@ unaligned
 978 0628 AA60     		str	r2, [r5, #8]	@ unaligned
 979 062a EB60     		str	r3, [r5, #12]	@ unaligned
 980 062c 2288     		ldrh	r2, [r4, #0]	@ unaligned
 981 062e A378     		ldrb	r3, [r4, #2]
 982 0630 2A82     		strh	r2, [r5, #16]	@ unaligned
 983 0632 AB74     		strb	r3, [r5, #18]
 177:.\clu.c       **** 	sprintf(clu[13][2], "#PATHEXEC");
 984              		.loc 1 177 0
 985 0634 5E4A     		ldr	r2, .L5+104
 986 0636 40F20003 		movw	r3, #:lower16:.LC3
 987 063a C0F20003 		movt	r3, #:upper16:.LC3
 988 063e 03CB     		ldmia	r3!, {r0, r1}
 989 0640 1060     		str	r0, [r2, #0]	@ unaligned
 990 0642 5160     		str	r1, [r2, #4]	@ unaligned
 991 0644 1B88     		ldrh	r3, [r3, #0]	@ unaligned
 992 0646 1381     		strh	r3, [r2, #8]	@ unaligned
 178:.\clu.c       **** 	sprintf(clu[13][3], "#PAUSE 0.1");	
 993              		.loc 1 178 0
 994 0648 5A4A     		ldr	r2, .L5+108
 995 064a 40F20003 		movw	r3, #:lower16:.LC21
 996 064e C0F20003 		movt	r3, #:upper16:.LC21
 997 0652 03CB     		ldmia	r3!, {r0, r1}
 998 0654 1060     		str	r0, [r2, #0]	@ unaligned
 999 0656 5160     		str	r1, [r2, #4]	@ unaligned
 1000 0658 1988     		ldrh	r1, [r3, #0]	@ unaligned
 1001 065a 9B78     		ldrb	r3, [r3, #2]
 1002 065c 1181     		strh	r1, [r2, #8]	@ unaligned
 1003 065e 9372     		strb	r3, [r2, #10]
 179:.\clu.c       **** 	sprintf(clu[13][4], "#PTRAP -720 0.2 10");		
 1004              		.loc 1 179 0
 1005 0660 554A     		ldr	r2, .L5+112
 1006 0662 40F20003 		movw	r3, #:lower16:.LC22
 1007 0666 C0F20003 		movt	r3, #:upper16:.LC22
 1008 066a 1546     		mov	r5, r2
 1009 066c 1C46     		mov	r4, r3
 1010 066e 0FCC     		ldmia	r4!, {r0, r1, r2, r3}
 1011 0670 2860     		str	r0, [r5, #0]	@ unaligned
 1012 0672 6960     		str	r1, [r5, #4]	@ unaligned
 1013 0674 AA60     		str	r2, [r5, #8]	@ unaligned
 1014 0676 EB60     		str	r3, [r5, #12]	@ unaligned
 1015 0678 2288     		ldrh	r2, [r4, #0]	@ unaligned
 1016 067a A378     		ldrb	r3, [r4, #2]
 1017 067c 2A82     		strh	r2, [r5, #16]	@ unaligned
 1018 067e AB74     		strb	r3, [r5, #18]
 180:.\clu.c       **** 	sprintf(clu[13][5], "#PATHEXEC");
 1019              		.loc 1 180 0
 1020 0680 4E4A     		ldr	r2, .L5+116
 1021 0682 40F20003 		movw	r3, #:lower16:.LC3
 1022 0686 C0F20003 		movt	r3, #:upper16:.LC3
 1023 068a 03CB     		ldmia	r3!, {r0, r1}
 1024 068c 1060     		str	r0, [r2, #0]	@ unaligned
ARM GAS  C:\Users\gravi\AppData\Local\Temp\cczW92Yj.s 			page 27


 1025 068e 5160     		str	r1, [r2, #4]	@ unaligned
 1026 0690 1B88     		ldrh	r3, [r3, #0]	@ unaligned
 1027 0692 1381     		strh	r3, [r2, #8]	@ unaligned
 181:.\clu.c       **** 	sprintf(clu[13][6], "#PAUSE 3");	
 1028              		.loc 1 181 0
 1029 0694 4A4A     		ldr	r2, .L5+120
 1030 0696 40F20003 		movw	r3, #:lower16:.LC23
 1031 069a C0F20003 		movt	r3, #:upper16:.LC23
 1032 069e 03CB     		ldmia	r3!, {r0, r1}
 1033 06a0 1060     		str	r0, [r2, #0]	@ unaligned
 1034 06a2 5160     		str	r1, [r2, #4]	@ unaligned
 1035 06a4 1B78     		ldrb	r3, [r3, #0]
 1036 06a6 1372     		strb	r3, [r2, #8]
 182:.\clu.c       **** 	sprintf(clu[13][7], "#CAMERAOFF");	
 1037              		.loc 1 182 0
 1038 06a8 464A     		ldr	r2, .L5+124
 1039 06aa 40F20003 		movw	r3, #:lower16:.LC4
 1040 06ae C0F20003 		movt	r3, #:upper16:.LC4
 1041 06b2 03CB     		ldmia	r3!, {r0, r1}
 1042 06b4 1060     		str	r0, [r2, #0]	@ unaligned
 1043 06b6 5160     		str	r1, [r2, #4]	@ unaligned
 1044 06b8 1988     		ldrh	r1, [r3, #0]	@ unaligned
 1045 06ba 9B78     		ldrb	r3, [r3, #2]
 1046 06bc 1181     		strh	r1, [r2, #8]	@ unaligned
 1047 06be 9372     		strb	r3, [r2, #10]
 183:.\clu.c       **** 	sprintf(clu[13][8], "#CLUEND");	
 1048              		.loc 1 183 0
 1049 06c0 414A     		ldr	r2, .L5+128
 1050 06c2 40F20003 		movw	r3, #:lower16:.LC5
 1051 06c6 C0F20003 		movt	r3, #:upper16:.LC5
 1052 06ca 03CB     		ldmia	r3!, {r0, r1}
 1053 06cc 1060     		str	r0, [r2, #0]	@ unaligned
 1054 06ce 5160     		str	r1, [r2, #4]	@ unaligned
 184:.\clu.c       **** 	
 185:.\clu.c       **** 	
 186:.\clu.c       **** 	/*----------------------------------------------*/
 187:.\clu.c       **** 	/* CLU 14 INIT									*/
 188:.\clu.c       **** 	/* MOVING_PANORAMIC PAN	(STANLEY STYLE)			*/
 189:.\clu.c       **** 	/*                 "########################\0" */
 190:.\clu.c       **** 	/*----------------------------------------------*/	
 191:.\clu.c       **** 	sprintf(clu[14][0], "#CAMERAON");	
 1055              		.loc 1 191 0
 1056 06d0 3E4A     		ldr	r2, .L5+132
 1057 06d2 40F20003 		movw	r3, #:lower16:.LC0
 1058 06d6 C0F20003 		movt	r3, #:upper16:.LC0
 1059 06da 03CB     		ldmia	r3!, {r0, r1}
 1060 06dc 1060     		str	r0, [r2, #0]	@ unaligned
 1061 06de 5160     		str	r1, [r2, #4]	@ unaligned
 1062 06e0 1B88     		ldrh	r3, [r3, #0]	@ unaligned
 1063 06e2 1381     		strh	r3, [r2, #8]	@ unaligned
 192:.\clu.c       **** 	sprintf(clu[14][1], "#PTRAP +160 0.2 5");	
 1064              		.loc 1 192 0
 1065 06e4 3A4A     		ldr	r2, .L5+136
 1066 06e6 40F20003 		movw	r3, #:lower16:.LC24
 1067 06ea C0F20003 		movt	r3, #:upper16:.LC24
 1068 06ee 1546     		mov	r5, r2
 1069 06f0 1C46     		mov	r4, r3
ARM GAS  C:\Users\gravi\AppData\Local\Temp\cczW92Yj.s 			page 28


 1070 06f2 0FCC     		ldmia	r4!, {r0, r1, r2, r3}
 1071 06f4 2860     		str	r0, [r5, #0]	@ unaligned
 1072 06f6 6960     		str	r1, [r5, #4]	@ unaligned
 1073 06f8 AA60     		str	r2, [r5, #8]	@ unaligned
 1074 06fa EB60     		str	r3, [r5, #12]	@ unaligned
 1075 06fc 2388     		ldrh	r3, [r4, #0]	@ unaligned
 1076 06fe 2B82     		strh	r3, [r5, #16]	@ unaligned
 193:.\clu.c       **** 	sprintf(clu[14][2], "#PATHEXEC");
 1077              		.loc 1 193 0
 1078 0700 344A     		ldr	r2, .L5+140
 1079 0702 40F20003 		movw	r3, #:lower16:.LC3
 1080 0706 C0F20003 		movt	r3, #:upper16:.LC3
 1081 070a 03CB     		ldmia	r3!, {r0, r1}
 1082 070c 1060     		str	r0, [r2, #0]	@ unaligned
 1083 070e 5160     		str	r1, [r2, #4]	@ unaligned
 1084 0710 1B88     		ldrh	r3, [r3, #0]	@ unaligned
 1085 0712 1381     		strh	r3, [r2, #8]	@ unaligned
 194:.\clu.c       **** 	sprintf(clu[14][3], "#PAUSE 1");	
 1086              		.loc 1 194 0
 1087 0714 304A     		ldr	r2, .L5+144
 1088 0716 40F20003 		movw	r3, #:lower16:.LC25
 1089 071a C0F20003 		movt	r3, #:upper16:.LC25
 1090 071e 03CB     		ldmia	r3!, {r0, r1}
 1091 0720 1060     		str	r0, [r2, #0]	@ unaligned
 1092 0722 5160     		str	r1, [r2, #4]	@ unaligned
 1093 0724 1B78     		ldrb	r3, [r3, #0]
 1094 0726 1372     		strb	r3, [r2, #8]
 195:.\clu.c       **** 	sprintf(clu[14][4], "#PTRAP -160 0.2 1.5");	
 1095              		.loc 1 195 0
 1096 0728 2C4A     		ldr	r2, .L5+148
 1097 072a 40F20003 		movw	r3, #:lower16:.LC26
 1098 072e C0F20003 		movt	r3, #:upper16:.LC26
 1099 0732 1546     		mov	r5, r2
 1100 0734 1C46     		mov	r4, r3
 1101 0736 0FCC     		ldmia	r4!, {r0, r1, r2, r3}
 1102 0738 2860     		str	r0, [r5, #0]	@ unaligned
 1103 073a 6960     		str	r1, [r5, #4]	@ unaligned
 1104 073c AA60     		str	r2, [r5, #8]	@ unaligned
 1105 073e EB60     		str	r3, [r5, #12]	@ unaligned
 1106 0740 2068     		ldr	r0, [r4, #0]	@ unaligned
 1107 0742 2861     		str	r0, [r5, #16]	@ unaligned
 1108 0744 4CE0     		b	.L6
 1109              	.L7:
 1110 0746 00BF     		.align	2
 1111              	.L5:
 1112 0748 8C0A0000 		.word	clu+2700
 1113 074c A50A0000 		.word	clu+2725
 1114 0750 BE0A0000 		.word	clu+2750
 1115 0754 4E0C0000 		.word	clu+3150
 1116 0758 670C0000 		.word	clu+3175
 1117 075c 800C0000 		.word	clu+3200
 1118 0760 990C0000 		.word	clu+3225
 1119 0764 B20C0000 		.word	clu+3250
 1120 0768 CB0C0000 		.word	clu+3275
 1121 076c 82140000 		.word	clu+5250
 1122 0770 9B140000 		.word	clu+5275
 1123 0774 B4140000 		.word	clu+5300
ARM GAS  C:\Users\gravi\AppData\Local\Temp\cczW92Yj.s 			page 29


 1124 0778 CD140000 		.word	clu+5325
 1125 077c E6140000 		.word	clu+5350
 1126 0780 FF140000 		.word	clu+5375
 1127 0784 8F160000 		.word	clu+5775
 1128 0788 A8160000 		.word	clu+5800
 1129 078c 9C180000 		.word	clu+6300
 1130 0790 B5180000 		.word	clu+6325
 1131 0794 CE180000 		.word	clu+6350
 1132 0798 E7180000 		.word	clu+6375
 1133 079c 00190000 		.word	clu+6400
 1134 07a0 19190000 		.word	clu+6425
 1135 07a4 32190000 		.word	clu+6450
 1136 07a8 A91A0000 		.word	clu+6825
 1137 07ac C21A0000 		.word	clu+6850
 1138 07b0 DB1A0000 		.word	clu+6875
 1139 07b4 F41A0000 		.word	clu+6900
 1140 07b8 0D1B0000 		.word	clu+6925
 1141 07bc 261B0000 		.word	clu+6950
 1142 07c0 3F1B0000 		.word	clu+6975
 1143 07c4 581B0000 		.word	clu+7000
 1144 07c8 711B0000 		.word	clu+7025
 1145 07cc B61C0000 		.word	clu+7350
 1146 07d0 CF1C0000 		.word	clu+7375
 1147 07d4 E81C0000 		.word	clu+7400
 1148 07d8 011D0000 		.word	clu+7425
 1149 07dc 1A1D0000 		.word	clu+7450
 1150              	.L6:
 196:.\clu.c       **** 	sprintf(clu[14][5], "#PATHEXEC");	
 1151              		.loc 1 196 0
 1152 07e0 CE4A     		ldr	r2, .L8
 1153 07e2 40F20003 		movw	r3, #:lower16:.LC3
 1154 07e6 C0F20003 		movt	r3, #:upper16:.LC3
 1155 07ea 03CB     		ldmia	r3!, {r0, r1}
 1156 07ec 1060     		str	r0, [r2, #0]	@ unaligned
 1157 07ee 5160     		str	r1, [r2, #4]	@ unaligned
 1158 07f0 1B88     		ldrh	r3, [r3, #0]	@ unaligned
 1159 07f2 1381     		strh	r3, [r2, #8]	@ unaligned
 197:.\clu.c       **** 	sprintf(clu[14][6], "#PAUSE 5");	
 1160              		.loc 1 197 0
 1161 07f4 CA4A     		ldr	r2, .L8+4
 1162 07f6 40F20003 		movw	r3, #:lower16:.LC10
 1163 07fa C0F20003 		movt	r3, #:upper16:.LC10
 1164 07fe 03CB     		ldmia	r3!, {r0, r1}
 1165 0800 1060     		str	r0, [r2, #0]	@ unaligned
 1166 0802 5160     		str	r1, [r2, #4]	@ unaligned
 1167 0804 1B78     		ldrb	r3, [r3, #0]
 1168 0806 1372     		strb	r3, [r2, #8]
 198:.\clu.c       **** 	sprintf(clu[14][7], "#CAMERAOFF");	
 1169              		.loc 1 198 0
 1170 0808 C64A     		ldr	r2, .L8+8
 1171 080a 40F20003 		movw	r3, #:lower16:.LC4
 1172 080e C0F20003 		movt	r3, #:upper16:.LC4
 1173 0812 03CB     		ldmia	r3!, {r0, r1}
 1174 0814 1060     		str	r0, [r2, #0]	@ unaligned
 1175 0816 5160     		str	r1, [r2, #4]	@ unaligned
 1176 0818 1988     		ldrh	r1, [r3, #0]	@ unaligned
 1177 081a 9B78     		ldrb	r3, [r3, #2]
ARM GAS  C:\Users\gravi\AppData\Local\Temp\cczW92Yj.s 			page 30


 1178 081c 1181     		strh	r1, [r2, #8]	@ unaligned
 1179 081e 9372     		strb	r3, [r2, #10]
 199:.\clu.c       **** 	sprintf(clu[14][8], "#CLUEND");	
 1180              		.loc 1 199 0
 1181 0820 C14A     		ldr	r2, .L8+12
 1182 0822 40F20003 		movw	r3, #:lower16:.LC5
 1183 0826 C0F20003 		movt	r3, #:upper16:.LC5
 1184 082a 03CB     		ldmia	r3!, {r0, r1}
 1185 082c 1060     		str	r0, [r2, #0]	@ unaligned
 1186 082e 5160     		str	r1, [r2, #4]	@ unaligned
 200:.\clu.c       **** 	
 201:.\clu.c       **** 	/*----------------------------------------------*/
 202:.\clu.c       **** 	/* CLU 15 INIT									*/
 203:.\clu.c       **** 	/* MOVING_PANORAMIC PAN	(JJ STYLE)				*/
 204:.\clu.c       **** 	/*                 "########################\0" */
 205:.\clu.c       **** 	/*----------------------------------------------*/	
 206:.\clu.c       **** 	sprintf(clu[15][0], "#CAMERAON");	
 1187              		.loc 1 206 0
 1188 0830 BE4A     		ldr	r2, .L8+16
 1189 0832 40F20003 		movw	r3, #:lower16:.LC0
 1190 0836 C0F20003 		movt	r3, #:upper16:.LC0
 1191 083a 03CB     		ldmia	r3!, {r0, r1}
 1192 083c 1060     		str	r0, [r2, #0]	@ unaligned
 1193 083e 5160     		str	r1, [r2, #4]	@ unaligned
 1194 0840 1B88     		ldrh	r3, [r3, #0]	@ unaligned
 1195 0842 1381     		strh	r3, [r2, #8]	@ unaligned
 207:.\clu.c       **** 	sprintf(clu[15][1], "#PTRAP +160 0.2 1.5");	
 1196              		.loc 1 207 0
 1197 0844 BA4A     		ldr	r2, .L8+20
 1198 0846 40F20003 		movw	r3, #:lower16:.LC27
 1199 084a C0F20003 		movt	r3, #:upper16:.LC27
 1200 084e 1546     		mov	r5, r2
 1201 0850 1C46     		mov	r4, r3
 1202 0852 0FCC     		ldmia	r4!, {r0, r1, r2, r3}
 1203 0854 2860     		str	r0, [r5, #0]	@ unaligned
 1204 0856 6960     		str	r1, [r5, #4]	@ unaligned
 1205 0858 AA60     		str	r2, [r5, #8]	@ unaligned
 1206 085a EB60     		str	r3, [r5, #12]	@ unaligned
 1207 085c 2068     		ldr	r0, [r4, #0]	@ unaligned
 1208 085e 2861     		str	r0, [r5, #16]	@ unaligned
 208:.\clu.c       **** 	sprintf(clu[15][2], "#TTRAP +30 0.2 1.5");	
 1209              		.loc 1 208 0
 1210 0860 B44A     		ldr	r2, .L8+24
 1211 0862 40F20003 		movw	r3, #:lower16:.LC28
 1212 0866 C0F20003 		movt	r3, #:upper16:.LC28
 1213 086a 1546     		mov	r5, r2
 1214 086c 1C46     		mov	r4, r3
 1215 086e 0FCC     		ldmia	r4!, {r0, r1, r2, r3}
 1216 0870 2860     		str	r0, [r5, #0]	@ unaligned
 1217 0872 6960     		str	r1, [r5, #4]	@ unaligned
 1218 0874 AA60     		str	r2, [r5, #8]	@ unaligned
 1219 0876 EB60     		str	r3, [r5, #12]	@ unaligned
 1220 0878 2288     		ldrh	r2, [r4, #0]	@ unaligned
 1221 087a A378     		ldrb	r3, [r4, #2]
 1222 087c 2A82     		strh	r2, [r5, #16]	@ unaligned
 1223 087e AB74     		strb	r3, [r5, #18]
 209:.\clu.c       **** 	sprintf(clu[15][3], "#PATHEXEC");	
ARM GAS  C:\Users\gravi\AppData\Local\Temp\cczW92Yj.s 			page 31


 1224              		.loc 1 209 0
 1225 0880 AD4A     		ldr	r2, .L8+28
 1226 0882 40F20003 		movw	r3, #:lower16:.LC3
 1227 0886 C0F20003 		movt	r3, #:upper16:.LC3
 1228 088a 03CB     		ldmia	r3!, {r0, r1}
 1229 088c 1060     		str	r0, [r2, #0]	@ unaligned
 1230 088e 5160     		str	r1, [r2, #4]	@ unaligned
 1231 0890 1B88     		ldrh	r3, [r3, #0]	@ unaligned
 1232 0892 1381     		strh	r3, [r2, #8]	@ unaligned
 210:.\clu.c       **** 	sprintf(clu[15][4], "#PTRAP -80 0.2 0.75");
 1233              		.loc 1 210 0
 1234 0894 A94A     		ldr	r2, .L8+32
 1235 0896 40F20003 		movw	r3, #:lower16:.LC29
 1236 089a C0F20003 		movt	r3, #:upper16:.LC29
 1237 089e 1546     		mov	r5, r2
 1238 08a0 1C46     		mov	r4, r3
 1239 08a2 0FCC     		ldmia	r4!, {r0, r1, r2, r3}
 1240 08a4 2860     		str	r0, [r5, #0]	@ unaligned
 1241 08a6 6960     		str	r1, [r5, #4]	@ unaligned
 1242 08a8 AA60     		str	r2, [r5, #8]	@ unaligned
 1243 08aa EB60     		str	r3, [r5, #12]	@ unaligned
 1244 08ac 2068     		ldr	r0, [r4, #0]	@ unaligned
 1245 08ae 2861     		str	r0, [r5, #16]	@ unaligned
 211:.\clu.c       **** 	sprintf(clu[15][5], "#TTRAP -60 0.2 0.75");	
 1246              		.loc 1 211 0
 1247 08b0 A34A     		ldr	r2, .L8+36
 1248 08b2 40F20003 		movw	r3, #:lower16:.LC30
 1249 08b6 C0F20003 		movt	r3, #:upper16:.LC30
 1250 08ba 1546     		mov	r5, r2
 1251 08bc 1C46     		mov	r4, r3
 1252 08be 0FCC     		ldmia	r4!, {r0, r1, r2, r3}
 1253 08c0 2860     		str	r0, [r5, #0]	@ unaligned
 1254 08c2 6960     		str	r1, [r5, #4]	@ unaligned
 1255 08c4 AA60     		str	r2, [r5, #8]	@ unaligned
 1256 08c6 EB60     		str	r3, [r5, #12]	@ unaligned
 1257 08c8 2068     		ldr	r0, [r4, #0]	@ unaligned
 1258 08ca 2861     		str	r0, [r5, #16]	@ unaligned
 212:.\clu.c       **** 	sprintf(clu[15][6], "#PATHEXEC");	
 1259              		.loc 1 212 0
 1260 08cc 9D4A     		ldr	r2, .L8+40
 1261 08ce 40F20003 		movw	r3, #:lower16:.LC3
 1262 08d2 C0F20003 		movt	r3, #:upper16:.LC3
 1263 08d6 03CB     		ldmia	r3!, {r0, r1}
 1264 08d8 1060     		str	r0, [r2, #0]	@ unaligned
 1265 08da 5160     		str	r1, [r2, #4]	@ unaligned
 1266 08dc 1B88     		ldrh	r3, [r3, #0]	@ unaligned
 1267 08de 1381     		strh	r3, [r2, #8]	@ unaligned
 213:.\clu.c       **** 	sprintf(clu[15][7], "#PTRAP +60 0.2 1.5");
 1268              		.loc 1 213 0
 1269 08e0 994A     		ldr	r2, .L8+44
 1270 08e2 40F20003 		movw	r3, #:lower16:.LC31
 1271 08e6 C0F20003 		movt	r3, #:upper16:.LC31
 1272 08ea 1546     		mov	r5, r2
 1273 08ec 1C46     		mov	r4, r3
 1274 08ee 0FCC     		ldmia	r4!, {r0, r1, r2, r3}
 1275 08f0 2860     		str	r0, [r5, #0]	@ unaligned
 1276 08f2 6960     		str	r1, [r5, #4]	@ unaligned
ARM GAS  C:\Users\gravi\AppData\Local\Temp\cczW92Yj.s 			page 32


 1277 08f4 AA60     		str	r2, [r5, #8]	@ unaligned
 1278 08f6 EB60     		str	r3, [r5, #12]	@ unaligned
 1279 08f8 2288     		ldrh	r2, [r4, #0]	@ unaligned
 1280 08fa A378     		ldrb	r3, [r4, #2]
 1281 08fc 2A82     		strh	r2, [r5, #16]	@ unaligned
 1282 08fe AB74     		strb	r3, [r5, #18]
 214:.\clu.c       **** 	sprintf(clu[15][8], "#TTRAP +30 0.2 1.5");	
 1283              		.loc 1 214 0
 1284 0900 924A     		ldr	r2, .L8+48
 1285 0902 40F20003 		movw	r3, #:lower16:.LC28
 1286 0906 C0F20003 		movt	r3, #:upper16:.LC28
 1287 090a 1546     		mov	r5, r2
 1288 090c 1C46     		mov	r4, r3
 1289 090e 0FCC     		ldmia	r4!, {r0, r1, r2, r3}
 1290 0910 2860     		str	r0, [r5, #0]	@ unaligned
 1291 0912 6960     		str	r1, [r5, #4]	@ unaligned
 1292 0914 AA60     		str	r2, [r5, #8]	@ unaligned
 1293 0916 EB60     		str	r3, [r5, #12]	@ unaligned
 1294 0918 2288     		ldrh	r2, [r4, #0]	@ unaligned
 1295 091a A378     		ldrb	r3, [r4, #2]
 1296 091c 2A82     		strh	r2, [r5, #16]	@ unaligned
 1297 091e AB74     		strb	r3, [r5, #18]
 215:.\clu.c       **** 	sprintf(clu[15][9], "#PATHEXEC");	
 1298              		.loc 1 215 0
 1299 0920 8B4A     		ldr	r2, .L8+52
 1300 0922 40F20003 		movw	r3, #:lower16:.LC3
 1301 0926 C0F20003 		movt	r3, #:upper16:.LC3
 1302 092a 03CB     		ldmia	r3!, {r0, r1}
 1303 092c 1060     		str	r0, [r2, #0]	@ unaligned
 1304 092e 5160     		str	r1, [r2, #4]	@ unaligned
 1305 0930 1B88     		ldrh	r3, [r3, #0]	@ unaligned
 1306 0932 1381     		strh	r3, [r2, #8]	@ unaligned
 216:.\clu.c       **** 	sprintf(clu[15][10], "#CAMERAOFF");
 1307              		.loc 1 216 0
 1308 0934 874A     		ldr	r2, .L8+56
 1309 0936 40F20003 		movw	r3, #:lower16:.LC4
 1310 093a C0F20003 		movt	r3, #:upper16:.LC4
 1311 093e 03CB     		ldmia	r3!, {r0, r1}
 1312 0940 1060     		str	r0, [r2, #0]	@ unaligned
 1313 0942 5160     		str	r1, [r2, #4]	@ unaligned
 1314 0944 1988     		ldrh	r1, [r3, #0]	@ unaligned
 1315 0946 9B78     		ldrb	r3, [r3, #2]
 1316 0948 1181     		strh	r1, [r2, #8]	@ unaligned
 1317 094a 9372     		strb	r3, [r2, #10]
 217:.\clu.c       **** 	sprintf(clu[15][11], "#GOTOH");	
 1318              		.loc 1 217 0
 1319 094c 824B     		ldr	r3, .L8+60
 1320 094e 40F20002 		movw	r2, #:lower16:.LC13
 1321 0952 C0F20002 		movt	r2, #:upper16:.LC13
 1322 0956 1068     		ldr	r0, [r2, #0]	@ unaligned
 1323 0958 1860     		str	r0, [r3, #0]	@ unaligned
 1324 095a 9188     		ldrh	r1, [r2, #4]	@ unaligned
 1325 095c 9279     		ldrb	r2, [r2, #6]
 1326 095e 9980     		strh	r1, [r3, #4]	@ unaligned
 1327 0960 9A71     		strb	r2, [r3, #6]
 218:.\clu.c       **** 	sprintf(clu[15][12], "#CLUEND");
 1328              		.loc 1 218 0
ARM GAS  C:\Users\gravi\AppData\Local\Temp\cczW92Yj.s 			page 33


 1329 0962 7E4A     		ldr	r2, .L8+64
 1330 0964 40F20003 		movw	r3, #:lower16:.LC5
 1331 0968 C0F20003 		movt	r3, #:upper16:.LC5
 1332 096c 03CB     		ldmia	r3!, {r0, r1}
 1333 096e 1060     		str	r0, [r2, #0]	@ unaligned
 1334 0970 5160     		str	r1, [r2, #4]	@ unaligned
 219:.\clu.c       **** 	
 220:.\clu.c       **** 	
 221:.\clu.c       **** 	/*----------------------------------------------*/
 222:.\clu.c       **** 	/* CLU 16 INIT									*/
 223:.\clu.c       **** 	/* SM_MOVING_TO_FACE (STANLEY STYLE)			*/
 224:.\clu.c       **** 	/*                 "########################\0" */
 225:.\clu.c       **** 	/*----------------------------------------------*/	
 226:.\clu.c       **** 	sprintf(clu[16][0], "#CAMERAON");		
 1335              		.loc 1 226 0
 1336 0972 7B4A     		ldr	r2, .L8+68
 1337 0974 40F20003 		movw	r3, #:lower16:.LC0
 1338 0978 C0F20003 		movt	r3, #:upper16:.LC0
 1339 097c 03CB     		ldmia	r3!, {r0, r1}
 1340 097e 1060     		str	r0, [r2, #0]	@ unaligned
 1341 0980 5160     		str	r1, [r2, #4]	@ unaligned
 1342 0982 1B88     		ldrh	r3, [r3, #0]	@ unaligned
 1343 0984 1381     		strh	r3, [r2, #8]	@ unaligned
 227:.\clu.c       **** 	sprintf(clu[16][1], "#PTRAP +180 0.2 4");	
 1344              		.loc 1 227 0
 1345 0986 774A     		ldr	r2, .L8+72
 1346 0988 40F20003 		movw	r3, #:lower16:.LC32
 1347 098c C0F20003 		movt	r3, #:upper16:.LC32
 1348 0990 1546     		mov	r5, r2
 1349 0992 1C46     		mov	r4, r3
 1350 0994 0FCC     		ldmia	r4!, {r0, r1, r2, r3}
 1351 0996 2860     		str	r0, [r5, #0]	@ unaligned
 1352 0998 6960     		str	r1, [r5, #4]	@ unaligned
 1353 099a AA60     		str	r2, [r5, #8]	@ unaligned
 1354 099c EB60     		str	r3, [r5, #12]	@ unaligned
 1355 099e 2388     		ldrh	r3, [r4, #0]	@ unaligned
 1356 09a0 2B82     		strh	r3, [r5, #16]	@ unaligned
 228:.\clu.c       **** 	sprintf(clu[16][2], "#PATHEXEC");
 1357              		.loc 1 228 0
 1358 09a2 714A     		ldr	r2, .L8+76
 1359 09a4 40F20003 		movw	r3, #:lower16:.LC3
 1360 09a8 C0F20003 		movt	r3, #:upper16:.LC3
 1361 09ac 03CB     		ldmia	r3!, {r0, r1}
 1362 09ae 1060     		str	r0, [r2, #0]	@ unaligned
 1363 09b0 5160     		str	r1, [r2, #4]	@ unaligned
 1364 09b2 1B88     		ldrh	r3, [r3, #0]	@ unaligned
 1365 09b4 1381     		strh	r3, [r2, #8]	@ unaligned
 229:.\clu.c       **** 	sprintf(clu[16][3], "#TTRAP +35 0.2 4");	
 1366              		.loc 1 229 0
 1367 09b6 6D4A     		ldr	r2, .L8+80
 1368 09b8 40F20003 		movw	r3, #:lower16:.LC33
 1369 09bc C0F20003 		movt	r3, #:upper16:.LC33
 1370 09c0 1546     		mov	r5, r2
 1371 09c2 1C46     		mov	r4, r3
 1372 09c4 0FCC     		ldmia	r4!, {r0, r1, r2, r3}
 1373 09c6 2860     		str	r0, [r5, #0]	@ unaligned
 1374 09c8 6960     		str	r1, [r5, #4]	@ unaligned
ARM GAS  C:\Users\gravi\AppData\Local\Temp\cczW92Yj.s 			page 34


 1375 09ca AA60     		str	r2, [r5, #8]	@ unaligned
 1376 09cc EB60     		str	r3, [r5, #12]	@ unaligned
 1377 09ce 2378     		ldrb	r3, [r4, #0]
 1378 09d0 2B74     		strb	r3, [r5, #16]
 230:.\clu.c       **** 	sprintf(clu[16][4], "#PATHEXEC");
 1379              		.loc 1 230 0
 1380 09d2 674A     		ldr	r2, .L8+84
 1381 09d4 40F20003 		movw	r3, #:lower16:.LC3
 1382 09d8 C0F20003 		movt	r3, #:upper16:.LC3
 1383 09dc 03CB     		ldmia	r3!, {r0, r1}
 1384 09de 1060     		str	r0, [r2, #0]	@ unaligned
 1385 09e0 5160     		str	r1, [r2, #4]	@ unaligned
 1386 09e2 1B88     		ldrh	r3, [r3, #0]	@ unaligned
 1387 09e4 1381     		strh	r3, [r2, #8]	@ unaligned
 231:.\clu.c       **** 	sprintf(clu[16][5], "#PAUSE 10");	
 1388              		.loc 1 231 0
 1389 09e6 634A     		ldr	r2, .L8+88
 1390 09e8 40F20003 		movw	r3, #:lower16:.LC9
 1391 09ec C0F20003 		movt	r3, #:upper16:.LC9
 1392 09f0 03CB     		ldmia	r3!, {r0, r1}
 1393 09f2 1060     		str	r0, [r2, #0]	@ unaligned
 1394 09f4 5160     		str	r1, [r2, #4]	@ unaligned
 1395 09f6 1B88     		ldrh	r3, [r3, #0]	@ unaligned
 1396 09f8 1381     		strh	r3, [r2, #8]	@ unaligned
 232:.\clu.c       **** 	sprintf(clu[16][6], "#CAMERAOFF");	
 1397              		.loc 1 232 0
 1398 09fa 5F4A     		ldr	r2, .L8+92
 1399 09fc 40F20003 		movw	r3, #:lower16:.LC4
 1400 0a00 C0F20003 		movt	r3, #:upper16:.LC4
 1401 0a04 03CB     		ldmia	r3!, {r0, r1}
 1402 0a06 1060     		str	r0, [r2, #0]	@ unaligned
 1403 0a08 5160     		str	r1, [r2, #4]	@ unaligned
 1404 0a0a 1988     		ldrh	r1, [r3, #0]	@ unaligned
 1405 0a0c 9B78     		ldrb	r3, [r3, #2]
 1406 0a0e 1181     		strh	r1, [r2, #8]	@ unaligned
 1407 0a10 9372     		strb	r3, [r2, #10]
 233:.\clu.c       **** 	sprintf(clu[16][7], "#CLUEND");
 1408              		.loc 1 233 0
 1409 0a12 5A4A     		ldr	r2, .L8+96
 1410 0a14 40F20003 		movw	r3, #:lower16:.LC5
 1411 0a18 C0F20003 		movt	r3, #:upper16:.LC5
 1412 0a1c 03CB     		ldmia	r3!, {r0, r1}
 1413 0a1e 1060     		str	r0, [r2, #0]	@ unaligned
 1414 0a20 5160     		str	r1, [r2, #4]	@ unaligned
 234:.\clu.c       **** 	
 235:.\clu.c       **** 	
 236:.\clu.c       **** 	/*----------------------------------------------*/
 237:.\clu.c       **** 	/* CLU 17 INIT									*/
 238:.\clu.c       **** 	/* SM_MOVING_TO_FACE (JJ STYLE)					*/
 239:.\clu.c       **** 	/*                 "########################\0" */
 240:.\clu.c       **** 	/*----------------------------------------------*/	
 241:.\clu.c       **** 	sprintf(clu[17][0], "#CAMERAON");		
 1415              		.loc 1 241 0
 1416 0a22 574A     		ldr	r2, .L8+100
 1417 0a24 40F20003 		movw	r3, #:lower16:.LC0
 1418 0a28 C0F20003 		movt	r3, #:upper16:.LC0
 1419 0a2c 03CB     		ldmia	r3!, {r0, r1}
ARM GAS  C:\Users\gravi\AppData\Local\Temp\cczW92Yj.s 			page 35


 1420 0a2e 1060     		str	r0, [r2, #0]	@ unaligned
 1421 0a30 5160     		str	r1, [r2, #4]	@ unaligned
 1422 0a32 1B88     		ldrh	r3, [r3, #0]	@ unaligned
 1423 0a34 1381     		strh	r3, [r2, #8]	@ unaligned
 242:.\clu.c       **** 	sprintf(clu[17][1], "#PTRAP +200 0.2 2.5");
 1424              		.loc 1 242 0
 1425 0a36 534A     		ldr	r2, .L8+104
 1426 0a38 40F20003 		movw	r3, #:lower16:.LC34
 1427 0a3c C0F20003 		movt	r3, #:upper16:.LC34
 1428 0a40 1546     		mov	r5, r2
 1429 0a42 1C46     		mov	r4, r3
 1430 0a44 0FCC     		ldmia	r4!, {r0, r1, r2, r3}
 1431 0a46 2860     		str	r0, [r5, #0]	@ unaligned
 1432 0a48 6960     		str	r1, [r5, #4]	@ unaligned
 1433 0a4a AA60     		str	r2, [r5, #8]	@ unaligned
 1434 0a4c EB60     		str	r3, [r5, #12]	@ unaligned
 1435 0a4e 2068     		ldr	r0, [r4, #0]	@ unaligned
 1436 0a50 2861     		str	r0, [r5, #16]	@ unaligned
 243:.\clu.c       **** 	sprintf(clu[17][2], "#TTRAP +45 0.2 2.5");	
 1437              		.loc 1 243 0
 1438 0a52 4D4A     		ldr	r2, .L8+108
 1439 0a54 40F20003 		movw	r3, #:lower16:.LC35
 1440 0a58 C0F20003 		movt	r3, #:upper16:.LC35
 1441 0a5c 1546     		mov	r5, r2
 1442 0a5e 1C46     		mov	r4, r3
 1443 0a60 0FCC     		ldmia	r4!, {r0, r1, r2, r3}
 1444 0a62 2860     		str	r0, [r5, #0]	@ unaligned
 1445 0a64 6960     		str	r1, [r5, #4]	@ unaligned
 1446 0a66 AA60     		str	r2, [r5, #8]	@ unaligned
 1447 0a68 EB60     		str	r3, [r5, #12]	@ unaligned
 1448 0a6a 2288     		ldrh	r2, [r4, #0]	@ unaligned
 1449 0a6c A378     		ldrb	r3, [r4, #2]
 1450 0a6e 2A82     		strh	r2, [r5, #16]	@ unaligned
 1451 0a70 AB74     		strb	r3, [r5, #18]
 244:.\clu.c       **** 	sprintf(clu[17][3], "#PATHEXEC");
 1452              		.loc 1 244 0
 1453 0a72 464A     		ldr	r2, .L8+112
 1454 0a74 40F20003 		movw	r3, #:lower16:.LC3
 1455 0a78 C0F20003 		movt	r3, #:upper16:.LC3
 1456 0a7c 03CB     		ldmia	r3!, {r0, r1}
 1457 0a7e 1060     		str	r0, [r2, #0]	@ unaligned
 1458 0a80 5160     		str	r1, [r2, #4]	@ unaligned
 1459 0a82 1B88     		ldrh	r3, [r3, #0]	@ unaligned
 1460 0a84 1381     		strh	r3, [r2, #8]	@ unaligned
 245:.\clu.c       **** 	sprintf(clu[17][4], "#PTRAP -50 0.2 0.75");
 1461              		.loc 1 245 0
 1462 0a86 424A     		ldr	r2, .L8+116
 1463 0a88 40F20003 		movw	r3, #:lower16:.LC36
 1464 0a8c C0F20003 		movt	r3, #:upper16:.LC36
 1465 0a90 1546     		mov	r5, r2
 1466 0a92 1C46     		mov	r4, r3
 1467 0a94 0FCC     		ldmia	r4!, {r0, r1, r2, r3}
 1468 0a96 2860     		str	r0, [r5, #0]	@ unaligned
 1469 0a98 6960     		str	r1, [r5, #4]	@ unaligned
 1470 0a9a AA60     		str	r2, [r5, #8]	@ unaligned
 1471 0a9c EB60     		str	r3, [r5, #12]	@ unaligned
 1472 0a9e 2068     		ldr	r0, [r4, #0]	@ unaligned
ARM GAS  C:\Users\gravi\AppData\Local\Temp\cczW92Yj.s 			page 36


 1473 0aa0 2861     		str	r0, [r5, #16]	@ unaligned
 246:.\clu.c       **** 	sprintf(clu[17][5], "#TTRAP -30 0.2 0.75");	
 1474              		.loc 1 246 0
 1475 0aa2 3C4A     		ldr	r2, .L8+120
 1476 0aa4 40F20003 		movw	r3, #:lower16:.LC37
 1477 0aa8 C0F20003 		movt	r3, #:upper16:.LC37
 1478 0aac 1546     		mov	r5, r2
 1479 0aae 1C46     		mov	r4, r3
 1480 0ab0 0FCC     		ldmia	r4!, {r0, r1, r2, r3}
 1481 0ab2 2860     		str	r0, [r5, #0]	@ unaligned
 1482 0ab4 6960     		str	r1, [r5, #4]	@ unaligned
 1483 0ab6 AA60     		str	r2, [r5, #8]	@ unaligned
 1484 0ab8 EB60     		str	r3, [r5, #12]	@ unaligned
 1485 0aba 2068     		ldr	r0, [r4, #0]	@ unaligned
 1486 0abc 2861     		str	r0, [r5, #16]	@ unaligned
 247:.\clu.c       **** 	sprintf(clu[17][6], "#PATHEXEC");
 1487              		.loc 1 247 0
 1488 0abe 364A     		ldr	r2, .L8+124
 1489 0ac0 40F20003 		movw	r3, #:lower16:.LC3
 1490 0ac4 C0F20003 		movt	r3, #:upper16:.LC3
 1491 0ac8 03CB     		ldmia	r3!, {r0, r1}
 1492 0aca 1060     		str	r0, [r2, #0]	@ unaligned
 1493 0acc 5160     		str	r1, [r2, #4]	@ unaligned
 1494 0ace 1B88     		ldrh	r3, [r3, #0]	@ unaligned
 1495 0ad0 1381     		strh	r3, [r2, #8]	@ unaligned
 248:.\clu.c       **** 	sprintf(clu[17][7], "#PTRAP +30 0.2 1.5");
 1496              		.loc 1 248 0
 1497 0ad2 324A     		ldr	r2, .L8+128
 1498 0ad4 40F20003 		movw	r3, #:lower16:.LC38
 1499 0ad8 C0F20003 		movt	r3, #:upper16:.LC38
 1500 0adc 1546     		mov	r5, r2
 1501 0ade 1C46     		mov	r4, r3
 1502 0ae0 0FCC     		ldmia	r4!, {r0, r1, r2, r3}
 1503 0ae2 2860     		str	r0, [r5, #0]	@ unaligned
 1504 0ae4 6960     		str	r1, [r5, #4]	@ unaligned
 1505 0ae6 AA60     		str	r2, [r5, #8]	@ unaligned
 1506 0ae8 EB60     		str	r3, [r5, #12]	@ unaligned
 1507 0aea 2288     		ldrh	r2, [r4, #0]	@ unaligned
 1508 0aec A378     		ldrb	r3, [r4, #2]
 1509 0aee 2A82     		strh	r2, [r5, #16]	@ unaligned
 1510 0af0 AB74     		strb	r3, [r5, #18]
 249:.\clu.c       **** 	sprintf(clu[17][8], "#TTRAP +20 0.2 1.5");	
 1511              		.loc 1 249 0
 1512 0af2 2B4A     		ldr	r2, .L8+132
 1513 0af4 40F20003 		movw	r3, #:lower16:.LC39
 1514 0af8 C0F20003 		movt	r3, #:upper16:.LC39
 1515 0afc 1546     		mov	r5, r2
 1516 0afe 1C46     		mov	r4, r3
 1517 0b00 0FCC     		ldmia	r4!, {r0, r1, r2, r3}
 1518 0b02 2860     		str	r0, [r5, #0]	@ unaligned
 1519 0b04 6960     		str	r1, [r5, #4]	@ unaligned
 1520 0b06 AA60     		str	r2, [r5, #8]	@ unaligned
 1521 0b08 EB60     		str	r3, [r5, #12]	@ unaligned
 1522 0b0a 2288     		ldrh	r2, [r4, #0]	@ unaligned
 1523 0b0c A378     		ldrb	r3, [r4, #2]
 1524 0b0e 2A82     		strh	r2, [r5, #16]	@ unaligned
 1525 0b10 AB74     		strb	r3, [r5, #18]
ARM GAS  C:\Users\gravi\AppData\Local\Temp\cczW92Yj.s 			page 37


 250:.\clu.c       **** 	sprintf(clu[17][9], "#PATHEXEC");		
 1526              		.loc 1 250 0
 1527 0b12 244A     		ldr	r2, .L8+136
 1528 0b14 40F20003 		movw	r3, #:lower16:.LC3
 1529 0b18 46E0     		b	.L9
 1530              	.L10:
 1531 0b1a 00BF     		.align	2
 1532              	.L8:
 1533 0b1c 331D0000 		.word	clu+7475
 1534 0b20 4C1D0000 		.word	clu+7500
 1535 0b24 651D0000 		.word	clu+7525
 1536 0b28 7E1D0000 		.word	clu+7550
 1537 0b2c C31E0000 		.word	clu+7875
 1538 0b30 DC1E0000 		.word	clu+7900
 1539 0b34 F51E0000 		.word	clu+7925
 1540 0b38 0E1F0000 		.word	clu+7950
 1541 0b3c 271F0000 		.word	clu+7975
 1542 0b40 401F0000 		.word	clu+8000
 1543 0b44 591F0000 		.word	clu+8025
 1544 0b48 721F0000 		.word	clu+8050
 1545 0b4c 8B1F0000 		.word	clu+8075
 1546 0b50 A41F0000 		.word	clu+8100
 1547 0b54 BD1F0000 		.word	clu+8125
 1548 0b58 D61F0000 		.word	clu+8150
 1549 0b5c EF1F0000 		.word	clu+8175
 1550 0b60 D0200000 		.word	clu+8400
 1551 0b64 E9200000 		.word	clu+8425
 1552 0b68 02210000 		.word	clu+8450
 1553 0b6c 1B210000 		.word	clu+8475
 1554 0b70 34210000 		.word	clu+8500
 1555 0b74 4D210000 		.word	clu+8525
 1556 0b78 66210000 		.word	clu+8550
 1557 0b7c 7F210000 		.word	clu+8575
 1558 0b80 DD220000 		.word	clu+8925
 1559 0b84 F6220000 		.word	clu+8950
 1560 0b88 0F230000 		.word	clu+8975
 1561 0b8c 28230000 		.word	clu+9000
 1562 0b90 41230000 		.word	clu+9025
 1563 0b94 5A230000 		.word	clu+9050
 1564 0b98 73230000 		.word	clu+9075
 1565 0b9c 8C230000 		.word	clu+9100
 1566 0ba0 A5230000 		.word	clu+9125
 1567 0ba4 BE230000 		.word	clu+9150
 1568              	.L9:
 1569 0ba8 C0F20003 		movt	r3, #:upper16:.LC3
 1570 0bac 03CB     		ldmia	r3!, {r0, r1}
 1571 0bae 1060     		str	r0, [r2, #0]	@ unaligned
 1572 0bb0 5160     		str	r1, [r2, #4]	@ unaligned
 1573 0bb2 1B88     		ldrh	r3, [r3, #0]	@ unaligned
 1574 0bb4 1381     		strh	r3, [r2, #8]	@ unaligned
 251:.\clu.c       **** 	sprintf(clu[17][10], "#CAMERAOFF");	
 1575              		.loc 1 251 0
 1576 0bb6 CE4A     		ldr	r2, .L11
 1577 0bb8 40F20003 		movw	r3, #:lower16:.LC4
 1578 0bbc C0F20003 		movt	r3, #:upper16:.LC4
 1579 0bc0 03CB     		ldmia	r3!, {r0, r1}
 1580 0bc2 1060     		str	r0, [r2, #0]	@ unaligned
ARM GAS  C:\Users\gravi\AppData\Local\Temp\cczW92Yj.s 			page 38


 1581 0bc4 5160     		str	r1, [r2, #4]	@ unaligned
 1582 0bc6 1988     		ldrh	r1, [r3, #0]	@ unaligned
 1583 0bc8 9B78     		ldrb	r3, [r3, #2]
 1584 0bca 1181     		strh	r1, [r2, #8]	@ unaligned
 1585 0bcc 9372     		strb	r3, [r2, #10]
 252:.\clu.c       **** 	sprintf(clu[17][11], "#CLUEND");
 1586              		.loc 1 252 0
 1587 0bce C94A     		ldr	r2, .L11+4
 1588 0bd0 40F20003 		movw	r3, #:lower16:.LC5
 1589 0bd4 C0F20003 		movt	r3, #:upper16:.LC5
 1590 0bd8 03CB     		ldmia	r3!, {r0, r1}
 1591 0bda 1060     		str	r0, [r2, #0]	@ unaligned
 1592 0bdc 5160     		str	r1, [r2, #4]	@ unaligned
 253:.\clu.c       **** 	
 254:.\clu.c       **** 	
 255:.\clu.c       **** 	/*----------------------------------------------*/
 256:.\clu.c       **** 	/* CLU 18 INIT									*/
 257:.\clu.c       **** 	/* SM_MOVING_TO_WHEEL (GENERIC STYLE)			*/
 258:.\clu.c       **** 	/*                 "########################\0" */
 259:.\clu.c       **** 	/*----------------------------------------------*/	
 260:.\clu.c       **** 	sprintf(clu[18][0], "#CAMERAON");		
 1593              		.loc 1 260 0
 1594 0bde C64A     		ldr	r2, .L11+8
 1595 0be0 40F20003 		movw	r3, #:lower16:.LC0
 1596 0be4 C0F20003 		movt	r3, #:upper16:.LC0
 1597 0be8 03CB     		ldmia	r3!, {r0, r1}
 1598 0bea 1060     		str	r0, [r2, #0]	@ unaligned
 1599 0bec 5160     		str	r1, [r2, #4]	@ unaligned
 1600 0bee 1B88     		ldrh	r3, [r3, #0]	@ unaligned
 1601 0bf0 1381     		strh	r3, [r2, #8]	@ unaligned
 261:.\clu.c       **** 	sprintf(clu[18][1], "#TTRAP -45 0.2 3");	
 1602              		.loc 1 261 0
 1603 0bf2 C24A     		ldr	r2, .L11+12
 1604 0bf4 40F20003 		movw	r3, #:lower16:.LC40
 1605 0bf8 C0F20003 		movt	r3, #:upper16:.LC40
 1606 0bfc 1546     		mov	r5, r2
 1607 0bfe 1C46     		mov	r4, r3
 1608 0c00 0FCC     		ldmia	r4!, {r0, r1, r2, r3}
 1609 0c02 2860     		str	r0, [r5, #0]	@ unaligned
 1610 0c04 6960     		str	r1, [r5, #4]	@ unaligned
 1611 0c06 AA60     		str	r2, [r5, #8]	@ unaligned
 1612 0c08 EB60     		str	r3, [r5, #12]	@ unaligned
 1613 0c0a 2378     		ldrb	r3, [r4, #0]
 1614 0c0c 2B74     		strb	r3, [r5, #16]
 262:.\clu.c       **** 	sprintf(clu[18][2], "#PATHEXEC");
 1615              		.loc 1 262 0
 1616 0c0e BC4A     		ldr	r2, .L11+16
 1617 0c10 40F20003 		movw	r3, #:lower16:.LC3
 1618 0c14 C0F20003 		movt	r3, #:upper16:.LC3
 1619 0c18 03CB     		ldmia	r3!, {r0, r1}
 1620 0c1a 1060     		str	r0, [r2, #0]	@ unaligned
 1621 0c1c 5160     		str	r1, [r2, #4]	@ unaligned
 1622 0c1e 1B88     		ldrh	r3, [r3, #0]	@ unaligned
 1623 0c20 1381     		strh	r3, [r2, #8]	@ unaligned
 263:.\clu.c       **** 	sprintf(clu[18][3], "#PAUSE 1");			
 1624              		.loc 1 263 0
 1625 0c22 B84A     		ldr	r2, .L11+20
ARM GAS  C:\Users\gravi\AppData\Local\Temp\cczW92Yj.s 			page 39


 1626 0c24 40F20003 		movw	r3, #:lower16:.LC25
 1627 0c28 C0F20003 		movt	r3, #:upper16:.LC25
 1628 0c2c 03CB     		ldmia	r3!, {r0, r1}
 1629 0c2e 1060     		str	r0, [r2, #0]	@ unaligned
 1630 0c30 5160     		str	r1, [r2, #4]	@ unaligned
 1631 0c32 1B78     		ldrb	r3, [r3, #0]
 1632 0c34 1372     		strb	r3, [r2, #8]
 264:.\clu.c       **** 	sprintf(clu[18][4], "#CAMERAOFF");	
 1633              		.loc 1 264 0
 1634 0c36 B44A     		ldr	r2, .L11+24
 1635 0c38 40F20003 		movw	r3, #:lower16:.LC4
 1636 0c3c C0F20003 		movt	r3, #:upper16:.LC4
 1637 0c40 03CB     		ldmia	r3!, {r0, r1}
 1638 0c42 1060     		str	r0, [r2, #0]	@ unaligned
 1639 0c44 5160     		str	r1, [r2, #4]	@ unaligned
 1640 0c46 1988     		ldrh	r1, [r3, #0]	@ unaligned
 1641 0c48 9B78     		ldrb	r3, [r3, #2]
 1642 0c4a 1181     		strh	r1, [r2, #8]	@ unaligned
 1643 0c4c 9372     		strb	r3, [r2, #10]
 265:.\clu.c       **** 	sprintf(clu[18][5], "#CLUEND");	
 1644              		.loc 1 265 0
 1645 0c4e AF4A     		ldr	r2, .L11+28
 1646 0c50 40F20003 		movw	r3, #:lower16:.LC5
 1647 0c54 C0F20003 		movt	r3, #:upper16:.LC5
 1648 0c58 03CB     		ldmia	r3!, {r0, r1}
 1649 0c5a 1060     		str	r0, [r2, #0]	@ unaligned
 1650 0c5c 5160     		str	r1, [r2, #4]	@ unaligned
 266:.\clu.c       **** 
 267:.\clu.c       **** 	
 268:.\clu.c       **** 	/*----------------------------------------------*/
 269:.\clu.c       **** 	/* CLU 19 INIT									*/
 270:.\clu.c       **** 	/* SM_MOVING_TO_WHEEL (STANLEY STYLE)			*/
 271:.\clu.c       **** 	/*                 "########################\0" */
 272:.\clu.c       **** 	/*----------------------------------------------*/	
 273:.\clu.c       **** 	sprintf(clu[19][0], "#CAMERAON");		
 1651              		.loc 1 273 0
 1652 0c5e AC4A     		ldr	r2, .L11+32
 1653 0c60 40F20003 		movw	r3, #:lower16:.LC0
 1654 0c64 C0F20003 		movt	r3, #:upper16:.LC0
 1655 0c68 03CB     		ldmia	r3!, {r0, r1}
 1656 0c6a 1060     		str	r0, [r2, #0]	@ unaligned
 1657 0c6c 5160     		str	r1, [r2, #4]	@ unaligned
 1658 0c6e 1B88     		ldrh	r3, [r3, #0]	@ unaligned
 1659 0c70 1381     		strh	r3, [r2, #8]	@ unaligned
 274:.\clu.c       **** 	sprintf(clu[19][1], "#PTRAP +360 0.2 4");	
 1660              		.loc 1 274 0
 1661 0c72 A84A     		ldr	r2, .L11+36
 1662 0c74 40F20003 		movw	r3, #:lower16:.LC41
 1663 0c78 C0F20003 		movt	r3, #:upper16:.LC41
 1664 0c7c 1546     		mov	r5, r2
 1665 0c7e 1C46     		mov	r4, r3
 1666 0c80 0FCC     		ldmia	r4!, {r0, r1, r2, r3}
 1667 0c82 2860     		str	r0, [r5, #0]	@ unaligned
 1668 0c84 6960     		str	r1, [r5, #4]	@ unaligned
 1669 0c86 AA60     		str	r2, [r5, #8]	@ unaligned
 1670 0c88 EB60     		str	r3, [r5, #12]	@ unaligned
 1671 0c8a 2388     		ldrh	r3, [r4, #0]	@ unaligned
ARM GAS  C:\Users\gravi\AppData\Local\Temp\cczW92Yj.s 			page 40


 1672 0c8c 2B82     		strh	r3, [r5, #16]	@ unaligned
 275:.\clu.c       **** 	sprintf(clu[19][2], "#PATHEXEC");
 1673              		.loc 1 275 0
 1674 0c8e A24A     		ldr	r2, .L11+40
 1675 0c90 40F20003 		movw	r3, #:lower16:.LC3
 1676 0c94 C0F20003 		movt	r3, #:upper16:.LC3
 1677 0c98 03CB     		ldmia	r3!, {r0, r1}
 1678 0c9a 1060     		str	r0, [r2, #0]	@ unaligned
 1679 0c9c 5160     		str	r1, [r2, #4]	@ unaligned
 1680 0c9e 1B88     		ldrh	r3, [r3, #0]	@ unaligned
 1681 0ca0 1381     		strh	r3, [r2, #8]	@ unaligned
 276:.\clu.c       **** 	sprintf(clu[19][3], "#TTRAP -45 0.2 2");	
 1682              		.loc 1 276 0
 1683 0ca2 9E4A     		ldr	r2, .L11+44
 1684 0ca4 40F20003 		movw	r3, #:lower16:.LC42
 1685 0ca8 C0F20003 		movt	r3, #:upper16:.LC42
 1686 0cac 1546     		mov	r5, r2
 1687 0cae 1C46     		mov	r4, r3
 1688 0cb0 0FCC     		ldmia	r4!, {r0, r1, r2, r3}
 1689 0cb2 2860     		str	r0, [r5, #0]	@ unaligned
 1690 0cb4 6960     		str	r1, [r5, #4]	@ unaligned
 1691 0cb6 AA60     		str	r2, [r5, #8]	@ unaligned
 1692 0cb8 EB60     		str	r3, [r5, #12]	@ unaligned
 1693 0cba 2378     		ldrb	r3, [r4, #0]
 1694 0cbc 2B74     		strb	r3, [r5, #16]
 277:.\clu.c       **** 	sprintf(clu[19][4], "#PATHEXEC");			
 1695              		.loc 1 277 0
 1696 0cbe 984A     		ldr	r2, .L11+48
 1697 0cc0 40F20003 		movw	r3, #:lower16:.LC3
 1698 0cc4 C0F20003 		movt	r3, #:upper16:.LC3
 1699 0cc8 03CB     		ldmia	r3!, {r0, r1}
 1700 0cca 1060     		str	r0, [r2, #0]	@ unaligned
 1701 0ccc 5160     		str	r1, [r2, #4]	@ unaligned
 1702 0cce 1B88     		ldrh	r3, [r3, #0]	@ unaligned
 1703 0cd0 1381     		strh	r3, [r2, #8]	@ unaligned
 278:.\clu.c       **** 	sprintf(clu[19][5], "#CAMERAOFF");	
 1704              		.loc 1 278 0
 1705 0cd2 944A     		ldr	r2, .L11+52
 1706 0cd4 40F20003 		movw	r3, #:lower16:.LC4
 1707 0cd8 C0F20003 		movt	r3, #:upper16:.LC4
 1708 0cdc 03CB     		ldmia	r3!, {r0, r1}
 1709 0cde 1060     		str	r0, [r2, #0]	@ unaligned
 1710 0ce0 5160     		str	r1, [r2, #4]	@ unaligned
 1711 0ce2 1988     		ldrh	r1, [r3, #0]	@ unaligned
 1712 0ce4 9B78     		ldrb	r3, [r3, #2]
 1713 0ce6 1181     		strh	r1, [r2, #8]	@ unaligned
 1714 0ce8 9372     		strb	r3, [r2, #10]
 279:.\clu.c       **** 	sprintf(clu[19][6], "#CLUEND");	
 1715              		.loc 1 279 0
 1716 0cea 8F4A     		ldr	r2, .L11+56
 1717 0cec 40F20003 		movw	r3, #:lower16:.LC5
 1718 0cf0 C0F20003 		movt	r3, #:upper16:.LC5
 1719 0cf4 03CB     		ldmia	r3!, {r0, r1}
 1720 0cf6 1060     		str	r0, [r2, #0]	@ unaligned
 1721 0cf8 5160     		str	r1, [r2, #4]	@ unaligned
 280:.\clu.c       **** 	
 281:.\clu.c       **** 	
ARM GAS  C:\Users\gravi\AppData\Local\Temp\cczW92Yj.s 			page 41


 282:.\clu.c       **** 	/*----------------------------------------------*/
 283:.\clu.c       **** 	/* CLU 20 INIT									*/
 284:.\clu.c       **** 	/* SM_MOVING_TO_WHEEL (JJ STYLE)				*/
 285:.\clu.c       **** 	/*                 "########################\0" */
 286:.\clu.c       **** 	/*----------------------------------------------*/	
 287:.\clu.c       **** 	sprintf(clu[20][0], "#CAMERAON");	
 1722              		.loc 1 287 0
 1723 0cfa 8C4A     		ldr	r2, .L11+60
 1724 0cfc 40F20003 		movw	r3, #:lower16:.LC0
 1725 0d00 C0F20003 		movt	r3, #:upper16:.LC0
 1726 0d04 03CB     		ldmia	r3!, {r0, r1}
 1727 0d06 1060     		str	r0, [r2, #0]	@ unaligned
 1728 0d08 5160     		str	r1, [r2, #4]	@ unaligned
 1729 0d0a 1B88     		ldrh	r3, [r3, #0]	@ unaligned
 1730 0d0c 1381     		strh	r3, [r2, #8]	@ unaligned
 288:.\clu.c       **** 	sprintf(clu[20][1], "#PTRAP -90 0.2 1.0");	
 1731              		.loc 1 288 0
 1732 0d0e 884A     		ldr	r2, .L11+64
 1733 0d10 40F20003 		movw	r3, #:lower16:.LC43
 1734 0d14 C0F20003 		movt	r3, #:upper16:.LC43
 1735 0d18 1546     		mov	r5, r2
 1736 0d1a 1C46     		mov	r4, r3
 1737 0d1c 0FCC     		ldmia	r4!, {r0, r1, r2, r3}
 1738 0d1e 2860     		str	r0, [r5, #0]	@ unaligned
 1739 0d20 6960     		str	r1, [r5, #4]	@ unaligned
 1740 0d22 AA60     		str	r2, [r5, #8]	@ unaligned
 1741 0d24 EB60     		str	r3, [r5, #12]	@ unaligned
 1742 0d26 2288     		ldrh	r2, [r4, #0]	@ unaligned
 1743 0d28 A378     		ldrb	r3, [r4, #2]
 1744 0d2a 2A82     		strh	r2, [r5, #16]	@ unaligned
 1745 0d2c AB74     		strb	r3, [r5, #18]
 289:.\clu.c       **** 	sprintf(clu[20][2], "#TTRAP -25 0.2 1.0");
 1746              		.loc 1 289 0
 1747 0d2e 814A     		ldr	r2, .L11+68
 1748 0d30 40F20003 		movw	r3, #:lower16:.LC44
 1749 0d34 C0F20003 		movt	r3, #:upper16:.LC44
 1750 0d38 1546     		mov	r5, r2
 1751 0d3a 1C46     		mov	r4, r3
 1752 0d3c 0FCC     		ldmia	r4!, {r0, r1, r2, r3}
 1753 0d3e 2860     		str	r0, [r5, #0]	@ unaligned
 1754 0d40 6960     		str	r1, [r5, #4]	@ unaligned
 1755 0d42 AA60     		str	r2, [r5, #8]	@ unaligned
 1756 0d44 EB60     		str	r3, [r5, #12]	@ unaligned
 1757 0d46 2288     		ldrh	r2, [r4, #0]	@ unaligned
 1758 0d48 A378     		ldrb	r3, [r4, #2]
 1759 0d4a 2A82     		strh	r2, [r5, #16]	@ unaligned
 1760 0d4c AB74     		strb	r3, [r5, #18]
 290:.\clu.c       **** 	sprintf(clu[20][3], "#PATHEXEC");
 1761              		.loc 1 290 0
 1762 0d4e 7A4A     		ldr	r2, .L11+72
 1763 0d50 40F20003 		movw	r3, #:lower16:.LC3
 1764 0d54 C0F20003 		movt	r3, #:upper16:.LC3
 1765 0d58 03CB     		ldmia	r3!, {r0, r1}
 1766 0d5a 1060     		str	r0, [r2, #0]	@ unaligned
 1767 0d5c 5160     		str	r1, [r2, #4]	@ unaligned
 1768 0d5e 1B88     		ldrh	r3, [r3, #0]	@ unaligned
 1769 0d60 1381     		strh	r3, [r2, #8]	@ unaligned
ARM GAS  C:\Users\gravi\AppData\Local\Temp\cczW92Yj.s 			page 42


 291:.\clu.c       **** 	sprintf(clu[20][4], "#PTRAP +180 0.2 2");	
 1770              		.loc 1 291 0
 1771 0d62 764A     		ldr	r2, .L11+76
 1772 0d64 40F20003 		movw	r3, #:lower16:.LC45
 1773 0d68 C0F20003 		movt	r3, #:upper16:.LC45
 1774 0d6c 1546     		mov	r5, r2
 1775 0d6e 1C46     		mov	r4, r3
 1776 0d70 0FCC     		ldmia	r4!, {r0, r1, r2, r3}
 1777 0d72 2860     		str	r0, [r5, #0]	@ unaligned
 1778 0d74 6960     		str	r1, [r5, #4]	@ unaligned
 1779 0d76 AA60     		str	r2, [r5, #8]	@ unaligned
 1780 0d78 EB60     		str	r3, [r5, #12]	@ unaligned
 1781 0d7a 2388     		ldrh	r3, [r4, #0]	@ unaligned
 1782 0d7c 2B82     		strh	r3, [r5, #16]	@ unaligned
 292:.\clu.c       **** 	sprintf(clu[20][5], "#PATHEXEC");	
 1783              		.loc 1 292 0
 1784 0d7e 704A     		ldr	r2, .L11+80
 1785 0d80 40F20003 		movw	r3, #:lower16:.LC3
 1786 0d84 C0F20003 		movt	r3, #:upper16:.LC3
 1787 0d88 03CB     		ldmia	r3!, {r0, r1}
 1788 0d8a 1060     		str	r0, [r2, #0]	@ unaligned
 1789 0d8c 5160     		str	r1, [r2, #4]	@ unaligned
 1790 0d8e 1B88     		ldrh	r3, [r3, #0]	@ unaligned
 1791 0d90 1381     		strh	r3, [r2, #8]	@ unaligned
 293:.\clu.c       **** 	sprintf(clu[20][6], "#PTRAP -90 0.2 1");	
 1792              		.loc 1 293 0
 1793 0d92 6C4A     		ldr	r2, .L11+84
 1794 0d94 40F20003 		movw	r3, #:lower16:.LC46
 1795 0d98 C0F20003 		movt	r3, #:upper16:.LC46
 1796 0d9c 1546     		mov	r5, r2
 1797 0d9e 1C46     		mov	r4, r3
 1798 0da0 0FCC     		ldmia	r4!, {r0, r1, r2, r3}
 1799 0da2 2860     		str	r0, [r5, #0]	@ unaligned
 1800 0da4 6960     		str	r1, [r5, #4]	@ unaligned
 1801 0da6 AA60     		str	r2, [r5, #8]	@ unaligned
 1802 0da8 EB60     		str	r3, [r5, #12]	@ unaligned
 1803 0daa 2378     		ldrb	r3, [r4, #0]
 1804 0dac 2B74     		strb	r3, [r5, #16]
 294:.\clu.c       **** 	sprintf(clu[20][7], "#TTRAP -20 0.2 1");
 1805              		.loc 1 294 0
 1806 0dae 664A     		ldr	r2, .L11+88
 1807 0db0 40F20003 		movw	r3, #:lower16:.LC47
 1808 0db4 C0F20003 		movt	r3, #:upper16:.LC47
 1809 0db8 1546     		mov	r5, r2
 1810 0dba 1C46     		mov	r4, r3
 1811 0dbc 0FCC     		ldmia	r4!, {r0, r1, r2, r3}
 1812 0dbe 2860     		str	r0, [r5, #0]	@ unaligned
 1813 0dc0 6960     		str	r1, [r5, #4]	@ unaligned
 1814 0dc2 AA60     		str	r2, [r5, #8]	@ unaligned
 1815 0dc4 EB60     		str	r3, [r5, #12]	@ unaligned
 1816 0dc6 2378     		ldrb	r3, [r4, #0]
 1817 0dc8 2B74     		strb	r3, [r5, #16]
 295:.\clu.c       **** 	sprintf(clu[20][8], "#PATHEXEC");	
 1818              		.loc 1 295 0
 1819 0dca 604A     		ldr	r2, .L11+92
 1820 0dcc 40F20003 		movw	r3, #:lower16:.LC3
 1821 0dd0 C0F20003 		movt	r3, #:upper16:.LC3
ARM GAS  C:\Users\gravi\AppData\Local\Temp\cczW92Yj.s 			page 43


 1822 0dd4 03CB     		ldmia	r3!, {r0, r1}
 1823 0dd6 1060     		str	r0, [r2, #0]	@ unaligned
 1824 0dd8 5160     		str	r1, [r2, #4]	@ unaligned
 1825 0dda 1B88     		ldrh	r3, [r3, #0]	@ unaligned
 1826 0ddc 1381     		strh	r3, [r2, #8]	@ unaligned
 296:.\clu.c       **** 	sprintf(clu[20][9], "#CAMERAOFF");	
 1827              		.loc 1 296 0
 1828 0dde 5C4A     		ldr	r2, .L11+96
 1829 0de0 40F20003 		movw	r3, #:lower16:.LC4
 1830 0de4 C0F20003 		movt	r3, #:upper16:.LC4
 1831 0de8 03CB     		ldmia	r3!, {r0, r1}
 1832 0dea 1060     		str	r0, [r2, #0]	@ unaligned
 1833 0dec 5160     		str	r1, [r2, #4]	@ unaligned
 1834 0dee 1988     		ldrh	r1, [r3, #0]	@ unaligned
 1835 0df0 9B78     		ldrb	r3, [r3, #2]
 1836 0df2 1181     		strh	r1, [r2, #8]	@ unaligned
 1837 0df4 9372     		strb	r3, [r2, #10]
 297:.\clu.c       **** 	sprintf(clu[20][10], "#CLUEND");		
 1838              		.loc 1 297 0
 1839 0df6 574A     		ldr	r2, .L11+100
 1840 0df8 40F20003 		movw	r3, #:lower16:.LC5
 1841 0dfc C0F20003 		movt	r3, #:upper16:.LC5
 1842 0e00 03CB     		ldmia	r3!, {r0, r1}
 1843 0e02 1060     		str	r0, [r2, #0]	@ unaligned
 1844 0e04 5160     		str	r1, [r2, #4]	@ unaligned
 298:.\clu.c       **** 
 299:.\clu.c       **** 	
 300:.\clu.c       **** 	/*----------------------------------------------*/
 301:.\clu.c       **** 	/* CLU 30 INIT									*/
 302:.\clu.c       **** 	/* GOTO FACE (Q11)								*/
 303:.\clu.c       **** 	/*                 "########################\0" */
 304:.\clu.c       **** 	/*----------------------------------------------*/	
 305:.\clu.c       **** 	sprintf(clu[30][0], "#CAMERAON");	
 1845              		.loc 1 305 0
 1846 0e06 544A     		ldr	r2, .L11+104
 1847 0e08 40F20003 		movw	r3, #:lower16:.LC0
 1848 0e0c C0F20003 		movt	r3, #:upper16:.LC0
 1849 0e10 03CB     		ldmia	r3!, {r0, r1}
 1850 0e12 1060     		str	r0, [r2, #0]	@ unaligned
 1851 0e14 5160     		str	r1, [r2, #4]	@ unaligned
 1852 0e16 1B88     		ldrh	r3, [r3, #0]	@ unaligned
 1853 0e18 1381     		strh	r3, [r2, #8]	@ unaligned
 306:.\clu.c       **** 	sprintf(clu[30][1], "#PTQ 11 0.3 3");	
 1854              		.loc 1 306 0
 1855 0e1a 504A     		ldr	r2, .L11+108
 1856 0e1c 40F20003 		movw	r3, #:lower16:.LC48
 1857 0e20 C0F20003 		movt	r3, #:upper16:.LC48
 1858 0e24 1446     		mov	r4, r2
 1859 0e26 07CB     		ldmia	r3!, {r0, r1, r2}
 1860 0e28 2060     		str	r0, [r4, #0]	@ unaligned
 1861 0e2a 6160     		str	r1, [r4, #4]	@ unaligned
 1862 0e2c A260     		str	r2, [r4, #8]	@ unaligned
 1863 0e2e 1B88     		ldrh	r3, [r3, #0]	@ unaligned
 1864 0e30 A381     		strh	r3, [r4, #12]	@ unaligned
 307:.\clu.c       **** 	sprintf(clu[30][2], "#PATHEXEC");
 1865              		.loc 1 307 0
 1866 0e32 4B4A     		ldr	r2, .L11+112
ARM GAS  C:\Users\gravi\AppData\Local\Temp\cczW92Yj.s 			page 44


 1867 0e34 40F20003 		movw	r3, #:lower16:.LC3
 1868 0e38 C0F20003 		movt	r3, #:upper16:.LC3
 1869 0e3c 03CB     		ldmia	r3!, {r0, r1}
 1870 0e3e 1060     		str	r0, [r2, #0]	@ unaligned
 1871 0e40 5160     		str	r1, [r2, #4]	@ unaligned
 1872 0e42 1B88     		ldrh	r3, [r3, #0]	@ unaligned
 1873 0e44 1381     		strh	r3, [r2, #8]	@ unaligned
 308:.\clu.c       **** 	sprintf(clu[30][3], "#CAMERAOFF");	
 1874              		.loc 1 308 0
 1875 0e46 474A     		ldr	r2, .L11+116
 1876 0e48 40F20003 		movw	r3, #:lower16:.LC4
 1877 0e4c C0F20003 		movt	r3, #:upper16:.LC4
 1878 0e50 03CB     		ldmia	r3!, {r0, r1}
 1879 0e52 1060     		str	r0, [r2, #0]	@ unaligned
 1880 0e54 5160     		str	r1, [r2, #4]	@ unaligned
 1881 0e56 1988     		ldrh	r1, [r3, #0]	@ unaligned
 1882 0e58 9B78     		ldrb	r3, [r3, #2]
 1883 0e5a 1181     		strh	r1, [r2, #8]	@ unaligned
 1884 0e5c 9372     		strb	r3, [r2, #10]
 309:.\clu.c       **** 	sprintf(clu[30][4], "#CLUEND");
 1885              		.loc 1 309 0
 1886 0e5e 424A     		ldr	r2, .L11+120
 1887 0e60 40F20003 		movw	r3, #:lower16:.LC5
 1888 0e64 C0F20003 		movt	r3, #:upper16:.LC5
 1889 0e68 03CB     		ldmia	r3!, {r0, r1}
 1890 0e6a 1060     		str	r0, [r2, #0]	@ unaligned
 1891 0e6c 5160     		str	r1, [r2, #4]	@ unaligned
 310:.\clu.c       **** 	
 311:.\clu.c       **** 	
 312:.\clu.c       **** 	/*----------------------------------------------*/
 313:.\clu.c       **** 	/* CLU 31 INIT									*/
 314:.\clu.c       **** 	/* SEQ FACE(Q11) -> WHEEL(Q21) -> HAND SX(Q15)	*/
 315:.\clu.c       **** 	/*                 "########################\0" */
 316:.\clu.c       **** 	/*----------------------------------------------*/	
 317:.\clu.c       **** 	sprintf(clu[31][0],  "#CAMERAON");	
 1892              		.loc 1 317 0
 1893 0e6e 3F4A     		ldr	r2, .L11+124
 1894 0e70 40F20003 		movw	r3, #:lower16:.LC0
 1895 0e74 C0F20003 		movt	r3, #:upper16:.LC0
 1896 0e78 03CB     		ldmia	r3!, {r0, r1}
 1897 0e7a 1060     		str	r0, [r2, #0]	@ unaligned
 1898 0e7c 5160     		str	r1, [r2, #4]	@ unaligned
 1899 0e7e 1B88     		ldrh	r3, [r3, #0]	@ unaligned
 1900 0e80 1381     		strh	r3, [r2, #8]	@ unaligned
 318:.\clu.c       **** 	sprintf(clu[31][1],  "#PTQ 11 0.3 1.5");	//FACE in 3 sec	
 1901              		.loc 1 318 0
 1902 0e82 3B4A     		ldr	r2, .L11+128
 1903 0e84 40F20003 		movw	r3, #:lower16:.LC49
 1904 0e88 C0F20003 		movt	r3, #:upper16:.LC49
 1905 0e8c 1446     		mov	r4, r2
 1906 0e8e 1D46     		mov	r5, r3
 1907 0e90 0FCD     		ldmia	r5!, {r0, r1, r2, r3}
 1908 0e92 2060     		str	r0, [r4, #0]	@ unaligned
 1909 0e94 6160     		str	r1, [r4, #4]	@ unaligned
 1910 0e96 A260     		str	r2, [r4, #8]	@ unaligned
 1911 0e98 E360     		str	r3, [r4, #12]	@ unaligned
 319:.\clu.c       **** 	sprintf(clu[31][2],  "#PATHEXEC");
ARM GAS  C:\Users\gravi\AppData\Local\Temp\cczW92Yj.s 			page 45


 1912              		.loc 1 319 0
 1913 0e9a 364A     		ldr	r2, .L11+132
 1914 0e9c 40F20003 		movw	r3, #:lower16:.LC3
 1915 0ea0 C0F20003 		movt	r3, #:upper16:.LC3
 1916 0ea4 03CB     		ldmia	r3!, {r0, r1}
 1917 0ea6 1060     		str	r0, [r2, #0]	@ unaligned
 1918 0ea8 5160     		str	r1, [r2, #4]	@ unaligned
 1919 0eaa 1B88     		ldrh	r3, [r3, #0]	@ unaligned
 1920 0eac 1381     		strh	r3, [r2, #8]	@ unaligned
 320:.\clu.c       **** 	sprintf(clu[31][3],  "#PAUSE 5");
 1921              		.loc 1 320 0
 1922 0eae 324A     		ldr	r2, .L11+136
 1923 0eb0 40F20003 		movw	r3, #:lower16:.LC10
 1924 0eb4 C0F20003 		movt	r3, #:upper16:.LC10
 1925 0eb8 03CB     		ldmia	r3!, {r0, r1}
 1926 0eba 1060     		str	r0, [r2, #0]	@ unaligned
 1927 0ebc 5160     		str	r1, [r2, #4]	@ unaligned
 1928 0ebe 1B78     		ldrb	r3, [r3, #0]
 1929 0ec0 1372     		strb	r3, [r2, #8]
 321:.\clu.c       **** 	sprintf(clu[31][4],  "#PTQ 21 0.3 6");		//WHEEL	in 6 sec
 1930              		.loc 1 321 0
 1931 0ec2 2E4A     		ldr	r2, .L11+140
 1932 0ec4 40F20003 		movw	r3, #:lower16:.LC50
 1933 0ec8 C0F20003 		movt	r3, #:upper16:.LC50
 1934 0ecc 1446     		mov	r4, r2
 1935 0ece 07CB     		ldmia	r3!, {r0, r1, r2}
 1936 0ed0 2060     		str	r0, [r4, #0]	@ unaligned
 1937 0ed2 6160     		str	r1, [r4, #4]	@ unaligned
 1938 0ed4 A260     		str	r2, [r4, #8]	@ unaligned
 1939 0ed6 1B88     		ldrh	r3, [r3, #0]	@ unaligned
 1940 0ed8 A381     		strh	r3, [r4, #12]	@ unaligned
 322:.\clu.c       **** 	sprintf(clu[31][5],  "#PATHEXEC");
 1941              		.loc 1 322 0
 1942 0eda 294A     		ldr	r2, .L11+144
 1943 0edc 40F20003 		movw	r3, #:lower16:.LC3
 1944 0ee0 C0F20003 		movt	r3, #:upper16:.LC3
 1945 0ee4 03CB     		ldmia	r3!, {r0, r1}
 1946 0ee6 1060     		str	r0, [r2, #0]	@ unaligned
 1947 0ee8 5160     		str	r1, [r2, #4]	@ unaligned
 1948 0eea 1B88     		ldrh	r3, [r3, #0]	@ unaligned
 1949 0eec 1381     		strh	r3, [r2, #8]	@ unaligned
 1950 0eee 49E0     		b	.L12
 1951              	.L13:
 1952              		.align	2
 1953              	.L11:
 1954 0ef0 D7230000 		.word	clu+9175
 1955 0ef4 F0230000 		.word	clu+9200
 1956 0ef8 EA240000 		.word	clu+9450
 1957 0efc 03250000 		.word	clu+9475
 1958 0f00 1C250000 		.word	clu+9500
 1959 0f04 35250000 		.word	clu+9525
 1960 0f08 4E250000 		.word	clu+9550
 1961 0f0c 67250000 		.word	clu+9575
 1962 0f10 F7260000 		.word	clu+9975
 1963 0f14 10270000 		.word	clu+10000
 1964 0f18 29270000 		.word	clu+10025
 1965 0f1c 42270000 		.word	clu+10050
ARM GAS  C:\Users\gravi\AppData\Local\Temp\cczW92Yj.s 			page 46


 1966 0f20 5B270000 		.word	clu+10075
 1967 0f24 74270000 		.word	clu+10100
 1968 0f28 8D270000 		.word	clu+10125
 1969 0f2c 04290000 		.word	clu+10500
 1970 0f30 1D290000 		.word	clu+10525
 1971 0f34 36290000 		.word	clu+10550
 1972 0f38 4F290000 		.word	clu+10575
 1973 0f3c 68290000 		.word	clu+10600
 1974 0f40 81290000 		.word	clu+10625
 1975 0f44 9A290000 		.word	clu+10650
 1976 0f48 B3290000 		.word	clu+10675
 1977 0f4c CC290000 		.word	clu+10700
 1978 0f50 E5290000 		.word	clu+10725
 1979 0f54 FE290000 		.word	clu+10750
 1980 0f58 863D0000 		.word	clu+15750
 1981 0f5c 9F3D0000 		.word	clu+15775
 1982 0f60 B83D0000 		.word	clu+15800
 1983 0f64 D13D0000 		.word	clu+15825
 1984 0f68 EA3D0000 		.word	clu+15850
 1985 0f6c 933F0000 		.word	clu+16275
 1986 0f70 AC3F0000 		.word	clu+16300
 1987 0f74 C53F0000 		.word	clu+16325
 1988 0f78 DE3F0000 		.word	clu+16350
 1989 0f7c F73F0000 		.word	clu+16375
 1990 0f80 10400000 		.word	clu+16400
 1991              	.L12:
 323:.\clu.c       **** 	sprintf(clu[31][6],  "#PAUSE 0.5");
 1992              		.loc 1 323 0
 1993 0f84 D04A     		ldr	r2, .L14
 1994 0f86 40F20003 		movw	r3, #:lower16:.LC51
 1995 0f8a C0F20003 		movt	r3, #:upper16:.LC51
 1996 0f8e 03CB     		ldmia	r3!, {r0, r1}
 1997 0f90 1060     		str	r0, [r2, #0]	@ unaligned
 1998 0f92 5160     		str	r1, [r2, #4]	@ unaligned
 1999 0f94 1988     		ldrh	r1, [r3, #0]	@ unaligned
 2000 0f96 9B78     		ldrb	r3, [r3, #2]
 2001 0f98 1181     		strh	r1, [r2, #8]	@ unaligned
 2002 0f9a 9372     		strb	r3, [r2, #10]
 324:.\clu.c       **** 	sprintf(clu[31][7],  "#PTQ 15 0.3 3");		//HAND SX in 3 sec	
 2003              		.loc 1 324 0
 2004 0f9c CB4A     		ldr	r2, .L14+4
 2005 0f9e 40F20003 		movw	r3, #:lower16:.LC52
 2006 0fa2 C0F20003 		movt	r3, #:upper16:.LC52
 2007 0fa6 1446     		mov	r4, r2
 2008 0fa8 07CB     		ldmia	r3!, {r0, r1, r2}
 2009 0faa 2060     		str	r0, [r4, #0]	@ unaligned
 2010 0fac 6160     		str	r1, [r4, #4]	@ unaligned
 2011 0fae A260     		str	r2, [r4, #8]	@ unaligned
 2012 0fb0 1B88     		ldrh	r3, [r3, #0]	@ unaligned
 2013 0fb2 A381     		strh	r3, [r4, #12]	@ unaligned
 325:.\clu.c       **** 	sprintf(clu[31][8],  "#PATHEXEC");	
 2014              		.loc 1 325 0
 2015 0fb4 C64A     		ldr	r2, .L14+8
 2016 0fb6 40F20003 		movw	r3, #:lower16:.LC3
 2017 0fba C0F20003 		movt	r3, #:upper16:.LC3
 2018 0fbe 03CB     		ldmia	r3!, {r0, r1}
 2019 0fc0 1060     		str	r0, [r2, #0]	@ unaligned
ARM GAS  C:\Users\gravi\AppData\Local\Temp\cczW92Yj.s 			page 47


 2020 0fc2 5160     		str	r1, [r2, #4]	@ unaligned
 2021 0fc4 1B88     		ldrh	r3, [r3, #0]	@ unaligned
 2022 0fc6 1381     		strh	r3, [r2, #8]	@ unaligned
 326:.\clu.c       **** 	sprintf(clu[31][9],  "#CAMERAOFF");	
 2023              		.loc 1 326 0
 2024 0fc8 C24A     		ldr	r2, .L14+12
 2025 0fca 40F20003 		movw	r3, #:lower16:.LC4
 2026 0fce C0F20003 		movt	r3, #:upper16:.LC4
 2027 0fd2 03CB     		ldmia	r3!, {r0, r1}
 2028 0fd4 1060     		str	r0, [r2, #0]	@ unaligned
 2029 0fd6 5160     		str	r1, [r2, #4]	@ unaligned
 2030 0fd8 1988     		ldrh	r1, [r3, #0]	@ unaligned
 2031 0fda 9B78     		ldrb	r3, [r3, #2]
 2032 0fdc 1181     		strh	r1, [r2, #8]	@ unaligned
 2033 0fde 9372     		strb	r3, [r2, #10]
 327:.\clu.c       **** 	sprintf(clu[31][10], "#CLUEND");
 2034              		.loc 1 327 0
 2035 0fe0 BD4A     		ldr	r2, .L14+16
 2036 0fe2 40F20003 		movw	r3, #:lower16:.LC5
 2037 0fe6 C0F20003 		movt	r3, #:upper16:.LC5
 2038 0fea 03CB     		ldmia	r3!, {r0, r1}
 2039 0fec 1060     		str	r0, [r2, #0]	@ unaligned
 2040 0fee 5160     		str	r1, [r2, #4]	@ unaligned
 328:.\clu.c       **** 	
 329:.\clu.c       **** 	
 330:.\clu.c       **** 	/*------------------------------------------------------------------------------------------*/
 331:.\clu.c       **** 	/* CLU 32 INIT																				*/
 332:.\clu.c       **** 	/* SEQ PANORAMA DX REAR (Q43) -> PANORAMA FRONT (Q40) -> (Q40+120PAN) --> (Q40-120PAN)	*/
 333:.\clu.c       **** 	/*                 "########################\0" 											*/
 334:.\clu.c       **** 	/*------------------------------------------------------------------------------------------*/	
 335:.\clu.c       **** 	sprintf(clu[32][0],  "#CAMERAON");	
 2041              		.loc 1 335 0
 2042 0ff0 BA4A     		ldr	r2, .L14+20
 2043 0ff2 40F20003 		movw	r3, #:lower16:.LC0
 2044 0ff6 C0F20003 		movt	r3, #:upper16:.LC0
 2045 0ffa 03CB     		ldmia	r3!, {r0, r1}
 2046 0ffc 1060     		str	r0, [r2, #0]	@ unaligned
 2047 0ffe 5160     		str	r1, [r2, #4]	@ unaligned
 2048 1000 1B88     		ldrh	r3, [r3, #0]	@ unaligned
 2049 1002 1381     		strh	r3, [r2, #8]	@ unaligned
 336:.\clu.c       **** 	sprintf(clu[32][1],  "#PTQ 43 0.3 1.5");
 2050              		.loc 1 336 0
 2051 1004 B64A     		ldr	r2, .L14+24
 2052 1006 40F20003 		movw	r3, #:lower16:.LC53
 2053 100a C0F20003 		movt	r3, #:upper16:.LC53
 2054 100e 1446     		mov	r4, r2
 2055 1010 1D46     		mov	r5, r3
 2056 1012 0FCD     		ldmia	r5!, {r0, r1, r2, r3}
 2057 1014 2060     		str	r0, [r4, #0]	@ unaligned
 2058 1016 6160     		str	r1, [r4, #4]	@ unaligned
 2059 1018 A260     		str	r2, [r4, #8]	@ unaligned
 2060 101a E360     		str	r3, [r4, #12]	@ unaligned
 337:.\clu.c       **** 	sprintf(clu[32][2],  "#PATHEXEC");
 2061              		.loc 1 337 0
 2062 101c B14A     		ldr	r2, .L14+28
 2063 101e 40F20003 		movw	r3, #:lower16:.LC3
 2064 1022 C0F20003 		movt	r3, #:upper16:.LC3
ARM GAS  C:\Users\gravi\AppData\Local\Temp\cczW92Yj.s 			page 48


 2065 1026 03CB     		ldmia	r3!, {r0, r1}
 2066 1028 1060     		str	r0, [r2, #0]	@ unaligned
 2067 102a 5160     		str	r1, [r2, #4]	@ unaligned
 2068 102c 1B88     		ldrh	r3, [r3, #0]	@ unaligned
 2069 102e 1381     		strh	r3, [r2, #8]	@ unaligned
 338:.\clu.c       **** 	sprintf(clu[32][3],  "#PAUSE 5");
 2070              		.loc 1 338 0
 2071 1030 AD4A     		ldr	r2, .L14+32
 2072 1032 40F20003 		movw	r3, #:lower16:.LC10
 2073 1036 C0F20003 		movt	r3, #:upper16:.LC10
 2074 103a 03CB     		ldmia	r3!, {r0, r1}
 2075 103c 1060     		str	r0, [r2, #0]	@ unaligned
 2076 103e 5160     		str	r1, [r2, #4]	@ unaligned
 2077 1040 1B78     		ldrb	r3, [r3, #0]
 2078 1042 1372     		strb	r3, [r2, #8]
 339:.\clu.c       **** 	sprintf(clu[32][4],  "#PTQ 40 0.3 12");
 2079              		.loc 1 339 0
 2080 1044 A94A     		ldr	r2, .L14+36
 2081 1046 40F20003 		movw	r3, #:lower16:.LC54
 2082 104a C0F20003 		movt	r3, #:upper16:.LC54
 2083 104e 1446     		mov	r4, r2
 2084 1050 07CB     		ldmia	r3!, {r0, r1, r2}
 2085 1052 2060     		str	r0, [r4, #0]	@ unaligned
 2086 1054 6160     		str	r1, [r4, #4]	@ unaligned
 2087 1056 A260     		str	r2, [r4, #8]	@ unaligned
 2088 1058 1A88     		ldrh	r2, [r3, #0]	@ unaligned
 2089 105a 9B78     		ldrb	r3, [r3, #2]
 2090 105c A281     		strh	r2, [r4, #12]	@ unaligned
 2091 105e A373     		strb	r3, [r4, #14]
 340:.\clu.c       **** 	sprintf(clu[32][5],  "#PATHEXEC");
 2092              		.loc 1 340 0
 2093 1060 A34A     		ldr	r2, .L14+40
 2094 1062 40F20003 		movw	r3, #:lower16:.LC3
 2095 1066 C0F20003 		movt	r3, #:upper16:.LC3
 2096 106a 03CB     		ldmia	r3!, {r0, r1}
 2097 106c 1060     		str	r0, [r2, #0]	@ unaligned
 2098 106e 5160     		str	r1, [r2, #4]	@ unaligned
 2099 1070 1B88     		ldrh	r3, [r3, #0]	@ unaligned
 2100 1072 1381     		strh	r3, [r2, #8]	@ unaligned
 341:.\clu.c       **** 	sprintf(clu[32][6],  "#PAUSE 0.1");
 2101              		.loc 1 341 0
 2102 1074 9F4A     		ldr	r2, .L14+44
 2103 1076 40F20003 		movw	r3, #:lower16:.LC21
 2104 107a C0F20003 		movt	r3, #:upper16:.LC21
 2105 107e 03CB     		ldmia	r3!, {r0, r1}
 2106 1080 1060     		str	r0, [r2, #0]	@ unaligned
 2107 1082 5160     		str	r1, [r2, #4]	@ unaligned
 2108 1084 1988     		ldrh	r1, [r3, #0]	@ unaligned
 2109 1086 9B78     		ldrb	r3, [r3, #2]
 2110 1088 1181     		strh	r1, [r2, #8]	@ unaligned
 2111 108a 9372     		strb	r3, [r2, #10]
 342:.\clu.c       **** 	sprintf(clu[32][7],  "#PTRAP 120 0.3 12");
 2112              		.loc 1 342 0
 2113 108c 9A4A     		ldr	r2, .L14+48
 2114 108e 40F20003 		movw	r3, #:lower16:.LC55
 2115 1092 C0F20003 		movt	r3, #:upper16:.LC55
 2116 1096 1546     		mov	r5, r2
ARM GAS  C:\Users\gravi\AppData\Local\Temp\cczW92Yj.s 			page 49


 2117 1098 1C46     		mov	r4, r3
 2118 109a 0FCC     		ldmia	r4!, {r0, r1, r2, r3}
 2119 109c 2860     		str	r0, [r5, #0]	@ unaligned
 2120 109e 6960     		str	r1, [r5, #4]	@ unaligned
 2121 10a0 AA60     		str	r2, [r5, #8]	@ unaligned
 2122 10a2 EB60     		str	r3, [r5, #12]	@ unaligned
 2123 10a4 2388     		ldrh	r3, [r4, #0]	@ unaligned
 2124 10a6 2B82     		strh	r3, [r5, #16]	@ unaligned
 343:.\clu.c       **** 	sprintf(clu[32][8],  "#PATHEXEC");
 2125              		.loc 1 343 0
 2126 10a8 944A     		ldr	r2, .L14+52
 2127 10aa 40F20003 		movw	r3, #:lower16:.LC3
 2128 10ae C0F20003 		movt	r3, #:upper16:.LC3
 2129 10b2 03CB     		ldmia	r3!, {r0, r1}
 2130 10b4 1060     		str	r0, [r2, #0]	@ unaligned
 2131 10b6 5160     		str	r1, [r2, #4]	@ unaligned
 2132 10b8 1B88     		ldrh	r3, [r3, #0]	@ unaligned
 2133 10ba 1381     		strh	r3, [r2, #8]	@ unaligned
 344:.\clu.c       **** 	sprintf(clu[32][9],  "#PAUSE 3");
 2134              		.loc 1 344 0
 2135 10bc 904A     		ldr	r2, .L14+56
 2136 10be 40F20003 		movw	r3, #:lower16:.LC23
 2137 10c2 C0F20003 		movt	r3, #:upper16:.LC23
 2138 10c6 03CB     		ldmia	r3!, {r0, r1}
 2139 10c8 1060     		str	r0, [r2, #0]	@ unaligned
 2140 10ca 5160     		str	r1, [r2, #4]	@ unaligned
 2141 10cc 1B78     		ldrb	r3, [r3, #0]
 2142 10ce 1372     		strb	r3, [r2, #8]
 345:.\clu.c       **** 	sprintf(clu[32][10], "#PTRAP -120 0.3 6");	
 2143              		.loc 1 345 0
 2144 10d0 8C4A     		ldr	r2, .L14+60
 2145 10d2 40F20003 		movw	r3, #:lower16:.LC56
 2146 10d6 C0F20003 		movt	r3, #:upper16:.LC56
 2147 10da 1546     		mov	r5, r2
 2148 10dc 1C46     		mov	r4, r3
 2149 10de 0FCC     		ldmia	r4!, {r0, r1, r2, r3}
 2150 10e0 2860     		str	r0, [r5, #0]	@ unaligned
 2151 10e2 6960     		str	r1, [r5, #4]	@ unaligned
 2152 10e4 AA60     		str	r2, [r5, #8]	@ unaligned
 2153 10e6 EB60     		str	r3, [r5, #12]	@ unaligned
 2154 10e8 2388     		ldrh	r3, [r4, #0]	@ unaligned
 2155 10ea 2B82     		strh	r3, [r5, #16]	@ unaligned
 346:.\clu.c       **** 	sprintf(clu[32][11], "#PATHEXEC");	
 2156              		.loc 1 346 0
 2157 10ec 864A     		ldr	r2, .L14+64
 2158 10ee 40F20003 		movw	r3, #:lower16:.LC3
 2159 10f2 C0F20003 		movt	r3, #:upper16:.LC3
 2160 10f6 03CB     		ldmia	r3!, {r0, r1}
 2161 10f8 1060     		str	r0, [r2, #0]	@ unaligned
 2162 10fa 5160     		str	r1, [r2, #4]	@ unaligned
 2163 10fc 1B88     		ldrh	r3, [r3, #0]	@ unaligned
 2164 10fe 1381     		strh	r3, [r2, #8]	@ unaligned
 347:.\clu.c       **** 	sprintf(clu[32][12], "#CAMERAOFF");	
 2165              		.loc 1 347 0
 2166 1100 824A     		ldr	r2, .L14+68
 2167 1102 40F20003 		movw	r3, #:lower16:.LC4
 2168 1106 C0F20003 		movt	r3, #:upper16:.LC4
ARM GAS  C:\Users\gravi\AppData\Local\Temp\cczW92Yj.s 			page 50


 2169 110a 03CB     		ldmia	r3!, {r0, r1}
 2170 110c 1060     		str	r0, [r2, #0]	@ unaligned
 2171 110e 5160     		str	r1, [r2, #4]	@ unaligned
 2172 1110 1988     		ldrh	r1, [r3, #0]	@ unaligned
 2173 1112 9B78     		ldrb	r3, [r3, #2]
 2174 1114 1181     		strh	r1, [r2, #8]	@ unaligned
 2175 1116 9372     		strb	r3, [r2, #10]
 348:.\clu.c       **** 	sprintf(clu[32][13], "#CLUEND");	
 2176              		.loc 1 348 0
 2177 1118 7D4A     		ldr	r2, .L14+72
 2178 111a 40F20003 		movw	r3, #:lower16:.LC5
 2179 111e C0F20003 		movt	r3, #:upper16:.LC5
 2180 1122 03CB     		ldmia	r3!, {r0, r1}
 2181 1124 1060     		str	r0, [r2, #0]	@ unaligned
 2182 1126 5160     		str	r1, [r2, #4]	@ unaligned
 349:.\clu.c       **** 	
 350:.\clu.c       **** 	
 351:.\clu.c       **** 	/*----------------------------------------------*/
 352:.\clu.c       **** 	/* CLU 33 INIT									*/
 353:.\clu.c       **** 	/* SEQ FACE(Q11) -> SKY(Q51)					*/
 354:.\clu.c       **** 	/*                 "########################\0" */
 355:.\clu.c       **** 	/*----------------------------------------------*/	
 356:.\clu.c       **** 	sprintf(clu[33][0],  "#CAMERAON");	
 2183              		.loc 1 356 0
 2184 1128 7A4A     		ldr	r2, .L14+76
 2185 112a 40F20003 		movw	r3, #:lower16:.LC0
 2186 112e C0F20003 		movt	r3, #:upper16:.LC0
 2187 1132 03CB     		ldmia	r3!, {r0, r1}
 2188 1134 1060     		str	r0, [r2, #0]	@ unaligned
 2189 1136 5160     		str	r1, [r2, #4]	@ unaligned
 2190 1138 1B88     		ldrh	r3, [r3, #0]	@ unaligned
 2191 113a 1381     		strh	r3, [r2, #8]	@ unaligned
 357:.\clu.c       **** 	sprintf(clu[33][1],  "#PTQ 11 0.3 1.5");	
 2192              		.loc 1 357 0
 2193 113c 764A     		ldr	r2, .L14+80
 2194 113e 40F20003 		movw	r3, #:lower16:.LC49
 2195 1142 C0F20003 		movt	r3, #:upper16:.LC49
 2196 1146 1446     		mov	r4, r2
 2197 1148 1D46     		mov	r5, r3
 2198 114a 0FCD     		ldmia	r5!, {r0, r1, r2, r3}
 2199 114c 2060     		str	r0, [r4, #0]	@ unaligned
 2200 114e 6160     		str	r1, [r4, #4]	@ unaligned
 2201 1150 A260     		str	r2, [r4, #8]	@ unaligned
 2202 1152 E360     		str	r3, [r4, #12]	@ unaligned
 358:.\clu.c       **** 	sprintf(clu[33][2],  "#PATHEXEC");
 2203              		.loc 1 358 0
 2204 1154 714A     		ldr	r2, .L14+84
 2205 1156 40F20003 		movw	r3, #:lower16:.LC3
 2206 115a C0F20003 		movt	r3, #:upper16:.LC3
 2207 115e 03CB     		ldmia	r3!, {r0, r1}
 2208 1160 1060     		str	r0, [r2, #0]	@ unaligned
 2209 1162 5160     		str	r1, [r2, #4]	@ unaligned
 2210 1164 1B88     		ldrh	r3, [r3, #0]	@ unaligned
 2211 1166 1381     		strh	r3, [r2, #8]	@ unaligned
 359:.\clu.c       **** 	sprintf(clu[33][3],  "#PAUSE 5");
 2212              		.loc 1 359 0
 2213 1168 6D4A     		ldr	r2, .L14+88
ARM GAS  C:\Users\gravi\AppData\Local\Temp\cczW92Yj.s 			page 51


 2214 116a 40F20003 		movw	r3, #:lower16:.LC10
 2215 116e C0F20003 		movt	r3, #:upper16:.LC10
 2216 1172 03CB     		ldmia	r3!, {r0, r1}
 2217 1174 1060     		str	r0, [r2, #0]	@ unaligned
 2218 1176 5160     		str	r1, [r2, #4]	@ unaligned
 2219 1178 1B78     		ldrb	r3, [r3, #0]
 2220 117a 1372     		strb	r3, [r2, #8]
 360:.\clu.c       **** 	sprintf(clu[33][4],  "#PTQ 51 0.3 12");
 2221              		.loc 1 360 0
 2222 117c 694A     		ldr	r2, .L14+92
 2223 117e 40F20003 		movw	r3, #:lower16:.LC57
 2224 1182 C0F20003 		movt	r3, #:upper16:.LC57
 2225 1186 1446     		mov	r4, r2
 2226 1188 07CB     		ldmia	r3!, {r0, r1, r2}
 2227 118a 2060     		str	r0, [r4, #0]	@ unaligned
 2228 118c 6160     		str	r1, [r4, #4]	@ unaligned
 2229 118e A260     		str	r2, [r4, #8]	@ unaligned
 2230 1190 1A88     		ldrh	r2, [r3, #0]	@ unaligned
 2231 1192 9B78     		ldrb	r3, [r3, #2]
 2232 1194 A281     		strh	r2, [r4, #12]	@ unaligned
 2233 1196 A373     		strb	r3, [r4, #14]
 361:.\clu.c       **** 	sprintf(clu[33][5],  "#PATHEXEC");	
 2234              		.loc 1 361 0
 2235 1198 634A     		ldr	r2, .L14+96
 2236 119a 40F20003 		movw	r3, #:lower16:.LC3
 2237 119e C0F20003 		movt	r3, #:upper16:.LC3
 2238 11a2 03CB     		ldmia	r3!, {r0, r1}
 2239 11a4 1060     		str	r0, [r2, #0]	@ unaligned
 2240 11a6 5160     		str	r1, [r2, #4]	@ unaligned
 2241 11a8 1B88     		ldrh	r3, [r3, #0]	@ unaligned
 2242 11aa 1381     		strh	r3, [r2, #8]	@ unaligned
 362:.\clu.c       **** 	sprintf(clu[33][6],  "#CAMERAOFF");	
 2243              		.loc 1 362 0
 2244 11ac 5F4A     		ldr	r2, .L14+100
 2245 11ae 40F20003 		movw	r3, #:lower16:.LC4
 2246 11b2 C0F20003 		movt	r3, #:upper16:.LC4
 2247 11b6 03CB     		ldmia	r3!, {r0, r1}
 2248 11b8 1060     		str	r0, [r2, #0]	@ unaligned
 2249 11ba 5160     		str	r1, [r2, #4]	@ unaligned
 2250 11bc 1988     		ldrh	r1, [r3, #0]	@ unaligned
 2251 11be 9B78     		ldrb	r3, [r3, #2]
 2252 11c0 1181     		strh	r1, [r2, #8]	@ unaligned
 2253 11c2 9372     		strb	r3, [r2, #10]
 363:.\clu.c       **** 	sprintf(clu[33][7],  "#CLUEND");	
 2254              		.loc 1 363 0
 2255 11c4 5A4A     		ldr	r2, .L14+104
 2256 11c6 40F20003 		movw	r3, #:lower16:.LC5
 2257 11ca C0F20003 		movt	r3, #:upper16:.LC5
 2258 11ce 03CB     		ldmia	r3!, {r0, r1}
 2259 11d0 1060     		str	r0, [r2, #0]	@ unaligned
 2260 11d2 5160     		str	r1, [r2, #4]	@ unaligned
 364:.\clu.c       **** 	
 365:.\clu.c       **** 	
 366:.\clu.c       **** 	/*------------------------------------------------------------------------------------------*/
 367:.\clu.c       **** 	/* CLU 34 INIT																				*/
 368:.\clu.c       **** 	/* SEQ PANORAMA SX REAR (Q44) -> (Q40+120PAN) --> (Q40-120PAN)	*/
 369:.\clu.c       **** 	/*                 "########################\0" 											*/
ARM GAS  C:\Users\gravi\AppData\Local\Temp\cczW92Yj.s 			page 52


 370:.\clu.c       **** 	/*------------------------------------------------------------------------------------------*/	
 371:.\clu.c       **** 	sprintf(clu[34][0],  "#CAMERAON");	
 2261              		.loc 1 371 0
 2262 11d4 574A     		ldr	r2, .L14+108
 2263 11d6 40F20003 		movw	r3, #:lower16:.LC0
 2264 11da C0F20003 		movt	r3, #:upper16:.LC0
 2265 11de 03CB     		ldmia	r3!, {r0, r1}
 2266 11e0 1060     		str	r0, [r2, #0]	@ unaligned
 2267 11e2 5160     		str	r1, [r2, #4]	@ unaligned
 2268 11e4 1B88     		ldrh	r3, [r3, #0]	@ unaligned
 2269 11e6 1381     		strh	r3, [r2, #8]	@ unaligned
 372:.\clu.c       **** 	sprintf(clu[34][1],  "#PTQ 44 0.3 1.5");
 2270              		.loc 1 372 0
 2271 11e8 534A     		ldr	r2, .L14+112
 2272 11ea 40F20003 		movw	r3, #:lower16:.LC58
 2273 11ee C0F20003 		movt	r3, #:upper16:.LC58
 2274 11f2 1446     		mov	r4, r2
 2275 11f4 1D46     		mov	r5, r3
 2276 11f6 0FCD     		ldmia	r5!, {r0, r1, r2, r3}
 2277 11f8 2060     		str	r0, [r4, #0]	@ unaligned
 2278 11fa 6160     		str	r1, [r4, #4]	@ unaligned
 2279 11fc A260     		str	r2, [r4, #8]	@ unaligned
 2280 11fe E360     		str	r3, [r4, #12]	@ unaligned
 373:.\clu.c       **** 	sprintf(clu[34][2],  "#PATHEXEC");
 2281              		.loc 1 373 0
 2282 1200 4E4A     		ldr	r2, .L14+116
 2283 1202 40F20003 		movw	r3, #:lower16:.LC3
 2284 1206 C0F20003 		movt	r3, #:upper16:.LC3
 2285 120a 03CB     		ldmia	r3!, {r0, r1}
 2286 120c 1060     		str	r0, [r2, #0]	@ unaligned
 2287 120e 5160     		str	r1, [r2, #4]	@ unaligned
 2288 1210 1B88     		ldrh	r3, [r3, #0]	@ unaligned
 2289 1212 1381     		strh	r3, [r2, #8]	@ unaligned
 374:.\clu.c       **** 	sprintf(clu[34][3],  "#PAUSE 5");
 2290              		.loc 1 374 0
 2291 1214 4A4A     		ldr	r2, .L14+120
 2292 1216 40F20003 		movw	r3, #:lower16:.LC10
 2293 121a C0F20003 		movt	r3, #:upper16:.LC10
 2294 121e 03CB     		ldmia	r3!, {r0, r1}
 2295 1220 1060     		str	r0, [r2, #0]	@ unaligned
 2296 1222 5160     		str	r1, [r2, #4]	@ unaligned
 2297 1224 1B78     		ldrb	r3, [r3, #0]
 2298 1226 1372     		strb	r3, [r2, #8]
 375:.\clu.c       **** 	sprintf(clu[34][4],  "#PTRAP -300 0.3 20");
 2299              		.loc 1 375 0
 2300 1228 464A     		ldr	r2, .L14+124
 2301 122a 40F20003 		movw	r3, #:lower16:.LC59
 2302 122e C0F20003 		movt	r3, #:upper16:.LC59
 2303 1232 1546     		mov	r5, r2
 2304 1234 1C46     		mov	r4, r3
 2305 1236 0FCC     		ldmia	r4!, {r0, r1, r2, r3}
 2306 1238 2860     		str	r0, [r5, #0]	@ unaligned
 2307 123a 6960     		str	r1, [r5, #4]	@ unaligned
 2308 123c AA60     		str	r2, [r5, #8]	@ unaligned
 2309 123e EB60     		str	r3, [r5, #12]	@ unaligned
 2310 1240 2288     		ldrh	r2, [r4, #0]	@ unaligned
 2311 1242 A378     		ldrb	r3, [r4, #2]
ARM GAS  C:\Users\gravi\AppData\Local\Temp\cczW92Yj.s 			page 53


 2312 1244 2A82     		strh	r2, [r5, #16]	@ unaligned
 2313 1246 AB74     		strb	r3, [r5, #18]
 376:.\clu.c       **** 	sprintf(clu[34][5],  "#PATHEXEC");
 2314              		.loc 1 376 0
 2315 1248 3F4A     		ldr	r2, .L14+128
 2316 124a 40F20003 		movw	r3, #:lower16:.LC3
 2317 124e C0F20003 		movt	r3, #:upper16:.LC3
 2318 1252 03CB     		ldmia	r3!, {r0, r1}
 2319 1254 1060     		str	r0, [r2, #0]	@ unaligned
 2320 1256 5160     		str	r1, [r2, #4]	@ unaligned
 2321 1258 1B88     		ldrh	r3, [r3, #0]	@ unaligned
 2322 125a 1381     		strh	r3, [r2, #8]	@ unaligned
 377:.\clu.c       **** 	sprintf(clu[34][6],  "#CAMERAOFF");	
 2323              		.loc 1 377 0
 2324 125c 3B4A     		ldr	r2, .L14+132
 2325 125e 40F20003 		movw	r3, #:lower16:.LC4
 2326 1262 C0F20003 		movt	r3, #:upper16:.LC4
 2327 1266 03CB     		ldmia	r3!, {r0, r1}
 2328 1268 1060     		str	r0, [r2, #0]	@ unaligned
 2329 126a 5160     		str	r1, [r2, #4]	@ unaligned
 2330 126c 1988     		ldrh	r1, [r3, #0]	@ unaligned
 2331 126e 9B78     		ldrb	r3, [r3, #2]
 2332 1270 1181     		strh	r1, [r2, #8]	@ unaligned
 2333 1272 9372     		strb	r3, [r2, #10]
 378:.\clu.c       **** 	sprintf(clu[34][7],  "#CLUEND");	
 2334              		.loc 1 378 0
 2335 1274 364A     		ldr	r2, .L14+136
 2336 1276 40F20003 		movw	r3, #:lower16:.LC5
 2337 127a C0F20003 		movt	r3, #:upper16:.LC5
 2338 127e 03CB     		ldmia	r3!, {r0, r1}
 2339 1280 1060     		str	r0, [r2, #0]	@ unaligned
 2340 1282 5160     		str	r1, [r2, #4]	@ unaligned
 379:.\clu.c       **** 	
 380:.\clu.c       **** 	
 381:.\clu.c       **** 	/*----------------------------------------------*/
 382:.\clu.c       **** 	/* CLU 35 INIT									*/
 383:.\clu.c       **** 	/* SEQ WHEEL(Q21) -> SKY(Q51)					*/
 384:.\clu.c       **** 	/*                 "########################\0" */
 385:.\clu.c       **** 	/*----------------------------------------------*/	
 386:.\clu.c       **** 	sprintf(clu[35][0],  "#CAMERAON");	
 2341              		.loc 1 386 0
 2342 1284 334A     		ldr	r2, .L14+140
 2343 1286 40F20003 		movw	r3, #:lower16:.LC0
 2344 128a C0F20003 		movt	r3, #:upper16:.LC0
 2345 128e 03CB     		ldmia	r3!, {r0, r1}
 2346 1290 1060     		str	r0, [r2, #0]	@ unaligned
 2347 1292 5160     		str	r1, [r2, #4]	@ unaligned
 2348 1294 1B88     		ldrh	r3, [r3, #0]	@ unaligned
 2349 1296 1381     		strh	r3, [r2, #8]	@ unaligned
 387:.\clu.c       **** 	sprintf(clu[35][1],  "#PTQ 21 0.3 1.5");	
 2350              		.loc 1 387 0
 2351 1298 2F4A     		ldr	r2, .L14+144
 2352 129a 40F20003 		movw	r3, #:lower16:.LC60
 2353 129e C0F20003 		movt	r3, #:upper16:.LC60
 2354 12a2 1446     		mov	r4, r2
 2355 12a4 1D46     		mov	r5, r3
 2356 12a6 0FCD     		ldmia	r5!, {r0, r1, r2, r3}
ARM GAS  C:\Users\gravi\AppData\Local\Temp\cczW92Yj.s 			page 54


 2357 12a8 2060     		str	r0, [r4, #0]	@ unaligned
 2358 12aa 6160     		str	r1, [r4, #4]	@ unaligned
 2359 12ac A260     		str	r2, [r4, #8]	@ unaligned
 2360 12ae E360     		str	r3, [r4, #12]	@ unaligned
 388:.\clu.c       **** 	sprintf(clu[35][2],  "#PATHEXEC");
 2361              		.loc 1 388 0
 2362 12b0 2A4A     		ldr	r2, .L14+148
 2363 12b2 40F20003 		movw	r3, #:lower16:.LC3
 2364 12b6 C0F20003 		movt	r3, #:upper16:.LC3
 2365 12ba 03CB     		ldmia	r3!, {r0, r1}
 2366 12bc 1060     		str	r0, [r2, #0]	@ unaligned
 2367 12be 5160     		str	r1, [r2, #4]	@ unaligned
 2368 12c0 1B88     		ldrh	r3, [r3, #0]	@ unaligned
 2369 12c2 1381     		strh	r3, [r2, #8]	@ unaligned
 2370 12c4 4CE0     		b	.L15
 2371              	.L16:
 2372 12c6 00BF     		.align	2
 2373              	.L14:
 2374 12c8 29400000 		.word	clu+16425
 2375 12cc 42400000 		.word	clu+16450
 2376 12d0 5B400000 		.word	clu+16475
 2377 12d4 74400000 		.word	clu+16500
 2378 12d8 8D400000 		.word	clu+16525
 2379 12dc A0410000 		.word	clu+16800
 2380 12e0 B9410000 		.word	clu+16825
 2381 12e4 D2410000 		.word	clu+16850
 2382 12e8 EB410000 		.word	clu+16875
 2383 12ec 04420000 		.word	clu+16900
 2384 12f0 1D420000 		.word	clu+16925
 2385 12f4 36420000 		.word	clu+16950
 2386 12f8 4F420000 		.word	clu+16975
 2387 12fc 68420000 		.word	clu+17000
 2388 1300 81420000 		.word	clu+17025
 2389 1304 9A420000 		.word	clu+17050
 2390 1308 B3420000 		.word	clu+17075
 2391 130c CC420000 		.word	clu+17100
 2392 1310 E5420000 		.word	clu+17125
 2393 1314 AD430000 		.word	clu+17325
 2394 1318 C6430000 		.word	clu+17350
 2395 131c DF430000 		.word	clu+17375
 2396 1320 F8430000 		.word	clu+17400
 2397 1324 11440000 		.word	clu+17425
 2398 1328 2A440000 		.word	clu+17450
 2399 132c 43440000 		.word	clu+17475
 2400 1330 5C440000 		.word	clu+17500
 2401 1334 BA450000 		.word	clu+17850
 2402 1338 D3450000 		.word	clu+17875
 2403 133c EC450000 		.word	clu+17900
 2404 1340 05460000 		.word	clu+17925
 2405 1344 1E460000 		.word	clu+17950
 2406 1348 37460000 		.word	clu+17975
 2407 134c 50460000 		.word	clu+18000
 2408 1350 69460000 		.word	clu+18025
 2409 1354 C7470000 		.word	clu+18375
 2410 1358 E0470000 		.word	clu+18400
 2411 135c F9470000 		.word	clu+18425
 2412              	.L15:
ARM GAS  C:\Users\gravi\AppData\Local\Temp\cczW92Yj.s 			page 55


 389:.\clu.c       **** 	sprintf(clu[35][3],  "#PAUSE 5");
 2413              		.loc 1 389 0
 2414 1360 CC4A     		ldr	r2, .L17
 2415 1362 40F20003 		movw	r3, #:lower16:.LC10
 2416 1366 C0F20003 		movt	r3, #:upper16:.LC10
 2417 136a 03CB     		ldmia	r3!, {r0, r1}
 2418 136c 1060     		str	r0, [r2, #0]	@ unaligned
 2419 136e 5160     		str	r1, [r2, #4]	@ unaligned
 2420 1370 1B78     		ldrb	r3, [r3, #0]
 2421 1372 1372     		strb	r3, [r2, #8]
 390:.\clu.c       **** 	sprintf(clu[35][4],  "#PTQ 51 0.3 12");
 2422              		.loc 1 390 0
 2423 1374 C84A     		ldr	r2, .L17+4
 2424 1376 40F20003 		movw	r3, #:lower16:.LC57
 2425 137a C0F20003 		movt	r3, #:upper16:.LC57
 2426 137e 1446     		mov	r4, r2
 2427 1380 07CB     		ldmia	r3!, {r0, r1, r2}
 2428 1382 2060     		str	r0, [r4, #0]	@ unaligned
 2429 1384 6160     		str	r1, [r4, #4]	@ unaligned
 2430 1386 A260     		str	r2, [r4, #8]	@ unaligned
 2431 1388 1A88     		ldrh	r2, [r3, #0]	@ unaligned
 2432 138a 9B78     		ldrb	r3, [r3, #2]
 2433 138c A281     		strh	r2, [r4, #12]	@ unaligned
 2434 138e A373     		strb	r3, [r4, #14]
 391:.\clu.c       **** 	sprintf(clu[35][5],  "#PATHEXEC");	
 2435              		.loc 1 391 0
 2436 1390 C24A     		ldr	r2, .L17+8
 2437 1392 40F20003 		movw	r3, #:lower16:.LC3
 2438 1396 C0F20003 		movt	r3, #:upper16:.LC3
 2439 139a 03CB     		ldmia	r3!, {r0, r1}
 2440 139c 1060     		str	r0, [r2, #0]	@ unaligned
 2441 139e 5160     		str	r1, [r2, #4]	@ unaligned
 2442 13a0 1B88     		ldrh	r3, [r3, #0]	@ unaligned
 2443 13a2 1381     		strh	r3, [r2, #8]	@ unaligned
 392:.\clu.c       **** 	sprintf(clu[35][6],  "#CAMERAOFF");	
 2444              		.loc 1 392 0
 2445 13a4 BE4A     		ldr	r2, .L17+12
 2446 13a6 40F20003 		movw	r3, #:lower16:.LC4
 2447 13aa C0F20003 		movt	r3, #:upper16:.LC4
 2448 13ae 03CB     		ldmia	r3!, {r0, r1}
 2449 13b0 1060     		str	r0, [r2, #0]	@ unaligned
 2450 13b2 5160     		str	r1, [r2, #4]	@ unaligned
 2451 13b4 1988     		ldrh	r1, [r3, #0]	@ unaligned
 2452 13b6 9B78     		ldrb	r3, [r3, #2]
 2453 13b8 1181     		strh	r1, [r2, #8]	@ unaligned
 2454 13ba 9372     		strb	r3, [r2, #10]
 393:.\clu.c       **** 	sprintf(clu[35][7],  "#CLUEND");
 2455              		.loc 1 393 0
 2456 13bc B94A     		ldr	r2, .L17+16
 2457 13be 40F20003 		movw	r3, #:lower16:.LC5
 2458 13c2 C0F20003 		movt	r3, #:upper16:.LC5
 2459 13c6 03CB     		ldmia	r3!, {r0, r1}
 2460 13c8 1060     		str	r0, [r2, #0]	@ unaligned
 2461 13ca 5160     		str	r1, [r2, #4]	@ unaligned
 394:.\clu.c       **** 	
 395:.\clu.c       **** 	
 396:.\clu.c       **** 	/*----------------------------------------------*/
ARM GAS  C:\Users\gravi\AppData\Local\Temp\cczW92Yj.s 			page 56


 397:.\clu.c       **** 	/* CLU 36 INIT									*/
 398:.\clu.c       **** 	/* BIG ROTATION PAN	(FACE)						*/
 399:.\clu.c       **** 	/*                 "########################\0" */
 400:.\clu.c       **** 	/*----------------------------------------------*/
 401:.\clu.c       **** 	sprintf(clu[36][0], "#CAMERAON");	
 2462              		.loc 1 401 0
 2463 13cc B64A     		ldr	r2, .L17+20
 2464 13ce 40F20003 		movw	r3, #:lower16:.LC0
 2465 13d2 C0F20003 		movt	r3, #:upper16:.LC0
 2466 13d6 03CB     		ldmia	r3!, {r0, r1}
 2467 13d8 1060     		str	r0, [r2, #0]	@ unaligned
 2468 13da 5160     		str	r1, [r2, #4]	@ unaligned
 2469 13dc 1B88     		ldrh	r3, [r3, #0]	@ unaligned
 2470 13de 1381     		strh	r3, [r2, #8]	@ unaligned
 402:.\clu.c       **** 	sprintf(clu[36][1], "#PTQ 11 0.2 1.5");
 2471              		.loc 1 402 0
 2472 13e0 B24A     		ldr	r2, .L17+24
 2473 13e2 40F20003 		movw	r3, #:lower16:.LC61
 2474 13e6 C0F20003 		movt	r3, #:upper16:.LC61
 2475 13ea 1446     		mov	r4, r2
 2476 13ec 1D46     		mov	r5, r3
 2477 13ee 0FCD     		ldmia	r5!, {r0, r1, r2, r3}
 2478 13f0 2060     		str	r0, [r4, #0]	@ unaligned
 2479 13f2 6160     		str	r1, [r4, #4]	@ unaligned
 2480 13f4 A260     		str	r2, [r4, #8]	@ unaligned
 2481 13f6 E360     		str	r3, [r4, #12]	@ unaligned
 403:.\clu.c       **** 	sprintf(clu[36][2], "#PATHEXEC");	
 2482              		.loc 1 403 0
 2483 13f8 AD4A     		ldr	r2, .L17+28
 2484 13fa 40F20003 		movw	r3, #:lower16:.LC3
 2485 13fe C0F20003 		movt	r3, #:upper16:.LC3
 2486 1402 03CB     		ldmia	r3!, {r0, r1}
 2487 1404 1060     		str	r0, [r2, #0]	@ unaligned
 2488 1406 5160     		str	r1, [r2, #4]	@ unaligned
 2489 1408 1B88     		ldrh	r3, [r3, #0]	@ unaligned
 2490 140a 1381     		strh	r3, [r2, #8]	@ unaligned
 404:.\clu.c       **** 	sprintf(clu[36][3], "#PTRAP +1440 0.2 20");
 2491              		.loc 1 404 0
 2492 140c A94A     		ldr	r2, .L17+32
 2493 140e 40F20003 		movw	r3, #:lower16:.LC62
 2494 1412 C0F20003 		movt	r3, #:upper16:.LC62
 2495 1416 1546     		mov	r5, r2
 2496 1418 1C46     		mov	r4, r3
 2497 141a 0FCC     		ldmia	r4!, {r0, r1, r2, r3}
 2498 141c 2860     		str	r0, [r5, #0]	@ unaligned
 2499 141e 6960     		str	r1, [r5, #4]	@ unaligned
 2500 1420 AA60     		str	r2, [r5, #8]	@ unaligned
 2501 1422 EB60     		str	r3, [r5, #12]	@ unaligned
 2502 1424 2068     		ldr	r0, [r4, #0]	@ unaligned
 2503 1426 2861     		str	r0, [r5, #16]	@ unaligned
 405:.\clu.c       **** 	sprintf(clu[36][4], "#PATHEXEC");	
 2504              		.loc 1 405 0
 2505 1428 A34A     		ldr	r2, .L17+36
 2506 142a 40F20003 		movw	r3, #:lower16:.LC3
 2507 142e C0F20003 		movt	r3, #:upper16:.LC3
 2508 1432 03CB     		ldmia	r3!, {r0, r1}
 2509 1434 1060     		str	r0, [r2, #0]	@ unaligned
ARM GAS  C:\Users\gravi\AppData\Local\Temp\cczW92Yj.s 			page 57


 2510 1436 5160     		str	r1, [r2, #4]	@ unaligned
 2511 1438 1B88     		ldrh	r3, [r3, #0]	@ unaligned
 2512 143a 1381     		strh	r3, [r2, #8]	@ unaligned
 406:.\clu.c       **** 	sprintf(clu[36][5], "#CAMERAOFF");	
 2513              		.loc 1 406 0
 2514 143c 9F4A     		ldr	r2, .L17+40
 2515 143e 40F20003 		movw	r3, #:lower16:.LC4
 2516 1442 C0F20003 		movt	r3, #:upper16:.LC4
 2517 1446 03CB     		ldmia	r3!, {r0, r1}
 2518 1448 1060     		str	r0, [r2, #0]	@ unaligned
 2519 144a 5160     		str	r1, [r2, #4]	@ unaligned
 2520 144c 1988     		ldrh	r1, [r3, #0]	@ unaligned
 2521 144e 9B78     		ldrb	r3, [r3, #2]
 2522 1450 1181     		strh	r1, [r2, #8]	@ unaligned
 2523 1452 9372     		strb	r3, [r2, #10]
 407:.\clu.c       **** 	sprintf(clu[36][6], "#CLUEND");	
 2524              		.loc 1 407 0
 2525 1454 9A4A     		ldr	r2, .L17+44
 2526 1456 40F20003 		movw	r3, #:lower16:.LC5
 2527 145a C0F20003 		movt	r3, #:upper16:.LC5
 2528 145e 03CB     		ldmia	r3!, {r0, r1}
 2529 1460 1060     		str	r0, [r2, #0]	@ unaligned
 2530 1462 5160     		str	r1, [r2, #4]	@ unaligned
 408:.\clu.c       **** 	
 409:.\clu.c       **** 	
 410:.\clu.c       **** 	/*----------------------------------------------*/
 411:.\clu.c       **** 	/* CLU 37 INIT									*/
 412:.\clu.c       **** 	/* OSCILLATION PANORAMA FRONT					*/
 413:.\clu.c       **** 	/*                 "########################\0" */
 414:.\clu.c       **** 	/*----------------------------------------------*/	
 415:.\clu.c       **** 	sprintf(clu[37][0],  "#PTQ 40 0.2 1.5");
 2531              		.loc 1 415 0
 2532 1464 974A     		ldr	r2, .L17+48
 2533 1466 40F20003 		movw	r3, #:lower16:.LC63
 2534 146a C0F20003 		movt	r3, #:upper16:.LC63
 2535 146e 1446     		mov	r4, r2
 2536 1470 1D46     		mov	r5, r3
 2537 1472 0FCD     		ldmia	r5!, {r0, r1, r2, r3}
 2538 1474 2060     		str	r0, [r4, #0]	@ unaligned
 2539 1476 6160     		str	r1, [r4, #4]	@ unaligned
 2540 1478 A260     		str	r2, [r4, #8]	@ unaligned
 2541 147a E360     		str	r3, [r4, #12]	@ unaligned
 416:.\clu.c       **** 	sprintf(clu[37][1],  "#PATHEXEC");
 2542              		.loc 1 416 0
 2543 147c 924A     		ldr	r2, .L17+52
 2544 147e 40F20003 		movw	r3, #:lower16:.LC3
 2545 1482 C0F20003 		movt	r3, #:upper16:.LC3
 2546 1486 03CB     		ldmia	r3!, {r0, r1}
 2547 1488 1060     		str	r0, [r2, #0]	@ unaligned
 2548 148a 5160     		str	r1, [r2, #4]	@ unaligned
 2549 148c 1B88     		ldrh	r3, [r3, #0]	@ unaligned
 2550 148e 1381     		strh	r3, [r2, #8]	@ unaligned
 417:.\clu.c       **** 	sprintf(clu[37][2],  "#PAUSE 5");
 2551              		.loc 1 417 0
 2552 1490 8E4A     		ldr	r2, .L17+56
 2553 1492 40F20003 		movw	r3, #:lower16:.LC10
 2554 1496 C0F20003 		movt	r3, #:upper16:.LC10
ARM GAS  C:\Users\gravi\AppData\Local\Temp\cczW92Yj.s 			page 58


 2555 149a 03CB     		ldmia	r3!, {r0, r1}
 2556 149c 1060     		str	r0, [r2, #0]	@ unaligned
 2557 149e 5160     		str	r1, [r2, #4]	@ unaligned
 2558 14a0 1B78     		ldrb	r3, [r3, #0]
 2559 14a2 1372     		strb	r3, [r2, #8]
 418:.\clu.c       **** 	sprintf(clu[37][3],  "#PTRAP +45 0.4 0.5");
 2560              		.loc 1 418 0
 2561 14a4 8A4A     		ldr	r2, .L17+60
 2562 14a6 40F20003 		movw	r3, #:lower16:.LC64
 2563 14aa C0F20003 		movt	r3, #:upper16:.LC64
 2564 14ae 1546     		mov	r5, r2
 2565 14b0 1C46     		mov	r4, r3
 2566 14b2 0FCC     		ldmia	r4!, {r0, r1, r2, r3}
 2567 14b4 2860     		str	r0, [r5, #0]	@ unaligned
 2568 14b6 6960     		str	r1, [r5, #4]	@ unaligned
 2569 14b8 AA60     		str	r2, [r5, #8]	@ unaligned
 2570 14ba EB60     		str	r3, [r5, #12]	@ unaligned
 2571 14bc 2288     		ldrh	r2, [r4, #0]	@ unaligned
 2572 14be A378     		ldrb	r3, [r4, #2]
 2573 14c0 2A82     		strh	r2, [r5, #16]	@ unaligned
 2574 14c2 AB74     		strb	r3, [r5, #18]
 419:.\clu.c       **** 	sprintf(clu[37][4],  "#PATHEXEC");
 2575              		.loc 1 419 0
 2576 14c4 834A     		ldr	r2, .L17+64
 2577 14c6 40F20003 		movw	r3, #:lower16:.LC3
 2578 14ca C0F20003 		movt	r3, #:upper16:.LC3
 2579 14ce 03CB     		ldmia	r3!, {r0, r1}
 2580 14d0 1060     		str	r0, [r2, #0]	@ unaligned
 2581 14d2 5160     		str	r1, [r2, #4]	@ unaligned
 2582 14d4 1B88     		ldrh	r3, [r3, #0]	@ unaligned
 2583 14d6 1381     		strh	r3, [r2, #8]	@ unaligned
 420:.\clu.c       **** 	sprintf(clu[37][5],  "#PTRAP -90 0.4 1");
 2584              		.loc 1 420 0
 2585 14d8 7F4A     		ldr	r2, .L17+68
 2586 14da 40F20003 		movw	r3, #:lower16:.LC65
 2587 14de C0F20003 		movt	r3, #:upper16:.LC65
 2588 14e2 1546     		mov	r5, r2
 2589 14e4 1C46     		mov	r4, r3
 2590 14e6 0FCC     		ldmia	r4!, {r0, r1, r2, r3}
 2591 14e8 2860     		str	r0, [r5, #0]	@ unaligned
 2592 14ea 6960     		str	r1, [r5, #4]	@ unaligned
 2593 14ec AA60     		str	r2, [r5, #8]	@ unaligned
 2594 14ee EB60     		str	r3, [r5, #12]	@ unaligned
 2595 14f0 2378     		ldrb	r3, [r4, #0]
 2596 14f2 2B74     		strb	r3, [r5, #16]
 421:.\clu.c       **** 	sprintf(clu[37][6],  "#PATHEXEC");
 2597              		.loc 1 421 0
 2598 14f4 794A     		ldr	r2, .L17+72
 2599 14f6 40F20003 		movw	r3, #:lower16:.LC3
 2600 14fa C0F20003 		movt	r3, #:upper16:.LC3
 2601 14fe 03CB     		ldmia	r3!, {r0, r1}
 2602 1500 1060     		str	r0, [r2, #0]	@ unaligned
 2603 1502 5160     		str	r1, [r2, #4]	@ unaligned
 2604 1504 1B88     		ldrh	r3, [r3, #0]	@ unaligned
 2605 1506 1381     		strh	r3, [r2, #8]	@ unaligned
 422:.\clu.c       **** 	sprintf(clu[37][7],  "#PTRAP +90 0.4 1");
 2606              		.loc 1 422 0
ARM GAS  C:\Users\gravi\AppData\Local\Temp\cczW92Yj.s 			page 59


 2607 1508 754A     		ldr	r2, .L17+76
 2608 150a 40F20003 		movw	r3, #:lower16:.LC66
 2609 150e C0F20003 		movt	r3, #:upper16:.LC66
 2610 1512 1546     		mov	r5, r2
 2611 1514 1C46     		mov	r4, r3
 2612 1516 0FCC     		ldmia	r4!, {r0, r1, r2, r3}
 2613 1518 2860     		str	r0, [r5, #0]	@ unaligned
 2614 151a 6960     		str	r1, [r5, #4]	@ unaligned
 2615 151c AA60     		str	r2, [r5, #8]	@ unaligned
 2616 151e EB60     		str	r3, [r5, #12]	@ unaligned
 2617 1520 2378     		ldrb	r3, [r4, #0]
 2618 1522 2B74     		strb	r3, [r5, #16]
 423:.\clu.c       **** 	sprintf(clu[37][8],  "#PATHEXEC");
 2619              		.loc 1 423 0
 2620 1524 6F4A     		ldr	r2, .L17+80
 2621 1526 40F20003 		movw	r3, #:lower16:.LC3
 2622 152a C0F20003 		movt	r3, #:upper16:.LC3
 2623 152e 03CB     		ldmia	r3!, {r0, r1}
 2624 1530 1060     		str	r0, [r2, #0]	@ unaligned
 2625 1532 5160     		str	r1, [r2, #4]	@ unaligned
 2626 1534 1B88     		ldrh	r3, [r3, #0]	@ unaligned
 2627 1536 1381     		strh	r3, [r2, #8]	@ unaligned
 424:.\clu.c       **** 	sprintf(clu[37][9],  "#PTRAP -90 0.4 1");
 2628              		.loc 1 424 0
 2629 1538 6B4A     		ldr	r2, .L17+84
 2630 153a 40F20003 		movw	r3, #:lower16:.LC65
 2631 153e C0F20003 		movt	r3, #:upper16:.LC65
 2632 1542 1546     		mov	r5, r2
 2633 1544 1C46     		mov	r4, r3
 2634 1546 0FCC     		ldmia	r4!, {r0, r1, r2, r3}
 2635 1548 2860     		str	r0, [r5, #0]	@ unaligned
 2636 154a 6960     		str	r1, [r5, #4]	@ unaligned
 2637 154c AA60     		str	r2, [r5, #8]	@ unaligned
 2638 154e EB60     		str	r3, [r5, #12]	@ unaligned
 2639 1550 2378     		ldrb	r3, [r4, #0]
 2640 1552 2B74     		strb	r3, [r5, #16]
 425:.\clu.c       **** 	sprintf(clu[37][10], "#PATHEXEC");	
 2641              		.loc 1 425 0
 2642 1554 654A     		ldr	r2, .L17+88
 2643 1556 40F20003 		movw	r3, #:lower16:.LC3
 2644 155a C0F20003 		movt	r3, #:upper16:.LC3
 2645 155e 03CB     		ldmia	r3!, {r0, r1}
 2646 1560 1060     		str	r0, [r2, #0]	@ unaligned
 2647 1562 5160     		str	r1, [r2, #4]	@ unaligned
 2648 1564 1B88     		ldrh	r3, [r3, #0]	@ unaligned
 2649 1566 1381     		strh	r3, [r2, #8]	@ unaligned
 426:.\clu.c       **** 	sprintf(clu[37][11], "#PTRAP +90 0.4 1");
 2650              		.loc 1 426 0
 2651 1568 614A     		ldr	r2, .L17+92
 2652 156a 40F20003 		movw	r3, #:lower16:.LC66
 2653 156e C0F20003 		movt	r3, #:upper16:.LC66
 2654 1572 1546     		mov	r5, r2
 2655 1574 1C46     		mov	r4, r3
 2656 1576 0FCC     		ldmia	r4!, {r0, r1, r2, r3}
 2657 1578 2860     		str	r0, [r5, #0]	@ unaligned
 2658 157a 6960     		str	r1, [r5, #4]	@ unaligned
 2659 157c AA60     		str	r2, [r5, #8]	@ unaligned
ARM GAS  C:\Users\gravi\AppData\Local\Temp\cczW92Yj.s 			page 60


 2660 157e EB60     		str	r3, [r5, #12]	@ unaligned
 2661 1580 2378     		ldrb	r3, [r4, #0]
 2662 1582 2B74     		strb	r3, [r5, #16]
 427:.\clu.c       **** 	sprintf(clu[37][12], "#PATHEXEC");
 2663              		.loc 1 427 0
 2664 1584 5B4A     		ldr	r2, .L17+96
 2665 1586 40F20003 		movw	r3, #:lower16:.LC3
 2666 158a C0F20003 		movt	r3, #:upper16:.LC3
 2667 158e 03CB     		ldmia	r3!, {r0, r1}
 2668 1590 1060     		str	r0, [r2, #0]	@ unaligned
 2669 1592 5160     		str	r1, [r2, #4]	@ unaligned
 2670 1594 1B88     		ldrh	r3, [r3, #0]	@ unaligned
 2671 1596 1381     		strh	r3, [r2, #8]	@ unaligned
 428:.\clu.c       **** 	sprintf(clu[37][13], "#PTRAP -90 0.4 1");
 2672              		.loc 1 428 0
 2673 1598 574A     		ldr	r2, .L17+100
 2674 159a 40F20003 		movw	r3, #:lower16:.LC65
 2675 159e C0F20003 		movt	r3, #:upper16:.LC65
 2676 15a2 1546     		mov	r5, r2
 2677 15a4 1C46     		mov	r4, r3
 2678 15a6 0FCC     		ldmia	r4!, {r0, r1, r2, r3}
 2679 15a8 2860     		str	r0, [r5, #0]	@ unaligned
 2680 15aa 6960     		str	r1, [r5, #4]	@ unaligned
 2681 15ac AA60     		str	r2, [r5, #8]	@ unaligned
 2682 15ae EB60     		str	r3, [r5, #12]	@ unaligned
 2683 15b0 2378     		ldrb	r3, [r4, #0]
 2684 15b2 2B74     		strb	r3, [r5, #16]
 429:.\clu.c       **** 	sprintf(clu[37][14], "#PATHEXEC");
 2685              		.loc 1 429 0
 2686 15b4 514A     		ldr	r2, .L17+104
 2687 15b6 40F20003 		movw	r3, #:lower16:.LC3
 2688 15ba C0F20003 		movt	r3, #:upper16:.LC3
 2689 15be 03CB     		ldmia	r3!, {r0, r1}
 2690 15c0 1060     		str	r0, [r2, #0]	@ unaligned
 2691 15c2 5160     		str	r1, [r2, #4]	@ unaligned
 2692 15c4 1B88     		ldrh	r3, [r3, #0]	@ unaligned
 2693 15c6 1381     		strh	r3, [r2, #8]	@ unaligned
 430:.\clu.c       **** 	sprintf(clu[37][15], "#PTRAP +90 0.4 1");
 2694              		.loc 1 430 0
 2695 15c8 4D4A     		ldr	r2, .L17+108
 2696 15ca 40F20003 		movw	r3, #:lower16:.LC66
 2697 15ce C0F20003 		movt	r3, #:upper16:.LC66
 2698 15d2 1546     		mov	r5, r2
 2699 15d4 1C46     		mov	r4, r3
 2700 15d6 0FCC     		ldmia	r4!, {r0, r1, r2, r3}
 2701 15d8 2860     		str	r0, [r5, #0]	@ unaligned
 2702 15da 6960     		str	r1, [r5, #4]	@ unaligned
 2703 15dc AA60     		str	r2, [r5, #8]	@ unaligned
 2704 15de EB60     		str	r3, [r5, #12]	@ unaligned
 2705 15e0 2378     		ldrb	r3, [r4, #0]
 2706 15e2 2B74     		strb	r3, [r5, #16]
 431:.\clu.c       **** 	sprintf(clu[37][16], "#PATHEXEC");	
 2707              		.loc 1 431 0
 2708 15e4 474A     		ldr	r2, .L17+112
 2709 15e6 40F20003 		movw	r3, #:lower16:.LC3
 2710 15ea C0F20003 		movt	r3, #:upper16:.LC3
 2711 15ee 03CB     		ldmia	r3!, {r0, r1}
ARM GAS  C:\Users\gravi\AppData\Local\Temp\cczW92Yj.s 			page 61


 2712 15f0 1060     		str	r0, [r2, #0]	@ unaligned
 2713 15f2 5160     		str	r1, [r2, #4]	@ unaligned
 2714 15f4 1B88     		ldrh	r3, [r3, #0]	@ unaligned
 2715 15f6 1381     		strh	r3, [r2, #8]	@ unaligned
 432:.\clu.c       **** 	sprintf(clu[37][17], "#PTQ 40 0.4 4");
 2716              		.loc 1 432 0
 2717 15f8 434A     		ldr	r2, .L17+116
 2718 15fa 40F20003 		movw	r3, #:lower16:.LC67
 2719 15fe C0F20003 		movt	r3, #:upper16:.LC67
 2720 1602 1446     		mov	r4, r2
 2721 1604 07CB     		ldmia	r3!, {r0, r1, r2}
 2722 1606 2060     		str	r0, [r4, #0]	@ unaligned
 2723 1608 6160     		str	r1, [r4, #4]	@ unaligned
 2724 160a A260     		str	r2, [r4, #8]	@ unaligned
 2725 160c 1B88     		ldrh	r3, [r3, #0]	@ unaligned
 2726 160e A381     		strh	r3, [r4, #12]	@ unaligned
 433:.\clu.c       **** 	sprintf(clu[37][18], "#PATHEXEC");	
 2727              		.loc 1 433 0
 2728 1610 3E4A     		ldr	r2, .L17+120
 2729 1612 40F20003 		movw	r3, #:lower16:.LC3
 2730 1616 C0F20003 		movt	r3, #:upper16:.LC3
 2731 161a 03CB     		ldmia	r3!, {r0, r1}
 2732 161c 1060     		str	r0, [r2, #0]	@ unaligned
 2733 161e 5160     		str	r1, [r2, #4]	@ unaligned
 2734 1620 1B88     		ldrh	r3, [r3, #0]	@ unaligned
 2735 1622 1381     		strh	r3, [r2, #8]	@ unaligned
 434:.\clu.c       **** 	sprintf(clu[37][19], "#CLUEND");	
 2736              		.loc 1 434 0
 2737 1624 3A4A     		ldr	r2, .L17+124
 2738 1626 40F20003 		movw	r3, #:lower16:.LC5
 2739 162a C0F20003 		movt	r3, #:upper16:.LC5
 2740 162e 03CB     		ldmia	r3!, {r0, r1}
 2741 1630 1060     		str	r0, [r2, #0]	@ unaligned
 2742 1632 5160     		str	r1, [r2, #4]	@ unaligned
 435:.\clu.c       **** 	
 436:.\clu.c       **** 	
 437:.\clu.c       **** 	/*----------------------------------------------*/
 438:.\clu.c       **** 	/* CLU 38 INIT									*/
 439:.\clu.c       **** 	/* WHERE ARE MY EYES LOOKING FOR?				*/
 440:.\clu.c       **** 	/*                 "########################\0" */
 441:.\clu.c       **** 	/*----------------------------------------------*/	
 442:.\clu.c       **** 	sprintf(clu[38][0],  "#PTQ 11 0.2 1.5");
 2743              		.loc 1 442 0
 2744 1634 374A     		ldr	r2, .L17+128
 2745 1636 40F20003 		movw	r3, #:lower16:.LC61
 2746 163a C0F20003 		movt	r3, #:upper16:.LC61
 2747 163e 1446     		mov	r4, r2
 2748 1640 1D46     		mov	r5, r3
 2749 1642 0FCD     		ldmia	r5!, {r0, r1, r2, r3}
 2750 1644 2060     		str	r0, [r4, #0]	@ unaligned
 2751 1646 6160     		str	r1, [r4, #4]	@ unaligned
 2752 1648 A260     		str	r2, [r4, #8]	@ unaligned
 2753 164a E360     		str	r3, [r4, #12]	@ unaligned
 443:.\clu.c       **** 	sprintf(clu[38][1],  "#PATHEXEC");
 2754              		.loc 1 443 0
 2755 164c 324A     		ldr	r2, .L17+132
 2756 164e 40F20003 		movw	r3, #:lower16:.LC3
ARM GAS  C:\Users\gravi\AppData\Local\Temp\cczW92Yj.s 			page 62


 2757 1652 C0F20003 		movt	r3, #:upper16:.LC3
 2758 1656 03CB     		ldmia	r3!, {r0, r1}
 2759 1658 1060     		str	r0, [r2, #0]	@ unaligned
 2760 165a 5160     		str	r1, [r2, #4]	@ unaligned
 2761 165c 1B88     		ldrh	r3, [r3, #0]	@ unaligned
 2762 165e 1381     		strh	r3, [r2, #8]	@ unaligned
 444:.\clu.c       **** 	sprintf(clu[38][2],  "#PAUSE 2");
 2763              		.loc 1 444 0
 2764 1660 2E4A     		ldr	r2, .L17+136
 2765 1662 40F20003 		movw	r3, #:lower16:.LC68
 2766 1666 C0F20003 		movt	r3, #:upper16:.LC68
 2767 166a 03CB     		ldmia	r3!, {r0, r1}
 2768 166c 1060     		str	r0, [r2, #0]	@ unaligned
 2769 166e 5160     		str	r1, [r2, #4]	@ unaligned
 2770 1670 1B78     		ldrb	r3, [r3, #0]
 2771 1672 1372     		strb	r3, [r2, #8]
 445:.\clu.c       **** 	sprintf(clu[38][3],  "#PTQ 14 0.2 1.5");
 2772              		.loc 1 445 0
 2773 1674 2A4A     		ldr	r2, .L17+140
 2774 1676 40F20003 		movw	r3, #:lower16:.LC69
 2775 167a C0F20003 		movt	r3, #:upper16:.LC69
 2776 167e 1446     		mov	r4, r2
 2777 1680 1D46     		mov	r5, r3
 2778 1682 0FCD     		ldmia	r5!, {r0, r1, r2, r3}
 2779 1684 2060     		str	r0, [r4, #0]	@ unaligned
 2780 1686 6160     		str	r1, [r4, #4]	@ unaligned
 2781 1688 A260     		str	r2, [r4, #8]	@ unaligned
 2782 168a E360     		str	r3, [r4, #12]	@ unaligned
 446:.\clu.c       **** 	sprintf(clu[38][4],  "#PATHEXEC");	
 2783              		.loc 1 446 0
 2784 168c 254A     		ldr	r2, .L17+144
 2785 168e 40F20003 		movw	r3, #:lower16:.LC3
 2786 1692 49E0     		b	.L18
 2787              	.L19:
 2788              		.align	2
 2789              	.L17:
 2790 1694 12480000 		.word	clu+18450
 2791 1698 2B480000 		.word	clu+18475
 2792 169c 44480000 		.word	clu+18500
 2793 16a0 5D480000 		.word	clu+18525
 2794 16a4 76480000 		.word	clu+18550
 2795 16a8 D4490000 		.word	clu+18900
 2796 16ac ED490000 		.word	clu+18925
 2797 16b0 064A0000 		.word	clu+18950
 2798 16b4 1F4A0000 		.word	clu+18975
 2799 16b8 384A0000 		.word	clu+19000
 2800 16bc 514A0000 		.word	clu+19025
 2801 16c0 6A4A0000 		.word	clu+19050
 2802 16c4 E14B0000 		.word	clu+19425
 2803 16c8 FA4B0000 		.word	clu+19450
 2804 16cc 134C0000 		.word	clu+19475
 2805 16d0 2C4C0000 		.word	clu+19500
 2806 16d4 454C0000 		.word	clu+19525
 2807 16d8 5E4C0000 		.word	clu+19550
 2808 16dc 774C0000 		.word	clu+19575
 2809 16e0 904C0000 		.word	clu+19600
 2810 16e4 A94C0000 		.word	clu+19625
ARM GAS  C:\Users\gravi\AppData\Local\Temp\cczW92Yj.s 			page 63


 2811 16e8 C24C0000 		.word	clu+19650
 2812 16ec DB4C0000 		.word	clu+19675
 2813 16f0 F44C0000 		.word	clu+19700
 2814 16f4 0D4D0000 		.word	clu+19725
 2815 16f8 264D0000 		.word	clu+19750
 2816 16fc 3F4D0000 		.word	clu+19775
 2817 1700 584D0000 		.word	clu+19800
 2818 1704 714D0000 		.word	clu+19825
 2819 1708 8A4D0000 		.word	clu+19850
 2820 170c A34D0000 		.word	clu+19875
 2821 1710 BC4D0000 		.word	clu+19900
 2822 1714 EE4D0000 		.word	clu+19950
 2823 1718 074E0000 		.word	clu+19975
 2824 171c 204E0000 		.word	clu+20000
 2825 1720 394E0000 		.word	clu+20025
 2826 1724 524E0000 		.word	clu+20050
 2827              	.L18:
 2828 1728 C0F20003 		movt	r3, #:upper16:.LC3
 2829 172c 03CB     		ldmia	r3!, {r0, r1}
 2830 172e 1060     		str	r0, [r2, #0]	@ unaligned
 2831 1730 5160     		str	r1, [r2, #4]	@ unaligned
 2832 1732 1B88     		ldrh	r3, [r3, #0]	@ unaligned
 2833 1734 1381     		strh	r3, [r2, #8]	@ unaligned
 447:.\clu.c       **** 	sprintf(clu[38][5],  "#PAUSE 1");
 2834              		.loc 1 447 0
 2835 1736 CD4A     		ldr	r2, .L20
 2836 1738 40F20003 		movw	r3, #:lower16:.LC25
 2837 173c C0F20003 		movt	r3, #:upper16:.LC25
 2838 1740 03CB     		ldmia	r3!, {r0, r1}
 2839 1742 1060     		str	r0, [r2, #0]	@ unaligned
 2840 1744 5160     		str	r1, [r2, #4]	@ unaligned
 2841 1746 1B78     		ldrb	r3, [r3, #0]
 2842 1748 1372     		strb	r3, [r2, #8]
 448:.\clu.c       **** 	sprintf(clu[38][6],  "#PTQ 11 0.2 1.5");
 2843              		.loc 1 448 0
 2844 174a C94A     		ldr	r2, .L20+4
 2845 174c 40F20003 		movw	r3, #:lower16:.LC61
 2846 1750 C0F20003 		movt	r3, #:upper16:.LC61
 2847 1754 1446     		mov	r4, r2
 2848 1756 1D46     		mov	r5, r3
 2849 1758 0FCD     		ldmia	r5!, {r0, r1, r2, r3}
 2850 175a 2060     		str	r0, [r4, #0]	@ unaligned
 2851 175c 6160     		str	r1, [r4, #4]	@ unaligned
 2852 175e A260     		str	r2, [r4, #8]	@ unaligned
 2853 1760 E360     		str	r3, [r4, #12]	@ unaligned
 449:.\clu.c       **** 	sprintf(clu[38][7],  "#PATHEXEC");
 2854              		.loc 1 449 0
 2855 1762 C44A     		ldr	r2, .L20+8
 2856 1764 40F20003 		movw	r3, #:lower16:.LC3
 2857 1768 C0F20003 		movt	r3, #:upper16:.LC3
 2858 176c 03CB     		ldmia	r3!, {r0, r1}
 2859 176e 1060     		str	r0, [r2, #0]	@ unaligned
 2860 1770 5160     		str	r1, [r2, #4]	@ unaligned
 2861 1772 1B88     		ldrh	r3, [r3, #0]	@ unaligned
 2862 1774 1381     		strh	r3, [r2, #8]	@ unaligned
 450:.\clu.c       **** 	sprintf(clu[38][8],  "#PAUSE 2");	
 2863              		.loc 1 450 0
ARM GAS  C:\Users\gravi\AppData\Local\Temp\cczW92Yj.s 			page 64


 2864 1776 C04A     		ldr	r2, .L20+12
 2865 1778 40F20003 		movw	r3, #:lower16:.LC68
 2866 177c C0F20003 		movt	r3, #:upper16:.LC68
 2867 1780 03CB     		ldmia	r3!, {r0, r1}
 2868 1782 1060     		str	r0, [r2, #0]	@ unaligned
 2869 1784 5160     		str	r1, [r2, #4]	@ unaligned
 2870 1786 1B78     		ldrb	r3, [r3, #0]
 2871 1788 1372     		strb	r3, [r2, #8]
 451:.\clu.c       **** 	sprintf(clu[38][9],  "#PTQ 17 0.2 1.5");
 2872              		.loc 1 451 0
 2873 178a BC4A     		ldr	r2, .L20+16
 2874 178c 40F20003 		movw	r3, #:lower16:.LC70
 2875 1790 C0F20003 		movt	r3, #:upper16:.LC70
 2876 1794 1446     		mov	r4, r2
 2877 1796 1D46     		mov	r5, r3
 2878 1798 0FCD     		ldmia	r5!, {r0, r1, r2, r3}
 2879 179a 2060     		str	r0, [r4, #0]	@ unaligned
 2880 179c 6160     		str	r1, [r4, #4]	@ unaligned
 2881 179e A260     		str	r2, [r4, #8]	@ unaligned
 2882 17a0 E360     		str	r3, [r4, #12]	@ unaligned
 452:.\clu.c       **** 	sprintf(clu[38][10], "#PATHEXEC");	
 2883              		.loc 1 452 0
 2884 17a2 B74A     		ldr	r2, .L20+20
 2885 17a4 40F20003 		movw	r3, #:lower16:.LC3
 2886 17a8 C0F20003 		movt	r3, #:upper16:.LC3
 2887 17ac 03CB     		ldmia	r3!, {r0, r1}
 2888 17ae 1060     		str	r0, [r2, #0]	@ unaligned
 2889 17b0 5160     		str	r1, [r2, #4]	@ unaligned
 2890 17b2 1B88     		ldrh	r3, [r3, #0]	@ unaligned
 2891 17b4 1381     		strh	r3, [r2, #8]	@ unaligned
 453:.\clu.c       **** 	sprintf(clu[38][11], "#PAUSE 1");	
 2892              		.loc 1 453 0
 2893 17b6 B34A     		ldr	r2, .L20+24
 2894 17b8 40F20003 		movw	r3, #:lower16:.LC25
 2895 17bc C0F20003 		movt	r3, #:upper16:.LC25
 2896 17c0 03CB     		ldmia	r3!, {r0, r1}
 2897 17c2 1060     		str	r0, [r2, #0]	@ unaligned
 2898 17c4 5160     		str	r1, [r2, #4]	@ unaligned
 2899 17c6 1B78     		ldrb	r3, [r3, #0]
 2900 17c8 1372     		strb	r3, [r2, #8]
 454:.\clu.c       **** 	sprintf(clu[38][12], "#PTQ 11 0.2 1.5");
 2901              		.loc 1 454 0
 2902 17ca AF4A     		ldr	r2, .L20+28
 2903 17cc 40F20003 		movw	r3, #:lower16:.LC61
 2904 17d0 C0F20003 		movt	r3, #:upper16:.LC61
 2905 17d4 1446     		mov	r4, r2
 2906 17d6 1D46     		mov	r5, r3
 2907 17d8 0FCD     		ldmia	r5!, {r0, r1, r2, r3}
 2908 17da 2060     		str	r0, [r4, #0]	@ unaligned
 2909 17dc 6160     		str	r1, [r4, #4]	@ unaligned
 2910 17de A260     		str	r2, [r4, #8]	@ unaligned
 2911 17e0 E360     		str	r3, [r4, #12]	@ unaligned
 455:.\clu.c       **** 	sprintf(clu[38][13], "#PATHEXEC");
 2912              		.loc 1 455 0
 2913 17e2 AA4A     		ldr	r2, .L20+32
 2914 17e4 40F20003 		movw	r3, #:lower16:.LC3
 2915 17e8 C0F20003 		movt	r3, #:upper16:.LC3
ARM GAS  C:\Users\gravi\AppData\Local\Temp\cczW92Yj.s 			page 65


 2916 17ec 03CB     		ldmia	r3!, {r0, r1}
 2917 17ee 1060     		str	r0, [r2, #0]	@ unaligned
 2918 17f0 5160     		str	r1, [r2, #4]	@ unaligned
 2919 17f2 1B88     		ldrh	r3, [r3, #0]	@ unaligned
 2920 17f4 1381     		strh	r3, [r2, #8]	@ unaligned
 456:.\clu.c       **** 	sprintf(clu[38][14], "#PAUSE 1.5");
 2921              		.loc 1 456 0
 2922 17f6 A64A     		ldr	r2, .L20+36
 2923 17f8 40F20003 		movw	r3, #:lower16:.LC71
 2924 17fc C0F20003 		movt	r3, #:upper16:.LC71
 2925 1800 03CB     		ldmia	r3!, {r0, r1}
 2926 1802 1060     		str	r0, [r2, #0]	@ unaligned
 2927 1804 5160     		str	r1, [r2, #4]	@ unaligned
 2928 1806 1988     		ldrh	r1, [r3, #0]	@ unaligned
 2929 1808 9B78     		ldrb	r3, [r3, #2]
 2930 180a 1181     		strh	r1, [r2, #8]	@ unaligned
 2931 180c 9372     		strb	r3, [r2, #10]
 457:.\clu.c       **** 	sprintf(clu[38][15], "#PTQ 31 0.2 9");
 2932              		.loc 1 457 0
 2933 180e A14A     		ldr	r2, .L20+40
 2934 1810 40F20003 		movw	r3, #:lower16:.LC72
 2935 1814 C0F20003 		movt	r3, #:upper16:.LC72
 2936 1818 1446     		mov	r4, r2
 2937 181a 07CB     		ldmia	r3!, {r0, r1, r2}
 2938 181c 2060     		str	r0, [r4, #0]	@ unaligned
 2939 181e 6160     		str	r1, [r4, #4]	@ unaligned
 2940 1820 A260     		str	r2, [r4, #8]	@ unaligned
 2941 1822 1B88     		ldrh	r3, [r3, #0]	@ unaligned
 2942 1824 A381     		strh	r3, [r4, #12]	@ unaligned
 458:.\clu.c       **** 	sprintf(clu[38][16], "#PATHEXEC");		
 2943              		.loc 1 458 0
 2944 1826 9C4A     		ldr	r2, .L20+44
 2945 1828 40F20003 		movw	r3, #:lower16:.LC3
 2946 182c C0F20003 		movt	r3, #:upper16:.LC3
 2947 1830 03CB     		ldmia	r3!, {r0, r1}
 2948 1832 1060     		str	r0, [r2, #0]	@ unaligned
 2949 1834 5160     		str	r1, [r2, #4]	@ unaligned
 2950 1836 1B88     		ldrh	r3, [r3, #0]	@ unaligned
 2951 1838 1381     		strh	r3, [r2, #8]	@ unaligned
 459:.\clu.c       **** 	sprintf(clu[38][17], "#CLUEND");	
 2952              		.loc 1 459 0
 2953 183a 984A     		ldr	r2, .L20+48
 2954 183c 40F20003 		movw	r3, #:lower16:.LC5
 2955 1840 C0F20003 		movt	r3, #:upper16:.LC5
 2956 1844 03CB     		ldmia	r3!, {r0, r1}
 2957 1846 1060     		str	r0, [r2, #0]	@ unaligned
 2958 1848 5160     		str	r1, [r2, #4]	@ unaligned
 460:.\clu.c       **** 	
 461:.\clu.c       **** 	
 462:.\clu.c       **** 	/*----------------------------------------------*/
 463:.\clu.c       **** 	/* CLU 39 INIT									*/
 464:.\clu.c       **** 	/* WHERE ARE MY EYES LOOKING FOR II?			*/
 465:.\clu.c       **** 	/*                 "########################\0" */
 466:.\clu.c       **** 	/*----------------------------------------------*/	
 467:.\clu.c       **** 	sprintf(clu[39][0],  "#PTQ 11 0.2 1.5");
 2959              		.loc 1 467 0
 2960 184a 954A     		ldr	r2, .L20+52
ARM GAS  C:\Users\gravi\AppData\Local\Temp\cczW92Yj.s 			page 66


 2961 184c 40F20003 		movw	r3, #:lower16:.LC61
 2962 1850 C0F20003 		movt	r3, #:upper16:.LC61
 2963 1854 1446     		mov	r4, r2
 2964 1856 1D46     		mov	r5, r3
 2965 1858 0FCD     		ldmia	r5!, {r0, r1, r2, r3}
 2966 185a 2060     		str	r0, [r4, #0]	@ unaligned
 2967 185c 6160     		str	r1, [r4, #4]	@ unaligned
 2968 185e A260     		str	r2, [r4, #8]	@ unaligned
 2969 1860 E360     		str	r3, [r4, #12]	@ unaligned
 468:.\clu.c       **** 	sprintf(clu[39][1],  "#PATHEXEC");
 2970              		.loc 1 468 0
 2971 1862 904A     		ldr	r2, .L20+56
 2972 1864 40F20003 		movw	r3, #:lower16:.LC3
 2973 1868 C0F20003 		movt	r3, #:upper16:.LC3
 2974 186c 03CB     		ldmia	r3!, {r0, r1}
 2975 186e 1060     		str	r0, [r2, #0]	@ unaligned
 2976 1870 5160     		str	r1, [r2, #4]	@ unaligned
 2977 1872 1B88     		ldrh	r3, [r3, #0]	@ unaligned
 2978 1874 1381     		strh	r3, [r2, #8]	@ unaligned
 469:.\clu.c       **** 	sprintf(clu[39][2],  "#PAUSE 2");
 2979              		.loc 1 469 0
 2980 1876 8C4A     		ldr	r2, .L20+60
 2981 1878 40F20003 		movw	r3, #:lower16:.LC68
 2982 187c C0F20003 		movt	r3, #:upper16:.LC68
 2983 1880 03CB     		ldmia	r3!, {r0, r1}
 2984 1882 1060     		str	r0, [r2, #0]	@ unaligned
 2985 1884 5160     		str	r1, [r2, #4]	@ unaligned
 2986 1886 1B78     		ldrb	r3, [r3, #0]
 2987 1888 1372     		strb	r3, [r2, #8]
 470:.\clu.c       **** 	sprintf(clu[39][3],  "#PTQ 42 0.2 1.5");
 2988              		.loc 1 470 0
 2989 188a 884A     		ldr	r2, .L20+64
 2990 188c 40F20003 		movw	r3, #:lower16:.LC73
 2991 1890 C0F20003 		movt	r3, #:upper16:.LC73
 2992 1894 1446     		mov	r4, r2
 2993 1896 1D46     		mov	r5, r3
 2994 1898 0FCD     		ldmia	r5!, {r0, r1, r2, r3}
 2995 189a 2060     		str	r0, [r4, #0]	@ unaligned
 2996 189c 6160     		str	r1, [r4, #4]	@ unaligned
 2997 189e A260     		str	r2, [r4, #8]	@ unaligned
 2998 18a0 E360     		str	r3, [r4, #12]	@ unaligned
 471:.\clu.c       **** 	sprintf(clu[39][4],  "#PATHEXEC");	
 2999              		.loc 1 471 0
 3000 18a2 834A     		ldr	r2, .L20+68
 3001 18a4 40F20003 		movw	r3, #:lower16:.LC3
 3002 18a8 C0F20003 		movt	r3, #:upper16:.LC3
 3003 18ac 03CB     		ldmia	r3!, {r0, r1}
 3004 18ae 1060     		str	r0, [r2, #0]	@ unaligned
 3005 18b0 5160     		str	r1, [r2, #4]	@ unaligned
 3006 18b2 1B88     		ldrh	r3, [r3, #0]	@ unaligned
 3007 18b4 1381     		strh	r3, [r2, #8]	@ unaligned
 472:.\clu.c       **** 	sprintf(clu[39][5],  "#PAUSE 1");
 3008              		.loc 1 472 0
 3009 18b6 7F4A     		ldr	r2, .L20+72
 3010 18b8 40F20003 		movw	r3, #:lower16:.LC25
 3011 18bc C0F20003 		movt	r3, #:upper16:.LC25
 3012 18c0 03CB     		ldmia	r3!, {r0, r1}
ARM GAS  C:\Users\gravi\AppData\Local\Temp\cczW92Yj.s 			page 67


 3013 18c2 1060     		str	r0, [r2, #0]	@ unaligned
 3014 18c4 5160     		str	r1, [r2, #4]	@ unaligned
 3015 18c6 1B78     		ldrb	r3, [r3, #0]
 3016 18c8 1372     		strb	r3, [r2, #8]
 473:.\clu.c       **** 	sprintf(clu[39][6],  "#PTQ 11 0.2 1.5");
 3017              		.loc 1 473 0
 3018 18ca 7B4A     		ldr	r2, .L20+76
 3019 18cc 40F20003 		movw	r3, #:lower16:.LC61
 3020 18d0 C0F20003 		movt	r3, #:upper16:.LC61
 3021 18d4 1446     		mov	r4, r2
 3022 18d6 1D46     		mov	r5, r3
 3023 18d8 0FCD     		ldmia	r5!, {r0, r1, r2, r3}
 3024 18da 2060     		str	r0, [r4, #0]	@ unaligned
 3025 18dc 6160     		str	r1, [r4, #4]	@ unaligned
 3026 18de A260     		str	r2, [r4, #8]	@ unaligned
 3027 18e0 E360     		str	r3, [r4, #12]	@ unaligned
 474:.\clu.c       **** 	sprintf(clu[39][7],  "#PATHEXEC");
 3028              		.loc 1 474 0
 3029 18e2 764A     		ldr	r2, .L20+80
 3030 18e4 40F20003 		movw	r3, #:lower16:.LC3
 3031 18e8 C0F20003 		movt	r3, #:upper16:.LC3
 3032 18ec 03CB     		ldmia	r3!, {r0, r1}
 3033 18ee 1060     		str	r0, [r2, #0]	@ unaligned
 3034 18f0 5160     		str	r1, [r2, #4]	@ unaligned
 3035 18f2 1B88     		ldrh	r3, [r3, #0]	@ unaligned
 3036 18f4 1381     		strh	r3, [r2, #8]	@ unaligned
 475:.\clu.c       **** 	sprintf(clu[39][8],  "#PAUSE 2");	
 3037              		.loc 1 475 0
 3038 18f6 724A     		ldr	r2, .L20+84
 3039 18f8 40F20003 		movw	r3, #:lower16:.LC68
 3040 18fc C0F20003 		movt	r3, #:upper16:.LC68
 3041 1900 03CB     		ldmia	r3!, {r0, r1}
 3042 1902 1060     		str	r0, [r2, #0]	@ unaligned
 3043 1904 5160     		str	r1, [r2, #4]	@ unaligned
 3044 1906 1B78     		ldrb	r3, [r3, #0]
 3045 1908 1372     		strb	r3, [r2, #8]
 476:.\clu.c       **** 	sprintf(clu[39][9],  "#PTQ 41 0.2 1.5");
 3046              		.loc 1 476 0
 3047 190a 6E4A     		ldr	r2, .L20+88
 3048 190c 40F20003 		movw	r3, #:lower16:.LC74
 3049 1910 C0F20003 		movt	r3, #:upper16:.LC74
 3050 1914 1446     		mov	r4, r2
 3051 1916 1D46     		mov	r5, r3
 3052 1918 0FCD     		ldmia	r5!, {r0, r1, r2, r3}
 3053 191a 2060     		str	r0, [r4, #0]	@ unaligned
 3054 191c 6160     		str	r1, [r4, #4]	@ unaligned
 3055 191e A260     		str	r2, [r4, #8]	@ unaligned
 3056 1920 E360     		str	r3, [r4, #12]	@ unaligned
 477:.\clu.c       **** 	sprintf(clu[39][10], "#PATHEXEC");	
 3057              		.loc 1 477 0
 3058 1922 694A     		ldr	r2, .L20+92
 3059 1924 40F20003 		movw	r3, #:lower16:.LC3
 3060 1928 C0F20003 		movt	r3, #:upper16:.LC3
 3061 192c 03CB     		ldmia	r3!, {r0, r1}
 3062 192e 1060     		str	r0, [r2, #0]	@ unaligned
 3063 1930 5160     		str	r1, [r2, #4]	@ unaligned
 3064 1932 1B88     		ldrh	r3, [r3, #0]	@ unaligned
ARM GAS  C:\Users\gravi\AppData\Local\Temp\cczW92Yj.s 			page 68


 3065 1934 1381     		strh	r3, [r2, #8]	@ unaligned
 478:.\clu.c       **** 	sprintf(clu[39][11], "#PAUSE 1");	
 3066              		.loc 1 478 0
 3067 1936 654A     		ldr	r2, .L20+96
 3068 1938 40F20003 		movw	r3, #:lower16:.LC25
 3069 193c C0F20003 		movt	r3, #:upper16:.LC25
 3070 1940 03CB     		ldmia	r3!, {r0, r1}
 3071 1942 1060     		str	r0, [r2, #0]	@ unaligned
 3072 1944 5160     		str	r1, [r2, #4]	@ unaligned
 3073 1946 1B78     		ldrb	r3, [r3, #0]
 3074 1948 1372     		strb	r3, [r2, #8]
 479:.\clu.c       **** 	sprintf(clu[39][12], "#PTQ 11 0.2 1.5");
 3075              		.loc 1 479 0
 3076 194a 614A     		ldr	r2, .L20+100
 3077 194c 40F20003 		movw	r3, #:lower16:.LC61
 3078 1950 C0F20003 		movt	r3, #:upper16:.LC61
 3079 1954 1446     		mov	r4, r2
 3080 1956 1D46     		mov	r5, r3
 3081 1958 0FCD     		ldmia	r5!, {r0, r1, r2, r3}
 3082 195a 2060     		str	r0, [r4, #0]	@ unaligned
 3083 195c 6160     		str	r1, [r4, #4]	@ unaligned
 3084 195e A260     		str	r2, [r4, #8]	@ unaligned
 3085 1960 E360     		str	r3, [r4, #12]	@ unaligned
 480:.\clu.c       **** 	sprintf(clu[39][13], "#PATHEXEC");
 3086              		.loc 1 480 0
 3087 1962 5C4A     		ldr	r2, .L20+104
 3088 1964 40F20003 		movw	r3, #:lower16:.LC3
 3089 1968 C0F20003 		movt	r3, #:upper16:.LC3
 3090 196c 03CB     		ldmia	r3!, {r0, r1}
 3091 196e 1060     		str	r0, [r2, #0]	@ unaligned
 3092 1970 5160     		str	r1, [r2, #4]	@ unaligned
 3093 1972 1B88     		ldrh	r3, [r3, #0]	@ unaligned
 3094 1974 1381     		strh	r3, [r2, #8]	@ unaligned
 481:.\clu.c       **** 	sprintf(clu[39][14], "#PAUSE 1.5");
 3095              		.loc 1 481 0
 3096 1976 584A     		ldr	r2, .L20+108
 3097 1978 40F20003 		movw	r3, #:lower16:.LC71
 3098 197c C0F20003 		movt	r3, #:upper16:.LC71
 3099 1980 03CB     		ldmia	r3!, {r0, r1}
 3100 1982 1060     		str	r0, [r2, #0]	@ unaligned
 3101 1984 5160     		str	r1, [r2, #4]	@ unaligned
 3102 1986 1988     		ldrh	r1, [r3, #0]	@ unaligned
 3103 1988 9B78     		ldrb	r3, [r3, #2]
 3104 198a 1181     		strh	r1, [r2, #8]	@ unaligned
 3105 198c 9372     		strb	r3, [r2, #10]
 482:.\clu.c       **** 	sprintf(clu[39][15], "#PTQ 51 0.2 9");
 3106              		.loc 1 482 0
 3107 198e 534A     		ldr	r2, .L20+112
 3108 1990 40F20003 		movw	r3, #:lower16:.LC75
 3109 1994 C0F20003 		movt	r3, #:upper16:.LC75
 3110 1998 1446     		mov	r4, r2
 3111 199a 07CB     		ldmia	r3!, {r0, r1, r2}
 3112 199c 2060     		str	r0, [r4, #0]	@ unaligned
 3113 199e 6160     		str	r1, [r4, #4]	@ unaligned
 3114 19a0 A260     		str	r2, [r4, #8]	@ unaligned
 3115 19a2 1B88     		ldrh	r3, [r3, #0]	@ unaligned
 3116 19a4 A381     		strh	r3, [r4, #12]	@ unaligned
ARM GAS  C:\Users\gravi\AppData\Local\Temp\cczW92Yj.s 			page 69


 483:.\clu.c       **** 	sprintf(clu[39][16], "#PATHEXEC");		
 3117              		.loc 1 483 0
 3118 19a6 4E4A     		ldr	r2, .L20+116
 3119 19a8 40F20003 		movw	r3, #:lower16:.LC3
 3120 19ac C0F20003 		movt	r3, #:upper16:.LC3
 3121 19b0 03CB     		ldmia	r3!, {r0, r1}
 3122 19b2 1060     		str	r0, [r2, #0]	@ unaligned
 3123 19b4 5160     		str	r1, [r2, #4]	@ unaligned
 3124 19b6 1B88     		ldrh	r3, [r3, #0]	@ unaligned
 3125 19b8 1381     		strh	r3, [r2, #8]	@ unaligned
 484:.\clu.c       **** 	sprintf(clu[39][17], "#CLUEND");	
 3126              		.loc 1 484 0
 3127 19ba 4A4A     		ldr	r2, .L20+120
 3128 19bc 40F20003 		movw	r3, #:lower16:.LC5
 3129 19c0 C0F20003 		movt	r3, #:upper16:.LC5
 3130 19c4 03CB     		ldmia	r3!, {r0, r1}
 3131 19c6 1060     		str	r0, [r2, #0]	@ unaligned
 3132 19c8 5160     		str	r1, [r2, #4]	@ unaligned
 485:.\clu.c       **** 		
 486:.\clu.c       **** 	
 487:.\clu.c       **** 	/*----------------------------------------------*/
 488:.\clu.c       **** 	/* CLU 40 INIT									*/
 489:.\clu.c       **** 	/* BIG SPYRO 									*/
 490:.\clu.c       **** 	/*                 "########################\0" */
 491:.\clu.c       **** 	/*----------------------------------------------*/
 492:.\clu.c       **** 	sprintf(clu[40][0], "#CAMERAON");	
 3133              		.loc 1 492 0
 3134 19ca 474A     		ldr	r2, .L20+124
 3135 19cc 40F20003 		movw	r3, #:lower16:.LC0
 3136 19d0 C0F20003 		movt	r3, #:upper16:.LC0
 3137 19d4 03CB     		ldmia	r3!, {r0, r1}
 3138 19d6 1060     		str	r0, [r2, #0]	@ unaligned
 3139 19d8 5160     		str	r1, [r2, #4]	@ unaligned
 3140 19da 1B88     		ldrh	r3, [r3, #0]	@ unaligned
 3141 19dc 1381     		strh	r3, [r2, #8]	@ unaligned
 493:.\clu.c       **** 	sprintf(clu[40][1], "#PTQ 13 0.2 1.5");
 3142              		.loc 1 493 0
 3143 19de 434A     		ldr	r2, .L20+128
 3144 19e0 40F20003 		movw	r3, #:lower16:.LC76
 3145 19e4 C0F20003 		movt	r3, #:upper16:.LC76
 3146 19e8 1446     		mov	r4, r2
 3147 19ea 1D46     		mov	r5, r3
 3148 19ec 0FCD     		ldmia	r5!, {r0, r1, r2, r3}
 3149 19ee 2060     		str	r0, [r4, #0]	@ unaligned
 3150 19f0 6160     		str	r1, [r4, #4]	@ unaligned
 3151 19f2 A260     		str	r2, [r4, #8]	@ unaligned
 3152 19f4 E360     		str	r3, [r4, #12]	@ unaligned
 494:.\clu.c       **** 	sprintf(clu[40][2], "#PATHEXEC");	
 3153              		.loc 1 494 0
 3154 19f6 3E4A     		ldr	r2, .L20+132
 3155 19f8 40F20003 		movw	r3, #:lower16:.LC3
 3156 19fc C0F20003 		movt	r3, #:upper16:.LC3
 3157 1a00 03CB     		ldmia	r3!, {r0, r1}
 3158 1a02 1060     		str	r0, [r2, #0]	@ unaligned
 3159 1a04 5160     		str	r1, [r2, #4]	@ unaligned
 3160 1a06 1B88     		ldrh	r3, [r3, #0]	@ unaligned
 3161 1a08 1381     		strh	r3, [r2, #8]	@ unaligned
ARM GAS  C:\Users\gravi\AppData\Local\Temp\cczW92Yj.s 			page 70


 495:.\clu.c       **** 	sprintf(clu[40][3], "#PTRAP +1620  0.2 28");
 3162              		.loc 1 495 0
 3163 1a0a 3A4A     		ldr	r2, .L20+136
 3164 1a0c 40F20003 		movw	r3, #:lower16:.LC77
 3165 1a10 C0F20003 		movt	r3, #:upper16:.LC77
 3166 1a14 1546     		mov	r5, r2
 3167 1a16 1C46     		mov	r4, r3
 3168 1a18 0FCC     		ldmia	r4!, {r0, r1, r2, r3}
 3169 1a1a 2860     		str	r0, [r5, #0]	@ unaligned
 3170 1a1c 6960     		str	r1, [r5, #4]	@ unaligned
 3171 1a1e AA60     		str	r2, [r5, #8]	@ unaligned
 3172 1a20 EB60     		str	r3, [r5, #12]	@ unaligned
 3173 1a22 2068     		ldr	r0, [r4, #0]	@ unaligned
 3174 1a24 2861     		str	r0, [r5, #16]	@ unaligned
 3175 1a26 2379     		ldrb	r3, [r4, #4]
 3176 1a28 2B75     		strb	r3, [r5, #20]
 496:.\clu.c       **** 	sprintf(clu[40][4], "#TTRAP +120   0.2 28");	
 3177              		.loc 1 496 0
 3178 1a2a 334A     		ldr	r2, .L20+140
 3179 1a2c 40F20003 		movw	r3, #:lower16:.LC78
 3180 1a30 C0F20003 		movt	r3, #:upper16:.LC78
 3181 1a34 1546     		mov	r5, r2
 3182 1a36 1C46     		mov	r4, r3
 3183 1a38 0FCC     		ldmia	r4!, {r0, r1, r2, r3}
 3184 1a3a 2860     		str	r0, [r5, #0]	@ unaligned
 3185 1a3c 6960     		str	r1, [r5, #4]	@ unaligned
 3186 1a3e AA60     		str	r2, [r5, #8]	@ unaligned
 3187 1a40 EB60     		str	r3, [r5, #12]	@ unaligned
 3188 1a42 2068     		ldr	r0, [r4, #0]	@ unaligned
 3189 1a44 2861     		str	r0, [r5, #16]	@ unaligned
 3190 1a46 2379     		ldrb	r3, [r4, #4]
 3191 1a48 2B75     		strb	r3, [r5, #20]
 497:.\clu.c       **** 	sprintf(clu[40][5], "#PATHEXEC");	
 3192              		.loc 1 497 0
 3193 1a4a 2C4A     		ldr	r2, .L20+144
 3194 1a4c 40F20003 		movw	r3, #:lower16:.LC3
 3195 1a50 C0F20003 		movt	r3, #:upper16:.LC3
 3196 1a54 03CB     		ldmia	r3!, {r0, r1}
 3197 1a56 1060     		str	r0, [r2, #0]	@ unaligned
 3198 1a58 5160     		str	r1, [r2, #4]	@ unaligned
 3199 1a5a 1B88     		ldrh	r3, [r3, #0]	@ unaligned
 3200 1a5c 1381     		strh	r3, [r2, #8]	@ unaligned
 498:.\clu.c       **** 	sprintf(clu[40][6], "#CAMERAOFF");	
 3201              		.loc 1 498 0
 3202 1a5e 284A     		ldr	r2, .L20+148
 3203 1a60 40F20003 		movw	r3, #:lower16:.LC4
 3204 1a64 C0F20003 		movt	r3, #:upper16:.LC4
 3205 1a68 4CE0     		b	.L21
 3206              	.L22:
 3207 1a6a 00BF     		.align	2
 3208              	.L20:
 3209 1a6c 6B4E0000 		.word	clu+20075
 3210 1a70 844E0000 		.word	clu+20100
 3211 1a74 9D4E0000 		.word	clu+20125
 3212 1a78 B64E0000 		.word	clu+20150
 3213 1a7c CF4E0000 		.word	clu+20175
 3214 1a80 E84E0000 		.word	clu+20200
ARM GAS  C:\Users\gravi\AppData\Local\Temp\cczW92Yj.s 			page 71


 3215 1a84 014F0000 		.word	clu+20225
 3216 1a88 1A4F0000 		.word	clu+20250
 3217 1a8c 334F0000 		.word	clu+20275
 3218 1a90 4C4F0000 		.word	clu+20300
 3219 1a94 654F0000 		.word	clu+20325
 3220 1a98 7E4F0000 		.word	clu+20350
 3221 1a9c 974F0000 		.word	clu+20375
 3222 1aa0 FB4F0000 		.word	clu+20475
 3223 1aa4 14500000 		.word	clu+20500
 3224 1aa8 2D500000 		.word	clu+20525
 3225 1aac 46500000 		.word	clu+20550
 3226 1ab0 5F500000 		.word	clu+20575
 3227 1ab4 78500000 		.word	clu+20600
 3228 1ab8 91500000 		.word	clu+20625
 3229 1abc AA500000 		.word	clu+20650
 3230 1ac0 C3500000 		.word	clu+20675
 3231 1ac4 DC500000 		.word	clu+20700
 3232 1ac8 F5500000 		.word	clu+20725
 3233 1acc 0E510000 		.word	clu+20750
 3234 1ad0 27510000 		.word	clu+20775
 3235 1ad4 40510000 		.word	clu+20800
 3236 1ad8 59510000 		.word	clu+20825
 3237 1adc 72510000 		.word	clu+20850
 3238 1ae0 8B510000 		.word	clu+20875
 3239 1ae4 A4510000 		.word	clu+20900
 3240 1ae8 08520000 		.word	clu+21000
 3241 1aec 21520000 		.word	clu+21025
 3242 1af0 3A520000 		.word	clu+21050
 3243 1af4 53520000 		.word	clu+21075
 3244 1af8 6C520000 		.word	clu+21100
 3245 1afc 85520000 		.word	clu+21125
 3246 1b00 9E520000 		.word	clu+21150
 3247              	.L21:
 3248 1b04 03CB     		ldmia	r3!, {r0, r1}
 3249 1b06 1060     		str	r0, [r2, #0]	@ unaligned
 3250 1b08 5160     		str	r1, [r2, #4]	@ unaligned
 3251 1b0a 1988     		ldrh	r1, [r3, #0]	@ unaligned
 3252 1b0c 9B78     		ldrb	r3, [r3, #2]
 3253 1b0e 1181     		strh	r1, [r2, #8]	@ unaligned
 3254 1b10 9372     		strb	r3, [r2, #10]
 499:.\clu.c       **** 	sprintf(clu[40][7], "#CLUEND");	
 3255              		.loc 1 499 0
 3256 1b12 624A     		ldr	r2, .L23
 3257 1b14 40F20003 		movw	r3, #:lower16:.LC5
 3258 1b18 C0F20003 		movt	r3, #:upper16:.LC5
 3259 1b1c 03CB     		ldmia	r3!, {r0, r1}
 3260 1b1e 1060     		str	r0, [r2, #0]	@ unaligned
 3261 1b20 5160     		str	r1, [r2, #4]	@ unaligned
 500:.\clu.c       **** 	
 501:.\clu.c       **** 	
 502:.\clu.c       **** 	/*----------------------------------------------*/
 503:.\clu.c       **** 	/* CLU 41 INIT									*/
 504:.\clu.c       **** 	/* LITTLE SPYRO 								*/
 505:.\clu.c       **** 	/*                 "########################\0" */
 506:.\clu.c       **** 	/*----------------------------------------------*/
 507:.\clu.c       **** 	sprintf(clu[41][0], "#CAMERAON");	
 3262              		.loc 1 507 0
ARM GAS  C:\Users\gravi\AppData\Local\Temp\cczW92Yj.s 			page 72


 3263 1b22 5F4A     		ldr	r2, .L23+4
 3264 1b24 40F20003 		movw	r3, #:lower16:.LC0
 3265 1b28 C0F20003 		movt	r3, #:upper16:.LC0
 3266 1b2c 03CB     		ldmia	r3!, {r0, r1}
 3267 1b2e 1060     		str	r0, [r2, #0]	@ unaligned
 3268 1b30 5160     		str	r1, [r2, #4]	@ unaligned
 3269 1b32 1B88     		ldrh	r3, [r3, #0]	@ unaligned
 3270 1b34 1381     		strh	r3, [r2, #8]	@ unaligned
 508:.\clu.c       **** 	sprintf(clu[41][1], "#PTQ 21 0.2 1.5");
 3271              		.loc 1 508 0
 3272 1b36 5B4A     		ldr	r2, .L23+8
 3273 1b38 40F20003 		movw	r3, #:lower16:.LC79
 3274 1b3c C0F20003 		movt	r3, #:upper16:.LC79
 3275 1b40 1446     		mov	r4, r2
 3276 1b42 1D46     		mov	r5, r3
 3277 1b44 0FCD     		ldmia	r5!, {r0, r1, r2, r3}
 3278 1b46 2060     		str	r0, [r4, #0]	@ unaligned
 3279 1b48 6160     		str	r1, [r4, #4]	@ unaligned
 3280 1b4a A260     		str	r2, [r4, #8]	@ unaligned
 3281 1b4c E360     		str	r3, [r4, #12]	@ unaligned
 509:.\clu.c       **** 	sprintf(clu[41][2], "#PATHEXEC");
 3282              		.loc 1 509 0
 3283 1b4e 564A     		ldr	r2, .L23+12
 3284 1b50 40F20003 		movw	r3, #:lower16:.LC3
 3285 1b54 C0F20003 		movt	r3, #:upper16:.LC3
 3286 1b58 03CB     		ldmia	r3!, {r0, r1}
 3287 1b5a 1060     		str	r0, [r2, #0]	@ unaligned
 3288 1b5c 5160     		str	r1, [r2, #4]	@ unaligned
 3289 1b5e 1B88     		ldrh	r3, [r3, #0]	@ unaligned
 3290 1b60 1381     		strh	r3, [r2, #8]	@ unaligned
 510:.\clu.c       **** 	sprintf(clu[41][3], "#PAUSE 2");	
 3291              		.loc 1 510 0
 3292 1b62 524A     		ldr	r2, .L23+16
 3293 1b64 40F20003 		movw	r3, #:lower16:.LC68
 3294 1b68 C0F20003 		movt	r3, #:upper16:.LC68
 3295 1b6c 03CB     		ldmia	r3!, {r0, r1}
 3296 1b6e 1060     		str	r0, [r2, #0]	@ unaligned
 3297 1b70 5160     		str	r1, [r2, #4]	@ unaligned
 3298 1b72 1B78     		ldrb	r3, [r3, #0]
 3299 1b74 1372     		strb	r3, [r2, #8]
 511:.\clu.c       **** 	sprintf(clu[41][4], "#PTRAP +360   0.2 10");
 3300              		.loc 1 511 0
 3301 1b76 4E4A     		ldr	r2, .L23+20
 3302 1b78 40F20003 		movw	r3, #:lower16:.LC80
 3303 1b7c C0F20003 		movt	r3, #:upper16:.LC80
 3304 1b80 1546     		mov	r5, r2
 3305 1b82 1C46     		mov	r4, r3
 3306 1b84 0FCC     		ldmia	r4!, {r0, r1, r2, r3}
 3307 1b86 2860     		str	r0, [r5, #0]	@ unaligned
 3308 1b88 6960     		str	r1, [r5, #4]	@ unaligned
 3309 1b8a AA60     		str	r2, [r5, #8]	@ unaligned
 3310 1b8c EB60     		str	r3, [r5, #12]	@ unaligned
 3311 1b8e 2068     		ldr	r0, [r4, #0]	@ unaligned
 3312 1b90 2861     		str	r0, [r5, #16]	@ unaligned
 3313 1b92 2379     		ldrb	r3, [r4, #4]
 3314 1b94 2B75     		strb	r3, [r5, #20]
 512:.\clu.c       **** 	sprintf(clu[41][5], "#TTRAP +100   0.2 10");	
ARM GAS  C:\Users\gravi\AppData\Local\Temp\cczW92Yj.s 			page 73


 3315              		.loc 1 512 0
 3316 1b96 474A     		ldr	r2, .L23+24
 3317 1b98 40F20003 		movw	r3, #:lower16:.LC81
 3318 1b9c C0F20003 		movt	r3, #:upper16:.LC81
 3319 1ba0 1546     		mov	r5, r2
 3320 1ba2 1C46     		mov	r4, r3
 3321 1ba4 0FCC     		ldmia	r4!, {r0, r1, r2, r3}
 3322 1ba6 2860     		str	r0, [r5, #0]	@ unaligned
 3323 1ba8 6960     		str	r1, [r5, #4]	@ unaligned
 3324 1baa AA60     		str	r2, [r5, #8]	@ unaligned
 3325 1bac EB60     		str	r3, [r5, #12]	@ unaligned
 3326 1bae 2068     		ldr	r0, [r4, #0]	@ unaligned
 3327 1bb0 2861     		str	r0, [r5, #16]	@ unaligned
 3328 1bb2 2379     		ldrb	r3, [r4, #4]
 3329 1bb4 2B75     		strb	r3, [r5, #20]
 513:.\clu.c       **** 	sprintf(clu[41][6], "#PATHEXEC");	
 3330              		.loc 1 513 0
 3331 1bb6 404A     		ldr	r2, .L23+28
 3332 1bb8 40F20003 		movw	r3, #:lower16:.LC3
 3333 1bbc C0F20003 		movt	r3, #:upper16:.LC3
 3334 1bc0 03CB     		ldmia	r3!, {r0, r1}
 3335 1bc2 1060     		str	r0, [r2, #0]	@ unaligned
 3336 1bc4 5160     		str	r1, [r2, #4]	@ unaligned
 3337 1bc6 1B88     		ldrh	r3, [r3, #0]	@ unaligned
 3338 1bc8 1381     		strh	r3, [r2, #8]	@ unaligned
 514:.\clu.c       **** 	sprintf(clu[41][7], "#CAMERAOFF");	
 3339              		.loc 1 514 0
 3340 1bca 3C4A     		ldr	r2, .L23+32
 3341 1bcc 40F20003 		movw	r3, #:lower16:.LC4
 3342 1bd0 C0F20003 		movt	r3, #:upper16:.LC4
 3343 1bd4 03CB     		ldmia	r3!, {r0, r1}
 3344 1bd6 1060     		str	r0, [r2, #0]	@ unaligned
 3345 1bd8 5160     		str	r1, [r2, #4]	@ unaligned
 3346 1bda 1988     		ldrh	r1, [r3, #0]	@ unaligned
 3347 1bdc 9B78     		ldrb	r3, [r3, #2]
 3348 1bde 1181     		strh	r1, [r2, #8]	@ unaligned
 3349 1be0 9372     		strb	r3, [r2, #10]
 515:.\clu.c       **** 	sprintf(clu[41][8], "#CLUEND");		
 3350              		.loc 1 515 0
 3351 1be2 374A     		ldr	r2, .L23+36
 3352 1be4 40F20003 		movw	r3, #:lower16:.LC5
 3353 1be8 C0F20003 		movt	r3, #:upper16:.LC5
 3354 1bec 03CB     		ldmia	r3!, {r0, r1}
 3355 1bee 1060     		str	r0, [r2, #0]	@ unaligned
 3356 1bf0 5160     		str	r1, [r2, #4]	@ unaligned
 516:.\clu.c       **** 	
 517:.\clu.c       **** 	
 518:.\clu.c       **** 	/*----------------------------------------------*/
 519:.\clu.c       **** 	/* CLU 49 INIT									*/
 520:.\clu.c       **** 	/* TEST											*/
 521:.\clu.c       **** 	/*                 "########################\0" */
 522:.\clu.c       **** 	/*----------------------------------------------*/	
 523:.\clu.c       **** 	sprintf(clu[49][0], "#CAMERAON");	
 3357              		.loc 1 523 0
 3358 1bf2 344A     		ldr	r2, .L23+40
 3359 1bf4 40F20003 		movw	r3, #:lower16:.LC0
 3360 1bf8 C0F20003 		movt	r3, #:upper16:.LC0
ARM GAS  C:\Users\gravi\AppData\Local\Temp\cczW92Yj.s 			page 74


 3361 1bfc 03CB     		ldmia	r3!, {r0, r1}
 3362 1bfe 1060     		str	r0, [r2, #0]	@ unaligned
 3363 1c00 5160     		str	r1, [r2, #4]	@ unaligned
 3364 1c02 1B88     		ldrh	r3, [r3, #0]	@ unaligned
 3365 1c04 1381     		strh	r3, [r2, #8]	@ unaligned
 524:.\clu.c       **** 	sprintf(clu[49][1], "#PTQ 11 0.2 2");	
 3366              		.loc 1 524 0
 3367 1c06 304A     		ldr	r2, .L23+44
 3368 1c08 40F20003 		movw	r3, #:lower16:.LC82
 3369 1c0c C0F20003 		movt	r3, #:upper16:.LC82
 3370 1c10 1446     		mov	r4, r2
 3371 1c12 07CB     		ldmia	r3!, {r0, r1, r2}
 3372 1c14 2060     		str	r0, [r4, #0]	@ unaligned
 3373 1c16 6160     		str	r1, [r4, #4]	@ unaligned
 3374 1c18 A260     		str	r2, [r4, #8]	@ unaligned
 3375 1c1a 1B88     		ldrh	r3, [r3, #0]	@ unaligned
 3376 1c1c A381     		strh	r3, [r4, #12]	@ unaligned
 525:.\clu.c       **** 	sprintf(clu[49][2], "#PATHEXEC");	
 3377              		.loc 1 525 0
 3378 1c1e 2B4A     		ldr	r2, .L23+48
 3379 1c20 40F20003 		movw	r3, #:lower16:.LC3
 3380 1c24 C0F20003 		movt	r3, #:upper16:.LC3
 3381 1c28 03CB     		ldmia	r3!, {r0, r1}
 3382 1c2a 1060     		str	r0, [r2, #0]	@ unaligned
 3383 1c2c 5160     		str	r1, [r2, #4]	@ unaligned
 3384 1c2e 1B88     		ldrh	r3, [r3, #0]	@ unaligned
 3385 1c30 1381     		strh	r3, [r2, #8]	@ unaligned
 526:.\clu.c       **** 	sprintf(clu[49][3], "#PAUSE 1");
 3386              		.loc 1 526 0
 3387 1c32 274A     		ldr	r2, .L23+52
 3388 1c34 40F20003 		movw	r3, #:lower16:.LC25
 3389 1c38 C0F20003 		movt	r3, #:upper16:.LC25
 3390 1c3c 03CB     		ldmia	r3!, {r0, r1}
 3391 1c3e 1060     		str	r0, [r2, #0]	@ unaligned
 3392 1c40 5160     		str	r1, [r2, #4]	@ unaligned
 3393 1c42 1B78     		ldrb	r3, [r3, #0]
 3394 1c44 1372     		strb	r3, [r2, #8]
 527:.\clu.c       **** 	sprintf(clu[49][4], "#PTQ 99 0.2 1");	
 3395              		.loc 1 527 0
 3396 1c46 234A     		ldr	r2, .L23+56
 3397 1c48 40F20003 		movw	r3, #:lower16:.LC83
 3398 1c4c C0F20003 		movt	r3, #:upper16:.LC83
 3399 1c50 1446     		mov	r4, r2
 3400 1c52 07CB     		ldmia	r3!, {r0, r1, r2}
 3401 1c54 2060     		str	r0, [r4, #0]	@ unaligned
 3402 1c56 6160     		str	r1, [r4, #4]	@ unaligned
 3403 1c58 A260     		str	r2, [r4, #8]	@ unaligned
 3404 1c5a 1B88     		ldrh	r3, [r3, #0]	@ unaligned
 3405 1c5c A381     		strh	r3, [r4, #12]	@ unaligned
 528:.\clu.c       **** 	sprintf(clu[49][5], "#PATHEXEC");	
 3406              		.loc 1 528 0
 3407 1c5e 1E4A     		ldr	r2, .L23+60
 3408 1c60 40F20003 		movw	r3, #:lower16:.LC3
 3409 1c64 C0F20003 		movt	r3, #:upper16:.LC3
 3410 1c68 03CB     		ldmia	r3!, {r0, r1}
 3411 1c6a 1060     		str	r0, [r2, #0]	@ unaligned
 3412 1c6c 5160     		str	r1, [r2, #4]	@ unaligned
ARM GAS  C:\Users\gravi\AppData\Local\Temp\cczW92Yj.s 			page 75


 3413 1c6e 1B88     		ldrh	r3, [r3, #0]	@ unaligned
 3414 1c70 1381     		strh	r3, [r2, #8]	@ unaligned
 529:.\clu.c       **** 	sprintf(clu[49][6], "#CAMERAOFF");	
 3415              		.loc 1 529 0
 3416 1c72 1A4A     		ldr	r2, .L23+64
 3417 1c74 40F20003 		movw	r3, #:lower16:.LC4
 3418 1c78 C0F20003 		movt	r3, #:upper16:.LC4
 3419 1c7c 03CB     		ldmia	r3!, {r0, r1}
 3420 1c7e 1060     		str	r0, [r2, #0]	@ unaligned
 3421 1c80 5160     		str	r1, [r2, #4]	@ unaligned
 3422 1c82 1988     		ldrh	r1, [r3, #0]	@ unaligned
 3423 1c84 9B78     		ldrb	r3, [r3, #2]
 3424 1c86 1181     		strh	r1, [r2, #8]	@ unaligned
 3425 1c88 9372     		strb	r3, [r2, #10]
 530:.\clu.c       **** 	sprintf(clu[49][7], "#CLUEND");	
 3426              		.loc 1 530 0
 3427 1c8a 154A     		ldr	r2, .L23+68
 3428 1c8c 40F20003 		movw	r3, #:lower16:.LC5
 3429 1c90 C0F20003 		movt	r3, #:upper16:.LC5
 3430 1c94 03CB     		ldmia	r3!, {r0, r1}
 3431 1c96 1060     		str	r0, [r2, #0]	@ unaligned
 3432 1c98 5160     		str	r1, [r2, #4]	@ unaligned
 531:.\clu.c       **** 	
 532:.\clu.c       **** }
 3433              		.loc 1 532 0
 3434 1c9a B0BD     		pop	{r4, r5, r7, pc}
 3435              	.L24:
 3436              		.align	2
 3437              	.L23:
 3438 1c9c B7520000 		.word	clu+21175
 3439 1ca0 15540000 		.word	clu+21525
 3440 1ca4 2E540000 		.word	clu+21550
 3441 1ca8 47540000 		.word	clu+21575
 3442 1cac 60540000 		.word	clu+21600
 3443 1cb0 79540000 		.word	clu+21625
 3444 1cb4 92540000 		.word	clu+21650
 3445 1cb8 AB540000 		.word	clu+21675
 3446 1cbc C4540000 		.word	clu+21700
 3447 1cc0 DD540000 		.word	clu+21725
 3448 1cc4 7D640000 		.word	clu+25725
 3449 1cc8 96640000 		.word	clu+25750
 3450 1ccc AF640000 		.word	clu+25775
 3451 1cd0 C8640000 		.word	clu+25800
 3452 1cd4 E1640000 		.word	clu+25825
 3453 1cd8 FA640000 		.word	clu+25850
 3454 1cdc 13650000 		.word	clu+25875
 3455 1ce0 2C650000 		.word	clu+25900
 3456              		.cfi_endproc
 3457              	.LFE56:
 3458              		.size	InitAllClus, .-InitAllClus
 3459              		.section	.text.InitCluSequence,"ax",%progbits
 3460              		.align	2
 3461              		.global	InitCluSequence
 3462              		.thumb
 3463              		.thumb_func
 3464              		.type	InitCluSequence, %function
 3465              	InitCluSequence:
ARM GAS  C:\Users\gravi\AppData\Local\Temp\cczW92Yj.s 			page 76


 3466              	.LFB57:
 533:.\clu.c       **** 
 534:.\clu.c       **** 
 535:.\clu.c       **** /********************************************************************************/
 536:.\clu.c       **** /* Constant CLU Sequence Initialization											*/
 537:.\clu.c       **** /********************************************************************************/
 538:.\clu.c       **** /*																				*/
 539:.\clu.c       **** /* clu_sequence[0..MAX_CLU_SEQUENCE_STEPS-1]									*/
 540:.\clu.c       **** /*																				*/
 541:.\clu.c       **** /* MAX_CLU_SEQUENCE_STEPS 	   100												*/
 542:.\clu.c       **** /********************************************************************************/
 543:.\clu.c       **** void InitCluSequence(void)
 544:.\clu.c       **** {
 3467              		.loc 1 544 0
 3468              		.cfi_startproc
 3469              		@ args = 0, pretend = 0, frame = 0
 3470              		@ frame_needed = 1, uses_anonymous_args = 0
 3471              		@ link register save eliminated.
 3472 0000 80B4     		push	{r7}
 3473              	.LCFI2:
 3474              		.cfi_def_cfa_offset 4
 3475              		.cfi_offset 7, -4
 3476 0002 00AF     		add	r7, sp, #0
 3477              	.LCFI3:
 3478              		.cfi_def_cfa_register 7
 545:.\clu.c       **** 	clu_sequence[0]  = 11;
 3479              		.loc 1 545 0
 3480 0004 40F20003 		movw	r3, #:lower16:clu_sequence
 3481 0008 C0F20003 		movt	r3, #:upper16:clu_sequence
 3482 000c 4FF00B02 		mov	r2, #11
 3483 0010 1A70     		strb	r2, [r3, #0]
 546:.\clu.c       **** 	clu_sequence[1]  = 30;
 3484              		.loc 1 546 0
 3485 0012 40F20003 		movw	r3, #:lower16:clu_sequence
 3486 0016 C0F20003 		movt	r3, #:upper16:clu_sequence
 3487 001a 4FF01E02 		mov	r2, #30
 3488 001e 5A70     		strb	r2, [r3, #1]
 547:.\clu.c       **** 	clu_sequence[2]  = 4;
 3489              		.loc 1 547 0
 3490 0020 40F20003 		movw	r3, #:lower16:clu_sequence
 3491 0024 C0F20003 		movt	r3, #:upper16:clu_sequence
 3492 0028 4FF00402 		mov	r2, #4
 3493 002c 9A70     		strb	r2, [r3, #2]
 548:.\clu.c       **** 	clu_sequence[3]  = 5;
 3494              		.loc 1 548 0
 3495 002e 40F20003 		movw	r3, #:lower16:clu_sequence
 3496 0032 C0F20003 		movt	r3, #:upper16:clu_sequence
 3497 0036 4FF00502 		mov	r2, #5
 3498 003a DA70     		strb	r2, [r3, #3]
 549:.\clu.c       **** 	clu_sequence[4]  = 41;
 3499              		.loc 1 549 0
 3500 003c 40F20003 		movw	r3, #:lower16:clu_sequence
 3501 0040 C0F20003 		movt	r3, #:upper16:clu_sequence
 3502 0044 4FF02902 		mov	r2, #41
 3503 0048 1A71     		strb	r2, [r3, #4]
 550:.\clu.c       **** 	clu_sequence[5]  = 11;
 3504              		.loc 1 550 0
ARM GAS  C:\Users\gravi\AppData\Local\Temp\cczW92Yj.s 			page 77


 3505 004a 40F20003 		movw	r3, #:lower16:clu_sequence
 3506 004e C0F20003 		movt	r3, #:upper16:clu_sequence
 3507 0052 4FF00B02 		mov	r2, #11
 3508 0056 5A71     		strb	r2, [r3, #5]
 551:.\clu.c       **** 	clu_sequence[6]  = 6;
 3509              		.loc 1 551 0
 3510 0058 40F20003 		movw	r3, #:lower16:clu_sequence
 3511 005c C0F20003 		movt	r3, #:upper16:clu_sequence
 3512 0060 4FF00602 		mov	r2, #6
 3513 0064 9A71     		strb	r2, [r3, #6]
 552:.\clu.c       **** 	clu_sequence[7]  = 11;
 3514              		.loc 1 552 0
 3515 0066 40F20003 		movw	r3, #:lower16:clu_sequence
 3516 006a C0F20003 		movt	r3, #:upper16:clu_sequence
 3517 006e 4FF00B02 		mov	r2, #11
 3518 0072 DA71     		strb	r2, [r3, #7]
 553:.\clu.c       **** 	clu_sequence[8]  = 31;
 3519              		.loc 1 553 0
 3520 0074 40F20003 		movw	r3, #:lower16:clu_sequence
 3521 0078 C0F20003 		movt	r3, #:upper16:clu_sequence
 3522 007c 4FF01F02 		mov	r2, #31
 3523 0080 1A72     		strb	r2, [r3, #8]
 554:.\clu.c       **** 	clu_sequence[9]  = 11;
 3524              		.loc 1 554 0
 3525 0082 40F20003 		movw	r3, #:lower16:clu_sequence
 3526 0086 C0F20003 		movt	r3, #:upper16:clu_sequence
 3527 008a 4FF00B02 		mov	r2, #11
 3528 008e 5A72     		strb	r2, [r3, #9]
 555:.\clu.c       **** 	clu_sequence[10] = 32;
 3529              		.loc 1 555 0
 3530 0090 40F20003 		movw	r3, #:lower16:clu_sequence
 3531 0094 C0F20003 		movt	r3, #:upper16:clu_sequence
 3532 0098 4FF02002 		mov	r2, #32
 3533 009c 9A72     		strb	r2, [r3, #10]
 556:.\clu.c       **** 	clu_sequence[11] = 11;
 3534              		.loc 1 556 0
 3535 009e 40F20003 		movw	r3, #:lower16:clu_sequence
 3536 00a2 C0F20003 		movt	r3, #:upper16:clu_sequence
 3537 00a6 4FF00B02 		mov	r2, #11
 3538 00aa DA72     		strb	r2, [r3, #11]
 557:.\clu.c       **** 	clu_sequence[12] = 32;
 3539              		.loc 1 557 0
 3540 00ac 40F20003 		movw	r3, #:lower16:clu_sequence
 3541 00b0 C0F20003 		movt	r3, #:upper16:clu_sequence
 3542 00b4 4FF02002 		mov	r2, #32
 3543 00b8 1A73     		strb	r2, [r3, #12]
 558:.\clu.c       **** 	clu_sequence[13] = 11;	
 3544              		.loc 1 558 0
 3545 00ba 40F20003 		movw	r3, #:lower16:clu_sequence
 3546 00be C0F20003 		movt	r3, #:upper16:clu_sequence
 3547 00c2 4FF00B02 		mov	r2, #11
 3548 00c6 5A73     		strb	r2, [r3, #13]
 559:.\clu.c       **** 	clu_sequence[14] = 35;
 3549              		.loc 1 559 0
 3550 00c8 40F20003 		movw	r3, #:lower16:clu_sequence
 3551 00cc C0F20003 		movt	r3, #:upper16:clu_sequence
 3552 00d0 4FF02302 		mov	r2, #35
ARM GAS  C:\Users\gravi\AppData\Local\Temp\cczW92Yj.s 			page 78


 3553 00d4 9A73     		strb	r2, [r3, #14]
 560:.\clu.c       **** 	clu_sequence[15] = 11;
 3554              		.loc 1 560 0
 3555 00d6 40F20003 		movw	r3, #:lower16:clu_sequence
 3556 00da C0F20003 		movt	r3, #:upper16:clu_sequence
 3557 00de 4FF00B02 		mov	r2, #11
 3558 00e2 DA73     		strb	r2, [r3, #15]
 561:.\clu.c       **** 	clu_sequence[16] = 36;
 3559              		.loc 1 561 0
 3560 00e4 40F20003 		movw	r3, #:lower16:clu_sequence
 3561 00e8 C0F20003 		movt	r3, #:upper16:clu_sequence
 3562 00ec 4FF02402 		mov	r2, #36
 3563 00f0 1A74     		strb	r2, [r3, #16]
 562:.\clu.c       **** 	clu_sequence[17] = 11;
 3564              		.loc 1 562 0
 3565 00f2 40F20003 		movw	r3, #:lower16:clu_sequence
 3566 00f6 C0F20003 		movt	r3, #:upper16:clu_sequence
 3567 00fa 4FF00B02 		mov	r2, #11
 3568 00fe 5A74     		strb	r2, [r3, #17]
 563:.\clu.c       **** 	clu_sequence[18] = 32;
 3569              		.loc 1 563 0
 3570 0100 40F20003 		movw	r3, #:lower16:clu_sequence
 3571 0104 C0F20003 		movt	r3, #:upper16:clu_sequence
 3572 0108 4FF02002 		mov	r2, #32
 3573 010c 9A74     		strb	r2, [r3, #18]
 564:.\clu.c       **** 	clu_sequence[19] = 33;
 3574              		.loc 1 564 0
 3575 010e 40F20003 		movw	r3, #:lower16:clu_sequence
 3576 0112 C0F20003 		movt	r3, #:upper16:clu_sequence
 3577 0116 4FF02102 		mov	r2, #33
 3578 011a DA74     		strb	r2, [r3, #19]
 565:.\clu.c       **** 	clu_sequence[20] = 34;
 3579              		.loc 1 565 0
 3580 011c 40F20003 		movw	r3, #:lower16:clu_sequence
 3581 0120 C0F20003 		movt	r3, #:upper16:clu_sequence
 3582 0124 4FF02202 		mov	r2, #34
 3583 0128 1A75     		strb	r2, [r3, #20]
 566:.\clu.c       **** 	clu_sequence[21] = 37;
 3584              		.loc 1 566 0
 3585 012a 40F20003 		movw	r3, #:lower16:clu_sequence
 3586 012e C0F20003 		movt	r3, #:upper16:clu_sequence
 3587 0132 4FF02502 		mov	r2, #37
 3588 0136 5A75     		strb	r2, [r3, #21]
 567:.\clu.c       **** 	clu_sequence[22] = 37;
 3589              		.loc 1 567 0
 3590 0138 40F20003 		movw	r3, #:lower16:clu_sequence
 3591 013c C0F20003 		movt	r3, #:upper16:clu_sequence
 3592 0140 4FF02502 		mov	r2, #37
 3593 0144 9A75     		strb	r2, [r3, #22]
 568:.\clu.c       **** 	clu_sequence[23] = 37;	
 3594              		.loc 1 568 0
 3595 0146 40F20003 		movw	r3, #:lower16:clu_sequence
 3596 014a C0F20003 		movt	r3, #:upper16:clu_sequence
 3597 014e 4FF02502 		mov	r2, #37
 3598 0152 DA75     		strb	r2, [r3, #23]
 569:.\clu.c       **** 	clu_sequence[24] = 11;	
 3599              		.loc 1 569 0
ARM GAS  C:\Users\gravi\AppData\Local\Temp\cczW92Yj.s 			page 79


 3600 0154 40F20003 		movw	r3, #:lower16:clu_sequence
 3601 0158 C0F20003 		movt	r3, #:upper16:clu_sequence
 3602 015c 4FF00B02 		mov	r2, #11
 3603 0160 1A76     		strb	r2, [r3, #24]
 570:.\clu.c       **** 	clu_sequence[25] = 38;
 3604              		.loc 1 570 0
 3605 0162 40F20003 		movw	r3, #:lower16:clu_sequence
 3606 0166 C0F20003 		movt	r3, #:upper16:clu_sequence
 3607 016a 4FF02602 		mov	r2, #38
 3608 016e 5A76     		strb	r2, [r3, #25]
 571:.\clu.c       **** 	clu_sequence[26] = 39;
 3609              		.loc 1 571 0
 3610 0170 40F20003 		movw	r3, #:lower16:clu_sequence
 3611 0174 C0F20003 		movt	r3, #:upper16:clu_sequence
 3612 0178 4FF02702 		mov	r2, #39
 3613 017c 9A76     		strb	r2, [r3, #26]
 572:.\clu.c       **** 	clu_sequence[27] = 40;
 3614              		.loc 1 572 0
 3615 017e 40F20003 		movw	r3, #:lower16:clu_sequence
 3616 0182 C0F20003 		movt	r3, #:upper16:clu_sequence
 3617 0186 4FF02802 		mov	r2, #40
 3618 018a DA76     		strb	r2, [r3, #27]
 573:.\clu.c       **** 	clu_sequence[28] = 40;	
 3619              		.loc 1 573 0
 3620 018c 40F20003 		movw	r3, #:lower16:clu_sequence
 3621 0190 C0F20003 		movt	r3, #:upper16:clu_sequence
 3622 0194 4FF02802 		mov	r2, #40
 3623 0198 1A77     		strb	r2, [r3, #28]
 574:.\clu.c       **** 	
 575:.\clu.c       **** 	clu_sequence[29] = 0xFF;		//END
 3624              		.loc 1 575 0
 3625 019a 40F20003 		movw	r3, #:lower16:clu_sequence
 3626 019e C0F20003 		movt	r3, #:upper16:clu_sequence
 3627 01a2 4FF0FF02 		mov	r2, #255
 3628 01a6 5A77     		strb	r2, [r3, #29]
 576:.\clu.c       **** }
 3629              		.loc 1 576 0
 3630 01a8 BD46     		mov	sp, r7
 3631 01aa 80BC     		pop	{r7}
 3632 01ac 7047     		bx	lr
 3633              		.cfi_endproc
 3634              	.LFE57:
 3635              		.size	InitCluSequence, .-InitCluSequence
 3636 01ae 00BF     		.section	.rodata
 3637 05b6 0000     		.align	2
 3638              	.LC84:
 3639 05b8 25730D0A 		.ascii	"%s\015\012\000"
 3639      00
 3640 05bd 000000   		.align	2
 3641              	.LC85:
 3642 05c0 0D00     		.ascii	"\015\000"
 3643 05c2 0000     		.section	.text.PrintClu,"ax",%progbits
 3644              		.align	2
 3645              		.global	PrintClu
 3646              		.thumb
 3647              		.thumb_func
 3648              		.type	PrintClu, %function
ARM GAS  C:\Users\gravi\AppData\Local\Temp\cczW92Yj.s 			page 80


 3649              	PrintClu:
 3650              	.LFB58:
 577:.\clu.c       **** 
 578:.\clu.c       **** //Prints CLU number clu_number
 579:.\clu.c       **** void PrintClu(uint8 number)
 580:.\clu.c       **** {
 3651              		.loc 1 580 0
 3652              		.cfi_startproc
 3653              		@ args = 0, pretend = 0, frame = 16
 3654              		@ frame_needed = 1, uses_anonymous_args = 0
 3655 0000 80B5     		push	{r7, lr}
 3656              	.LCFI4:
 3657              		.cfi_def_cfa_offset 8
 3658              		.cfi_offset 7, -8
 3659              		.cfi_offset 14, -4
 3660 0002 84B0     		sub	sp, sp, #16
 3661              	.LCFI5:
 3662              		.cfi_def_cfa_offset 24
 3663 0004 00AF     		add	r7, sp, #0
 3664              	.LCFI6:
 3665              		.cfi_def_cfa_register 7
 3666 0006 0346     		mov	r3, r0
 3667 0008 FB71     		strb	r3, [r7, #7]
 581:.\clu.c       **** 	uint8 index;
 582:.\clu.c       **** 	
 583:.\clu.c       **** 	if (number < MAX_CLU_NUMBER)
 3668              		.loc 1 583 0
 3669 000a FB79     		ldrb	r3, [r7, #7]	@ zero_extendqisi2
 3670 000c 312B     		cmp	r3, #49
 3671 000e 40D8     		bhi	.L26
 584:.\clu.c       **** 	{
 585:.\clu.c       **** 		for (index=0; index < MAX_CLU_STEPS ; index++)
 3672              		.loc 1 585 0
 3673 0010 4FF00003 		mov	r3, #0
 3674 0014 FB73     		strb	r3, [r7, #15]
 3675 0016 33E0     		b	.L28
 3676              	.L30:
 586:.\clu.c       **** 	    {
 587:.\clu.c       **** 			if (strlen(clu[number][index]) != 0)
 3677              		.loc 1 587 0
 3678 0018 F979     		ldrb	r1, [r7, #7]	@ zero_extendqisi2
 3679 001a FA7B     		ldrb	r2, [r7, #15]	@ zero_extendqisi2
 3680 001c 1346     		mov	r3, r2
 3681 001e 4FEA8303 		lsl	r3, r3, #2
 3682 0022 9B18     		adds	r3, r3, r2
 3683 0024 4FEA8302 		lsl	r2, r3, #2
 3684 0028 9B18     		adds	r3, r3, r2
 3685 002a 40F20D22 		movw	r2, #525
 3686 002e 02FB01F2 		mul	r2, r2, r1
 3687 0032 9A18     		adds	r2, r3, r2
 3688 0034 40F20003 		movw	r3, #:lower16:clu
 3689 0038 C0F20003 		movt	r3, #:upper16:clu
 3690 003c D318     		adds	r3, r2, r3
 3691 003e 1B78     		ldrb	r3, [r3, #0]	@ zero_extendqisi2
 3692 0040 002B     		cmp	r3, #0
 3693 0042 19D0     		beq	.L29
 588:.\clu.c       **** 			{
ARM GAS  C:\Users\gravi\AppData\Local\Temp\cczW92Yj.s 			page 81


 589:.\clu.c       **** 				printf("%s\r\n",clu[number][index]);
 3694              		.loc 1 589 0
 3695 0044 F979     		ldrb	r1, [r7, #7]	@ zero_extendqisi2
 3696 0046 FA7B     		ldrb	r2, [r7, #15]	@ zero_extendqisi2
 3697 0048 1346     		mov	r3, r2
 3698 004a 4FEA8303 		lsl	r3, r3, #2
 3699 004e 9B18     		adds	r3, r3, r2
 3700 0050 4FEA8302 		lsl	r2, r3, #2
 3701 0054 9B18     		adds	r3, r3, r2
 3702 0056 40F20D22 		movw	r2, #525
 3703 005a 02FB01F2 		mul	r2, r2, r1
 3704 005e 9A18     		adds	r2, r3, r2
 3705 0060 40F20003 		movw	r3, #:lower16:clu
 3706 0064 C0F20003 		movt	r3, #:upper16:clu
 3707 0068 D318     		adds	r3, r2, r3
 3708 006a 40F20000 		movw	r0, #:lower16:.LC84
 3709 006e C0F20000 		movt	r0, #:upper16:.LC84
 3710 0072 1946     		mov	r1, r3
 3711 0074 FFF7FEFF 		bl	printf
 3712              	.L29:
 585:.\clu.c       **** 		for (index=0; index < MAX_CLU_STEPS ; index++)
 3713              		.loc 1 585 0
 3714 0078 FB7B     		ldrb	r3, [r7, #15]
 3715 007a 03F10103 		add	r3, r3, #1
 3716 007e FB73     		strb	r3, [r7, #15]
 3717              	.L28:
 585:.\clu.c       **** 		for (index=0; index < MAX_CLU_STEPS ; index++)
 3718              		.loc 1 585 0 is_stmt 0 discriminator 1
 3719 0080 FB7B     		ldrb	r3, [r7, #15]	@ zero_extendqisi2
 3720 0082 142B     		cmp	r3, #20
 3721 0084 C8D9     		bls	.L30
 590:.\clu.c       **** 			}
 591:.\clu.c       **** 	    }
 592:.\clu.c       **** 		printf("\r\n");		
 3722              		.loc 1 592 0 is_stmt 1
 3723 0086 40F20000 		movw	r0, #:lower16:.LC85
 3724 008a C0F20000 		movt	r0, #:upper16:.LC85
 3725 008e FFF7FEFF 		bl	puts
 3726              	.L26:
 593:.\clu.c       **** 	}
 594:.\clu.c       **** }
 3727              		.loc 1 594 0
 3728 0092 07F11007 		add	r7, r7, #16
 3729 0096 BD46     		mov	sp, r7
 3730 0098 80BD     		pop	{r7, pc}
 3731              		.cfi_endproc
 3732              	.LFE58:
 3733              		.size	PrintClu, .-PrintClu
 3734 009a 00BF     		.section	.text.PrintCluStep,"ax",%progbits
 3735              		.align	2
 3736              		.global	PrintCluStep
 3737              		.thumb
 3738              		.thumb_func
 3739              		.type	PrintCluStep, %function
 3740              	PrintCluStep:
 3741              	.LFB59:
 595:.\clu.c       **** 
ARM GAS  C:\Users\gravi\AppData\Local\Temp\cczW92Yj.s 			page 82


 596:.\clu.c       **** //Prints CLU number at step index
 597:.\clu.c       **** void PrintCluStep(uint8 number, uint8 index)
 598:.\clu.c       **** {
 3742              		.loc 1 598 0
 3743              		.cfi_startproc
 3744              		@ args = 0, pretend = 0, frame = 8
 3745              		@ frame_needed = 1, uses_anonymous_args = 0
 3746 0000 80B5     		push	{r7, lr}
 3747              	.LCFI7:
 3748              		.cfi_def_cfa_offset 8
 3749              		.cfi_offset 7, -8
 3750              		.cfi_offset 14, -4
 3751 0002 82B0     		sub	sp, sp, #8
 3752              	.LCFI8:
 3753              		.cfi_def_cfa_offset 16
 3754 0004 00AF     		add	r7, sp, #0
 3755              	.LCFI9:
 3756              		.cfi_def_cfa_register 7
 3757 0006 0246     		mov	r2, r0
 3758 0008 0B46     		mov	r3, r1
 3759 000a FA71     		strb	r2, [r7, #7]
 3760 000c BB71     		strb	r3, [r7, #6]
 599:.\clu.c       **** 	if (number < MAX_CLU_NUMBER)
 3761              		.loc 1 599 0
 3762 000e FB79     		ldrb	r3, [r7, #7]	@ zero_extendqisi2
 3763 0010 312B     		cmp	r3, #49
 3764 0012 32D8     		bhi	.L31
 600:.\clu.c       **** 	{
 601:.\clu.c       **** 		if ((strlen(clu[number][index]) != 0) && (index < MAX_CLU_STEPS))
 3765              		.loc 1 601 0
 3766 0014 F979     		ldrb	r1, [r7, #7]	@ zero_extendqisi2
 3767 0016 BA79     		ldrb	r2, [r7, #6]	@ zero_extendqisi2
 3768 0018 1346     		mov	r3, r2
 3769 001a 4FEA8303 		lsl	r3, r3, #2
 3770 001e 9B18     		adds	r3, r3, r2
 3771 0020 4FEA8302 		lsl	r2, r3, #2
 3772 0024 9B18     		adds	r3, r3, r2
 3773 0026 40F20D22 		movw	r2, #525
 3774 002a 02FB01F2 		mul	r2, r2, r1
 3775 002e 9A18     		adds	r2, r3, r2
 3776 0030 40F20003 		movw	r3, #:lower16:clu
 3777 0034 C0F20003 		movt	r3, #:upper16:clu
 3778 0038 D318     		adds	r3, r2, r3
 3779 003a 1B78     		ldrb	r3, [r3, #0]	@ zero_extendqisi2
 3780 003c 002B     		cmp	r3, #0
 3781 003e 1CD0     		beq	.L31
 3782              		.loc 1 601 0 is_stmt 0 discriminator 1
 3783 0040 BB79     		ldrb	r3, [r7, #6]	@ zero_extendqisi2
 3784 0042 142B     		cmp	r3, #20
 3785 0044 19D8     		bhi	.L31
 602:.\clu.c       **** 		{
 603:.\clu.c       **** 			printf("%s\r\n",clu[number][index]);
 3786              		.loc 1 603 0 is_stmt 1
 3787 0046 F979     		ldrb	r1, [r7, #7]	@ zero_extendqisi2
 3788 0048 BA79     		ldrb	r2, [r7, #6]	@ zero_extendqisi2
 3789 004a 1346     		mov	r3, r2
 3790 004c 4FEA8303 		lsl	r3, r3, #2
ARM GAS  C:\Users\gravi\AppData\Local\Temp\cczW92Yj.s 			page 83


 3791 0050 9B18     		adds	r3, r3, r2
 3792 0052 4FEA8302 		lsl	r2, r3, #2
 3793 0056 9B18     		adds	r3, r3, r2
 3794 0058 40F20D22 		movw	r2, #525
 3795 005c 02FB01F2 		mul	r2, r2, r1
 3796 0060 9A18     		adds	r2, r3, r2
 3797 0062 40F20003 		movw	r3, #:lower16:clu
 3798 0066 C0F20003 		movt	r3, #:upper16:clu
 3799 006a D318     		adds	r3, r2, r3
 3800 006c 40F20000 		movw	r0, #:lower16:.LC84
 3801 0070 C0F20000 		movt	r0, #:upper16:.LC84
 3802 0074 1946     		mov	r1, r3
 3803 0076 FFF7FEFF 		bl	printf
 3804              	.L31:
 604:.\clu.c       **** 		}
 605:.\clu.c       **** 	}
 606:.\clu.c       **** }
 3805              		.loc 1 606 0
 3806 007a 07F10807 		add	r7, r7, #8
 3807 007e BD46     		mov	sp, r7
 3808 0080 80BD     		pop	{r7, pc}
 3809              		.cfi_endproc
 3810              	.LFE59:
 3811              		.size	PrintCluStep, .-PrintCluStep
 3812 0082 00BF     		.section	.text.ClearAllClus,"ax",%progbits
 3813              		.align	2
 3814              		.global	ClearAllClus
 3815              		.thumb
 3816              		.thumb_func
 3817              		.type	ClearAllClus, %function
 3818              	ClearAllClus:
 3819              	.LFB60:
 607:.\clu.c       **** 
 608:.\clu.c       **** 
 609:.\clu.c       **** //Clears all CLUs
 610:.\clu.c       **** void ClearAllClus(void)
 611:.\clu.c       **** {
 3820              		.loc 1 611 0
 3821              		.cfi_startproc
 3822              		@ args = 0, pretend = 0, frame = 8
 3823              		@ frame_needed = 1, uses_anonymous_args = 0
 3824              		@ link register save eliminated.
 3825 0000 80B4     		push	{r7}
 3826              	.LCFI10:
 3827              		.cfi_def_cfa_offset 4
 3828              		.cfi_offset 7, -4
 3829 0002 83B0     		sub	sp, sp, #12
 3830              	.LCFI11:
 3831              		.cfi_def_cfa_offset 16
 3832 0004 00AF     		add	r7, sp, #0
 3833              	.LCFI12:
 3834              		.cfi_def_cfa_register 7
 612:.\clu.c       **** 	uint8 index;
 613:.\clu.c       **** 	
 614:.\clu.c       **** 	for (index=0; index < MAX_CLU_NUMBER ; index++)
 3835              		.loc 1 614 0
 3836 0006 4FF00003 		mov	r3, #0
ARM GAS  C:\Users\gravi\AppData\Local\Temp\cczW92Yj.s 			page 84


 3837 000a FB71     		strb	r3, [r7, #7]
 3838 000c 14E0     		b	.L34
 3839              	.L35:
 615:.\clu.c       **** 	{
 616:.\clu.c       **** 		sprintf(clu[index][0], "#CLUEND");
 3840              		.loc 1 616 0 discriminator 2
 3841 000e FB79     		ldrb	r3, [r7, #7]	@ zero_extendqisi2
 3842 0010 40F20D22 		movw	r2, #525
 3843 0014 02FB03F2 		mul	r2, r2, r3
 3844 0018 40F20003 		movw	r3, #:lower16:clu
 3845 001c C0F20003 		movt	r3, #:upper16:clu
 3846 0020 D218     		adds	r2, r2, r3
 3847 0022 40F20003 		movw	r3, #:lower16:.LC5
 3848 0026 C0F20003 		movt	r3, #:upper16:.LC5
 3849 002a 03CB     		ldmia	r3!, {r0, r1}
 3850 002c 1060     		str	r0, [r2, #0]	@ unaligned
 3851 002e 5160     		str	r1, [r2, #4]	@ unaligned
 614:.\clu.c       **** 	for (index=0; index < MAX_CLU_NUMBER ; index++)
 3852              		.loc 1 614 0 discriminator 2
 3853 0030 FB79     		ldrb	r3, [r7, #7]
 3854 0032 03F10103 		add	r3, r3, #1
 3855 0036 FB71     		strb	r3, [r7, #7]
 3856              	.L34:
 614:.\clu.c       **** 	for (index=0; index < MAX_CLU_NUMBER ; index++)
 3857              		.loc 1 614 0 is_stmt 0 discriminator 1
 3858 0038 FB79     		ldrb	r3, [r7, #7]	@ zero_extendqisi2
 3859 003a 312B     		cmp	r3, #49
 3860 003c E7D9     		bls	.L35
 617:.\clu.c       **** 	}
 618:.\clu.c       **** }
 3861              		.loc 1 618 0 is_stmt 1
 3862 003e 07F10C07 		add	r7, r7, #12
 3863 0042 BD46     		mov	sp, r7
 3864 0044 80BC     		pop	{r7}
 3865 0046 7047     		bx	lr
 3866              		.cfi_endproc
 3867              	.LFE60:
 3868              		.size	ClearAllClus, .-ClearAllClus
 3869              		.section	.text.isCluEmpty,"ax",%progbits
 3870              		.align	2
 3871              		.global	isCluEmpty
 3872              		.thumb
 3873              		.thumb_func
 3874              		.type	isCluEmpty, %function
 3875              	isCluEmpty:
 3876              	.LFB61:
 619:.\clu.c       **** 
 620:.\clu.c       **** 
 621:.\clu.c       **** //Checks Empty or not Empty Clu
 622:.\clu.c       **** uint8 isCluEmpty(uint8 clu_number)
 623:.\clu.c       **** {
 3877              		.loc 1 623 0
 3878              		.cfi_startproc
 3879              		@ args = 0, pretend = 0, frame = 8
 3880              		@ frame_needed = 1, uses_anonymous_args = 0
 3881 0000 80B5     		push	{r7, lr}
 3882              	.LCFI13:
ARM GAS  C:\Users\gravi\AppData\Local\Temp\cczW92Yj.s 			page 85


 3883              		.cfi_def_cfa_offset 8
 3884              		.cfi_offset 7, -8
 3885              		.cfi_offset 14, -4
 3886 0002 82B0     		sub	sp, sp, #8
 3887              	.LCFI14:
 3888              		.cfi_def_cfa_offset 16
 3889 0004 00AF     		add	r7, sp, #0
 3890              	.LCFI15:
 3891              		.cfi_def_cfa_register 7
 3892 0006 0346     		mov	r3, r0
 3893 0008 FB71     		strb	r3, [r7, #7]
 624:.\clu.c       **** 	if (strcmp(clu[clu_number][0], "#CLUEND") == 0)	
 3894              		.loc 1 624 0
 3895 000a FB79     		ldrb	r3, [r7, #7]	@ zero_extendqisi2
 3896 000c 40F20D22 		movw	r2, #525
 3897 0010 02FB03F2 		mul	r2, r2, r3
 3898 0014 40F20003 		movw	r3, #:lower16:clu
 3899 0018 C0F20003 		movt	r3, #:upper16:clu
 3900 001c D318     		adds	r3, r2, r3
 3901 001e 1846     		mov	r0, r3
 3902 0020 40F20001 		movw	r1, #:lower16:.LC5
 3903 0024 C0F20001 		movt	r1, #:upper16:.LC5
 3904 0028 FFF7FEFF 		bl	strcmp
 3905 002c 0346     		mov	r3, r0
 3906 002e 002B     		cmp	r3, #0
 3907 0030 02D1     		bne	.L37
 625:.\clu.c       **** 		return CLU_IS_EMPTY;
 3908              		.loc 1 625 0
 3909 0032 4FF00103 		mov	r3, #1
 3910 0036 01E0     		b	.L38
 3911              	.L37:
 626:.\clu.c       **** 	else
 627:.\clu.c       **** 		return CLU_IS_NOT_EMPTY;
 3912              		.loc 1 627 0
 3913 0038 4FF00003 		mov	r3, #0
 3914              	.L38:
 628:.\clu.c       **** }
 3915              		.loc 1 628 0
 3916 003c 1846     		mov	r0, r3
 3917 003e 07F10807 		add	r7, r7, #8
 3918 0042 BD46     		mov	sp, r7
 3919 0044 80BD     		pop	{r7, pc}
 3920              		.cfi_endproc
 3921              	.LFE61:
 3922              		.size	isCluEmpty, .-isCluEmpty
 3923 0046 00BF     		.text
 3924              	.Letext0:
 3925              		.file 2 "c:\\program files (x86)\\cypress\\psoc creator\\3.0\\psoc creator\\import\\gnu_cs\\arm\\4
 3926              		.file 3 "./Generated_Source/PSoC5/cytypes.h"
 3927              		.file 4 "./Generated_Source/PSoC5/core_cm3.h"