ARM GAS  C:\Users\GRAZIA~1.RAV\AppData\Local\Temp\ccodpSVr.s 			page 1


   1              		.syntax unified
   2              		.cpu cortex-m3
   3              		.fpu softvfp
   4              		.eabi_attribute 20, 1
   5              		.eabi_attribute 21, 1
   6              		.eabi_attribute 23, 3
   7              		.eabi_attribute 24, 1
   8              		.eabi_attribute 25, 1
   9              		.eabi_attribute 26, 1
  10              		.eabi_attribute 30, 6
  11              		.eabi_attribute 34, 1
  12              		.eabi_attribute 18, 4
  13              		.thumb
  14              		.file	"console.c"
  15              		.text
  16              	.Ltext0:
  17              		.cfi_sections	.debug_frame
  18              		.comm	TORQUESTAT,32,8
  19              		.global	userInputBuffer
  20              		.bss
  21              		.align	2
  22              		.type	userInputBuffer, %object
  23              		.size	userInputBuffer, 40
  24              	userInputBuffer:
  25 0000 00000000 		.space	40
  25      00000000 
  25      00000000 
  25      00000000 
  25      00000000 
  26              		.comm	actual_cmd,45,4
  27              		.comm	USB_Check_prev,1,1
  28              		.global	slegenda
  29              		.align	2
  30              		.type	slegenda, %object
  31              		.size	slegenda, 15
  32              	slegenda:
  33 0028 00000000 		.space	15
  33      00000000 
  33      00000000 
  33      000000
  34 0037 00       		.section	.rodata
  35              		.align	2
  36              	.LC0:
  37 0000 28534D5F 		.ascii	"(SM_ON_ORIGIN)\000"
  37      4F4E5F4F 
  37      52494749 
  37      4E2900
  38 000f 00       		.align	2
  39              	.LC1:
  40 0010 28534D5F 		.ascii	"(SM_MOVING_TO_FACE)\000"
  40      4D4F5649 
  40      4E475F54 
  40      4F5F4641 
  40      43452900 
  41              		.align	2
  42              	.LC2:
  43 0024 28534D5F 		.ascii	"(SM_ON_FACE)\000"
ARM GAS  C:\Users\GRAZIA~1.RAV\AppData\Local\Temp\ccodpSVr.s 			page 2


  43      4F4E5F46 
  43      41434529 
  43      00
  44 0031 000000   		.align	2
  45              	.LC3:
  46 0034 28534D5F 		.ascii	"(SM_MOVING_TO_ORIGIN)\000"
  46      4D4F5649 
  46      4E475F54 
  46      4F5F4F52 
  46      4947494E 
  47 004a 0000     		.align	2
  48              	.LC4:
  49 004c 28534D5F 		.ascii	"(SM_MOVING_PANORAMIC)\000"
  49      4D4F5649 
  49      4E475F50 
  49      414E4F52 
  49      414D4943 
  50 0062 0000     		.align	2
  51              	.LC5:
  52 0064 28534D5F 		.ascii	"(SM_MOVING_JUMP)\000"
  52      4D4F5649 
  52      4E475F4A 
  52      554D5029 
  52      00
  53 0075 000000   		.align	2
  54              	.LC6:
  55 0078 28534D5F 		.ascii	"(SM_MOVING_TO_WHEEL)\000"
  55      4D4F5649 
  55      4E475F54 
  55      4F5F5748 
  55      45454C29 
  56 008d 000000   		.align	2
  57              	.LC7:
  58 0090 28534D5F 		.ascii	"(SM_ON_WHEEL)\000"
  58      4F4E5F57 
  58      4845454C 
  58      2900
  59 009e 0000     		.align	2
  60              	.LC8:
  61 00a0 28534D5F 		.ascii	"(SM_STANDBY)\000"
  61      5354414E 
  61      44425929 
  61      00
  62 00ad 000000   		.align	2
  63              	.LC9:
  64 00b0 282A6572 		.ascii	"(*err)\000"
  64      722900
  65              		.section	.text.ShowStatusMappingSM,"ax",%progbits
  66              		.align	2
  67              		.global	ShowStatusMappingSM
  68              		.thumb
  69              		.thumb_func
  70              		.type	ShowStatusMappingSM, %function
  71              	ShowStatusMappingSM:
  72              	.LFB56:
  73              		.file 1 ".\\console.c"
   1:.\console.c   **** /* ==============================================
ARM GAS  C:\Users\GRAZIA~1.RAV\AppData\Local\Temp\ccodpSVr.s 			page 3


   2:.\console.c   ****  *                                              *
   3:.\console.c   ****  * GoBee Director Console Interface functions	*
   4:.\console.c   ****  *												*
   5:.\console.c   ****  * Copyright 2017 Gobee Srl		         		*
   6:.\console.c   ****  * Author : Graziano G. Ravizza                 *
   7:.\console.c   ****  * All Rights Reserved							*
   8:.\console.c   ****  * UNPUBLISHED, LICENSED SOFTWARE.				*
   9:.\console.c   ****  *												*
  10:.\console.c   ****  * CONFIDENTIAL AND PROPRIETARY INFORMATION		*
  11:.\console.c   ****  * WHICH IS THE PROPERTY OF Gobee Srl			*
  12:.\console.c   ****  * ==============================================
  13:.\console.c   **** */
  14:.\console.c   **** 
  15:.\console.c   **** /* Include files */
  16:.\console.c   **** #include <device.h>
  17:.\console.c   **** #include <stdio.h>
  18:.\console.c   **** #include <stdlib.h>
  19:.\console.c   **** #include <string.h>
  20:.\console.c   **** #include <math.h>
  21:.\console.c   **** 
  22:.\console.c   **** #include <gobee.h>
  23:.\console.c   **** #include <console.h>
  24:.\console.c   **** #include <systrings.h>
  25:.\console.c   **** #include <gobeelib.h>
  26:.\console.c   **** #include <ITG-3701.h>
  27:.\console.c   **** #include <IMU_UM7.h>
  28:.\console.c   **** #include <XTR-8LR100.h>
  29:.\console.c   **** #include <mover.h>
  30:.\console.c   **** #include <motor_CTRL.h>
  31:.\console.c   **** #include <pid_lib.h>
  32:.\console.c   **** #include <My_I2C_lib.h>
  33:.\console.c   **** #include <estimators.h>
  34:.\console.c   **** #include <clu.h>
  35:.\console.c   **** #include <gml.h>
  36:.\console.c   **** #include <statistics.h>
  37:.\console.c   **** #include <torquestat.h>
  38:.\console.c   **** 
  39:.\console.c   **** 
  40:.\console.c   **** /* External Global Wars */
  41:.\console.c   **** extern struct GOBEE_PARAMS gobee_param;
  42:.\console.c   **** extern int16 AdcValue[ADC_MUX_LENGHT];
  43:.\console.c   **** 
  44:.\console.c   **** extern uint8 machine_state;			/* Initial Machine State = POWERON 					*/
  45:.\console.c   **** 									/* Machine States = [POWERON | OPERATIVE | FAULT]	*/
  46:.\console.c   **** 
  47:.\console.c   **** /* GoBee Faults structure */
  48:.\console.c   **** extern struct GOBEE_FAULTS gobeeFaults;	
  49:.\console.c   **** 
  50:.\console.c   **** /* External CLU execution state machine */
  51:.\console.c   **** extern struct CLU_STATEMACHINE clu_sm;		
  52:.\console.c   **** 
  53:.\console.c   **** /* extern Control Variables */
  54:.\console.c   **** extern float fsampling;			/* fsampling [kHz]							*/
  55:.\console.c   **** 
  56:.\console.c   **** 
  57:.\console.c   **** /* External Motor Axis 		 */
  58:.\console.c   **** extern struct MOTOR_AXIS pan_axis; 					/* PAN  Motor Axis Parameters & RT Datas			   */
ARM GAS  C:\Users\GRAZIA~1.RAV\AppData\Local\Temp\ccodpSVr.s 			page 4


  59:.\console.c   **** extern struct MOTOR_AXIS tilt_axis; 				/* TILT Motor Axis Parameters & RT Datas			   */
  60:.\console.c   **** extern struct MOTOR_AXIS *Selected_ANAOUT;			/* Selected Axis for Analog Output					   */
  61:.\console.c   **** 
  62:.\console.c   **** /* EXTERNAL Absolute Position Sensor */
  63:.\console.c   **** extern struct ABSPOS_SENSOR	pan_absolute_sensor;	/* PAN  Absolute Position Sensor Parameters & RT D
  64:.\console.c   **** extern struct ABSPOS_SENSOR	tilt_absolute_sensor;	/* TILT Absolute Position Sensor Parameters & RT 
  65:.\console.c   **** 
  66:.\console.c   **** /* extern axis absolute sensor STATISTICS	*/
  67:.\console.c   **** extern struct STATISTICS pan_absolute_sensor_stat;	/* PAN  Absolute Position Sensor Statistics Data
  68:.\console.c   **** extern struct STATISTICS tilt_absolute_sensor_stat;	/* TILT Absolute Position Sensor Statistics Dat
  69:.\console.c   **** 
  70:.\console.c   **** /* extern axis current and power STATISTICS	*/
  71:.\console.c   **** extern struct STATISTICS pan_current_stat;			/* PAN  Current  Statistic    [A]           (Motor Tor
  72:.\console.c   **** extern struct STATISTICS pan_qpower_stat;			/* PAN  quasi-power Statistic [A * rad/sec] (Motor Powe
  73:.\console.c   **** extern struct STATISTICS tilt_current_stat;			/* TILT Current  Statistic    [A]           (Motor To
  74:.\console.c   **** extern struct STATISTICS tilt_qpower_stat;			/* TILT quasi-power Statistic [A * rad/sec] (Motor Pow
  75:.\console.c   **** 
  76:.\console.c   **** /* extern axis TORQUE Estimator	*/
  77:.\console.c   **** extern struct TORQUESTAT pan_torque_stat;			/* PAN  Torque Statistics Real Time Datas	*/
  78:.\console.c   **** extern struct TORQUESTAT tilt_torque_stat;			/* TILT Torque Statistics Real Time Datas	*/
  79:.\console.c   **** 
  80:.\console.c   **** /* EXTERN MOVER PATH Array */
  81:.\console.c   **** extern path_type path[PATH_N_MAX];		/* path array structure 	*/
  82:.\console.c   **** extern path_type path_to_home;			/* path to home structure instatiation		*/
  83:.\console.c   **** 
  84:.\console.c   **** /* EXTERN MOVER PAN&TILT PATHs */
  85:.\console.c   **** extern mover_type mover_pan;			/* mover PAN structure 		*/
  86:.\console.c   **** extern mover_type mover_tilt;			/* mover TILT structure 	*/
  87:.\console.c   **** 
  88:.\console.c   **** /* external Q elements (shots) ARRAY	*/
  89:.\console.c   **** extern struct QELEMENT q[MAX_Q_MEMORIES_SAFE];
  90:.\console.c   **** 
  91:.\console.c   **** /* external [Q number --> Q memory index] table for fast indexing */
  92:.\console.c   **** extern uint8 q_table[MAX_Q_NUMBER_SAFE];
  93:.\console.c   **** extern uint8 qmemory_standard_address[MAX_Q_NUMBER_SAFE]; 
  94:.\console.c   **** 
  95:.\console.c   **** /* EXTERN CLU Sequence Array 	*/
  96:.\console.c   **** extern uint8 clu_sequence[MAX_CLU_SEQUENCE_STEPS];
  97:.\console.c   **** 
  98:.\console.c   **** /* external events structure	*/
  99:.\console.c   **** extern struct EVENTS events;
 100:.\console.c   **** 
 101:.\console.c   **** /* extern IMU UM7 vars */ 
 102:.\console.c   **** #if IMU_UM7_ENABLED
 103:.\console.c   **** extern EULER_ANGLES euler_angles; 		/* Struttura in cui vengono messi gli angoli di Eulero misurati
 104:.\console.c   **** #endif
 105:.\console.c   **** 
 106:.\console.c   **** /* extern IMU sensor vars */
 107:.\console.c   **** extern struct IMU_SENSOR	IMU_sensor;		/* Struttura dei dati della IMU */
 108:.\console.c   **** 
 109:.\console.c   **** /* external ITG-3701 digital gyro vars */
 110:.\console.c   **** extern float gRes;      				// scale resolutions per LSB for the sensors
 111:.\console.c   **** extern int16 gyroCount[3];  			// Stores the 16-bit signed gyro output
 112:.\console.c   **** extern float gx, gy, gz; 				// variables to hold latest sensor data values 
 113:.\console.c   **** extern float gyroBias[3];			 	// Bias corrections for gyro, accelerometer, and magnetometer
 114:.\console.c   **** extern float temperature;          		// Stores the ITG3701yro internal chip temperature in degrees 
 115:.\console.c   **** 
ARM GAS  C:\Users\GRAZIA~1.RAV\AppData\Local\Temp\ccodpSVr.s 			page 5


 116:.\console.c   **** /* extern accelerometer and gyroscopes and estimated Variables */
 117:.\console.c   **** extern int16 gyro_ADC_offset;			/* analog gyroscope ADC offset				*/
 118:.\console.c   **** 
 119:.\console.c   **** //extern float angle_estim_analog_gyro;	/* estimated angle [deg] from ADXRS646     (analog gyro) 		
 120:.\console.c   **** //extern float angle_estim_digital_gyro;	/* estimated angle [deg] from ADXRS453     (digital gyro)	
 121:.\console.c   **** //extern float angle_estim_acc;			/* estimated angle [deg] from ADXL203      (analog accelerometer)
 122:.\console.c   **** //extern float angle_estim_acc_lowpass;	/* Low Pass Filtered estimated angle [deg] (analog accelero
 123:.\console.c   **** 
 124:.\console.c   **** extern signed long system_dynamic_scalar;	/* x_acc_ADC^2 + y_acc_ADC^2 - (1g_ADC)^2						*/
 125:.\console.c   **** 
 126:.\console.c   **** //extern float gyro;					/* analog gyroscope float value						*/
 127:.\console.c   **** //extern float gyro_offset_fine;		/* fine Gyro offset									*/
 128:.\console.c   **** //extern float int_gyro;				/* estimated angle [deg] from ADXRS646				*/
 129:.\console.c   **** //extern float angle;					/* Complementary Filter Estimated angle float [deg]	*/
 130:.\console.c   **** extern float angle_lowpass;
 131:.\console.c   **** extern float agyro_mean;			/* analog gyro mean_value(t)						*/
 132:.\console.c   **** extern float agyro_mean_previous;	/* analog gyro mean_value(t-1)						*/
 133:.\console.c   **** extern uint32 iteration;			/* mean value iteration counter						*/
 134:.\console.c   **** extern uint8 agyro_messg;			/* analog gyro message passing console --> isr_ctrl	*/
 135:.\console.c   **** extern uint16 GyroNullPauseTicks;	/* centiseconds ticks counter for Gyroscope Autonull Procedure De
 136:.\console.c   **** 
 137:.\console.c   **** /* extern Analog ADXL325 3D accelerometer vars) */
 138:.\console.c   **** extern struct ANALOG_3D_ACCELEROMETER aacc;
 139:.\console.c   **** 
 140:.\console.c   **** /* GLOBAL Analog External ADXRS646 gyroscope vars) */
 141:.\console.c   **** extern struct ANALOG_GYRO agyro;
 142:.\console.c   **** 
 143:.\console.c   **** //extern Digital Gyroscope Vars
 144:.\console.c   **** extern unsigned long int dgyro_spi32;	/* ADXRS453 Digital Gyro 32 bit SPI Response			*/
 145:.\console.c   **** extern float dgyro_rate_float;			/* ADXRS453 Digital Gyro Rate (float) [deg/sec] 		*/
 146:.\console.c   **** extern float dgyro_mean;				/* digital gyro mean_value(t)							*/
 147:.\console.c   **** extern float dgyro_mean_of;				/* digital gyro ofsetted mean_value(t)					*/
 148:.\console.c   **** extern uint8 dgyro_messg;				/* digital gyro message passing console --> isr_ctrl	*/
 149:.\console.c   **** 
 150:.\console.c   **** /* extern anapos vars */
 151:.\console.c   **** extern float anapos;					/* Analog Position Output(t) 				*/
 152:.\console.c   **** extern int32 anapos_offset;				/* Analog Position Output Offset			*/
 153:.\console.c   **** 
 154:.\console.c   **** /* EXTERNAL CONTROL CHECK VARS */
 155:.\console.c   **** extern uint16 isr_START_check_counter;
 156:.\console.c   **** extern uint16 isr_STOP_check_counter;
 157:.\console.c   **** 
 158:.\console.c   **** /* EXTERNAL EEPROM Buffers */
 159:.\console.c   **** extern char8 EEreadBuffer[18];
 160:.\console.c   **** extern char8 EEwriteBuffer[18];
 161:.\console.c   **** 
 162:.\console.c   **** extern struct  GOBEE_FAULTS nemo_Faults;			/* Faults Flags Structure */
 163:.\console.c   **** 
 164:.\console.c   **** 
 165:.\console.c   **** /* ASTIM WAVES (3Hz - 3333 samples/sec */
 166:.\console.c   **** extern const uint8 CYCODE WaveDAC8_wave_sine[WaveDAC8_WAVE_SINE_LENGTH];
 167:.\console.c   **** extern const uint8 CYCODE WaveDAC8_wave_triangle[WaveDAC8_WAVE_TRIANGLE_LENGTH];
 168:.\console.c   **** extern const uint8 CYCODE WaveDAC8_wave_square[WaveDAC8_WAVE_SQUARE_LENGTH];
 169:.\console.c   **** 
 170:.\console.c   **** /* Console Module Wars */
 171:.\console.c   **** char   userInputBuffer[40]="";		/* User Input Buffer from USB UART 	*/
 172:.\console.c   **** struct command actual_cmd;
ARM GAS  C:\Users\GRAZIA~1.RAV\AppData\Local\Temp\ccodpSVr.s 			page 6


 173:.\console.c   **** uint8  USB_Check_prev;				/* USB Check(t-1) 					*/
 174:.\console.c   **** char   slegenda[15]="";				/* hystogram legenda string 		*/
 175:.\console.c   **** 
 176:.\console.c   **** //////////////////////////////////////////////////////////////////////////
 177:.\console.c   **** // Show Status of the Mapping State Machine Auxiliary Functions
 178:.\console.c   **** //////////////////////////////////////////////////////////////////////////
 179:.\console.c   **** void ShowStatusMappingSM(uint8 status)
 180:.\console.c   **** {
  74              		.loc 1 180 0
  75              		.cfi_startproc
  76              		@ args = 0, pretend = 0, frame = 8
  77              		@ frame_needed = 1, uses_anonymous_args = 0
  78 0000 80B5     		push	{r7, lr}
  79              	.LCFI0:
  80              		.cfi_def_cfa_offset 8
  81              		.cfi_offset 7, -8
  82              		.cfi_offset 14, -4
  83 0002 82B0     		sub	sp, sp, #8
  84              	.LCFI1:
  85              		.cfi_def_cfa_offset 16
  86 0004 00AF     		add	r7, sp, #0
  87              	.LCFI2:
  88              		.cfi_def_cfa_register 7
  89 0006 0346     		mov	r3, r0
  90 0008 FB71     		strb	r3, [r7, #7]
 181:.\console.c   **** 	switch (status)
  91              		.loc 1 181 0
  92 000a FB79     		ldrb	r3, [r7, #7]	@ zero_extendqisi2
  93 000c 042B     		cmp	r3, #4
  94 000e 32D0     		beq	.L7
  95 0010 042B     		cmp	r3, #4
  96 0012 0BDC     		bgt	.L12
  97 0014 012B     		cmp	r3, #1
  98 0016 19D0     		beq	.L4
  99 0018 012B     		cmp	r3, #1
 100 001a 02DC     		bgt	.L13
 101 001c 002B     		cmp	r3, #0
 102 001e 0ED0     		beq	.L3
 103 0020 4CE0     		b	.L2
 104              	.L13:
 105 0022 022B     		cmp	r3, #2
 106 0024 19D0     		beq	.L5
 107 0026 032B     		cmp	r3, #3
 108 0028 1ED0     		beq	.L6
 109 002a 47E0     		b	.L2
 110              	.L12:
 111 002c 062B     		cmp	r3, #6
 112 002e 30D0     		beq	.L9
 113 0030 062B     		cmp	r3, #6
 114 0032 27DB     		blt	.L8
 115 0034 072B     		cmp	r3, #7
 116 0036 33D0     		beq	.L10
 117 0038 632B     		cmp	r3, #99
 118 003a 38D0     		beq	.L11
 119 003c 3EE0     		b	.L2
 120              	.L3:
 182:.\console.c   **** 	{
ARM GAS  C:\Users\GRAZIA~1.RAV\AppData\Local\Temp\ccodpSVr.s 			page 7


 183:.\console.c   **** 		case SM_ON_ORIGIN:
 184:.\console.c   **** 			printf("(SM_ON_ORIGIN)");
 121              		.loc 1 184 0
 122 003e 40F20000 		movw	r0, #:lower16:.LC0
 123 0042 C0F20000 		movt	r0, #:upper16:.LC0
 124 0046 FFF7FEFF 		bl	printf
 185:.\console.c   **** 		break;	
 125              		.loc 1 185 0
 126 004a 3EE0     		b	.L1
 127              	.L4:
 186:.\console.c   **** 		case SM_MOVING_TO_FACE:
 187:.\console.c   **** 			printf("(SM_MOVING_TO_FACE)");
 128              		.loc 1 187 0
 129 004c 40F20000 		movw	r0, #:lower16:.LC1
 130 0050 C0F20000 		movt	r0, #:upper16:.LC1
 131 0054 FFF7FEFF 		bl	printf
 188:.\console.c   **** 		break;		
 132              		.loc 1 188 0
 133 0058 37E0     		b	.L1
 134              	.L5:
 189:.\console.c   **** 		case SM_ON_FACE:
 190:.\console.c   **** 			printf("(SM_ON_FACE)");
 135              		.loc 1 190 0
 136 005a 40F20000 		movw	r0, #:lower16:.LC2
 137 005e C0F20000 		movt	r0, #:upper16:.LC2
 138 0062 FFF7FEFF 		bl	printf
 191:.\console.c   **** 		break;
 139              		.loc 1 191 0
 140 0066 30E0     		b	.L1
 141              	.L6:
 192:.\console.c   **** 		case SM_MOVING_TO_ORIGIN:
 193:.\console.c   **** 			printf("(SM_MOVING_TO_ORIGIN)");
 142              		.loc 1 193 0
 143 0068 40F20000 		movw	r0, #:lower16:.LC3
 144 006c C0F20000 		movt	r0, #:upper16:.LC3
 145 0070 FFF7FEFF 		bl	printf
 194:.\console.c   **** 		break;
 146              		.loc 1 194 0
 147 0074 29E0     		b	.L1
 148              	.L7:
 195:.\console.c   **** 		case SM_MOVING_PANORAMIC:
 196:.\console.c   **** 			printf("(SM_MOVING_PANORAMIC)");
 149              		.loc 1 196 0
 150 0076 40F20000 		movw	r0, #:lower16:.LC4
 151 007a C0F20000 		movt	r0, #:upper16:.LC4
 152 007e FFF7FEFF 		bl	printf
 197:.\console.c   **** 		break;
 153              		.loc 1 197 0
 154 0082 22E0     		b	.L1
 155              	.L8:
 198:.\console.c   **** 		case SM_MOVING_JUMP:
 199:.\console.c   **** 			printf("(SM_MOVING_JUMP)");
 156              		.loc 1 199 0
 157 0084 40F20000 		movw	r0, #:lower16:.LC5
 158 0088 C0F20000 		movt	r0, #:upper16:.LC5
 159 008c FFF7FEFF 		bl	printf
 200:.\console.c   **** 		break;
ARM GAS  C:\Users\GRAZIA~1.RAV\AppData\Local\Temp\ccodpSVr.s 			page 8


 160              		.loc 1 200 0
 161 0090 1BE0     		b	.L1
 162              	.L9:
 201:.\console.c   **** 		case SM_MOVING_TO_WHEEL:
 202:.\console.c   **** 			printf("(SM_MOVING_TO_WHEEL)");
 163              		.loc 1 202 0
 164 0092 40F20000 		movw	r0, #:lower16:.LC6
 165 0096 C0F20000 		movt	r0, #:upper16:.LC6
 166 009a FFF7FEFF 		bl	printf
 203:.\console.c   **** 		break;			
 167              		.loc 1 203 0
 168 009e 14E0     		b	.L1
 169              	.L10:
 204:.\console.c   **** 		case SM_ON_WHEEL:
 205:.\console.c   **** 			printf("(SM_ON_WHEEL)");
 170              		.loc 1 205 0
 171 00a0 40F20000 		movw	r0, #:lower16:.LC7
 172 00a4 C0F20000 		movt	r0, #:upper16:.LC7
 173 00a8 FFF7FEFF 		bl	printf
 206:.\console.c   **** 		break;			
 174              		.loc 1 206 0
 175 00ac 0DE0     		b	.L1
 176              	.L11:
 207:.\console.c   **** 		case SM_STANDBY:
 208:.\console.c   **** 			printf("(SM_STANDBY)");
 177              		.loc 1 208 0
 178 00ae 40F20000 		movw	r0, #:lower16:.LC8
 179 00b2 C0F20000 		movt	r0, #:upper16:.LC8
 180 00b6 FFF7FEFF 		bl	printf
 209:.\console.c   **** 		break;			
 181              		.loc 1 209 0
 182 00ba 06E0     		b	.L1
 183              	.L2:
 210:.\console.c   **** 		default:
 211:.\console.c   **** 			printf("(*err)");
 184              		.loc 1 211 0
 185 00bc 40F20000 		movw	r0, #:lower16:.LC9
 186 00c0 C0F20000 		movt	r0, #:upper16:.LC9
 187 00c4 FFF7FEFF 		bl	printf
 212:.\console.c   **** 		break;
 188              		.loc 1 212 0
 189 00c8 00BF     		nop
 190              	.L1:
 213:.\console.c   **** 	}
 214:.\console.c   **** }
 191              		.loc 1 214 0
 192 00ca 07F10807 		add	r7, r7, #8
 193 00ce BD46     		mov	sp, r7
 194 00d0 80BD     		pop	{r7, pc}
 195              		.cfi_endproc
 196              	.LFE56:
 197              		.size	ShowStatusMappingSM, .-ShowStatusMappingSM
 198 00d2 00BF     		.section	.rodata
 199 00b7 00       		.align	2
 200              	.LC10:
 201 00b8 28434C55 		.ascii	"(CLUSM_NOP)\000"
 201      534D5F4E 
ARM GAS  C:\Users\GRAZIA~1.RAV\AppData\Local\Temp\ccodpSVr.s 			page 9


 201      4F502900 
 202              		.align	2
 203              	.LC11:
 204 00c4 28434C55 		.ascii	"(CLUSM_START)\000"
 204      534D5F53 
 204      54415254 
 204      2900
 205 00d2 0000     		.align	2
 206              	.LC12:
 207 00d4 28434C55 		.ascii	"(CLUSM_LINE_EXECUTING)\000"
 207      534D5F4C 
 207      494E455F 
 207      45584543 
 207      5554494E 
 208 00eb 00       		.align	2
 209              	.LC13:
 210 00ec 28434C55 		.ascii	"(CLUSM_PAUSE_EXECUTION)\000"
 210      534D5F50 
 210      41555345 
 210      5F455845 
 210      43555449 
 211              		.align	2
 212              	.LC14:
 213 0104 28434C55 		.ascii	"(CLUSM_PGOTO_EXECUTION)\000"
 213      534D5F50 
 213      474F544F 
 213      5F455845 
 213      43555449 
 214              		.align	2
 215              	.LC15:
 216 011c 28434C55 		.ascii	"(CLUSM_TGOTO_EXECUTION)\000"
 216      534D5F54 
 216      474F544F 
 216      5F455845 
 216      43555449 
 217              		.align	2
 218              	.LC16:
 219 0134 28434C55 		.ascii	"(CLUSM_PATH_EXECUTION)\000"
 219      534D5F50 
 219      4154485F 
 219      45584543 
 219      5554494F 
 220 014b 00       		.align	2
 221              	.LC17:
 222 014c 28434C55 		.ascii	"(CLUSM_LINE_EXECUTED)\000"
 222      534D5F4C 
 222      494E455F 
 222      45584543 
 222      55544544 
 223 0162 0000     		.align	2
 224              	.LC18:
 225 0164 28434C55 		.ascii	"(CLUSM_STOP)\000"
 225      534D5F53 
 225      544F5029 
 225      00
 226 0171 000000   		.align	2
 227              	.LC19:
ARM GAS  C:\Users\GRAZIA~1.RAV\AppData\Local\Temp\ccodpSVr.s 			page 10


 228 0174 28434C55 		.ascii	"(CLUSM_END)\000"
 228      534D5F45 
 228      4E442900 
 229              		.section	.text.ShowCLUSM,"ax",%progbits
 230              		.align	2
 231              		.global	ShowCLUSM
 232              		.thumb
 233              		.thumb_func
 234              		.type	ShowCLUSM, %function
 235              	ShowCLUSM:
 236              	.LFB57:
 215:.\console.c   **** 
 216:.\console.c   **** //////////////////////////////////////////////////////////////////////////
 217:.\console.c   **** // Show Status of the CLU Machine Auxiliary Functions
 218:.\console.c   **** //////////////////////////////////////////////////////////////////////////
 219:.\console.c   **** void ShowCLUSM(uint8 status)
 220:.\console.c   **** {
 237              		.loc 1 220 0
 238              		.cfi_startproc
 239              		@ args = 0, pretend = 0, frame = 8
 240              		@ frame_needed = 1, uses_anonymous_args = 0
 241 0000 80B5     		push	{r7, lr}
 242              	.LCFI3:
 243              		.cfi_def_cfa_offset 8
 244              		.cfi_offset 7, -8
 245              		.cfi_offset 14, -4
 246 0002 82B0     		sub	sp, sp, #8
 247              	.LCFI4:
 248              		.cfi_def_cfa_offset 16
 249 0004 00AF     		add	r7, sp, #0
 250              	.LCFI5:
 251              		.cfi_def_cfa_register 7
 252 0006 0346     		mov	r3, r0
 253 0008 FB71     		strb	r3, [r7, #7]
 221:.\console.c   **** 	switch (status)
 254              		.loc 1 221 0
 255 000a FB79     		ldrb	r3, [r7, #7]	@ zero_extendqisi2
 256 000c 0C2B     		cmp	r3, #12
 257 000e 63D8     		bhi	.L16
 258 0010 01A2     		adr	r2, .L27
 259 0012 52F823F0 		ldr	pc, [r2, r3, lsl #2]
 260 0016 00BF     		.align	2
 261              	.L27:
 262 0018 4D000000 		.word	.L17+1
 263 001c 5B000000 		.word	.L18+1
 264 0020 69000000 		.word	.L19+1
 265 0024 77000000 		.word	.L20+1
 266 0028 85000000 		.word	.L21+1
 267 002c 93000000 		.word	.L22+1
 268 0030 A1000000 		.word	.L23+1
 269 0034 D9000000 		.word	.L16+1
 270 0038 D9000000 		.word	.L16+1
 271 003c D9000000 		.word	.L16+1
 272 0040 AF000000 		.word	.L24+1
 273 0044 BD000000 		.word	.L25+1
 274 0048 CB000000 		.word	.L26+1
 275              	.L17:
ARM GAS  C:\Users\GRAZIA~1.RAV\AppData\Local\Temp\ccodpSVr.s 			page 11


 222:.\console.c   **** 	{
 223:.\console.c   **** 		case CLUSM_NOP:
 224:.\console.c   **** 			printf("(CLUSM_NOP)");
 276              		.loc 1 224 0
 277 004c 40F20000 		movw	r0, #:lower16:.LC10
 278 0050 C0F20000 		movt	r0, #:upper16:.LC10
 279 0054 FFF7FEFF 		bl	printf
 225:.\console.c   **** 		break;	
 280              		.loc 1 225 0
 281 0058 45E0     		b	.L15
 282              	.L18:
 226:.\console.c   **** 		case CLUSM_START:
 227:.\console.c   **** 			printf("(CLUSM_START)");
 283              		.loc 1 227 0
 284 005a 40F20000 		movw	r0, #:lower16:.LC11
 285 005e C0F20000 		movt	r0, #:upper16:.LC11
 286 0062 FFF7FEFF 		bl	printf
 228:.\console.c   **** 		break;
 287              		.loc 1 228 0
 288 0066 3EE0     		b	.L15
 289              	.L19:
 229:.\console.c   **** 		case CLUSM_LINE_EXECUTING:
 230:.\console.c   **** 			printf("(CLUSM_LINE_EXECUTING)");
 290              		.loc 1 230 0
 291 0068 40F20000 		movw	r0, #:lower16:.LC12
 292 006c C0F20000 		movt	r0, #:upper16:.LC12
 293 0070 FFF7FEFF 		bl	printf
 231:.\console.c   **** 		break;
 294              		.loc 1 231 0
 295 0074 37E0     		b	.L15
 296              	.L20:
 232:.\console.c   **** 		case CLUSM_PAUSE_EXECUTION:
 233:.\console.c   **** 			printf("(CLUSM_PAUSE_EXECUTION)");
 297              		.loc 1 233 0
 298 0076 40F20000 		movw	r0, #:lower16:.LC13
 299 007a C0F20000 		movt	r0, #:upper16:.LC13
 300 007e FFF7FEFF 		bl	printf
 234:.\console.c   **** 		break;		
 301              		.loc 1 234 0
 302 0082 30E0     		b	.L15
 303              	.L21:
 235:.\console.c   **** 		case CLUSM_PGOTO_EXECUTION:
 236:.\console.c   **** 			printf("(CLUSM_PGOTO_EXECUTION)");
 304              		.loc 1 236 0
 305 0084 40F20000 		movw	r0, #:lower16:.LC14
 306 0088 C0F20000 		movt	r0, #:upper16:.LC14
 307 008c FFF7FEFF 		bl	printf
 237:.\console.c   **** 		break;	
 308              		.loc 1 237 0
 309 0090 29E0     		b	.L15
 310              	.L22:
 238:.\console.c   **** 		case CLUSM_TGOTO_EXECUTION:
 239:.\console.c   **** 			printf("(CLUSM_TGOTO_EXECUTION)");
 311              		.loc 1 239 0
 312 0092 40F20000 		movw	r0, #:lower16:.LC15
 313 0096 C0F20000 		movt	r0, #:upper16:.LC15
 314 009a FFF7FEFF 		bl	printf
ARM GAS  C:\Users\GRAZIA~1.RAV\AppData\Local\Temp\ccodpSVr.s 			page 12


 240:.\console.c   **** 		break;
 315              		.loc 1 240 0
 316 009e 22E0     		b	.L15
 317              	.L23:
 241:.\console.c   **** 		case CLUSM_PATH_EXECUTION:
 242:.\console.c   **** 			printf("(CLUSM_PATH_EXECUTION)");
 318              		.loc 1 242 0
 319 00a0 40F20000 		movw	r0, #:lower16:.LC16
 320 00a4 C0F20000 		movt	r0, #:upper16:.LC16
 321 00a8 FFF7FEFF 		bl	printf
 243:.\console.c   **** 		break;		
 322              		.loc 1 243 0
 323 00ac 1BE0     		b	.L15
 324              	.L24:
 244:.\console.c   **** 		case CLUSM_LINE_EXECUTED:
 245:.\console.c   **** 			printf("(CLUSM_LINE_EXECUTED)");
 325              		.loc 1 245 0
 326 00ae 40F20000 		movw	r0, #:lower16:.LC17
 327 00b2 C0F20000 		movt	r0, #:upper16:.LC17
 328 00b6 FFF7FEFF 		bl	printf
 246:.\console.c   **** 		break;		
 329              		.loc 1 246 0
 330 00ba 14E0     		b	.L15
 331              	.L25:
 247:.\console.c   **** 		case CLUSM_STOP:
 248:.\console.c   **** 			printf("(CLUSM_STOP)");
 332              		.loc 1 248 0
 333 00bc 40F20000 		movw	r0, #:lower16:.LC18
 334 00c0 C0F20000 		movt	r0, #:upper16:.LC18
 335 00c4 FFF7FEFF 		bl	printf
 249:.\console.c   **** 		break;	
 336              		.loc 1 249 0
 337 00c8 0DE0     		b	.L15
 338              	.L26:
 250:.\console.c   **** 		case CLUSM_END:
 251:.\console.c   **** 			printf("(CLUSM_END)");
 339              		.loc 1 251 0
 340 00ca 40F20000 		movw	r0, #:lower16:.LC19
 341 00ce C0F20000 		movt	r0, #:upper16:.LC19
 342 00d2 FFF7FEFF 		bl	printf
 252:.\console.c   **** 		break;			
 343              		.loc 1 252 0
 344 00d6 06E0     		b	.L15
 345              	.L16:
 253:.\console.c   **** 		default:
 254:.\console.c   **** 			printf("(*err)");
 346              		.loc 1 254 0
 347 00d8 40F20000 		movw	r0, #:lower16:.LC9
 348 00dc C0F20000 		movt	r0, #:upper16:.LC9
 349 00e0 FFF7FEFF 		bl	printf
 255:.\console.c   **** 		break;
 350              		.loc 1 255 0
 351 00e4 00BF     		nop
 352              	.L15:
 256:.\console.c   **** 	}
 257:.\console.c   **** }
 353              		.loc 1 257 0
ARM GAS  C:\Users\GRAZIA~1.RAV\AppData\Local\Temp\ccodpSVr.s 			page 13


 354 00e6 07F10807 		add	r7, r7, #8
 355 00ea BD46     		mov	sp, r7
 356 00ec 80BD     		pop	{r7, pc}
 357              		.cfi_endproc
 358              	.LFE57:
 359              		.size	ShowCLUSM, .-ShowCLUSM
 360 00ee 00BF     		.section	.rodata
 361              		.align	2
 362              	.LC20:
 363 0180 5374616E 		.ascii	"Stanley Kubrick\000"
 363      6C657920 
 363      4B756272 
 363      69636B00 
 364              		.align	2
 365              	.LC21:
 366 0190 416C6672 		.ascii	"Alfred Hitchcock\000"
 366      65642048 
 366      69746368 
 366      636F636B 
 366      00
 367 01a1 000000   		.align	2
 368              	.LC22:
 369 01a4 42726961 		.ascii	"Brian De Palma\000"
 369      6E204465 
 369      2050616C 
 369      6D6100
 370 01b3 00       		.align	2
 371              	.LC23:
 372 01b4 43686172 		.ascii	"Charlie Chaplin\000"
 372      6C696520 
 372      43686170 
 372      6C696E00 
 373              		.align	2
 374              	.LC24:
 375 01c4 44617669 		.ascii	"David Linch\000"
 375      64204C69 
 375      6E636800 
 376              		.align	2
 377              	.LC25:
 378 01d0 4672616E 		.ascii	"Francis Ford Coppola\000"
 378      63697320 
 378      466F7264 
 378      20436F70 
 378      706F6C61 
 379 01e5 000000   		.align	2
 380              	.LC26:
 381 01e8 4D617274 		.ascii	"Martin Scorsese\000"
 381      696E2053 
 381      636F7273 
 381      65736500 
 382              		.align	2
 383              	.LC27:
 384 01f8 5175656E 		.ascii	"Quentin Tarantino\000"
 384      74696E20 
 384      54617261 
 384      6E74696E 
 384      6F00
ARM GAS  C:\Users\GRAZIA~1.RAV\AppData\Local\Temp\ccodpSVr.s 			page 14


 385 020a 0000     		.align	2
 386              	.LC28:
 387 020c 5269646C 		.ascii	"Ridley Scott\000"
 387      65792053 
 387      636F7474 
 387      00
 388 0219 000000   		.align	2
 389              	.LC29:
 390 021c 53657267 		.ascii	"Sergio Leone\000"
 390      696F204C 
 390      656F6E65 
 390      00
 391 0229 000000   		.align	2
 392              	.LC30:
 393 022c 53746576 		.ascii	"Steven Spielberg\000"
 393      656E2053 
 393      7069656C 
 393      62657267 
 393      00
 394 023d 000000   		.align	2
 395              	.LC31:
 396 0240 54696D20 		.ascii	"Tim Burton\000"
 396      42757274 
 396      6F6E00
 397 024b 00       		.align	2
 398              	.LC32:
 399 024c 57657320 		.ascii	"Wes Craven\000"
 399      43726176 
 399      656E00
 400 0257 00       		.align	2
 401              	.LC33:
 402 0258 46656465 		.ascii	"Federico Fellini\000"
 402      7269636F 
 402      2046656C 
 402      6C696E69 
 402      00
 403 0269 000000   		.align	2
 404              	.LC34:
 405 026c 43687269 		.ascii	"Christopher Nolan\000"
 405      73746F70 
 405      68657220 
 405      4E6F6C61 
 405      6E00
 406 027e 0000     		.align	2
 407              	.LC35:
 408 0280 47756C6C 		.ascii	"Gullermo Del Toro\000"
 408      65726D6F 
 408      2044656C 
 408      20546F72 
 408      6F00
 409 0292 0000     		.align	2
 410              	.LC36:
 411 0294 47656F72 		.ascii	"George Lucas\000"
 411      6765204C 
 411      75636173 
 411      00
 412 02a1 000000   		.align	2
ARM GAS  C:\Users\GRAZIA~1.RAV\AppData\Local\Temp\ccodpSVr.s 			page 15


 413              	.LC37:
 414 02a4 4A2E4A2E 		.ascii	"J.J. Abrams\000"
 414      20416272 
 414      616D7300 
 415              		.align	2
 416              	.LC38:
 417 02b0 596F7500 		.ascii	"You\000"
 418              		.section	.text.ShowParamsDirector,"ax",%progbits
 419              		.align	2
 420              		.global	ShowParamsDirector
 421              		.thumb
 422              		.thumb_func
 423              		.type	ShowParamsDirector, %function
 424              	ShowParamsDirector:
 425              	.LFB58:
 258:.\console.c   **** 
 259:.\console.c   **** 
 260:.\console.c   **** //////////////////////////////////////////////////////////////////////////
 261:.\console.c   **** // Show Parameters Auxiliary Functions
 262:.\console.c   **** //////////////////////////////////////////////////////////////////////////
 263:.\console.c   **** void ShowParamsDirector(void)
 264:.\console.c   **** {	
 426              		.loc 1 264 0
 427              		.cfi_startproc
 428              		@ args = 0, pretend = 0, frame = 0
 429              		@ frame_needed = 1, uses_anonymous_args = 0
 430 0000 80B5     		push	{r7, lr}
 431              	.LCFI6:
 432              		.cfi_def_cfa_offset 8
 433              		.cfi_offset 7, -8
 434              		.cfi_offset 14, -4
 435 0002 00AF     		add	r7, sp, #0
 436              	.LCFI7:
 437              		.cfi_def_cfa_register 7
 265:.\console.c   **** 	switch (gobee_param.director)
 438              		.loc 1 265 0
 439 0004 40F20003 		movw	r3, #:lower16:gobee_param
 440 0008 C0F20003 		movt	r3, #:upper16:gobee_param
 441 000c 5B78     		ldrb	r3, [r3, #1]	@ zero_extendqisi2
 442 000e 122B     		cmp	r3, #18
 443 0010 00F2A880 		bhi	.L30
 444 0014 01A2     		adr	r2, .L49
 445 0016 52F823F0 		ldr	pc, [r2, r3, lsl #2]
 446 001a 00BF     		.align	2
 447              	.L49:
 448 001c 69000000 		.word	.L31+1
 449 0020 77000000 		.word	.L32+1
 450 0024 85000000 		.word	.L33+1
 451 0028 93000000 		.word	.L34+1
 452 002c A1000000 		.word	.L35+1
 453 0030 AF000000 		.word	.L36+1
 454 0034 BD000000 		.word	.L37+1
 455 0038 CB000000 		.word	.L38+1
 456 003c D9000000 		.word	.L39+1
 457 0040 E7000000 		.word	.L40+1
 458 0044 F5000000 		.word	.L41+1
 459 0048 03010000 		.word	.L42+1
ARM GAS  C:\Users\GRAZIA~1.RAV\AppData\Local\Temp\ccodpSVr.s 			page 16


 460 004c 11010000 		.word	.L43+1
 461 0050 1F010000 		.word	.L44+1
 462 0054 65010000 		.word	.L30+1
 463 0058 2D010000 		.word	.L45+1
 464 005c 3B010000 		.word	.L46+1
 465 0060 49010000 		.word	.L47+1
 466 0064 57010000 		.word	.L48+1
 467              	.L31:
 266:.\console.c   **** 	{
 267:.\console.c   **** 		case STANLEY:
 268:.\console.c   **** 			printf("Stanley Kubrick");
 468              		.loc 1 268 0
 469 0068 40F20000 		movw	r0, #:lower16:.LC20
 470 006c C0F20000 		movt	r0, #:upper16:.LC20
 471 0070 FFF7FEFF 		bl	printf
 269:.\console.c   **** 			break;	
 472              		.loc 1 269 0
 473 0074 7DE0     		b	.L29
 474              	.L32:
 270:.\console.c   **** 		case ALFRED:
 271:.\console.c   **** 			printf("Alfred Hitchcock");
 475              		.loc 1 271 0
 476 0076 40F20000 		movw	r0, #:lower16:.LC21
 477 007a C0F20000 		movt	r0, #:upper16:.LC21
 478 007e FFF7FEFF 		bl	printf
 272:.\console.c   **** 			break;
 479              		.loc 1 272 0
 480 0082 76E0     		b	.L29
 481              	.L33:
 273:.\console.c   **** 		case DE_PALMA:
 274:.\console.c   **** 			printf("Brian De Palma");
 482              		.loc 1 274 0
 483 0084 40F20000 		movw	r0, #:lower16:.LC22
 484 0088 C0F20000 		movt	r0, #:upper16:.LC22
 485 008c FFF7FEFF 		bl	printf
 275:.\console.c   **** 			break;	
 486              		.loc 1 275 0
 487 0090 6FE0     		b	.L29
 488              	.L34:
 276:.\console.c   **** 		case CHARLIE:
 277:.\console.c   **** 			printf("Charlie Chaplin");
 489              		.loc 1 277 0
 490 0092 40F20000 		movw	r0, #:lower16:.LC23
 491 0096 C0F20000 		movt	r0, #:upper16:.LC23
 492 009a FFF7FEFF 		bl	printf
 278:.\console.c   **** 			break;	
 493              		.loc 1 278 0
 494 009e 68E0     		b	.L29
 495              	.L35:
 279:.\console.c   **** 		case LINCH:
 280:.\console.c   **** 			printf("David Linch");
 496              		.loc 1 280 0
 497 00a0 40F20000 		movw	r0, #:lower16:.LC24
 498 00a4 C0F20000 		movt	r0, #:upper16:.LC24
 499 00a8 FFF7FEFF 		bl	printf
 281:.\console.c   **** 			break;
 500              		.loc 1 281 0
ARM GAS  C:\Users\GRAZIA~1.RAV\AppData\Local\Temp\ccodpSVr.s 			page 17


 501 00ac 61E0     		b	.L29
 502              	.L36:
 282:.\console.c   **** 		case COPPOLA:
 283:.\console.c   **** 			printf("Francis Ford Coppola");
 503              		.loc 1 283 0
 504 00ae 40F20000 		movw	r0, #:lower16:.LC25
 505 00b2 C0F20000 		movt	r0, #:upper16:.LC25
 506 00b6 FFF7FEFF 		bl	printf
 284:.\console.c   **** 			break;
 507              		.loc 1 284 0
 508 00ba 5AE0     		b	.L29
 509              	.L37:
 285:.\console.c   **** 		case MARTIN:
 286:.\console.c   **** 			printf("Martin Scorsese");
 510              		.loc 1 286 0
 511 00bc 40F20000 		movw	r0, #:lower16:.LC26
 512 00c0 C0F20000 		movt	r0, #:upper16:.LC26
 513 00c4 FFF7FEFF 		bl	printf
 287:.\console.c   **** 			break;	
 514              		.loc 1 287 0
 515 00c8 53E0     		b	.L29
 516              	.L38:
 288:.\console.c   **** 		case QUENTIN:
 289:.\console.c   **** 			printf("Quentin Tarantino");
 517              		.loc 1 289 0
 518 00ca 40F20000 		movw	r0, #:lower16:.LC27
 519 00ce C0F20000 		movt	r0, #:upper16:.LC27
 520 00d2 FFF7FEFF 		bl	printf
 290:.\console.c   **** 			break;
 521              		.loc 1 290 0
 522 00d6 4CE0     		b	.L29
 523              	.L39:
 291:.\console.c   **** 		case RIDLEY:
 292:.\console.c   **** 			printf("Ridley Scott");
 524              		.loc 1 292 0
 525 00d8 40F20000 		movw	r0, #:lower16:.LC28
 526 00dc C0F20000 		movt	r0, #:upper16:.LC28
 527 00e0 FFF7FEFF 		bl	printf
 293:.\console.c   **** 			break;
 528              		.loc 1 293 0
 529 00e4 45E0     		b	.L29
 530              	.L40:
 294:.\console.c   **** 		case SERGIO:
 295:.\console.c   **** 			printf("Sergio Leone");
 531              		.loc 1 295 0
 532 00e6 40F20000 		movw	r0, #:lower16:.LC29
 533 00ea C0F20000 		movt	r0, #:upper16:.LC29
 534 00ee FFF7FEFF 		bl	printf
 296:.\console.c   **** 			break;
 535              		.loc 1 296 0
 536 00f2 3EE0     		b	.L29
 537              	.L41:
 297:.\console.c   **** 		case STEVEN:
 298:.\console.c   **** 			printf("Steven Spielberg");
 538              		.loc 1 298 0
 539 00f4 40F20000 		movw	r0, #:lower16:.LC30
 540 00f8 C0F20000 		movt	r0, #:upper16:.LC30
ARM GAS  C:\Users\GRAZIA~1.RAV\AppData\Local\Temp\ccodpSVr.s 			page 18


 541 00fc FFF7FEFF 		bl	printf
 299:.\console.c   **** 			break;
 542              		.loc 1 299 0
 543 0100 37E0     		b	.L29
 544              	.L42:
 300:.\console.c   **** 		case TIM:
 301:.\console.c   **** 			printf("Tim Burton");
 545              		.loc 1 301 0
 546 0102 40F20000 		movw	r0, #:lower16:.LC31
 547 0106 C0F20000 		movt	r0, #:upper16:.LC31
 548 010a FFF7FEFF 		bl	printf
 302:.\console.c   **** 			break;
 549              		.loc 1 302 0
 550 010e 30E0     		b	.L29
 551              	.L43:
 303:.\console.c   **** 		case WES:
 304:.\console.c   **** 			printf("Wes Craven");
 552              		.loc 1 304 0
 553 0110 40F20000 		movw	r0, #:lower16:.LC32
 554 0114 C0F20000 		movt	r0, #:upper16:.LC32
 555 0118 FFF7FEFF 		bl	printf
 305:.\console.c   **** 			break;
 556              		.loc 1 305 0
 557 011c 29E0     		b	.L29
 558              	.L44:
 306:.\console.c   **** 		case FEDERICO:
 307:.\console.c   **** 			printf("Federico Fellini");
 559              		.loc 1 307 0
 560 011e 40F20000 		movw	r0, #:lower16:.LC33
 561 0122 C0F20000 		movt	r0, #:upper16:.LC33
 562 0126 FFF7FEFF 		bl	printf
 308:.\console.c   **** 			break;
 563              		.loc 1 308 0
 564 012a 22E0     		b	.L29
 565              	.L45:
 309:.\console.c   **** 		case CRISTOPHER:
 310:.\console.c   **** 			printf("Christopher Nolan");
 566              		.loc 1 310 0
 567 012c 40F20000 		movw	r0, #:lower16:.LC34
 568 0130 C0F20000 		movt	r0, #:upper16:.LC34
 569 0134 FFF7FEFF 		bl	printf
 311:.\console.c   **** 			break;
 570              		.loc 1 311 0
 571 0138 1BE0     		b	.L29
 572              	.L46:
 312:.\console.c   **** 		case GUILLERMO:
 313:.\console.c   **** 			printf("Gullermo Del Toro");
 573              		.loc 1 313 0
 574 013a 40F20000 		movw	r0, #:lower16:.LC35
 575 013e C0F20000 		movt	r0, #:upper16:.LC35
 576 0142 FFF7FEFF 		bl	printf
 314:.\console.c   **** 			break;	
 577              		.loc 1 314 0
 578 0146 14E0     		b	.L29
 579              	.L47:
 315:.\console.c   **** 		case GEORGE:
 316:.\console.c   **** 			printf("George Lucas");
ARM GAS  C:\Users\GRAZIA~1.RAV\AppData\Local\Temp\ccodpSVr.s 			page 19


 580              		.loc 1 316 0
 581 0148 40F20000 		movw	r0, #:lower16:.LC36
 582 014c C0F20000 		movt	r0, #:upper16:.LC36
 583 0150 FFF7FEFF 		bl	printf
 317:.\console.c   **** 			break;	
 584              		.loc 1 317 0
 585 0154 0DE0     		b	.L29
 586              	.L48:
 318:.\console.c   **** 		case JJ:
 319:.\console.c   **** 			printf("J.J. Abrams");
 587              		.loc 1 319 0
 588 0156 40F20000 		movw	r0, #:lower16:.LC37
 589 015a C0F20000 		movt	r0, #:upper16:.LC37
 590 015e FFF7FEFF 		bl	printf
 320:.\console.c   **** 			break;			
 591              		.loc 1 320 0
 592 0162 06E0     		b	.L29
 593              	.L30:
 321:.\console.c   **** 		default:
 322:.\console.c   **** 			printf("You");
 594              		.loc 1 322 0
 595 0164 40F20000 		movw	r0, #:lower16:.LC38
 596 0168 C0F20000 		movt	r0, #:upper16:.LC38
 597 016c FFF7FEFF 		bl	printf
 323:.\console.c   **** 			break;
 598              		.loc 1 323 0
 599 0170 00BF     		nop
 600              	.L29:
 324:.\console.c   **** 	}		
 325:.\console.c   **** }
 601              		.loc 1 325 0
 602 0172 80BD     		pop	{r7, pc}
 603              		.cfi_endproc
 604              	.LFE58:
 605              		.size	ShowParamsDirector, .-ShowParamsDirector
 606              		.section	.rodata
 607              		.align	2
 608              	.LC39:
 609 02b4 52656D6F 		.ascii	"Remote Control\000"
 609      74652043 
 609      6F6E7472 
 609      6F6C00
 610 02c3 00       		.align	2
 611              	.LC40:
 612 02c4 44697265 		.ascii	"Director AI\000"
 612      63746F72 
 612      20414900 
 613              		.align	2
 614              	.LC41:
 615 02d0 2A206D6F 		.ascii	"* mode err!\000"
 615      64652065 
 615      72722100 
 616              		.align	2
 617              	.LC42:
 618 02dc 0D00     		.ascii	"\015\000"
 619              		.section	.text.ShowParamsMode,"ax",%progbits
 620              		.align	2
ARM GAS  C:\Users\GRAZIA~1.RAV\AppData\Local\Temp\ccodpSVr.s 			page 20


 621              		.global	ShowParamsMode
 622              		.thumb
 623              		.thumb_func
 624              		.type	ShowParamsMode, %function
 625              	ShowParamsMode:
 626              	.LFB59:
 326:.\console.c   **** 
 327:.\console.c   **** 
 328:.\console.c   **** void ShowParamsMode(void)
 329:.\console.c   **** {	switch (gobee_param.mode)
 627              		.loc 1 329 0
 628              		.cfi_startproc
 629              		@ args = 0, pretend = 0, frame = 0
 630              		@ frame_needed = 1, uses_anonymous_args = 0
 631 0000 80B5     		push	{r7, lr}
 632              	.LCFI8:
 633              		.cfi_def_cfa_offset 8
 634              		.cfi_offset 7, -8
 635              		.cfi_offset 14, -4
 636 0002 00AF     		add	r7, sp, #0
 637              	.LCFI9:
 638              		.cfi_def_cfa_register 7
 639              		.loc 1 329 0
 640 0004 40F20003 		movw	r3, #:lower16:gobee_param
 641 0008 C0F20003 		movt	r3, #:upper16:gobee_param
 642 000c 1B78     		ldrb	r3, [r3, #0]	@ zero_extendqisi2
 643 000e 002B     		cmp	r3, #0
 644 0010 02D0     		beq	.L53
 645 0012 012B     		cmp	r3, #1
 646 0014 07D0     		beq	.L54
 647 0016 0DE0     		b	.L56
 648              	.L53:
 330:.\console.c   **** 	{
 331:.\console.c   **** 		case REMOTECONTROL_MODE:
 332:.\console.c   **** 			printf("Remote Control");
 649              		.loc 1 332 0
 650 0018 40F20000 		movw	r0, #:lower16:.LC39
 651 001c C0F20000 		movt	r0, #:upper16:.LC39
 652 0020 FFF7FEFF 		bl	printf
 333:.\console.c   **** 			break;	
 653              		.loc 1 333 0
 654 0024 0DE0     		b	.L55
 655              	.L54:
 334:.\console.c   **** 		case DIRECTOR_MODE:
 335:.\console.c   **** 			printf("Director AI");
 656              		.loc 1 335 0
 657 0026 40F20000 		movw	r0, #:lower16:.LC40
 658 002a C0F20000 		movt	r0, #:upper16:.LC40
 659 002e FFF7FEFF 		bl	printf
 336:.\console.c   **** 			break;
 660              		.loc 1 336 0
 661 0032 06E0     		b	.L55
 662              	.L56:
 337:.\console.c   **** 		default:
 338:.\console.c   **** 			printf("* mode err!");
 663              		.loc 1 338 0
 664 0034 40F20000 		movw	r0, #:lower16:.LC41
ARM GAS  C:\Users\GRAZIA~1.RAV\AppData\Local\Temp\ccodpSVr.s 			page 21


 665 0038 C0F20000 		movt	r0, #:upper16:.LC41
 666 003c FFF7FEFF 		bl	printf
 339:.\console.c   **** 			break;
 667              		.loc 1 339 0
 668 0040 00BF     		nop
 669              	.L55:
 340:.\console.c   **** 	}		
 341:.\console.c   **** 	printf("\r\n");
 670              		.loc 1 341 0
 671 0042 40F20000 		movw	r0, #:lower16:.LC42
 672 0046 C0F20000 		movt	r0, #:upper16:.LC42
 673 004a FFF7FEFF 		bl	puts
 342:.\console.c   **** }
 674              		.loc 1 342 0
 675 004e 80BD     		pop	{r7, pc}
 676              		.cfi_endproc
 677              	.LFE59:
 678              		.size	ShowParamsMode, .-ShowParamsMode
 679              		.section	.rodata
 680 02de 0000     		.align	2
 681              	.LC43:
 682 02e0 2028303A 		.ascii	" (0:off)\000"
 682      6F666629 
 682      00
 683 02e9 000000   		.align	2
 684              	.LC44:
 685 02ec 2028313A 		.ascii	" (1:sine)\000"
 685      73696E65 
 685      2900
 686 02f6 0000     		.align	2
 687              	.LC45:
 688 02f8 2028323A 		.ascii	" (2:triangle)\000"
 688      74726961 
 688      6E676C65 
 688      2900
 689 0306 0000     		.align	2
 690              	.LC46:
 691 0308 2028333A 		.ascii	" (3:square)\000"
 691      73717561 
 691      72652900 
 692              		.align	2
 693              	.LC47:
 694 0314 20282169 		.ascii	" (!internal error)\000"
 694      6E746572 
 694      6E616C20 
 694      6572726F 
 694      722900
 695              		.section	.text.ShowParamsAstim,"ax",%progbits
 696              		.align	2
 697              		.global	ShowParamsAstim
 698              		.thumb
 699              		.thumb_func
 700              		.type	ShowParamsAstim, %function
 701              	ShowParamsAstim:
 702              	.LFB60:
 343:.\console.c   **** 
 344:.\console.c   **** 
ARM GAS  C:\Users\GRAZIA~1.RAV\AppData\Local\Temp\ccodpSVr.s 			page 22


 345:.\console.c   **** void ShowParamsAstim(struct MOTOR_AXIS *paxis)
 346:.\console.c   **** {
 703              		.loc 1 346 0
 704              		.cfi_startproc
 705              		@ args = 0, pretend = 0, frame = 8
 706              		@ frame_needed = 1, uses_anonymous_args = 0
 707 0000 80B5     		push	{r7, lr}
 708              	.LCFI10:
 709              		.cfi_def_cfa_offset 8
 710              		.cfi_offset 7, -8
 711              		.cfi_offset 14, -4
 712 0002 82B0     		sub	sp, sp, #8
 713              	.LCFI11:
 714              		.cfi_def_cfa_offset 16
 715 0004 00AF     		add	r7, sp, #0
 716              	.LCFI12:
 717              		.cfi_def_cfa_register 7
 718 0006 7860     		str	r0, [r7, #4]
 347:.\console.c   **** 	if ((*paxis).vparam.astim_type == NO_ASTIM)
 719              		.loc 1 347 0
 720 0008 7B68     		ldr	r3, [r7, #4]
 721 000a 5B78     		ldrb	r3, [r3, #1]	@ zero_extendqisi2
 722 000c 002B     		cmp	r3, #0
 723 000e 06D1     		bne	.L58
 348:.\console.c   **** 	{
 349:.\console.c   **** 		printf(" (0:off)");
 724              		.loc 1 349 0
 725 0010 40F20000 		movw	r0, #:lower16:.LC43
 726 0014 C0F20000 		movt	r0, #:upper16:.LC43
 727 0018 FFF7FEFF 		bl	printf
 728 001c 26E0     		b	.L59
 729              	.L58:
 350:.\console.c   **** 	}
 351:.\console.c   **** 	else if ((*paxis).vparam.astim_type == SINE_ASTIM)
 730              		.loc 1 351 0
 731 001e 7B68     		ldr	r3, [r7, #4]
 732 0020 5B78     		ldrb	r3, [r3, #1]	@ zero_extendqisi2
 733 0022 012B     		cmp	r3, #1
 734 0024 06D1     		bne	.L60
 352:.\console.c   **** 	{
 353:.\console.c   **** 		printf(" (1:sine)");
 735              		.loc 1 353 0
 736 0026 40F20000 		movw	r0, #:lower16:.LC44
 737 002a C0F20000 		movt	r0, #:upper16:.LC44
 738 002e FFF7FEFF 		bl	printf
 739 0032 1BE0     		b	.L59
 740              	.L60:
 354:.\console.c   **** 	}				
 355:.\console.c   **** 	else if ((*paxis).vparam.astim_type == TRIANGLE_ASTIM)
 741              		.loc 1 355 0
 742 0034 7B68     		ldr	r3, [r7, #4]
 743 0036 5B78     		ldrb	r3, [r3, #1]	@ zero_extendqisi2
 744 0038 022B     		cmp	r3, #2
 745 003a 06D1     		bne	.L61
 356:.\console.c   **** 	{
 357:.\console.c   **** 		printf(" (2:triangle)");
 746              		.loc 1 357 0
ARM GAS  C:\Users\GRAZIA~1.RAV\AppData\Local\Temp\ccodpSVr.s 			page 23


 747 003c 40F20000 		movw	r0, #:lower16:.LC45
 748 0040 C0F20000 		movt	r0, #:upper16:.LC45
 749 0044 FFF7FEFF 		bl	printf
 750 0048 10E0     		b	.L59
 751              	.L61:
 358:.\console.c   **** 	}
 359:.\console.c   **** 	else if ((*paxis).vparam.astim_type == SQUARE_ASTIM)
 752              		.loc 1 359 0
 753 004a 7B68     		ldr	r3, [r7, #4]
 754 004c 5B78     		ldrb	r3, [r3, #1]	@ zero_extendqisi2
 755 004e 032B     		cmp	r3, #3
 756 0050 06D1     		bne	.L62
 360:.\console.c   **** 	{
 361:.\console.c   **** 		printf(" (3:square)");
 757              		.loc 1 361 0
 758 0052 40F20000 		movw	r0, #:lower16:.LC46
 759 0056 C0F20000 		movt	r0, #:upper16:.LC46
 760 005a FFF7FEFF 		bl	printf
 761 005e 05E0     		b	.L59
 762              	.L62:
 362:.\console.c   **** 	}					
 363:.\console.c   **** 	else
 364:.\console.c   **** 	{
 365:.\console.c   **** 		printf(" (!internal error)");
 763              		.loc 1 365 0
 764 0060 40F20000 		movw	r0, #:lower16:.LC47
 765 0064 C0F20000 		movt	r0, #:upper16:.LC47
 766 0068 FFF7FEFF 		bl	printf
 767              	.L59:
 366:.\console.c   **** 	}				
 367:.\console.c   **** 	printf("\r\n");
 768              		.loc 1 367 0
 769 006c 40F20000 		movw	r0, #:lower16:.LC42
 770 0070 C0F20000 		movt	r0, #:upper16:.LC42
 771 0074 FFF7FEFF 		bl	puts
 368:.\console.c   **** }
 772              		.loc 1 368 0
 773 0078 07F10807 		add	r7, r7, #8
 774 007c BD46     		mov	sp, r7
 775 007e 80BD     		pop	{r7, pc}
 776              		.cfi_endproc
 777              	.LFE60:
 778              		.size	ShowParamsAstim, .-ShowParamsAstim
 779              		.global	__aeabi_f2d
 780              		.section	.rodata
 781 0327 00       		.align	2
 782              	.LC48:
 783 0328 25346620 		.ascii	"%4f \000"
 783      00
 784              		.global	__aeabi_fdiv
 785 032d 000000   		.align	2
 786              	.LC49:
 787 0330 20203156 		.ascii	"  1V=%4.1f [step]\000"
 787      3D25342E 
 787      3166205B 
 787      73746570 
 787      5D00
ARM GAS  C:\Users\GRAZIA~1.RAV\AppData\Local\Temp\ccodpSVr.s 			page 24


 788              		.global	__aeabi_ddiv
 789              		.global	__aeabi_d2f
 790 0342 0000     		.align	2
 791              	.LC50:
 792 0344 20202849 		.ascii	"  (I/O_EQV=f(Kopf)=%1.6f\015\012\000"
 792      2F4F5F45 
 792      51563D66 
 792      284B6F70 
 792      66293D25 
 793              		.section	.text.ShowParamsGainAnaout,"ax",%progbits
 794              		.align	2
 795              		.global	ShowParamsGainAnaout
 796              		.thumb
 797              		.thumb_func
 798              		.type	ShowParamsGainAnaout, %function
 799              	ShowParamsGainAnaout:
 800              	.LFB61:
 369:.\console.c   **** 
 370:.\console.c   **** void ShowParamsGainAnaout(struct MOTOR_AXIS *paxis)
 371:.\console.c   **** {	
 801              		.loc 1 371 0
 802              		.cfi_startproc
 803              		@ args = 0, pretend = 0, frame = 8
 804              		@ frame_needed = 1, uses_anonymous_args = 0
 805 0000 80B5     		push	{r7, lr}
 806              	.LCFI13:
 807              		.cfi_def_cfa_offset 8
 808              		.cfi_offset 7, -8
 809              		.cfi_offset 14, -4
 810 0002 82B0     		sub	sp, sp, #8
 811              	.LCFI14:
 812              		.cfi_def_cfa_offset 16
 813 0004 00AF     		add	r7, sp, #0
 814              	.LCFI15:
 815              		.cfi_def_cfa_register 7
 816 0006 7860     		str	r0, [r7, #4]
 372:.\console.c   **** 	printf("%4f ",(float)((*paxis).param.Gain_ANAOUT.fnum));
 817              		.loc 1 372 0
 818 0008 7B68     		ldr	r3, [r7, #4]
 819 000a 9B6A     		ldr	r3, [r3, #40]	@ float
 820 000c 1846     		mov	r0, r3
 821 000e FFF7FEFF 		bl	__aeabi_f2d
 822 0012 0246     		mov	r2, r0
 823 0014 0B46     		mov	r3, r1
 824 0016 40F20000 		movw	r0, #:lower16:.LC48
 825 001a C0F20000 		movt	r0, #:upper16:.LC48
 826 001e FFF7FEFF 		bl	printf
 373:.\console.c   **** 	/********************************************************************************/
 374:.\console.c   **** 	/* Again (I/O_EQV) = DAC_Resolution/ADC_Resolution * VMAX_ADC/VMAX_DAC * 1/Kopf	*/
 375:.\console.c   **** 	/* Again (I/O_EQV) =            255/4096           *       5V/4V       * 1/Kopf	*/
 376:.\console.c   **** 	/* Again (I/O_EQV) = 0.077819824 / Kopf											*/
 377:.\console.c   **** 	/********************************************************************************/
 378:.\console.c   **** 	/* 1V Output --> [step] * AGAIN = 255/4 --> [step] = 255/4 * 1/AGAIN			*/
 379:.\console.c   **** 	/********************************************************************************/
 380:.\console.c   **** 	printf("  1V=%4.1f [step]",(float)(63.75/((*paxis).param.Gain_ANAOUT.fnum)));
 827              		.loc 1 380 0
 828 0022 7B68     		ldr	r3, [r7, #4]
ARM GAS  C:\Users\GRAZIA~1.RAV\AppData\Local\Temp\ccodpSVr.s 			page 25


 829 0024 9B6A     		ldr	r3, [r3, #40]	@ float
 830 0026 4FF00000 		mov	r0, #0
 831 002a C4F27F20 		movt	r0, 17023
 832 002e 1946     		mov	r1, r3
 833 0030 FFF7FEFF 		bl	__aeabi_fdiv
 834 0034 0346     		mov	r3, r0
 835 0036 1846     		mov	r0, r3
 836 0038 FFF7FEFF 		bl	__aeabi_f2d
 837 003c 0246     		mov	r2, r0
 838 003e 0B46     		mov	r3, r1
 839 0040 40F20000 		movw	r0, #:lower16:.LC49
 840 0044 C0F20000 		movt	r0, #:upper16:.LC49
 841 0048 FFF7FEFF 		bl	printf
 381:.\console.c   **** 	printf("  (I/O_EQV=f(Kopf)=%1.6f\r\n",(float)(0.077819824/(*paxis).param.Kopf.fnum));
 842              		.loc 1 381 0
 843 004c 7B68     		ldr	r3, [r7, #4]
 844 004e 5B6A     		ldr	r3, [r3, #36]	@ float
 845 0050 1846     		mov	r0, r3
 846 0052 FFF7FEFF 		bl	__aeabi_f2d
 847 0056 0246     		mov	r2, r0
 848 0058 0B46     		mov	r3, r1
 849 005a 0DA1     		adr	r1, .L64
 850 005c D1E90001 		ldrd	r0, [r1]
 851 0060 FFF7FEFF 		bl	__aeabi_ddiv
 852 0064 0246     		mov	r2, r0
 853 0066 0B46     		mov	r3, r1
 854 0068 1046     		mov	r0, r2
 855 006a 1946     		mov	r1, r3
 856 006c FFF7FEFF 		bl	__aeabi_d2f
 857 0070 0346     		mov	r3, r0
 858 0072 1846     		mov	r0, r3
 859 0074 FFF7FEFF 		bl	__aeabi_f2d
 860 0078 0246     		mov	r2, r0
 861 007a 0B46     		mov	r3, r1
 862 007c 40F20000 		movw	r0, #:lower16:.LC50
 863 0080 C0F20000 		movt	r0, #:upper16:.LC50
 864 0084 FFF7FEFF 		bl	printf
 382:.\console.c   **** }
 865              		.loc 1 382 0
 866 0088 07F10807 		add	r7, r7, #8
 867 008c BD46     		mov	sp, r7
 868 008e 80BD     		pop	{r7, pc}
 869              	.L65:
 870              		.align	3
 871              	.L64:
 872 0090 597B0FFF 		.word	-15762599
 873 0094 FFEBB33F 		.word	1068755967
 874              		.cfi_endproc
 875              	.LFE61:
 876              		.size	ShowParamsGainAnaout, .-ShowParamsGainAnaout
 877              		.section	.rodata
 878 035f 00       		.align	2
 879              	.LC51:
 880 0360 50414E20 		.ascii	"PAN (volatile)\000"
 880      28766F6C 
 880      6174696C 
 880      652900
ARM GAS  C:\Users\GRAZIA~1.RAV\AppData\Local\Temp\ccodpSVr.s 			page 26


 881 036f 00       		.align	2
 882              	.LC52:
 883 0370 54494C54 		.ascii	"TILT (default at poweron)\000"
 883      20286465 
 883      6661756C 
 883      74206174 
 883      20706F77 
 884 038a 0000     		.align	2
 885              	.LC53:
 886 038c 494E5445 		.ascii	"INTERNAL FIRMWARE ERROR!\000"
 886      524E414C 
 886      20464952 
 886      4D574152 
 886      45204552 
 887              		.section	.text.ShowParamsAnaoutSelectedAxis,"ax",%progbits
 888              		.align	2
 889              		.global	ShowParamsAnaoutSelectedAxis
 890              		.thumb
 891              		.thumb_func
 892              		.type	ShowParamsAnaoutSelectedAxis, %function
 893              	ShowParamsAnaoutSelectedAxis:
 894              	.LFB62:
 383:.\console.c   **** 
 384:.\console.c   **** void ShowParamsAnaoutSelectedAxis(struct MOTOR_AXIS *paxis)
 385:.\console.c   **** {
 895              		.loc 1 385 0
 896              		.cfi_startproc
 897              		@ args = 0, pretend = 0, frame = 8
 898              		@ frame_needed = 1, uses_anonymous_args = 0
 899 0000 80B5     		push	{r7, lr}
 900              	.LCFI16:
 901              		.cfi_def_cfa_offset 8
 902              		.cfi_offset 7, -8
 903              		.cfi_offset 14, -4
 904 0002 82B0     		sub	sp, sp, #8
 905              	.LCFI17:
 906              		.cfi_def_cfa_offset 16
 907 0004 00AF     		add	r7, sp, #0
 908              	.LCFI18:
 909              		.cfi_def_cfa_register 7
 910 0006 7860     		str	r0, [r7, #4]
 386:.\console.c   **** 	if (paxis == &pan_axis)
 911              		.loc 1 386 0
 912 0008 7A68     		ldr	r2, [r7, #4]
 913 000a 40F20003 		movw	r3, #:lower16:pan_axis
 914 000e C0F20003 		movt	r3, #:upper16:pan_axis
 915 0012 9A42     		cmp	r2, r3
 916 0014 06D1     		bne	.L67
 387:.\console.c   **** 	{
 388:.\console.c   **** 		printf("PAN (volatile)");
 917              		.loc 1 388 0
 918 0016 40F20000 		movw	r0, #:lower16:.LC51
 919 001a C0F20000 		movt	r0, #:upper16:.LC51
 920 001e FFF7FEFF 		bl	printf
 921 0022 13E0     		b	.L66
 922              	.L67:
 389:.\console.c   **** 	}
ARM GAS  C:\Users\GRAZIA~1.RAV\AppData\Local\Temp\ccodpSVr.s 			page 27


 390:.\console.c   **** 	else if (paxis == &tilt_axis)
 923              		.loc 1 390 0
 924 0024 7A68     		ldr	r2, [r7, #4]
 925 0026 40F20003 		movw	r3, #:lower16:tilt_axis
 926 002a C0F20003 		movt	r3, #:upper16:tilt_axis
 927 002e 9A42     		cmp	r2, r3
 928 0030 06D1     		bne	.L69
 391:.\console.c   **** 	{
 392:.\console.c   **** 		printf("TILT (default at poweron)");
 929              		.loc 1 392 0
 930 0032 40F20000 		movw	r0, #:lower16:.LC52
 931 0036 C0F20000 		movt	r0, #:upper16:.LC52
 932 003a FFF7FEFF 		bl	printf
 933 003e 05E0     		b	.L66
 934              	.L69:
 393:.\console.c   **** 	}
 394:.\console.c   **** //	else if (paxis == &roll_axis)
 395:.\console.c   **** //	{
 396:.\console.c   **** //		printf("ROLL (volatile)");
 397:.\console.c   **** //	}
 398:.\console.c   **** 	else
 399:.\console.c   **** 	{
 400:.\console.c   **** 		printf("INTERNAL FIRMWARE ERROR!");
 935              		.loc 1 400 0
 936 0040 40F20000 		movw	r0, #:lower16:.LC53
 937 0044 C0F20000 		movt	r0, #:upper16:.LC53
 938 0048 FFF7FEFF 		bl	printf
 939              	.L66:
 401:.\console.c   **** 	}	
 402:.\console.c   **** 
 403:.\console.c   **** }
 940              		.loc 1 403 0
 941 004c 07F10807 		add	r7, r7, #8
 942 0050 BD46     		mov	sp, r7
 943 0052 80BD     		pop	{r7, pc}
 944              		.cfi_endproc
 945              	.LFE62:
 946              		.size	ShowParamsAnaoutSelectedAxis, .-ShowParamsAnaoutSelectedAxis
 947              		.section	.rodata
 948 03a5 000000   		.align	2
 949              	.LC54:
 950 03a8 25312E36 		.ascii	"%1.6f (Tau=%1.6f [msec])\000"
 950      66202854 
 950      61753D25 
 950      312E3666 
 950      205B6D73 
 951              		.section	.text.ShowParamsKiPan,"ax",%progbits
 952              		.align	2
 953              		.global	ShowParamsKiPan
 954              		.thumb
 955              		.thumb_func
 956              		.type	ShowParamsKiPan, %function
 957              	ShowParamsKiPan:
 958              	.LFB63:
 404:.\console.c   **** 
 405:.\console.c   **** void ShowParamsKiPan(void)
 406:.\console.c   **** {
ARM GAS  C:\Users\GRAZIA~1.RAV\AppData\Local\Temp\ccodpSVr.s 			page 28


 959              		.loc 1 406 0
 960              		.cfi_startproc
 961              		@ args = 0, pretend = 0, frame = 0
 962              		@ frame_needed = 1, uses_anonymous_args = 0
 963 0000 B0B5     		push	{r4, r5, r7, lr}
 964              	.LCFI19:
 965              		.cfi_def_cfa_offset 16
 966              		.cfi_offset 4, -16
 967              		.cfi_offset 5, -12
 968              		.cfi_offset 7, -8
 969              		.cfi_offset 14, -4
 970 0002 82B0     		sub	sp, sp, #8
 971              	.LCFI20:
 972              		.cfi_def_cfa_offset 24
 973 0004 02AF     		add	r7, sp, #8
 974              	.LCFI21:
 975              		.cfi_def_cfa 7, 16
 407:.\console.c   **** 	printf("%1.6f (Tau=%1.6f [msec])",
 408:.\console.c   **** 		   (float)(pan_axis.param.Kif.fnum),(float)convKiTi(pan_axis.param.Kpf.fnum, pan_axis.param.Kif.f
 976              		.loc 1 408 0
 977 0006 40F20003 		movw	r3, #:lower16:pan_axis
 978 000a C0F20003 		movt	r3, #:upper16:pan_axis
 979 000e DB69     		ldr	r3, [r3, #28]	@ float
 407:.\console.c   **** 	printf("%1.6f (Tau=%1.6f [msec])",
 980              		.loc 1 407 0
 981 0010 1846     		mov	r0, r3
 982 0012 FFF7FEFF 		bl	__aeabi_f2d
 983 0016 0446     		mov	r4, r0
 984 0018 0D46     		mov	r5, r1
 985              		.loc 1 408 0
 986 001a 40F20003 		movw	r3, #:lower16:pan_axis
 987 001e C0F20003 		movt	r3, #:upper16:pan_axis
 988 0022 5969     		ldr	r1, [r3, #20]	@ float
 989 0024 40F20003 		movw	r3, #:lower16:pan_axis
 990 0028 C0F20003 		movt	r3, #:upper16:pan_axis
 991 002c DA69     		ldr	r2, [r3, #28]	@ float
 992 002e 40F20003 		movw	r3, #:lower16:fsampling
 993 0032 C0F20003 		movt	r3, #:upper16:fsampling
 994 0036 1B68     		ldr	r3, [r3, #0]	@ float
 995 0038 0846     		mov	r0, r1
 996 003a 1146     		mov	r1, r2
 997 003c 1A46     		mov	r2, r3
 998 003e FFF7FEFF 		bl	convKiTi
 999 0042 0346     		mov	r3, r0
 407:.\console.c   **** 	printf("%1.6f (Tau=%1.6f [msec])",
 1000              		.loc 1 407 0
 1001 0044 1846     		mov	r0, r3
 1002 0046 FFF7FEFF 		bl	__aeabi_f2d
 1003 004a 0246     		mov	r2, r0
 1004 004c 0B46     		mov	r3, r1
 1005 004e CDE90023 		strd	r2, [sp]
 1006 0052 40F20000 		movw	r0, #:lower16:.LC54
 1007 0056 C0F20000 		movt	r0, #:upper16:.LC54
 1008 005a 2246     		mov	r2, r4
 1009 005c 2B46     		mov	r3, r5
 1010 005e FFF7FEFF 		bl	printf
 409:.\console.c   **** }
ARM GAS  C:\Users\GRAZIA~1.RAV\AppData\Local\Temp\ccodpSVr.s 			page 29


 1011              		.loc 1 409 0
 1012 0062 BD46     		mov	sp, r7
 1013 0064 B0BD     		pop	{r4, r5, r7, pc}
 1014              		.cfi_endproc
 1015              	.LFE63:
 1016              		.size	ShowParamsKiPan, .-ShowParamsKiPan
 1017 0066 00BF     		.section	.text.ShowParamsKiTilt,"ax",%progbits
 1018              		.align	2
 1019              		.global	ShowParamsKiTilt
 1020              		.thumb
 1021              		.thumb_func
 1022              		.type	ShowParamsKiTilt, %function
 1023              	ShowParamsKiTilt:
 1024              	.LFB64:
 410:.\console.c   **** 
 411:.\console.c   **** void ShowParamsKiTilt(void)
 412:.\console.c   **** {
 1025              		.loc 1 412 0
 1026              		.cfi_startproc
 1027              		@ args = 0, pretend = 0, frame = 0
 1028              		@ frame_needed = 1, uses_anonymous_args = 0
 1029 0000 B0B5     		push	{r4, r5, r7, lr}
 1030              	.LCFI22:
 1031              		.cfi_def_cfa_offset 16
 1032              		.cfi_offset 4, -16
 1033              		.cfi_offset 5, -12
 1034              		.cfi_offset 7, -8
 1035              		.cfi_offset 14, -4
 1036 0002 82B0     		sub	sp, sp, #8
 1037              	.LCFI23:
 1038              		.cfi_def_cfa_offset 24
 1039 0004 02AF     		add	r7, sp, #8
 1040              	.LCFI24:
 1041              		.cfi_def_cfa 7, 16
 413:.\console.c   **** 	printf("%1.6f (Tau=%1.6f [msec])",
 414:.\console.c   **** 		   (float)(tilt_axis.param.Kif.fnum),(float)convKiTi(tilt_axis.param.Kpf.fnum, tilt_axis.param.Ki
 1042              		.loc 1 414 0
 1043 0006 40F20003 		movw	r3, #:lower16:tilt_axis
 1044 000a C0F20003 		movt	r3, #:upper16:tilt_axis
 1045 000e DB69     		ldr	r3, [r3, #28]	@ float
 413:.\console.c   **** 	printf("%1.6f (Tau=%1.6f [msec])",
 1046              		.loc 1 413 0
 1047 0010 1846     		mov	r0, r3
 1048 0012 FFF7FEFF 		bl	__aeabi_f2d
 1049 0016 0446     		mov	r4, r0
 1050 0018 0D46     		mov	r5, r1
 1051              		.loc 1 414 0
 1052 001a 40F20003 		movw	r3, #:lower16:tilt_axis
 1053 001e C0F20003 		movt	r3, #:upper16:tilt_axis
 1054 0022 5969     		ldr	r1, [r3, #20]	@ float
 1055 0024 40F20003 		movw	r3, #:lower16:tilt_axis
 1056 0028 C0F20003 		movt	r3, #:upper16:tilt_axis
 1057 002c DA69     		ldr	r2, [r3, #28]	@ float
 1058 002e 40F20003 		movw	r3, #:lower16:fsampling
 1059 0032 C0F20003 		movt	r3, #:upper16:fsampling
 1060 0036 1B68     		ldr	r3, [r3, #0]	@ float
 1061 0038 0846     		mov	r0, r1
ARM GAS  C:\Users\GRAZIA~1.RAV\AppData\Local\Temp\ccodpSVr.s 			page 30


 1062 003a 1146     		mov	r1, r2
 1063 003c 1A46     		mov	r2, r3
 1064 003e FFF7FEFF 		bl	convKiTi
 1065 0042 0346     		mov	r3, r0
 413:.\console.c   **** 	printf("%1.6f (Tau=%1.6f [msec])",
 1066              		.loc 1 413 0
 1067 0044 1846     		mov	r0, r3
 1068 0046 FFF7FEFF 		bl	__aeabi_f2d
 1069 004a 0246     		mov	r2, r0
 1070 004c 0B46     		mov	r3, r1
 1071 004e CDE90023 		strd	r2, [sp]
 1072 0052 40F20000 		movw	r0, #:lower16:.LC54
 1073 0056 C0F20000 		movt	r0, #:upper16:.LC54
 1074 005a 2246     		mov	r2, r4
 1075 005c 2B46     		mov	r3, r5
 1076 005e FFF7FEFF 		bl	printf
 415:.\console.c   **** }
 1077              		.loc 1 415 0
 1078 0062 BD46     		mov	sp, r7
 1079 0064 B0BD     		pop	{r4, r5, r7, pc}
 1080              		.cfi_endproc
 1081              	.LFE64:
 1082              		.size	ShowParamsKiTilt, .-ShowParamsKiTilt
 1083 0066 00BF     		.section	.rodata
 1084 03c1 000000   		.align	2
 1085              	.LC55:
 1086 03c4 2531753A 		.ascii	"%1u:\000"
 1086      00
 1087 03c9 000000   		.align	2
 1088              	.LC56:
 1089 03cc 4759524F 		.ascii	"GYRO RATE\000"
 1089      20524154 
 1089      4500
 1090 03d6 0000     		.align	2
 1091              	.LC57:
 1092 03d8 534C4156 		.ascii	"SLAVE ENCODER POSITION\000"
 1092      4520454E 
 1092      434F4445 
 1092      5220504F 
 1092      53495449 
 1093 03ef 00       		.align	2
 1094              	.LC58:
 1095 03f0 534C4156 		.ascii	"SLAVE ENCODER VELOCITY\000"
 1095      4520454E 
 1095      434F4445 
 1095      52205645 
 1095      4C4F4349 
 1096 0407 00       		.align	2
 1097              	.LC59:
 1098 0408 41535449 		.ascii	"ASTIM INPUT\000"
 1098      4D20494E 
 1098      50555400 
 1099              		.align	2
 1100              	.LC60:
 1101 0414 6572726F 		.ascii	"error(t)\000"
 1101      72287429 
 1101      00
ARM GAS  C:\Users\GRAZIA~1.RAV\AppData\Local\Temp\ccodpSVr.s 			page 31


 1102 041d 000000   		.align	2
 1103              	.LC61:
 1104 0420 64286572 		.ascii	"d(error(t))/dt\000"
 1104      726F7228 
 1104      7429292F 
 1104      647400
 1105 042f 00       		.align	2
 1106              	.LC62:
 1107 0430 696E7465 		.ascii	"integral(error(t)*dt)\000"
 1107      6772616C 
 1107      28657272 
 1107      6F722874 
 1107      292A6474 
 1108 0446 0000     		.align	2
 1109              	.LC63:
 1110 0448 4B69202A 		.ascii	"Ki * integral(e(t)) (fixed 4Vpp Output at PWM MAX)\000"
 1110      20696E74 
 1110      65677261 
 1110      6C286528 
 1110      74292920 
 1111 047b 00       		.align	2
 1112              	.LC64:
 1113 047c 63762874 		.ascii	"cv(t) (fixed 4Vpp Output at PWM MAX)\000"
 1113      29202866 
 1113      69786564 
 1113      20345670 
 1113      70204F75 
 1114 04a1 000000   		.align	2
 1115              	.LC65:
 1116 04a4 494E5445 		.ascii	"INTERNAL FW ERROR!   \000"
 1116      524E414C 
 1116      20465720 
 1116      4552524F 
 1116      52212020 
 1117              		.section	.text.ShowParamsColor,"ax",%progbits
 1118              		.align	2
 1119              		.global	ShowParamsColor
 1120              		.thumb
 1121              		.thumb_func
 1122              		.type	ShowParamsColor, %function
 1123              	ShowParamsColor:
 1124              	.LFB65:
 416:.\console.c   **** 
 417:.\console.c   **** void ShowParamsColor(struct MOTOR_AXIS *paxis)
 418:.\console.c   **** {	
 1125              		.loc 1 418 0
 1126              		.cfi_startproc
 1127              		@ args = 0, pretend = 0, frame = 8
 1128              		@ frame_needed = 1, uses_anonymous_args = 0
 1129 0000 80B5     		push	{r7, lr}
 1130              	.LCFI25:
 1131              		.cfi_def_cfa_offset 8
 1132              		.cfi_offset 7, -8
 1133              		.cfi_offset 14, -4
 1134 0002 82B0     		sub	sp, sp, #8
 1135              	.LCFI26:
 1136              		.cfi_def_cfa_offset 16
ARM GAS  C:\Users\GRAZIA~1.RAV\AppData\Local\Temp\ccodpSVr.s 			page 32


 1137 0004 00AF     		add	r7, sp, #0
 1138              	.LCFI27:
 1139              		.cfi_def_cfa_register 7
 1140 0006 7860     		str	r0, [r7, #4]
 419:.\console.c   **** 	printf("%1u:",(uint16)((*paxis).param.color));
 1141              		.loc 1 419 0
 1142 0008 7B68     		ldr	r3, [r7, #4]
 1143 000a 93F82C30 		ldrb	r3, [r3, #44]	@ zero_extendqisi2
 1144 000e 40F20000 		movw	r0, #:lower16:.LC55
 1145 0012 C0F20000 		movt	r0, #:upper16:.LC55
 1146 0016 1946     		mov	r1, r3
 1147 0018 FFF7FEFF 		bl	printf
 420:.\console.c   **** 	
 421:.\console.c   **** 	if ((*paxis).param.color == GYRO_RATE)
 1148              		.loc 1 421 0
 1149 001c 7B68     		ldr	r3, [r7, #4]
 1150 001e 93F82C30 		ldrb	r3, [r3, #44]	@ zero_extendqisi2
 1151 0022 002B     		cmp	r3, #0
 1152 0024 06D1     		bne	.L73
 422:.\console.c   **** 	{
 423:.\console.c   **** 		printf("GYRO RATE");
 1153              		.loc 1 423 0
 1154 0026 40F20000 		movw	r0, #:lower16:.LC56
 1155 002a C0F20000 		movt	r0, #:upper16:.LC56
 1156 002e FFF7FEFF 		bl	printf
 1157 0032 71E0     		b	.L72
 1158              	.L73:
 424:.\console.c   **** 	}
 425:.\console.c   **** 	else if ((*paxis).param.color == SLAVE_ENC_POS)
 1159              		.loc 1 425 0
 1160 0034 7B68     		ldr	r3, [r7, #4]
 1161 0036 93F82C30 		ldrb	r3, [r3, #44]	@ zero_extendqisi2
 1162 003a 012B     		cmp	r3, #1
 1163 003c 06D1     		bne	.L75
 426:.\console.c   **** 	{
 427:.\console.c   **** 		printf("SLAVE ENCODER POSITION");
 1164              		.loc 1 427 0
 1165 003e 40F20000 		movw	r0, #:lower16:.LC57
 1166 0042 C0F20000 		movt	r0, #:upper16:.LC57
 1167 0046 FFF7FEFF 		bl	printf
 1168 004a 65E0     		b	.L72
 1169              	.L75:
 428:.\console.c   **** 	}
 429:.\console.c   **** 	else if ((*paxis).param.color == SLAVE_ENC_VEL)
 1170              		.loc 1 429 0
 1171 004c 7B68     		ldr	r3, [r7, #4]
 1172 004e 93F82C30 		ldrb	r3, [r3, #44]	@ zero_extendqisi2
 1173 0052 022B     		cmp	r3, #2
 1174 0054 06D1     		bne	.L76
 430:.\console.c   **** 	{
 431:.\console.c   **** 		printf("SLAVE ENCODER VELOCITY");
 1175              		.loc 1 431 0
 1176 0056 40F20000 		movw	r0, #:lower16:.LC58
 1177 005a C0F20000 		movt	r0, #:upper16:.LC58
 1178 005e FFF7FEFF 		bl	printf
 1179 0062 59E0     		b	.L72
 1180              	.L76:
ARM GAS  C:\Users\GRAZIA~1.RAV\AppData\Local\Temp\ccodpSVr.s 			page 33


 432:.\console.c   **** 	}	
 433:.\console.c   **** 	else if ((*paxis).param.color == ASTIM_IN)
 1181              		.loc 1 433 0
 1182 0064 7B68     		ldr	r3, [r7, #4]
 1183 0066 93F82C30 		ldrb	r3, [r3, #44]	@ zero_extendqisi2
 1184 006a 032B     		cmp	r3, #3
 1185 006c 06D1     		bne	.L77
 434:.\console.c   **** 	{
 435:.\console.c   **** 		printf("ASTIM INPUT");
 1186              		.loc 1 435 0
 1187 006e 40F20000 		movw	r0, #:lower16:.LC59
 1188 0072 C0F20000 		movt	r0, #:upper16:.LC59
 1189 0076 FFF7FEFF 		bl	printf
 1190 007a 4DE0     		b	.L72
 1191              	.L77:
 436:.\console.c   **** 	}	
 437:.\console.c   **** 	else if ((*paxis).param.color == CTRL_ERROR)
 1192              		.loc 1 437 0
 1193 007c 7B68     		ldr	r3, [r7, #4]
 1194 007e 93F82C30 		ldrb	r3, [r3, #44]	@ zero_extendqisi2
 1195 0082 042B     		cmp	r3, #4
 1196 0084 06D1     		bne	.L78
 438:.\console.c   **** 	{
 439:.\console.c   **** 		printf("error(t)");
 1197              		.loc 1 439 0
 1198 0086 40F20000 		movw	r0, #:lower16:.LC60
 1199 008a C0F20000 		movt	r0, #:upper16:.LC60
 1200 008e FFF7FEFF 		bl	printf
 1201 0092 41E0     		b	.L72
 1202              	.L78:
 440:.\console.c   **** 	}	
 441:.\console.c   **** 	else if ((*paxis).param.color == CTRL_DERROR)
 1203              		.loc 1 441 0
 1204 0094 7B68     		ldr	r3, [r7, #4]
 1205 0096 93F82C30 		ldrb	r3, [r3, #44]	@ zero_extendqisi2
 1206 009a 052B     		cmp	r3, #5
 1207 009c 06D1     		bne	.L79
 442:.\console.c   **** 	{
 443:.\console.c   **** 		printf("d(error(t))/dt");
 1208              		.loc 1 443 0
 1209 009e 40F20000 		movw	r0, #:lower16:.LC61
 1210 00a2 C0F20000 		movt	r0, #:upper16:.LC61
 1211 00a6 FFF7FEFF 		bl	printf
 1212 00aa 35E0     		b	.L72
 1213              	.L79:
 444:.\console.c   **** 	}
 445:.\console.c   **** 	else if ((*paxis).param.color == CTRL_IERROR)
 1214              		.loc 1 445 0
 1215 00ac 7B68     		ldr	r3, [r7, #4]
 1216 00ae 93F82C30 		ldrb	r3, [r3, #44]	@ zero_extendqisi2
 1217 00b2 062B     		cmp	r3, #6
 1218 00b4 06D1     		bne	.L80
 446:.\console.c   **** 	{
 447:.\console.c   **** 		printf("integral(error(t)*dt)");
 1219              		.loc 1 447 0
 1220 00b6 40F20000 		movw	r0, #:lower16:.LC62
 1221 00ba C0F20000 		movt	r0, #:upper16:.LC62
ARM GAS  C:\Users\GRAZIA~1.RAV\AppData\Local\Temp\ccodpSVr.s 			page 34


 1222 00be FFF7FEFF 		bl	printf
 1223 00c2 29E0     		b	.L72
 1224              	.L80:
 448:.\console.c   **** 	}
 449:.\console.c   **** 	else if ((*paxis).param.color == CTRL_AZIERROR)
 1225              		.loc 1 449 0
 1226 00c4 7B68     		ldr	r3, [r7, #4]
 1227 00c6 93F82C30 		ldrb	r3, [r3, #44]	@ zero_extendqisi2
 1228 00ca 072B     		cmp	r3, #7
 1229 00cc 06D1     		bne	.L81
 450:.\console.c   **** 	{
 451:.\console.c   **** 		printf("integral(error(t)*dt)");
 1230              		.loc 1 451 0
 1231 00ce 40F20000 		movw	r0, #:lower16:.LC62
 1232 00d2 C0F20000 		movt	r0, #:upper16:.LC62
 1233 00d6 FFF7FEFF 		bl	printf
 1234 00da 1DE0     		b	.L72
 1235              	.L81:
 452:.\console.c   **** 	}
 453:.\console.c   **** 	else if ((*paxis).param.color == CTRL_AZIERROR)
 1236              		.loc 1 453 0
 1237 00dc 7B68     		ldr	r3, [r7, #4]
 1238 00de 93F82C30 		ldrb	r3, [r3, #44]	@ zero_extendqisi2
 1239 00e2 072B     		cmp	r3, #7
 1240 00e4 06D1     		bne	.L82
 454:.\console.c   **** 	{
 455:.\console.c   **** 		printf("Ki * integral(e(t)) (fixed 4Vpp Output at PWM MAX)");
 1241              		.loc 1 455 0
 1242 00e6 40F20000 		movw	r0, #:lower16:.LC63
 1243 00ea C0F20000 		movt	r0, #:upper16:.LC63
 1244 00ee FFF7FEFF 		bl	printf
 1245 00f2 11E0     		b	.L72
 1246              	.L82:
 456:.\console.c   **** 	}		
 457:.\console.c   **** 	else if ((*paxis).param.color == CTRL_CV)
 1247              		.loc 1 457 0
 1248 00f4 7B68     		ldr	r3, [r7, #4]
 1249 00f6 93F82C30 		ldrb	r3, [r3, #44]	@ zero_extendqisi2
 1250 00fa 082B     		cmp	r3, #8
 1251 00fc 06D1     		bne	.L83
 458:.\console.c   **** 	{
 459:.\console.c   **** 		printf("cv(t) (fixed 4Vpp Output at PWM MAX)");
 1252              		.loc 1 459 0
 1253 00fe 40F20000 		movw	r0, #:lower16:.LC64
 1254 0102 C0F20000 		movt	r0, #:upper16:.LC64
 1255 0106 FFF7FEFF 		bl	printf
 1256 010a 05E0     		b	.L72
 1257              	.L83:
 460:.\console.c   **** 	}
 461:.\console.c   **** 	else
 462:.\console.c   **** 	{
 463:.\console.c   **** 		printf("INTERNAL FW ERROR!   ");
 1258              		.loc 1 463 0
 1259 010c 40F20000 		movw	r0, #:lower16:.LC65
 1260 0110 C0F20000 		movt	r0, #:upper16:.LC65
 1261 0114 FFF7FEFF 		bl	printf
 1262              	.L72:
ARM GAS  C:\Users\GRAZIA~1.RAV\AppData\Local\Temp\ccodpSVr.s 			page 35


 464:.\console.c   **** 	}	
 465:.\console.c   **** }
 1263              		.loc 1 465 0
 1264 0118 07F10807 		add	r7, r7, #8
 1265 011c BD46     		mov	sp, r7
 1266 011e 80BD     		pop	{r7, pc}
 1267              		.cfi_endproc
 1268              	.LFE65:
 1269              		.size	ShowParamsColor, .-ShowParamsColor
 1270              		.section	.rodata
 1271 04ba 0000     		.align	2
 1272              	.LC66:
 1273 04bc 28424554 		.ascii	"(BETWEEN)  \000"
 1273      5745454E 
 1273      29202000 
 1274              		.align	2
 1275              	.LC67:
 1276 04c8 28504F53 		.ascii	"(POS    )  \000"
 1276      20202020 
 1276      29202000 
 1277              		.align	2
 1278              	.LC68:
 1279 04d4 284E4547 		.ascii	"(NEG    )  \000"
 1279      20202020 
 1279      29202000 
 1280              		.align	2
 1281              	.LC69:
 1282 04e0 28494E54 		.ascii	"(INT ERR) \000"
 1282      20455252 
 1282      292000
 1283              		.section	.text.ShowLimits,"ax",%progbits
 1284              		.align	2
 1285              		.global	ShowLimits
 1286              		.thumb
 1287              		.thumb_func
 1288              		.type	ShowLimits, %function
 1289              	ShowLimits:
 1290              	.LFB66:
 466:.\console.c   **** 
 467:.\console.c   **** void ShowLimits(struct MOTOR_AXIS *paxis)
 468:.\console.c   **** {
 1291              		.loc 1 468 0
 1292              		.cfi_startproc
 1293              		@ args = 0, pretend = 0, frame = 8
 1294              		@ frame_needed = 1, uses_anonymous_args = 0
 1295 0000 80B5     		push	{r7, lr}
 1296              	.LCFI28:
 1297              		.cfi_def_cfa_offset 8
 1298              		.cfi_offset 7, -8
 1299              		.cfi_offset 14, -4
 1300 0002 82B0     		sub	sp, sp, #8
 1301              	.LCFI29:
 1302              		.cfi_def_cfa_offset 16
 1303 0004 00AF     		add	r7, sp, #0
 1304              	.LCFI30:
 1305              		.cfi_def_cfa_register 7
 1306 0006 7860     		str	r0, [r7, #4]
ARM GAS  C:\Users\GRAZIA~1.RAV\AppData\Local\Temp\ccodpSVr.s 			page 36


 469:.\console.c   **** 	if ((*paxis).lc.status == COARSE_BETWEEN_LIMITS_OK)
 1307              		.loc 1 469 0
 1308 0008 7B68     		ldr	r3, [r7, #4]
 1309 000a 93F88430 		ldrb	r3, [r3, #132]	@ zero_extendqisi2
 1310 000e 002B     		cmp	r3, #0
 1311 0010 06D1     		bne	.L85
 470:.\console.c   **** 	{
 471:.\console.c   **** 		printf("(BETWEEN)  ");
 1312              		.loc 1 471 0
 1313 0012 40F20000 		movw	r0, #:lower16:.LC66
 1314 0016 C0F20000 		movt	r0, #:upper16:.LC66
 1315 001a FFF7FEFF 		bl	printf
 1316 001e 1DE0     		b	.L84
 1317              	.L85:
 472:.\console.c   **** 	}
 473:.\console.c   **** 	else if ((*paxis).lc.status == POSITIVE_LIMIT_REACHED)
 1318              		.loc 1 473 0
 1319 0020 7B68     		ldr	r3, [r7, #4]
 1320 0022 93F88430 		ldrb	r3, [r3, #132]	@ zero_extendqisi2
 1321 0026 022B     		cmp	r3, #2
 1322 0028 06D1     		bne	.L87
 474:.\console.c   **** 	{
 475:.\console.c   **** 		printf("(POS    )  ");
 1323              		.loc 1 475 0
 1324 002a 40F20000 		movw	r0, #:lower16:.LC67
 1325 002e C0F20000 		movt	r0, #:upper16:.LC67
 1326 0032 FFF7FEFF 		bl	printf
 1327 0036 11E0     		b	.L84
 1328              	.L87:
 476:.\console.c   **** 	}
 477:.\console.c   **** 	else if ((*paxis).lc.status == NEGATIVE_LIMIT_REACHED)
 1329              		.loc 1 477 0
 1330 0038 7B68     		ldr	r3, [r7, #4]
 1331 003a 93F88430 		ldrb	r3, [r3, #132]	@ zero_extendqisi2
 1332 003e 012B     		cmp	r3, #1
 1333 0040 06D1     		bne	.L88
 478:.\console.c   **** 	{
 479:.\console.c   **** 		printf("(NEG    )  ");
 1334              		.loc 1 479 0
 1335 0042 40F20000 		movw	r0, #:lower16:.LC68
 1336 0046 C0F20000 		movt	r0, #:upper16:.LC68
 1337 004a FFF7FEFF 		bl	printf
 1338 004e 05E0     		b	.L84
 1339              	.L88:
 480:.\console.c   **** 	}
 481:.\console.c   **** 	else
 482:.\console.c   **** 	{
 483:.\console.c   **** 		printf("(INT ERR) ");
 1340              		.loc 1 483 0
 1341 0050 40F20000 		movw	r0, #:lower16:.LC69
 1342 0054 C0F20000 		movt	r0, #:upper16:.LC69
 1343 0058 FFF7FEFF 		bl	printf
 1344              	.L84:
 484:.\console.c   **** 	}	
 485:.\console.c   **** }
 1345              		.loc 1 485 0
 1346 005c 07F10807 		add	r7, r7, #8
ARM GAS  C:\Users\GRAZIA~1.RAV\AppData\Local\Temp\ccodpSVr.s 			page 37


 1347 0060 BD46     		mov	sp, r7
 1348 0062 80BD     		pop	{r7, pc}
 1349              		.cfi_endproc
 1350              	.LFE66:
 1351              		.size	ShowLimits, .-ShowLimits
 1352              		.section	.text.ReadUSBbuffer,"ax",%progbits
 1353              		.align	2
 1354              		.global	ReadUSBbuffer
 1355              		.thumb
 1356              		.thumb_func
 1357              		.type	ReadUSBbuffer, %function
 1358              	ReadUSBbuffer:
 1359              	.LFB67:
 486:.\console.c   **** 
 487:.\console.c   **** // ****************************************************************
 488:.\console.c   **** // *** BUFFERIZER (pass 1 of 3)								    ***
 489:.\console.c   **** // ****************************************************************
 490:.\console.c   **** // *** Legge l'UART USB e popola il buffer userInputBuffer      ***
 491:.\console.c   **** // ****************************************************************
 492:.\console.c   **** 
 493:.\console.c   **** uint8 ReadUSBbuffer(bit echo, bit timeout)
 494:.\console.c   **** {
 1360              		.loc 1 494 0
 1361              		.cfi_startproc
 1362              		@ args = 0, pretend = 0, frame = 24
 1363              		@ frame_needed = 1, uses_anonymous_args = 0
 1364 0000 80B5     		push	{r7, lr}
 1365              	.LCFI31:
 1366              		.cfi_def_cfa_offset 8
 1367              		.cfi_offset 7, -8
 1368              		.cfi_offset 14, -4
 1369 0002 86B0     		sub	sp, sp, #24
 1370              	.LCFI32:
 1371              		.cfi_def_cfa_offset 32
 1372 0004 00AF     		add	r7, sp, #0
 1373              	.LCFI33:
 1374              		.cfi_def_cfa_register 7
 1375 0006 0246     		mov	r2, r0
 1376 0008 0B46     		mov	r3, r1
 1377 000a FA71     		strb	r2, [r7, #7]
 1378 000c BB71     		strb	r3, [r7, #6]
 495:.\console.c   **** 	uint8 index = 0;
 1379              		.loc 1 495 0
 1380 000e 4FF00003 		mov	r3, #0
 1381 0012 FB75     		strb	r3, [r7, #23]
 496:.\console.c   **** 	uint16 ticks = 0;
 1382              		.loc 1 496 0
 1383 0014 4FF00003 		mov	r3, #0
 1384 0018 BB82     		strh	r3, [r7, #20]	@ movhi
 497:.\console.c   **** 	char charin;
 498:.\console.c   **** 	
 499:.\console.c   **** 	clear_string(userInputBuffer);
 1385              		.loc 1 499 0
 1386 001a 40F20000 		movw	r0, #:lower16:userInputBuffer
 1387 001e C0F20000 		movt	r0, #:upper16:userInputBuffer
 1388 0022 FFF7FEFF 		bl	clear_string
 500:.\console.c   **** 	
ARM GAS  C:\Users\GRAZIA~1.RAV\AppData\Local\Temp\ccodpSVr.s 			page 38


 501:.\console.c   **** 	while ((index < sizeof(userInputBuffer)-1)
 1389              		.loc 1 501 0
 1390 0026 37E0     		b	.L90
 1391              	.L96:
 502:.\console.c   **** 			&& ((charin=UART_USB_GetChar()) != '\r')
 503:.\console.c   **** 			&& (ticks < TIMEOUT_TICKS) 
 504:.\console.c   **** 			&& (USB_Check() == USB_INSERTED))
 505:.\console.c   **** 	{
 506:.\console.c   **** 		if ((charin != 0) && (charin != '\n'))
 1392              		.loc 1 506 0
 1393 0028 FB7C     		ldrb	r3, [r7, #19]	@ zero_extendqisi2
 1394 002a 002B     		cmp	r3, #0
 1395 002c 2DD0     		beq	.L91
 1396              		.loc 1 506 0 is_stmt 0 discriminator 1
 1397 002e FB7C     		ldrb	r3, [r7, #19]	@ zero_extendqisi2
 1398 0030 0A2B     		cmp	r3, #10
 1399 0032 2AD0     		beq	.L91
 507:.\console.c   **** 		{
 508:.\console.c   **** 			userInputBuffer[index] = tolower((int)charin);
 1400              		.loc 1 508 0 is_stmt 1
 1401 0034 FA7D     		ldrb	r2, [r7, #23]	@ zero_extendqisi2
 1402              	.LBB2:
 1403 0036 FB7C     		ldrb	r3, [r7, #19]	@ zero_extendqisi2
 1404 0038 FB60     		str	r3, [r7, #12]
 1405 003a 40F20003 		movw	r3, #:lower16:__ctype_ptr__
 1406 003e C0F20003 		movt	r3, #:upper16:__ctype_ptr__
 1407 0042 1968     		ldr	r1, [r3, #0]
 1408 0044 FB68     		ldr	r3, [r7, #12]
 1409 0046 03F10103 		add	r3, r3, #1
 1410 004a CB18     		adds	r3, r1, r3
 1411 004c 1B78     		ldrb	r3, [r3, #0]	@ zero_extendqisi2
 1412 004e 03F00303 		and	r3, r3, #3
 1413 0052 012B     		cmp	r3, #1
 1414 0054 03D1     		bne	.L92
 1415              		.loc 1 508 0 is_stmt 0 discriminator 1
 1416 0056 FB68     		ldr	r3, [r7, #12]
 1417 0058 03F12003 		add	r3, r3, #32
 1418 005c 00E0     		b	.L93
 1419              	.L92:
 1420              		.loc 1 508 0 discriminator 2
 1421 005e FB68     		ldr	r3, [r7, #12]
 1422              	.L93:
 1423              	.LBE2:
 1424              		.loc 1 508 0 discriminator 3
 1425 0060 D9B2     		uxtb	r1, r3
 1426 0062 40F20003 		movw	r3, #:lower16:userInputBuffer
 1427 0066 C0F20003 		movt	r3, #:upper16:userInputBuffer
 1428 006a 9954     		strb	r1, [r3, r2]
 509:.\console.c   **** 			index++;
 1429              		.loc 1 509 0 is_stmt 1 discriminator 3
 1430 006c FB7D     		ldrb	r3, [r7, #23]
 1431 006e 03F10103 		add	r3, r3, #1
 1432 0072 FB75     		strb	r3, [r7, #23]
 510:.\console.c   **** 			if (echo == 1)
 1433              		.loc 1 510 0 discriminator 3
 1434 0074 FB79     		ldrb	r3, [r7, #7]	@ zero_extendqisi2
 1435 0076 012B     		cmp	r3, #1
ARM GAS  C:\Users\GRAZIA~1.RAV\AppData\Local\Temp\ccodpSVr.s 			page 39


 1436 0078 03D1     		bne	.L94
 511:.\console.c   **** 			{
 512:.\console.c   **** 				printf("%c", charin);
 1437              		.loc 1 512 0
 1438 007a FB7C     		ldrb	r3, [r7, #19]	@ zero_extendqisi2
 1439 007c 1846     		mov	r0, r3
 1440 007e FFF7FEFF 		bl	putchar
 1441              	.L94:
 513:.\console.c   **** 			}
 514:.\console.c   **** 			ticks = 0;
 1442              		.loc 1 514 0
 1443 0082 4FF00003 		mov	r3, #0
 1444 0086 BB82     		strh	r3, [r7, #20]	@ movhi
 1445 0088 06E0     		b	.L90
 1446              	.L91:
 515:.\console.c   **** 		}
 516:.\console.c   **** 		else
 517:.\console.c   **** 		{
 518:.\console.c   **** 			if (timeout == 1)
 1447              		.loc 1 518 0
 1448 008a BB79     		ldrb	r3, [r7, #6]	@ zero_extendqisi2
 1449 008c 012B     		cmp	r3, #1
 1450 008e 03D1     		bne	.L90
 519:.\console.c   **** 			{
 520:.\console.c   **** 				ticks++;
 1451              		.loc 1 520 0
 1452 0090 BB8A     		ldrh	r3, [r7, #20]	@ movhi
 1453 0092 03F10103 		add	r3, r3, #1
 1454 0096 BB82     		strh	r3, [r7, #20]	@ movhi
 1455              	.L90:
 501:.\console.c   **** 	while ((index < sizeof(userInputBuffer)-1)
 1456              		.loc 1 501 0 discriminator 1
 1457 0098 FB7D     		ldrb	r3, [r7, #23]	@ zero_extendqisi2
 1458 009a 262B     		cmp	r3, #38
 1459 009c 10D8     		bhi	.L95
 502:.\console.c   **** 			&& ((charin=UART_USB_GetChar()) != '\r')
 1460              		.loc 1 502 0
 1461 009e FFF7FEFF 		bl	UART_USB_GetChar
 1462 00a2 0346     		mov	r3, r0
 1463 00a4 FB74     		strb	r3, [r7, #19]
 1464 00a6 FB7C     		ldrb	r3, [r7, #19]	@ zero_extendqisi2
 1465 00a8 0D2B     		cmp	r3, #13
 1466 00aa 09D0     		beq	.L95
 503:.\console.c   **** 			&& (ticks < TIMEOUT_TICKS) 
 1467              		.loc 1 503 0
 1468 00ac BA8A     		ldrh	r2, [r7, #20]
 1469 00ae 4CF24F33 		movw	r3, #49999
 1470 00b2 9A42     		cmp	r2, r3
 1471 00b4 04D8     		bhi	.L95
 504:.\console.c   **** 			&& (USB_Check() == USB_INSERTED))
 1472              		.loc 1 504 0
 1473 00b6 FFF7FEFF 		bl	USB_Check
 1474 00ba 0346     		mov	r3, r0
 1475 00bc 012B     		cmp	r3, #1
 1476 00be B3D0     		beq	.L96
 1477              	.L95:
 521:.\console.c   **** 			}
ARM GAS  C:\Users\GRAZIA~1.RAV\AppData\Local\Temp\ccodpSVr.s 			page 40


 522:.\console.c   **** 		}
 523:.\console.c   **** 	}
 524:.\console.c   **** 	userInputBuffer[index] = '\0';
 1478              		.loc 1 524 0
 1479 00c0 FA7D     		ldrb	r2, [r7, #23]	@ zero_extendqisi2
 1480 00c2 40F20003 		movw	r3, #:lower16:userInputBuffer
 1481 00c6 C0F20003 		movt	r3, #:upper16:userInputBuffer
 1482 00ca 4FF00001 		mov	r1, #0
 1483 00ce 9954     		strb	r1, [r3, r2]
 525:.\console.c   **** 	
 526:.\console.c   **** 	if (index >= sizeof(userInputBuffer)-1)
 1484              		.loc 1 526 0
 1485 00d0 FB7D     		ldrb	r3, [r7, #23]	@ zero_extendqisi2
 1486 00d2 262B     		cmp	r3, #38
 1487 00d4 02D9     		bls	.L97
 527:.\console.c   **** 	{
 528:.\console.c   **** 		return READ_BUFF_OVERFLOW;
 1488              		.loc 1 528 0
 1489 00d6 4FF00203 		mov	r3, #2
 1490 00da 09E0     		b	.L98
 1491              	.L97:
 529:.\console.c   **** 	}
 530:.\console.c   **** 	else
 531:.\console.c   **** 	{
 532:.\console.c   **** 		if (ticks >= TIMEOUT_TICKS)
 1492              		.loc 1 532 0
 1493 00dc BA8A     		ldrh	r2, [r7, #20]
 1494 00de 4CF24F33 		movw	r3, #49999
 1495 00e2 9A42     		cmp	r2, r3
 1496 00e4 02D9     		bls	.L99
 533:.\console.c   **** 		{
 534:.\console.c   **** 			return READ_TIMEOUT;
 1497              		.loc 1 534 0
 1498 00e6 4FF00103 		mov	r3, #1
 1499 00ea 01E0     		b	.L98
 1500              	.L99:
 535:.\console.c   **** 		}
 536:.\console.c   **** 		else
 537:.\console.c   **** 		{
 538:.\console.c   **** 			return READ_OK;
 1501              		.loc 1 538 0
 1502 00ec 4FF00003 		mov	r3, #0
 1503              	.L98:
 539:.\console.c   **** 		}
 540:.\console.c   **** 	}
 541:.\console.c   **** }	
 1504              		.loc 1 541 0
 1505 00f0 1846     		mov	r0, r3
 1506 00f2 07F11807 		add	r7, r7, #24
 1507 00f6 BD46     		mov	sp, r7
 1508 00f8 80BD     		pop	{r7, pc}
 1509              		.cfi_endproc
 1510              	.LFE67:
 1511              		.size	ReadUSBbuffer, .-ReadUSBbuffer
 1512 00fa 00BF     		.section	.rodata
 1513 04eb 00       		.align	2
 1514              	.LC70:
ARM GAS  C:\Users\GRAZIA~1.RAV\AppData\Local\Temp\ccodpSVr.s 			page 41


 1515 04ec 2000     		.ascii	" \000"
 1516 04ee 0000     		.align	2
 1517              	.LC71:
 1518 04f0 62756666 		.ascii	"buff=\000"
 1518      3D00
 1519 04f6 0000     		.align	2
 1520              	.LC72:
 1521 04f8 5B625D00 		.ascii	"[b]\000"
 1522              		.align	2
 1523              	.LC73:
 1524 04fc 5B645D00 		.ascii	"[d]\000"
 1525              		.align	2
 1526              	.LC74:
 1527 0500 20746B31 		.ascii	" tk1=\000"
 1527      3D00
 1528 0506 0000     		.align	2
 1529              	.LC75:
 1530 0508 20746B32 		.ascii	" tk2=\000"
 1530      3D00
 1531 050e 0000     		.align	2
 1532              	.LC76:
 1533 0510 20746B33 		.ascii	" tk3=\000"
 1533      3D00
 1534 0516 0000     		.align	2
 1535              	.LC77:
 1536 0518 20746B34 		.ascii	" tk4=\000"
 1536      3D00
 1537              		.section	.text.scanner2,"ax",%progbits
 1538              		.align	2
 1539              		.global	scanner2
 1540              		.thumb
 1541              		.thumb_func
 1542              		.type	scanner2, %function
 1543              	scanner2:
 1544              	.LFB68:
 542:.\console.c   **** 
 543:.\console.c   **** // ************************************************************************
 544:.\console.c   **** // *** SCANNERIZER (pass 2 of 3)									    ***
 545:.\console.c   **** // ************************************************************************
 546:.\console.c   **** // *** Estrae quattro sottostinghe dallo Standard Input (USB)
 547:.\console.c   **** // *** e le associa ai token di actual_command:
 548:.\console.c   **** // *** actual_command.action    <-- primo token
 549:.\console.c   **** // *** actual_command.parameter <-- secondo token 
 550:.\console.c   **** // *** actual_command.number1   <-- terzo token
 551:.\console.c   **** // *** actual_command.number2   <-- quarto token
 552:.\console.c   **** // *** restituisce:
 553:.\console.c   **** // *** 0: SCAN_OK
 554:.\console.c   **** // *** 1: SCANNING ERROR (tokens > 4)
 555:.\console.c   **** // ************************************************************************
 556:.\console.c   **** 
 557:.\console.c   **** uint8 scanner2(bit verbose)
 558:.\console.c   **** {
 1545              		.loc 1 558 0
 1546              		.cfi_startproc
 1547              		@ args = 0, pretend = 0, frame = 64
 1548              		@ frame_needed = 1, uses_anonymous_args = 0
 1549 0000 80B5     		push	{r7, lr}
ARM GAS  C:\Users\GRAZIA~1.RAV\AppData\Local\Temp\ccodpSVr.s 			page 42


 1550              	.LCFI34:
 1551              		.cfi_def_cfa_offset 8
 1552              		.cfi_offset 7, -8
 1553              		.cfi_offset 14, -4
 1554 0002 90B0     		sub	sp, sp, #64
 1555              	.LCFI35:
 1556              		.cfi_def_cfa_offset 72
 1557 0004 00AF     		add	r7, sp, #0
 1558              	.LCFI36:
 1559              		.cfi_def_cfa_register 7
 1560 0006 0346     		mov	r3, r0
 1561 0008 FB71     		strb	r3, [r7, #7]
 559:.\console.c   **** 	uint8 rdstat=0;
 1562              		.loc 1 559 0
 1563 000a 4FF00003 		mov	r3, #0
 1564 000e 87F83730 		strb	r3, [r7, #55]
 560:.\console.c   **** 	uint8 uidx=0, uidy=0;	
 1565              		.loc 1 560 0
 1566 0012 4FF00003 		mov	r3, #0
 1567 0016 87F83F30 		strb	r3, [r7, #63]
 1568 001a 4FF00003 		mov	r3, #0
 1569 001e 87F83E30 		strb	r3, [r7, #62]
 561:.\console.c   **** 	char localBuffer[40];
 562:.\console.c   **** 	char* p;
 563:.\console.c   **** 
 564:.\console.c   **** 	clear_string(actual_cmd.action);
 1570              		.loc 1 564 0
 1571 0022 40F20000 		movw	r0, #:lower16:actual_cmd
 1572 0026 C0F20000 		movt	r0, #:upper16:actual_cmd
 1573 002a FFF7FEFF 		bl	clear_string
 565:.\console.c   **** 	clear_string(actual_cmd.parameter);	
 1574              		.loc 1 565 0
 1575 002e B248     		ldr	r0, .L124
 1576 0030 FFF7FEFF 		bl	clear_string
 566:.\console.c   **** 	clear_string(actual_cmd.number1);	
 1577              		.loc 1 566 0
 1578 0034 B148     		ldr	r0, .L124+4
 1579 0036 FFF7FEFF 		bl	clear_string
 567:.\console.c   **** 	clear_string(actual_cmd.number2);	
 1580              		.loc 1 567 0
 1581 003a B148     		ldr	r0, .L124+8
 1582 003c FFF7FEFF 		bl	clear_string
 568:.\console.c   **** 
 569:.\console.c   **** 	/* Reads from USB buffer (standard input) */
 570:.\console.c   **** 	rdstat=ReadUSBbuffer(ECHO_ON, TIMEOUT_OFF);
 1583              		.loc 1 570 0
 1584 0040 4FF00100 		mov	r0, #1
 1585 0044 4FF00001 		mov	r1, #0
 1586 0048 FFF7FEFF 		bl	ReadUSBbuffer
 1587 004c 0346     		mov	r3, r0
 1588 004e 87F83730 		strb	r3, [r7, #55]
 571:.\console.c   **** 	
 572:.\console.c   **** 	/* Extract 4 Tokens */
 573:.\console.c   **** 	if (rdstat == READ_OK)
 1589              		.loc 1 573 0
 1590 0052 97F83730 		ldrb	r3, [r7, #55]	@ zero_extendqisi2
 1591 0056 002B     		cmp	r3, #0
ARM GAS  C:\Users\GRAZIA~1.RAV\AppData\Local\Temp\ccodpSVr.s 			page 43


 1592 0058 40F0BB80 		bne	.L101
 574:.\console.c   **** 	{
 575:.\console.c   **** 		clear_string(localBuffer);
 1593              		.loc 1 575 0
 1594 005c 07F10C03 		add	r3, r7, #12
 1595 0060 1846     		mov	r0, r3
 1596 0062 FFF7FEFF 		bl	clear_string
 576:.\console.c   **** 		//strcpy(localBuffer, userInputBuffer);
 577:.\console.c   **** 
 578:.\console.c   **** 		/*** strcopy with BACKSPACE control	***/
 579:.\console.c   **** 		uidx = 0;												// reset user  buffer pointer
 1597              		.loc 1 579 0
 1598 0066 4FF00003 		mov	r3, #0
 1599 006a 87F83F30 		strb	r3, [r7, #63]
 580:.\console.c   **** 		uidy = 0;									 			// reset local buffer pointer
 1600              		.loc 1 580 0
 1601 006e 4FF00003 		mov	r3, #0
 1602 0072 87F83E30 		strb	r3, [r7, #62]
 581:.\console.c   **** 		while ((uidx<40) && (userInputBuffer[uidx] != '\0'))	// while there is string to copy
 1603              		.loc 1 581 0
 1604 0076 36E0     		b	.L102
 1605              	.L105:
 582:.\console.c   **** 		{
 583:.\console.c   **** 			while ((uidx<40) && (userInputBuffer[uidx] == 8))	// 	while there is ASCII BACKSPACE   = 8 (\b, 
 584:.\console.c   **** 			{
 585:.\console.c   **** 				uidx = uidx + 1;								//		points to the next char
 1606              		.loc 1 585 0
 1607 0078 97F83F30 		ldrb	r3, [r7, #63]
 1608 007c 03F10103 		add	r3, r3, #1
 1609 0080 87F83F30 		strb	r3, [r7, #63]
 586:.\console.c   **** 
 587:.\console.c   **** 				if (uidy>0)										//		if there are characters to cancel
 1610              		.loc 1 587 0
 1611 0084 97F83E30 		ldrb	r3, [r7, #62]	@ zero_extendqisi2
 1612 0088 002B     		cmp	r3, #0
 1613 008a 05D0     		beq	.L103
 588:.\console.c   **** 				{												//
 589:.\console.c   **** 					uidy = uidy - 1;							//			cancel the previous copied characters
 1614              		.loc 1 589 0
 1615 008c 97F83E30 		ldrb	r3, [r7, #62]
 1616 0090 03F1FF33 		add	r3, r3, #-1
 1617 0094 87F83E30 		strb	r3, [r7, #62]
 1618              	.L103:
 583:.\console.c   **** 			while ((uidx<40) && (userInputBuffer[uidx] == 8))	// 	while there is ASCII BACKSPACE   = 8 (\b, 
 1619              		.loc 1 583 0 discriminator 1
 1620 0098 97F83F30 		ldrb	r3, [r7, #63]	@ zero_extendqisi2
 1621 009c 272B     		cmp	r3, #39
 1622 009e 08D8     		bhi	.L104
 583:.\console.c   **** 			while ((uidx<40) && (userInputBuffer[uidx] == 8))	// 	while there is ASCII BACKSPACE   = 8 (\b, 
 1623              		.loc 1 583 0 is_stmt 0 discriminator 2
 1624 00a0 97F83F20 		ldrb	r2, [r7, #63]	@ zero_extendqisi2
 1625 00a4 40F20003 		movw	r3, #:lower16:userInputBuffer
 1626 00a8 C0F20003 		movt	r3, #:upper16:userInputBuffer
 1627 00ac 9B5C     		ldrb	r3, [r3, r2]	@ zero_extendqisi2
 1628 00ae 082B     		cmp	r3, #8
 1629 00b0 E2D0     		beq	.L105
 1630              	.L104:
ARM GAS  C:\Users\GRAZIA~1.RAV\AppData\Local\Temp\ccodpSVr.s 			page 44


 590:.\console.c   **** 				}												//		
 591:.\console.c   **** 			}
 592:.\console.c   **** 			localBuffer[uidy] = userInputBuffer[uidx];			//	copy one character from user to local buffer
 1631              		.loc 1 592 0 is_stmt 1
 1632 00b2 97F83E10 		ldrb	r1, [r7, #62]	@ zero_extendqisi2
 1633 00b6 97F83F20 		ldrb	r2, [r7, #63]	@ zero_extendqisi2
 1634 00ba 40F20003 		movw	r3, #:lower16:userInputBuffer
 1635 00be C0F20003 		movt	r3, #:upper16:userInputBuffer
 1636 00c2 9A5C     		ldrb	r2, [r3, r2]	@ zero_extendqisi2
 1637 00c4 07F14000 		add	r0, r7, #64
 1638 00c8 4318     		adds	r3, r0, r1
 1639 00ca 03F8342C 		strb	r2, [r3, #-52]
 593:.\console.c   **** 			uidx++;												//	increments user  buffer pointer
 1640              		.loc 1 593 0
 1641 00ce 97F83F30 		ldrb	r3, [r7, #63]
 1642 00d2 03F10103 		add	r3, r3, #1
 1643 00d6 87F83F30 		strb	r3, [r7, #63]
 594:.\console.c   **** 			uidy++;												//	increments local buffer pointer
 1644              		.loc 1 594 0
 1645 00da 97F83E30 		ldrb	r3, [r7, #62]
 1646 00de 03F10103 		add	r3, r3, #1
 1647 00e2 87F83E30 		strb	r3, [r7, #62]
 1648              	.L102:
 581:.\console.c   **** 		while ((uidx<40) && (userInputBuffer[uidx] != '\0'))	// while there is string to copy
 1649              		.loc 1 581 0 discriminator 1
 1650 00e6 97F83F30 		ldrb	r3, [r7, #63]	@ zero_extendqisi2
 1651 00ea 272B     		cmp	r3, #39
 1652 00ec 08D8     		bhi	.L106
 581:.\console.c   **** 		while ((uidx<40) && (userInputBuffer[uidx] != '\0'))	// while there is string to copy
 1653              		.loc 1 581 0 is_stmt 0 discriminator 2
 1654 00ee 97F83F20 		ldrb	r2, [r7, #63]	@ zero_extendqisi2
 1655 00f2 40F20003 		movw	r3, #:lower16:userInputBuffer
 1656 00f6 C0F20003 		movt	r3, #:upper16:userInputBuffer
 1657 00fa 9B5C     		ldrb	r3, [r3, r2]	@ zero_extendqisi2
 1658 00fc 002B     		cmp	r3, #0
 1659 00fe CBD1     		bne	.L103
 1660              	.L106:
 595:.\console.c   **** 		}
 596:.\console.c   **** 		localBuffer[uidy] = '\0';								//terminate the local buffer string
 1661              		.loc 1 596 0 is_stmt 1
 1662 0100 97F83E30 		ldrb	r3, [r7, #62]	@ zero_extendqisi2
 1663 0104 07F14002 		add	r2, r7, #64
 1664 0108 D318     		adds	r3, r2, r3
 1665 010a 4FF00002 		mov	r2, #0
 1666 010e 03F8342C 		strb	r2, [r3, #-52]
 597:.\console.c   **** 		/*** strcopy with BACKSPACE control END ***/
 598:.\console.c   **** 		
 599:.\console.c   **** 		p = strtok(localBuffer, " ");
 1667              		.loc 1 599 0
 1668 0112 07F10C03 		add	r3, r7, #12
 1669 0116 1846     		mov	r0, r3
 1670 0118 40F20001 		movw	r1, #:lower16:.LC70
 1671 011c C0F20001 		movt	r1, #:upper16:.LC70
 1672 0120 FFF7FEFF 		bl	strtok
 1673 0124 B863     		str	r0, [r7, #56]
 600:.\console.c   **** 
 601:.\console.c   **** 		if (p != NULL)
ARM GAS  C:\Users\GRAZIA~1.RAV\AppData\Local\Temp\ccodpSVr.s 			page 45


 1674              		.loc 1 601 0
 1675 0126 BB6B     		ldr	r3, [r7, #56]
 1676 0128 002B     		cmp	r3, #0
 1677 012a 10D0     		beq	.L108
 602:.\console.c   **** 		{
 603:.\console.c   **** 			strcpy(actual_cmd.action, p);	
 1678              		.loc 1 603 0
 1679 012c 40F20000 		movw	r0, #:lower16:actual_cmd
 1680 0130 C0F20000 		movt	r0, #:upper16:actual_cmd
 1681 0134 B96B     		ldr	r1, [r7, #56]
 1682 0136 FFF7FEFF 		bl	strcpy
 604:.\console.c   **** 			p = strtok(NULL, " ");
 1683              		.loc 1 604 0
 1684 013a 4FF00000 		mov	r0, #0
 1685 013e 40F20001 		movw	r1, #:lower16:.LC70
 1686 0142 C0F20001 		movt	r1, #:upper16:.LC70
 1687 0146 FFF7FEFF 		bl	strtok
 1688 014a B863     		str	r0, [r7, #56]
 1689 014c 05E0     		b	.L109
 1690              	.L108:
 605:.\console.c   **** 		}
 606:.\console.c   **** 		else
 607:.\console.c   **** 		{
 608:.\console.c   **** 			clear_string(actual_cmd.action);
 1691              		.loc 1 608 0
 1692 014e 40F20000 		movw	r0, #:lower16:actual_cmd
 1693 0152 C0F20000 		movt	r0, #:upper16:actual_cmd
 1694 0156 FFF7FEFF 		bl	clear_string
 1695              	.L109:
 609:.\console.c   **** 		}
 610:.\console.c   **** 
 611:.\console.c   **** 		if (p != NULL)
 1696              		.loc 1 611 0
 1697 015a BB6B     		ldr	r3, [r7, #56]
 1698 015c 002B     		cmp	r3, #0
 1699 015e 0DD0     		beq	.L110
 612:.\console.c   **** 		{
 613:.\console.c   **** 			strcpy(actual_cmd.parameter, p);	
 1700              		.loc 1 613 0
 1701 0160 6548     		ldr	r0, .L124
 1702 0162 B96B     		ldr	r1, [r7, #56]
 1703 0164 FFF7FEFF 		bl	strcpy
 614:.\console.c   **** 			p = strtok(NULL, " ");
 1704              		.loc 1 614 0
 1705 0168 4FF00000 		mov	r0, #0
 1706 016c 40F20001 		movw	r1, #:lower16:.LC70
 1707 0170 C0F20001 		movt	r1, #:upper16:.LC70
 1708 0174 FFF7FEFF 		bl	strtok
 1709 0178 B863     		str	r0, [r7, #56]
 1710 017a 02E0     		b	.L111
 1711              	.L110:
 615:.\console.c   **** 		}
 616:.\console.c   **** 		else
 617:.\console.c   **** 		{
 618:.\console.c   **** 			clear_string(actual_cmd.parameter);
 1712              		.loc 1 618 0
 1713 017c 5E48     		ldr	r0, .L124
ARM GAS  C:\Users\GRAZIA~1.RAV\AppData\Local\Temp\ccodpSVr.s 			page 46


 1714 017e FFF7FEFF 		bl	clear_string
 1715              	.L111:
 619:.\console.c   **** 		}
 620:.\console.c   **** 		
 621:.\console.c   **** 		if (p != NULL)
 1716              		.loc 1 621 0
 1717 0182 BB6B     		ldr	r3, [r7, #56]
 1718 0184 002B     		cmp	r3, #0
 1719 0186 0DD0     		beq	.L112
 622:.\console.c   **** 		{
 623:.\console.c   **** 			strcpy(actual_cmd.number1, p);	
 1720              		.loc 1 623 0
 1721 0188 5C48     		ldr	r0, .L124+4
 1722 018a B96B     		ldr	r1, [r7, #56]
 1723 018c FFF7FEFF 		bl	strcpy
 624:.\console.c   **** 			p = strtok(NULL, " ");
 1724              		.loc 1 624 0
 1725 0190 4FF00000 		mov	r0, #0
 1726 0194 40F20001 		movw	r1, #:lower16:.LC70
 1727 0198 C0F20001 		movt	r1, #:upper16:.LC70
 1728 019c FFF7FEFF 		bl	strtok
 1729 01a0 B863     		str	r0, [r7, #56]
 1730 01a2 02E0     		b	.L113
 1731              	.L112:
 625:.\console.c   **** 		}
 626:.\console.c   **** 		else
 627:.\console.c   **** 		{
 628:.\console.c   **** 			clear_string(actual_cmd.number1);
 1732              		.loc 1 628 0
 1733 01a4 5548     		ldr	r0, .L124+4
 1734 01a6 FFF7FEFF 		bl	clear_string
 1735              	.L113:
 629:.\console.c   **** 		}
 630:.\console.c   **** 
 631:.\console.c   **** 		if (p != NULL)
 1736              		.loc 1 631 0
 1737 01aa BB6B     		ldr	r3, [r7, #56]
 1738 01ac 002B     		cmp	r3, #0
 1739 01ae 0DD0     		beq	.L114
 632:.\console.c   **** 		{
 633:.\console.c   **** 			strcpy(actual_cmd.number2, p);	
 1740              		.loc 1 633 0
 1741 01b0 5348     		ldr	r0, .L124+8
 1742 01b2 B96B     		ldr	r1, [r7, #56]
 1743 01b4 FFF7FEFF 		bl	strcpy
 634:.\console.c   **** 			p = strtok(NULL, " ");
 1744              		.loc 1 634 0
 1745 01b8 4FF00000 		mov	r0, #0
 1746 01bc 40F20001 		movw	r1, #:lower16:.LC70
 1747 01c0 C0F20001 		movt	r1, #:upper16:.LC70
 1748 01c4 FFF7FEFF 		bl	strtok
 1749 01c8 B863     		str	r0, [r7, #56]
 1750 01ca 02E0     		b	.L101
 1751              	.L114:
 635:.\console.c   **** 		}
 636:.\console.c   **** 		else
 637:.\console.c   **** 		{
ARM GAS  C:\Users\GRAZIA~1.RAV\AppData\Local\Temp\ccodpSVr.s 			page 47


 638:.\console.c   **** 			clear_string(actual_cmd.number2);
 1752              		.loc 1 638 0
 1753 01cc 4C48     		ldr	r0, .L124+8
 1754 01ce FFF7FEFF 		bl	clear_string
 1755              	.L101:
 639:.\console.c   **** 		}
 640:.\console.c   **** 	
 641:.\console.c   **** 	}
 642:.\console.c   **** 
 643:.\console.c   **** 	if (verbose == VERBOSE_ON)
 1756              		.loc 1 643 0
 1757 01d2 FB79     		ldrb	r3, [r7, #7]	@ zero_extendqisi2
 1758 01d4 012B     		cmp	r3, #1
 1759 01d6 7BD1     		bne	.L115
 644:.\console.c   **** 	{
 645:.\console.c   **** 		printf("\r\n");
 1760              		.loc 1 645 0
 1761 01d8 40F20000 		movw	r0, #:lower16:.LC42
 1762 01dc C0F20000 		movt	r0, #:upper16:.LC42
 1763 01e0 FFF7FEFF 		bl	puts
 646:.\console.c   **** 		printf("buff=");
 1764              		.loc 1 646 0
 1765 01e4 40F20000 		movw	r0, #:lower16:.LC71
 1766 01e8 C0F20000 		movt	r0, #:upper16:.LC71
 1767 01ec FFF7FEFF 		bl	printf
 647:.\console.c   **** 		//prints user input buffer until string termination
 648:.\console.c   **** 		uidx=0;
 1768              		.loc 1 648 0
 1769 01f0 4FF00003 		mov	r3, #0
 1770 01f4 87F83F30 		strb	r3, [r7, #63]
 649:.\console.c   **** 		while ((uidx<40) && (userInputBuffer[uidx] != '\0'))
 1771              		.loc 1 649 0
 1772 01f8 2FE0     		b	.L116
 1773              	.L121:
 650:.\console.c   **** 		{
 651:.\console.c   **** 			if (userInputBuffer[uidx] == 8)			// ASCII BACKSPACE   = 8 (\b, ^H)
 1774              		.loc 1 651 0
 1775 01fa 97F83F20 		ldrb	r2, [r7, #63]	@ zero_extendqisi2
 1776 01fe 40F20003 		movw	r3, #:lower16:userInputBuffer
 1777 0202 C0F20003 		movt	r3, #:upper16:userInputBuffer
 1778 0206 9B5C     		ldrb	r3, [r3, r2]	@ zero_extendqisi2
 1779 0208 082B     		cmp	r3, #8
 1780 020a 06D1     		bne	.L117
 652:.\console.c   **** 			{
 653:.\console.c   **** 				printf("[b]");
 1781              		.loc 1 653 0
 1782 020c 40F20000 		movw	r0, #:lower16:.LC72
 1783 0210 C0F20000 		movt	r0, #:upper16:.LC72
 1784 0214 FFF7FEFF 		bl	printf
 1785 0218 19E0     		b	.L118
 1786              	.L117:
 654:.\console.c   **** 			}
 655:.\console.c   **** 			else if (userInputBuffer[uidx] == 127)	// ASCII DELETE7CANC = 127 (^?)
 1787              		.loc 1 655 0
 1788 021a 97F83F20 		ldrb	r2, [r7, #63]	@ zero_extendqisi2
 1789 021e 40F20003 		movw	r3, #:lower16:userInputBuffer
 1790 0222 C0F20003 		movt	r3, #:upper16:userInputBuffer
ARM GAS  C:\Users\GRAZIA~1.RAV\AppData\Local\Temp\ccodpSVr.s 			page 48


 1791 0226 9B5C     		ldrb	r3, [r3, r2]	@ zero_extendqisi2
 1792 0228 7F2B     		cmp	r3, #127
 1793 022a 06D1     		bne	.L119
 656:.\console.c   **** 			{
 657:.\console.c   **** 				printf("[d]");
 1794              		.loc 1 657 0
 1795 022c 40F20000 		movw	r0, #:lower16:.LC73
 1796 0230 C0F20000 		movt	r0, #:upper16:.LC73
 1797 0234 FFF7FEFF 		bl	printf
 1798 0238 09E0     		b	.L118
 1799              	.L119:
 658:.\console.c   **** 			}			
 659:.\console.c   **** 			else
 660:.\console.c   **** 			{
 661:.\console.c   **** 				printf ("%c", userInputBuffer[uidx]);
 1800              		.loc 1 661 0
 1801 023a 97F83F20 		ldrb	r2, [r7, #63]	@ zero_extendqisi2
 1802 023e 40F20003 		movw	r3, #:lower16:userInputBuffer
 1803 0242 C0F20003 		movt	r3, #:upper16:userInputBuffer
 1804 0246 9B5C     		ldrb	r3, [r3, r2]	@ zero_extendqisi2
 1805 0248 1846     		mov	r0, r3
 1806 024a FFF7FEFF 		bl	putchar
 1807              	.L118:
 662:.\console.c   **** 			}
 663:.\console.c   **** 			uidx++;
 1808              		.loc 1 663 0
 1809 024e 97F83F30 		ldrb	r3, [r7, #63]
 1810 0252 03F10103 		add	r3, r3, #1
 1811 0256 87F83F30 		strb	r3, [r7, #63]
 1812              	.L116:
 649:.\console.c   **** 		while ((uidx<40) && (userInputBuffer[uidx] != '\0'))
 1813              		.loc 1 649 0 discriminator 1
 1814 025a 97F83F30 		ldrb	r3, [r7, #63]	@ zero_extendqisi2
 1815 025e 272B     		cmp	r3, #39
 1816 0260 08D8     		bhi	.L120
 649:.\console.c   **** 		while ((uidx<40) && (userInputBuffer[uidx] != '\0'))
 1817              		.loc 1 649 0 is_stmt 0 discriminator 2
 1818 0262 97F83F20 		ldrb	r2, [r7, #63]	@ zero_extendqisi2
 1819 0266 40F20003 		movw	r3, #:lower16:userInputBuffer
 1820 026a C0F20003 		movt	r3, #:upper16:userInputBuffer
 1821 026e 9B5C     		ldrb	r3, [r3, r2]	@ zero_extendqisi2
 1822 0270 002B     		cmp	r3, #0
 1823 0272 C2D1     		bne	.L121
 1824              	.L120:
 664:.\console.c   **** 		}
 665:.\console.c   **** //		printf(userInputBuffer);
 666:.\console.c   **** 		
 667:.\console.c   **** 		printf(" tk1=");
 1825              		.loc 1 667 0 is_stmt 1
 1826 0274 40F20000 		movw	r0, #:lower16:.LC74
 1827 0278 C0F20000 		movt	r0, #:upper16:.LC74
 1828 027c FFF7FEFF 		bl	printf
 668:.\console.c   **** 		printf(actual_cmd.action);
 1829              		.loc 1 668 0
 1830 0280 40F20000 		movw	r0, #:lower16:actual_cmd
 1831 0284 C0F20000 		movt	r0, #:upper16:actual_cmd
 1832 0288 FFF7FEFF 		bl	printf
ARM GAS  C:\Users\GRAZIA~1.RAV\AppData\Local\Temp\ccodpSVr.s 			page 49


 669:.\console.c   **** 		printf(" tk2=");
 1833              		.loc 1 669 0
 1834 028c 40F20000 		movw	r0, #:lower16:.LC75
 1835 0290 C0F20000 		movt	r0, #:upper16:.LC75
 1836 0294 FFF7FEFF 		bl	printf
 670:.\console.c   **** 		printf(actual_cmd.parameter);
 1837              		.loc 1 670 0
 1838 0298 1748     		ldr	r0, .L124
 1839 029a FFF7FEFF 		bl	printf
 671:.\console.c   **** 		printf(" tk3=");
 1840              		.loc 1 671 0
 1841 029e 40F20000 		movw	r0, #:lower16:.LC76
 1842 02a2 C0F20000 		movt	r0, #:upper16:.LC76
 1843 02a6 FFF7FEFF 		bl	printf
 672:.\console.c   **** 		printf(actual_cmd.number1);
 1844              		.loc 1 672 0
 1845 02aa 1448     		ldr	r0, .L124+4
 1846 02ac FFF7FEFF 		bl	printf
 673:.\console.c   **** 		printf(" tk4=");		
 1847              		.loc 1 673 0
 1848 02b0 40F20000 		movw	r0, #:lower16:.LC77
 1849 02b4 C0F20000 		movt	r0, #:upper16:.LC77
 1850 02b8 FFF7FEFF 		bl	printf
 674:.\console.c   **** 		printf(actual_cmd.number2);
 1851              		.loc 1 674 0
 1852 02bc 1048     		ldr	r0, .L124+8
 1853 02be FFF7FEFF 		bl	printf
 675:.\console.c   **** 		printf("\r\n");		
 1854              		.loc 1 675 0
 1855 02c2 40F20000 		movw	r0, #:lower16:.LC42
 1856 02c6 C0F20000 		movt	r0, #:upper16:.LC42
 1857 02ca FFF7FEFF 		bl	puts
 1858 02ce 0BE0     		b	.L122
 1859              	.L115:
 676:.\console.c   **** 	}
 677:.\console.c   **** 	else
 678:.\console.c   **** 	{
 679:.\console.c   **** 		printf("\r\n");	
 1860              		.loc 1 679 0
 1861 02d0 40F20000 		movw	r0, #:lower16:.LC42
 1862 02d4 C0F20000 		movt	r0, #:upper16:.LC42
 1863 02d8 FFF7FEFF 		bl	puts
 680:.\console.c   **** 		printf("\r\n");
 1864              		.loc 1 680 0
 1865 02dc 40F20000 		movw	r0, #:lower16:.LC42
 1866 02e0 C0F20000 		movt	r0, #:upper16:.LC42
 1867 02e4 FFF7FEFF 		bl	puts
 1868              	.L122:
 681:.\console.c   **** 	}
 682:.\console.c   **** 	
 683:.\console.c   **** 	return 0;	//SCAN_OK//	
 1869              		.loc 1 683 0
 1870 02e8 4FF00003 		mov	r3, #0
 684:.\console.c   **** }
 1871              		.loc 1 684 0
 1872 02ec 1846     		mov	r0, r3
 1873 02ee 07F14007 		add	r7, r7, #64
ARM GAS  C:\Users\GRAZIA~1.RAV\AppData\Local\Temp\ccodpSVr.s 			page 50


 1874 02f2 BD46     		mov	sp, r7
 1875 02f4 80BD     		pop	{r7, pc}
 1876              	.L125:
 1877 02f6 00BF     		.align	2
 1878              	.L124:
 1879 02f8 0F000000 		.word	actual_cmd+15
 1880 02fc 1E000000 		.word	actual_cmd+30
 1881 0300 28000000 		.word	actual_cmd+40
 1882              		.cfi_endproc
 1883              	.LFE68:
 1884              		.size	scanner2, .-scanner2
 1885              		.section	.rodata
 1886 051e 0000     		.align	2
 1887              	.LC78:
 1888 0520 626F6F74 		.ascii	"boot\000"
 1888      00
 1889 0525 000000   		.align	2
 1890              	.LC79:
 1891 0528 0D0A4172 		.ascii	"\015\012Are you sure to start Bootload [Y/N]?\000"
 1891      6520796F 
 1891      75207375 
 1891      72652074 
 1891      6F207374 
 1892              		.align	2
 1893              	.LC80:
 1894 0550 0D0A2121 		.ascii	"\015\012!!!Wait for Bootloading (power off to stop "
 1894      21576169 
 1894      7420666F 
 1894      7220426F 
 1894      6F746C6F 
 1895 057d 626F6F74 		.ascii	"bootloading process)\015\000"
 1895      6C6F6164 
 1895      696E6720 
 1895      70726F63 
 1895      65737329 
 1896 0593 00       		.align	2
 1897              	.LC81:
 1898 0594 0D0A426F 		.ascii	"\015\012Bootloading aborted!\000"
 1898      6F746C6F 
 1898      6164696E 
 1898      67206162 
 1898      6F727465 
 1899 05ab 00       		.align	2
 1900              	.LC82:
 1901 05ac 23455252 		.ascii	"#ERROR1: Too much parameters!\000"
 1901      4F52313A 
 1901      20546F6F 
 1901      206D7563 
 1901      68207061 
 1902 05ca 0000     		.align	2
 1903              	.LC83:
 1904 05cc 707000   		.ascii	"pp\000"
 1905 05cf 00       		.align	2
 1906              	.LC84:
 1907 05d0 2A414E41 		.ascii	"*ANAPOS ZERO +20!\015\000"
 1907      504F5320 
 1907      5A45524F 
ARM GAS  C:\Users\GRAZIA~1.RAV\AppData\Local\Temp\ccodpSVr.s 			page 51


 1907      202B3230 
 1907      210D00
 1908 05e3 00       		.align	2
 1909              	.LC85:
 1910 05e4 2A657272 		.ascii	"*err\000"
 1910      00
 1911 05e9 000000   		.align	2
 1912              	.LC86:
 1913 05ec 70707000 		.ascii	"ppp\000"
 1914              		.align	2
 1915              	.LC87:
 1916 05f0 2A414E41 		.ascii	"*ANAPOS ZERO +100!\015\000"
 1916      504F5320 
 1916      5A45524F 
 1916      202B3130 
 1916      30210D00 
 1917              		.align	2
 1918              	.LC88:
 1919 0604 6D6D00   		.ascii	"mm\000"
 1920 0607 00       		.align	2
 1921              	.LC89:
 1922 0608 2A414E41 		.ascii	"*ANAPOS ZERO -20!\015\000"
 1922      504F5320 
 1922      5A45524F 
 1922      202D3230 
 1922      210D00
 1923 061b 00       		.align	2
 1924              	.LC90:
 1925 061c 6D6D6D00 		.ascii	"mmm\000"
 1926              		.align	2
 1927              	.LC91:
 1928 0620 2A414E41 		.ascii	"*ANAPOS ZERO -100!\015\000"
 1928      504F5320 
 1928      5A45524F 
 1928      202D3130 
 1928      30210D00 
 1929              		.align	2
 1930              	.LC92:
 1931 0634 7462757A 		.ascii	"tbuz\000"
 1931      00
 1932 0639 000000   		.align	2
 1933              	.LC93:
 1934 063c 42757A7A 		.ascii	"Buzzer testing!\015\000"
 1934      65722074 
 1934      65737469 
 1934      6E67210D 
 1934      00
 1935 064d 000000   		.align	2
 1936              	.LC94:
 1937 0650 746C6F72 		.ascii	"tlora\000"
 1937      6100
 1938 0656 0000     		.align	2
 1939              	.LC95:
 1940 0658 54657374 		.ascii	"Test LoRa started!\015\000"
 1940      204C6F52 
 1940      61207374 
 1940      61727465 
ARM GAS  C:\Users\GRAZIA~1.RAV\AppData\Local\Temp\ccodpSVr.s 			page 52


 1940      64210D00 
 1941              		.align	2
 1942              	.LC96:
 1943 066c 6D797465 		.ascii	"mytest\000"
 1943      737400
 1944 0673 00       		.align	2
 1945              	.LC97:
 1946 0674 4D792074 		.ascii	"My test!\015\000"
 1946      65737421 
 1946      0D00
 1947 067e 0000     		.align	2
 1948              	.LC98:
 1949 0680 73746F70 		.ascii	"stopmapsm\000"
 1949      6D617073 
 1949      6D00
 1950 068a 0000     		.align	2
 1951              	.LC99:
 1952 068c 73746F70 		.ascii	"stopsm\000"
 1952      736D00
 1953 0693 00       		.align	2
 1954              	.LC100:
 1955 0694 4D415050 		.ascii	"MAPPING STATE MACHINE Stopped!\015\000"
 1955      494E4720 
 1955      53544154 
 1955      45204D41 
 1955      4348494E 
 1956              		.align	2
 1957              	.LC101:
 1958 06b4 6465656E 		.ascii	"deenergize\000"
 1958      65726769 
 1958      7A6500
 1959 06bf 00       		.align	2
 1960              	.LC102:
 1961 06c0 6465656E 		.ascii	"deen\000"
 1961      00
 1962 06c5 000000   		.align	2
 1963              	.LC103:
 1964 06c8 4D6F746F 		.ascii	"Motors DEENERGIZED & Driver Sleeped!\015\000"
 1964      72732044 
 1964      45454E45 
 1964      5247495A 
 1964      45442026 
 1965 06ee 0000     		.align	2
 1966              	.LC104:
 1967 06f0 656E6572 		.ascii	"energize\000"
 1967      67697A65 
 1967      00
 1968 06f9 000000   		.align	2
 1969              	.LC105:
 1970 06fc 656E00   		.ascii	"en\000"
 1971 06ff 00       		.align	2
 1972              	.LC106:
 1973 0700 4D6F746F 		.ascii	"Motors ENERGIZED!\015\000"
 1973      72732045 
 1973      4E455247 
 1973      495A4544 
 1973      210D00
ARM GAS  C:\Users\GRAZIA~1.RAV\AppData\Local\Temp\ccodpSVr.s 			page 53


 1974 0713 00       		.align	2
 1975              	.LC107:
 1976 0714 766A6F79 		.ascii	"vjoyp\000"
 1976      7000
 1977 071a 0000     		.align	2
 1978              	.LC108:
 1979 071c 766A7000 		.ascii	"vjp\000"
 1980              		.align	2
 1981              	.LC109:
 1982 0720 50414E3A 		.ascii	"PAN: enc(t)=%+ld [step]\000"
 1982      20656E63 
 1982      2874293D 
 1982      252B6C64 
 1982      205B7374 
 1983              		.global	__aeabi_f2iz
 1984              		.align	2
 1985              	.LC110:
 1986 0738 20202061 		.ascii	"   abs_pos(t)=%+ld [step] \000"
 1986      62735F70 
 1986      6F732874 
 1986      293D252B 
 1986      6C64205B 
 1987              		.global	__aeabi_fmul
 1988 0753 00       		.align	2
 1989              	.LC111:
 1990 0754 20202076 		.ascii	"   vjoy(t)=%4.0f [step/sec]\000"
 1990      6A6F7928 
 1990      74293D25 
 1990      342E3066 
 1990      205B7374 
 1991              		.align	2
 1992              	.LC112:
 1993 0770 20282534 		.ascii	" (%4.3f [deg/sec])\000"
 1993      2E336620 
 1993      5B646567 
 1993      2F736563 
 1993      5D2900
 1994              		.global	__aeabi_fadd
 1995              		.global	__aeabi_fsub
 1996 0783 00       		.align	2
 1997              	.LC113:
 1998 0784 766A6F79 		.ascii	"vjoyt\000"
 1998      7400
 1999 078a 0000     		.align	2
 2000              	.LC114:
 2001 078c 766A7400 		.ascii	"vjt\000"
 2002              		.align	2
 2003              	.LC115:
 2004 0790 54494C54 		.ascii	"TILT: enc(t)=%+ld [step]\000"
 2004      3A20656E 
 2004      63287429 
 2004      3D252B6C 
 2004      64205B73 
 2005 07a9 000000   		.align	2
 2006              	.LC116:
 2007 07ac 766A6F79 		.ascii	"vjoy\000"
 2007      00
ARM GAS  C:\Users\GRAZIA~1.RAV\AppData\Local\Temp\ccodpSVr.s 			page 54


 2008 07b1 000000   		.align	2
 2009              	.LC117:
 2010 07b4 766A00   		.ascii	"vj\000"
 2011 07b7 00       		.align	2
 2012              	.LC118:
 2013 07b8 50414E3A 		.ascii	"PAN: \000"
 2013      2000
 2014 07be 0000     		.align	2
 2015              	.LC119:
 2016 07c0 766A6F79 		.ascii	"vjoy(t)=%4.0f [step/sec]\000"
 2016      2874293D 
 2016      25342E30 
 2016      66205B73 
 2016      7465702F 
 2017 07d9 000000   		.align	2
 2018              	.LC120:
 2019 07dc 20282535 		.ascii	" (%5.4f [A])\000"
 2019      2E346620 
 2019      5B415D29 
 2019      00
 2020 07e9 000000   		.align	2
 2021              	.LC121:
 2022 07ec 20202020 		.ascii	"    TILT: \000"
 2022      54494C54 
 2022      3A2000
 2023              		.global	__aeabi_fcmplt
 2024              		.global	__aeabi_fcmpgt
 2025 07f7 00       		.align	2
 2026              	.LC122:
 2027 07f8 7600     		.ascii	"v\000"
 2028 07fa 0000     		.align	2
 2029              	.LC123:
 2030 07fc 76657273 		.ascii	"version\000"
 2030      696F6E00 
 2031              		.align	2
 2032              	.LC124:
 2033 0804 476F4265 		.ascii	"GoBee Director FW V.0.0B-T34 24/01/19 C3.0\015\000"
 2033      65204469 
 2033      72656374 
 2033      6F722046 
 2033      5720562E 
 2034              		.align	2
 2035              	.LC125:
 2036 0830 28632920 		.ascii	"(c) 2017-2019 Gobee Srl (www.gobee.it)\015\000"
 2036      32303137 
 2036      2D323031 
 2036      3920476F 
 2036      62656520 
 2037              		.align	2
 2038              	.LC126:
 2039 0858 46572061 		.ascii	"FW and HW Designed by Graziano G. Ravizza\015\000"
 2039      6E642048 
 2039      57204465 
 2039      7369676E 
 2039      65642062 
 2040 0883 00       		.align	2
 2041              	.LC127:
ARM GAS  C:\Users\GRAZIA~1.RAV\AppData\Local\Temp\ccodpSVr.s 			page 55


 2042 0884 4D454348 		.ascii	"MECHA     Designed by Cy.Pag. Team and Davide Danie"
 2042      41202020 
 2042      20204465 
 2042      7369676E 
 2042      65642062 
 2043 08b7 6C6C690D 		.ascii	"lli\015\000"
 2043      00
 2044              		.align	2
 2045              	.LC128:
 2046 08bc 434C5573 		.ascii	"CLUs      Designed by Gabriele Pisaneschi and Grazi"
 2046      20202020 
 2046      20204465 
 2046      7369676E 
 2046      65642062 
 2047 08ef 616E6F20 		.ascii	"ano G. Ravizza\015\000"
 2047      472E2052 
 2047      6176697A 
 2047      7A610D00 
 2048 08ff 00       		.align	2
 2049              	.LC129:
 2050 0900 20202020 		.ascii	"          Special Thanks to Fabio Allegreni, Claudi"
 2050      20202020 
 2050      20205370 
 2050      65636961 
 2050      6C205468 
 2051 0933 6F205061 		.ascii	"o Palumbo and all Cy.Pag. Team!\015\000"
 2051      6C756D62 
 2051      6F20616E 
 2051      6420616C 
 2051      6C204379 
 2052              		.align	2
 2053              	.LC130:
 2054 0954 70726F6D 		.ascii	"prompt\000"
 2054      707400
 2055 095b 00       		.align	2
 2056              	.LC131:
 2057 095c 50726F6D 		.ascii	"Prompt Flags:\015\000"
 2057      70742046 
 2057      6C616773 
 2057      3A0D00
 2058 096b 00       		.align	2
 2059              	.LC132:
 2060 096c 20205B46 		.ascii	"  [F]                  --> GoBee FAULT\015\000"
 2060      5D202020 
 2060      20202020 
 2060      20202020 
 2060      20202020 
 2061              		.align	2
 2062              	.LC133:
 2063 0994 20205B46 		.ascii	"  [FBK=AGYRO_VEL]      --> Analog Gyroscope Feedbac"
 2063      424B3D41 
 2063      4759524F 
 2063      5F56454C 
 2063      5D202020 
 2064 09c7 6B202856 		.ascii	"k (Velocity - Direct LOS)\015\000"
 2064      656C6F63 
 2064      69747920 
ARM GAS  C:\Users\GRAZIA~1.RAV\AppData\Local\Temp\ccodpSVr.s 			page 56


 2064      2D204469 
 2064      72656374 
 2065 09e2 0000     		.align	2
 2066              	.LC134:
 2067 09e4 20205B46 		.ascii	"  [FBK=ENC_POS]        --> Digital Encoder Feedback"
 2067      424B3D45 
 2067      4E435F50 
 2067      4F535D20 
 2067      20202020 
 2068 0a17 2028506F 		.ascii	" (Position - Test Only)\015\000"
 2068      73697469 
 2068      6F6E202D 
 2068      20546573 
 2068      74204F6E 
 2069              		.align	2
 2070              	.LC135:
 2071 0a30 20205B46 		.ascii	"  [FBK=OPEN]           --> No Feedback (Open Loop)\015"
 2071      424B3D4F 
 2071      50454E5D 
 2071      20202020 
 2071      20202020 
 2072 0a63 00       		.ascii	"\000"
 2073              		.align	2
 2074              	.LC136:
 2075 0a64 3F00     		.ascii	"?\000"
 2076 0a66 0000     		.align	2
 2077              	.LC137:
 2078 0a68 6800     		.ascii	"h\000"
 2079 0a6a 0000     		.align	2
 2080              	.LC138:
 2081 0a6c 68656C70 		.ascii	"help\000"
 2081      00
 2082 0a71 000000   		.align	2
 2083              	.LC139:
 2084 0a74 476F4265 		.ascii	"GoBee Director Console Commands:\015\000"
 2084      65204469 
 2084      72656374 
 2084      6F722043 
 2084      6F6E736F 
 2085 0a96 0000     		.align	2
 2086              	.LC140:
 2087 0a98 3D3D3D3D 		.ascii	"=================================================\015"
 2087      3D3D3D3D 
 2087      3D3D3D3D 
 2087      3D3D3D3D 
 2087      3D3D3D3D 
 2088 0aca 00       		.ascii	"\000"
 2089 0acb 00       		.align	2
 2090              	.LC141:
 2091 0acc 53484F57 		.ascii	"SHOW,S: shows parameters and realtime values\015\000"
 2091      2C533A20 
 2091      73686F77 
 2091      73207061 
 2091      72616D65 
 2092 0afa 0000     		.align	2
 2093              	.LC142:
 2094 0afc 5345543A 		.ascii	"SET:  set GoBee parameters\015\000"
ARM GAS  C:\Users\GRAZIA~1.RAV\AppData\Local\Temp\ccodpSVr.s 			page 57


 2094      20207365 
 2094      7420476F 
 2094      42656520 
 2094      70617261 
 2095              		.align	2
 2096              	.LC143:
 2097 0b18 50524F4D 		.ascii	"PROMPT: shows prompt flags\015\000"
 2097      50543A20 
 2097      73686F77 
 2097      73207072 
 2097      6F6D7074 
 2098              		.align	2
 2099              	.LC144:
 2100 0b34 424F4F54 		.ascii	"BOOT: starts FW Bootloading\015\000"
 2100      3A207374 
 2100      61727473 
 2100      20465720 
 2100      426F6F74 
 2101 0b51 000000   		.align	2
 2102              	.LC145:
 2103 0b54 56455253 		.ascii	"VERSION,V: displays firmware version\015\000"
 2103      494F4E2C 
 2103      563A2064 
 2103      6973706C 
 2103      61797320 
 2104 0b7a 0000     		.align	2
 2105              	.LC146:
 2106 0b7c 48454C50 		.ascii	"HELP Q: helps Q table codes\015\000"
 2106      20513A20 
 2106      68656C70 
 2106      73205120 
 2106      7461626C 
 2107 0b99 000000   		.align	2
 2108              	.LC147:
 2109 0b9c 48454C50 		.ascii	"HELP,H,?: this help\015\000"
 2109      2C482C3F 
 2109      3A207468 
 2109      69732068 
 2109      656C700D 
 2110 0bb1 000000   		.align	2
 2111              	.LC148:
 2112 0bb4 20202874 		.ascii	"  (type HELP <command> for detailed descriptions)\015"
 2112      79706520 
 2112      48454C50 
 2112      203C636F 
 2112      6D6D616E 
 2113 0be6 00       		.ascii	"\000"
 2114 0be7 00       		.align	2
 2115              	.LC149:
 2116 0be8 2D204D6F 		.ascii	"- Motor Control CMDs               -\015\000"
 2116      746F7220 
 2116      436F6E74 
 2116      726F6C20 
 2116      434D4473 
 2117 0c0e 0000     		.align	2
 2118              	.LC150:
 2119 0c10 2D2D2D2D 		.ascii	"------------------------------------\015\000"
ARM GAS  C:\Users\GRAZIA~1.RAV\AppData\Local\Temp\ccodpSVr.s 			page 58


 2119      2D2D2D2D 
 2119      2D2D2D2D 
 2119      2D2D2D2D 
 2119      2D2D2D2D 
 2120 0c36 0000     		.align	2
 2121              	.LC151:
 2122 0c38 2020454E 		.ascii	"  EN[ERGIZE]             (Energize motor)\015\000"
 2122      5B455247 
 2122      495A455D 
 2122      20202020 
 2122      20202020 
 2123 0c63 00       		.align	2
 2124              	.LC152:
 2125 0c64 20204445 		.ascii	"  DEEN[ERGIZE]           (Deenergize motor)\015\000"
 2125      454E5B45 
 2125      5247495A 
 2125      455D2020 
 2125      20202020 
 2126 0c91 000000   		.align	2
 2127              	.LC153:
 2128 0c94 2D204D6F 		.ascii	"- Mover CMDs                       -\015\000"
 2128      76657220 
 2128      434D4473 
 2128      20202020 
 2128      20202020 
 2129 0cba 0000     		.align	2
 2130              	.LC154:
 2131 0cbc 20204D4F 		.ascii	"  MOVP[ATH]     <n>      (Start Mover on Path 0..15"
 2131      56505B41 
 2131      54485D20 
 2131      20202020 
 2131      3C6E3E20 
 2132 0cef 290D00   		.ascii	")\015\000"
 2133 0cf2 0000     		.align	2
 2134              	.LC155:
 2135 0cf4 2020474F 		.ascii	"  GOTOH[OME]             (Start Mover to Goto Home)"
 2135      544F485B 
 2135      4F4D455D 
 2135      20202020 
 2135      20202020 
 2136 0d27 0D00     		.ascii	"\015\000"
 2137 0d29 000000   		.align	2
 2138              	.LC156:
 2139 0d2c 2020475B 		.ascii	"  G[OTOQ]       <n> <t>  (Start Mover to Goto Q num"
 2139      4F544F51 
 2139      5D202020 
 2139      20202020 
 2139      3C6E3E20 
 2140 0d5f 62657220 		.ascii	"ber <n> in time <t> sec)\015\000"
 2140      3C6E3E20 
 2140      696E2074 
 2140      696D6520 
 2140      3C743E20 
 2141 0d79 000000   		.align	2
 2142              	.LC157:
 2143 0d7c 2D205379 		.ascii	"- System TEST CMDs                 -\015\000"
 2143      7374656D 
ARM GAS  C:\Users\GRAZIA~1.RAV\AppData\Local\Temp\ccodpSVr.s 			page 59


 2143      20544553 
 2143      5420434D 
 2143      44732020 
 2144 0da2 0000     		.align	2
 2145              	.LC158:
 2146 0da4 20205442 		.ascii	"  TBUZ                   (Tests Buzzer)\015\000"
 2146      555A2020 
 2146      20202020 
 2146      20202020 
 2146      20202020 
 2147 0dcd 000000   		.align	2
 2148              	.LC159:
 2149 0dd0 2020544C 		.ascii	"  TLORA                  (Test LoRa HW)\015\000"
 2149      4F524120 
 2149      20202020 
 2149      20202020 
 2149      20202020 
 2150 0df9 000000   		.align	2
 2151              	.LC160:
 2152 0dfc 20205354 		.ascii	"  STOP[MAP]SM            (Stops the MAPPING STATE M"
 2152      4F505B4D 
 2152      41505D53 
 2152      4D202020 
 2152      20202020 
 2153 0e2f 41434849 		.ascii	"ACHINE (energize to restart))\015\000"
 2153      4E452028 
 2153      656E6572 
 2153      67697A65 
 2153      20746F20 
 2154 0e4e 0000     		.align	2
 2155              	.LC161:
 2156 0e50 2020564A 		.ascii	"  VJ[OY]P                (Pan  Virtual Joystick a=c"
 2156      5B4F595D 
 2156      50202020 
 2156      20202020 
 2156      20202020 
 2157 0e83 7720643D 		.ascii	"w d=ccw s=stop)\015\000"
 2157      63637720 
 2157      733D7374 
 2157      6F70290D 
 2157      00
 2158              		.align	2
 2159              	.LC162:
 2160 0e94 2020564A 		.ascii	"  VJ[OY]T                (Tilt Virtual Joystick w=c"
 2160      5B4F595D 
 2160      54202020 
 2160      20202020 
 2160      20202020 
 2161 0ec7 77207A3D 		.ascii	"w z=ccw s=stop)\015\000"
 2161      63637720 
 2161      733D7374 
 2161      6F70290D 
 2161      00
 2162              		.align	2
 2163              	.LC163:
 2164 0ed8 2020564A 		.ascii	"  VJ[OY]                 (Pan+Tilt Virtual Joystick"
 2164      5B4F595D 
ARM GAS  C:\Users\GRAZIA~1.RAV\AppData\Local\Temp\ccodpSVr.s 			page 60


 2164      20202020 
 2164      20202020 
 2164      20202020 
 2165 0f0b 290D00   		.ascii	")\015\000"
 2166 0f0e 0000     		.align	2
 2167              	.LC164:
 2168 0f10 2D20434C 		.ascii	"- CLU CMDs                         -\015\000"
 2168      5520434D 
 2168      44732020 
 2168      20202020 
 2168      20202020 
 2169 0f36 0000     		.align	2
 2170              	.LC165:
 2171 0f38 2020434C 		.ascii	"  CLUEXEC <clu_num>      (Start CLU   0 <= clu_num "
 2171      55455845 
 2171      43203C63 
 2171      6C755F6E 
 2171      756D3E20 
 2172 0f6b 3C3D2034 		.ascii	"<= 49)\015\000"
 2172      39290D00 
 2173 0f73 00       		.align	2
 2174              	.LC166:
 2175 0f74 2020434C 		.ascii	"  CLUSEQ  <pause>        (Start CLU sequence with <"
 2175      55534551 
 2175      20203C70 
 2175      61757365 
 2175      3E202020 
 2176 0fa7 70617573 		.ascii	"pause> msec)\015\000"
 2176      653E206D 
 2176      73656329 
 2176      0D00
 2177 0fb5 000000   		.align	2
 2178              	.LC167:
 2179 0fb8 73657400 		.ascii	"set\000"
 2180              		.align	2
 2181              	.LC168:
 2182 0fbc 53796E74 		.ascii	"Syntax:\015\000"
 2182      61783A0D 
 2182      00
 2183 0fc5 000000   		.align	2
 2184              	.LC169:
 2185 0fc8 20205345 		.ascii	"  SET POL[ARITY]P   <polarity> (Sets Pan  Motor Pol"
 2185      5420504F 
 2185      4C5B4152 
 2185      4954595D 
 2185      50202020 
 2186 0ffb 61726974 		.ascii	"arity)\015\000"
 2186      79290D00 
 2187 1003 00       		.align	2
 2188              	.LC170:
 2189 1004 20205345 		.ascii	"  SET POL[ARITY]T   <polarity> (Sets Tilt Motor Pol"
 2189      5420504F 
 2189      4C5B4152 
 2189      4954595D 
 2189      54202020 
 2190 1037 61726974 		.ascii	"arity)\015\000"
 2190      79290D00 
ARM GAS  C:\Users\GRAZIA~1.RAV\AppData\Local\Temp\ccodpSVr.s 			page 61


 2191 103f 00       		.align	2
 2192              	.LC171:
 2193 1040 20205345 		.ascii	"  SET KPP           <kpvalue>  (Sets Pan  Motor PID"
 2193      54204B50 
 2193      50202020 
 2193      20202020 
 2193      20202020 
 2194 1073 204B7029 		.ascii	" Kp)\015\000"
 2194      0D00
 2195 1079 000000   		.align	2
 2196              	.LC172:
 2197 107c 20205345 		.ascii	"  SET KPT           <kpvalue>  (Sets Tilt Motor PID"
 2197      54204B50 
 2197      54202020 
 2197      20202020 
 2197      20202020 
 2198 10af 204B7029 		.ascii	" Kp)\015\000"
 2198      0D00
 2199 10b5 000000   		.align	2
 2200              	.LC173:
 2201 10b8 20205345 		.ascii	"  SET KDP           <kdvalue>  (Sets Pan  Motor PID"
 2201      54204B44 
 2201      50202020 
 2201      20202020 
 2201      20202020 
 2202 10eb 204B6429 		.ascii	" Kd)\015\000"
 2202      0D00
 2203 10f1 000000   		.align	2
 2204              	.LC174:
 2205 10f4 20205345 		.ascii	"  SET KDT           <kdvalue>  (Sets Tilt Motor PID"
 2205      54204B44 
 2205      54202020 
 2205      20202020 
 2205      20202020 
 2206 1127 204B6429 		.ascii	" Kd)\015\000"
 2206      0D00
 2207 112d 000000   		.align	2
 2208              	.LC175:
 2209 1130 20205345 		.ascii	"  SET KIP           <kivalue>  (Sets Pan  Motor PID"
 2209      54204B49 
 2209      50202020 
 2209      20202020 
 2209      20202020 
 2210 1163 204B6929 		.ascii	" Ki)\015\000"
 2210      0D00
 2211 1169 000000   		.align	2
 2212              	.LC176:
 2213 116c 20205345 		.ascii	"  SET KIT           <kivalue>  (Sets Tilt Motor PID"
 2213      54204B49 
 2213      54202020 
 2213      20202020 
 2213      20202020 
 2214 119f 204B6929 		.ascii	" Ki)\015\000"
 2214      0D00
 2215 11a5 000000   		.align	2
 2216              	.LC177:
 2217 11a8 20205345 		.ascii	"  SET KSIP          <ksivalue> (Sets Pan  Motor PID"
ARM GAS  C:\Users\GRAZIA~1.RAV\AppData\Local\Temp\ccodpSVr.s 			page 62


 2217      54204B53 
 2217      49502020 
 2217      20202020 
 2217      20202020 
 2218 11db 204B7369 		.ascii	" Ksi)\015\000"
 2218      290D00
 2219 11e2 0000     		.align	2
 2220              	.LC178:
 2221 11e4 20205345 		.ascii	"  SET KSIT          <ksivalue> (Sets Tilt Motor PID"
 2221      54204B53 
 2221      49542020 
 2221      20202020 
 2221      20202020 
 2222 1217 204B7369 		.ascii	" Ksi)\015\000"
 2222      290D00
 2223 121e 0000     		.align	2
 2224              	.LC179:
 2225 1220 20205345 		.ascii	"  SET L[IMIT]CP     <onoff>    (Sets Pan  Motor Lim"
 2225      54204C5B 
 2225      494D4954 
 2225      5D435020 
 2225      20202020 
 2226 1253 69742043 		.ascii	"it Control)\015\000"
 2226      6F6E7472 
 2226      6F6C290D 
 2226      00
 2227              		.align	2
 2228              	.LC180:
 2229 1260 20205345 		.ascii	"  SET L[IMIT]CT     <onoff>    (Sets Tilt Motor Lim"
 2229      54204C5B 
 2229      494D4954 
 2229      5D435420 
 2229      20202020 
 2230 1293 69742043 		.ascii	"it Control)\015\000"
 2230      6F6E7472 
 2230      6F6C290D 
 2230      00
 2231              		.align	2
 2232              	.LC181:
 2233 12a0 20205345 		.ascii	"  SET INV[ABS]P     <onoff>    (Pan  Absolute Senso"
 2233      5420494E 
 2233      565B4142 
 2233      535D5020 
 2233      20202020 
 2234 12d3 7220496E 		.ascii	"r Invertion)\015\000"
 2234      76657274 
 2234      696F6E29 
 2234      0D00
 2235 12e1 000000   		.align	2
 2236              	.LC182:
 2237 12e4 20205345 		.ascii	"  SET RATIO[ABS]P   <ratio>    (Pan  Absolute Senso"
 2237      54205241 
 2237      54494F5B 
 2237      4142535D 
 2237      50202020 
 2238 1317 72206F76 		.ascii	"r over Encoder Ratio)\015\000"
 2238      65722045 
ARM GAS  C:\Users\GRAZIA~1.RAV\AppData\Local\Temp\ccodpSVr.s 			page 63


 2238      6E636F64 
 2238      65722052 
 2238      6174696F 
 2239 132e 0000     		.align	2
 2240              	.LC183:
 2241 1330 20205345 		.ascii	"  SET Z[EROABS]P               (Pan  Absolute Senso"
 2241      54205A5B 
 2241      45524F41 
 2241      42535D50 
 2241      20202020 
 2242 1363 72205A65 		.ascii	"r Zero calc procedure)\015\000"
 2242      726F2063 
 2242      616C6320 
 2242      70726F63 
 2242      65647572 
 2243 137b 00       		.align	2
 2244              	.LC184:
 2245 137c 20205345 		.ascii	"  SET L[IMIT]MINP              (Pan  Absolute Senso"
 2245      54204C5B 
 2245      494D4954 
 2245      5D4D494E 
 2245      50202020 
 2246 13af 72204C69 		.ascii	"r Limit MIN calc procedure)\015\000"
 2246      6D697420 
 2246      4D494E20 
 2246      63616C63 
 2246      2070726F 
 2247              		.align	2
 2248              	.LC185:
 2249 13cc 20205345 		.ascii	"  SET L[IMIT]MAXP              (Pan  Absolute Senso"
 2249      54204C5B 
 2249      494D4954 
 2249      5D4D4158 
 2249      50202020 
 2250 13ff 72204C69 		.ascii	"r Limit MAX calc procedure)\015\000"
 2250      6D697420 
 2250      4D415820 
 2250      63616C63 
 2250      2070726F 
 2251              		.align	2
 2252              	.LC186:
 2253 141c 20205345 		.ascii	"  SET L[IMIT]HYSTP  <hyst>     (Pan  Absolute Senso"
 2253      54204C5B 
 2253      494D4954 
 2253      5D485953 
 2253      54502020 
 2254 144f 72204C69 		.ascii	"r Limit Hysteresis)\015\000"
 2254      6D697420 
 2254      48797374 
 2254      65726573 
 2254      6973290D 
 2255              		.align	2
 2256              	.LC187:
 2257 1464 20205345 		.ascii	"  SET INV[ABS]T     <onoff>    (Tilt Absolute Senso"
 2257      5420494E 
 2257      565B4142 
 2257      535D5420 
ARM GAS  C:\Users\GRAZIA~1.RAV\AppData\Local\Temp\ccodpSVr.s 			page 64


 2257      20202020 
 2258 1497 7220496E 		.ascii	"r Invertion)\015\000"
 2258      76657274 
 2258      696F6E29 
 2258      0D00
 2259 14a5 000000   		.align	2
 2260              	.LC188:
 2261 14a8 20205345 		.ascii	"  SET RATIO[ABS]T   <ratio>    (Tilt Absolute Senso"
 2261      54205241 
 2261      54494F5B 
 2261      4142535D 
 2261      54202020 
 2262 14db 72206F76 		.ascii	"r over Encoder Ratio)\015\000"
 2262      65722045 
 2262      6E636F64 
 2262      65722052 
 2262      6174696F 
 2263 14f2 0000     		.align	2
 2264              	.LC189:
 2265 14f4 20205345 		.ascii	"  SET Z[EROABS]T               (Tilt Absolute Senso"
 2265      54205A5B 
 2265      45524F41 
 2265      42535D54 
 2265      20202020 
 2266 1527 72205A65 		.ascii	"r Zero calc procedure)\015\000"
 2266      726F2063 
 2266      616C6320 
 2266      70726F63 
 2266      65647572 
 2267 153f 00       		.align	2
 2268              	.LC190:
 2269 1540 20205345 		.ascii	"  SET L[IMIT]MINT              (Tilt Absolute Senso"
 2269      54204C5B 
 2269      494D4954 
 2269      5D4D494E 
 2269      54202020 
 2270 1573 72204C69 		.ascii	"r Limit MIN calc procedure)\015\000"
 2270      6D697420 
 2270      4D494E20 
 2270      63616C63 
 2270      2070726F 
 2271              		.align	2
 2272              	.LC191:
 2273 1590 20205345 		.ascii	"  SET L[IMIT]MAXT              (Tilt Absolute Senso"
 2273      54204C5B 
 2273      494D4954 
 2273      5D4D4158 
 2273      54202020 
 2274 15c3 72204C69 		.ascii	"r Limit MAX calc procedure)\015\000"
 2274      6D697420 
 2274      4D415820 
 2274      63616C63 
 2274      2070726F 
 2275              		.align	2
 2276              	.LC192:
 2277 15e0 20205345 		.ascii	"  SET L[IMIT]HYSTT  <hyst>     (Tilt Absolute Senso"
 2277      54204C5B 
ARM GAS  C:\Users\GRAZIA~1.RAV\AppData\Local\Temp\ccodpSVr.s 			page 65


 2277      494D4954 
 2277      5D485953 
 2277      54542020 
 2278 1613 72204C69 		.ascii	"r Limit Hysteresis)\015\000"
 2278      6D697420 
 2278      48797374 
 2278      65726573 
 2278      6973290D 
 2279              		.align	2
 2280              	.LC193:
 2281 1628 20205345 		.ascii	"  SET Q|SHOT        <qn> <qm>  (Axis positions Q(SH"
 2281      5420517C 
 2281      53484F54 
 2281      20202020 
 2281      20202020 
 2282 165b 4F542920 		.ascii	"OT) number <qn>  into memory <qm>)\015\000"
 2282      6E756D62 
 2282      6572203C 
 2282      716E3E20 
 2282      20696E74 
 2283 167f 00       		.align	2
 2284              	.LC194:
 2285 1680 20205345 		.ascii	"  SET A[NAOUT]AXIS  <axis>     (Analog Output Axis "
 2285      5420415B 
 2285      4E414F55 
 2285      545D4158 
 2285      49532020 
 2286 16b3 53656C65 		.ascii	"Select)\015\000"
 2286      6374290D 
 2286      00
 2287              		.align	2
 2288              	.LC195:
 2289 16bc 20205345 		.ascii	"  SET AS[TIM]TYPE   <astype>   (Motors Autostimolus"
 2289      54204153 
 2289      5B54494D 
 2289      5D545950 
 2289      45202020 
 2290 16ef 20547970 		.ascii	" Type: VOLATILE!)\015\000"
 2290      653A2056 
 2290      4F4C4154 
 2290      494C4521 
 2290      290D00
 2291 1702 0000     		.align	2
 2292              	.LC196:
 2293 1704 20205345 		.ascii	"  SET ASTIMP        <onoff>    (Pan  Motor Autostim"
 2293      54204153 
 2293      54494D50 
 2293      20202020 
 2293      20202020 
 2294 1737 6F6C6F75 		.ascii	"olous on-off: VOLATILE!)\015\000"
 2294      73206F6E 
 2294      2D6F6666 
 2294      3A20564F 
 2294      4C415449 
 2295 1751 000000   		.align	2
 2296              	.LC197:
 2297 1754 20205345 		.ascii	"  SET KOPFP         <kofvalue> (Pan  Motor Autostim"
ARM GAS  C:\Users\GRAZIA~1.RAV\AppData\Local\Temp\ccodpSVr.s 			page 66


 2297      54204B4F 
 2297      50465020 
 2297      20202020 
 2297      20202020 
 2298 1787 6F6C7573 		.ascii	"olus Input Gain)\015\000"
 2298      20496E70 
 2298      75742047 
 2298      61696E29 
 2298      0D00
 2299 1799 000000   		.align	2
 2300              	.LC198:
 2301 179c 20205345 		.ascii	"  SET AGAINP        <anagain>  (Pan  Motor Analog O"
 2301      54204147 
 2301      41494E50 
 2301      20202020 
 2301      20202020 
 2302 17cf 75747075 		.ascii	"utput Gain)\015\000"
 2302      74204761 
 2302      696E290D 
 2302      00
 2303              		.align	2
 2304              	.LC199:
 2305 17dc 20205345 		.ascii	"  SET COLORP        <color>    (Pan  Motor Analog O"
 2305      5420434F 
 2305      4C4F5250 
 2305      20202020 
 2305      20202020 
 2306 180f 75747075 		.ascii	"utput Mux)\015\000"
 2306      74204D75 
 2306      78290D00 
 2307 181b 00       		.align	2
 2308              	.LC200:
 2309 181c 20205345 		.ascii	"  SET ASTIMT        <onoff>    (Tilt Motor Autostim"
 2309      54204153 
 2309      54494D54 
 2309      20202020 
 2309      20202020 
 2310 184f 6F6C6F75 		.ascii	"olous on-off: VOLATILE!)\015\000"
 2310      73206F6E 
 2310      2D6F6666 
 2310      3A20564F 
 2310      4C415449 
 2311 1869 000000   		.align	2
 2312              	.LC201:
 2313 186c 20205345 		.ascii	"  SET KOPFT         <kofvalue> (Tilt Motor Autostim"
 2313      54204B4F 
 2313      50465420 
 2313      20202020 
 2313      20202020 
 2314 189f 6F6C7573 		.ascii	"olus Input Gain)\015\000"
 2314      20496E70 
 2314      75742047 
 2314      61696E29 
 2314      0D00
 2315 18b1 000000   		.align	2
 2316              	.LC202:
 2317 18b4 20205345 		.ascii	"  SET AGAINT        <anagain>  (Tilt Motor Analog O"
ARM GAS  C:\Users\GRAZIA~1.RAV\AppData\Local\Temp\ccodpSVr.s 			page 67


 2317      54204147 
 2317      41494E54 
 2317      20202020 
 2317      20202020 
 2318 18e7 75747075 		.ascii	"utput Gain)\015\000"
 2318      74204761 
 2318      696E290D 
 2318      00
 2319              		.align	2
 2320              	.LC203:
 2321 18f4 20205345 		.ascii	"  SET COLORT        <color>    (Tilt Motor Analog O"
 2321      5420434F 
 2321      4C4F5254 
 2321      20202020 
 2321      20202020 
 2322 1927 75747075 		.ascii	"utput Mux)\015\000"
 2322      74204D75 
 2322      78290D00 
 2323 1933 00       		.align	2
 2324              	.LC204:
 2325 1934 20205345 		.ascii	"  SET GAMMA         <avalue>   (IMU Euler Angles Lo"
 2325      54204741 
 2325      4D4D4120 
 2325      20202020 
 2325      20202020 
 2326 1967 77205061 		.ascii	"w Pass Filter)\015\000"
 2326      73732046 
 2326      696C7465 
 2326      72290D00 
 2327 1977 00       		.align	2
 2328              	.LC205:
 2329 1978 20205345 		.ascii	"  SET IMU[INV]Y[AW] <onoff>    (IMU Yaw   Euler Ang"
 2329      5420494D 
 2329      555B494E 
 2329      565D595B 
 2329      41575D20 
 2330 19ab 6C652049 		.ascii	"le Invertion)\015\000"
 2330      6E766572 
 2330      74696F6E 
 2330      290D00
 2331 19ba 0000     		.align	2
 2332              	.LC206:
 2333 19bc 20205345 		.ascii	"  SET IMU[INV]P[ITCH]<onoff>   (IMU Pitch Euler Ang"
 2333      5420494D 
 2333      555B494E 
 2333      565D505B 
 2333      49544348 
 2334 19ef 6C652049 		.ascii	"le Invertion)\015\000"
 2334      6E766572 
 2334      74696F6E 
 2334      290D00
 2335 19fe 0000     		.align	2
 2336              	.LC207:
 2337 1a00 20205345 		.ascii	"  SET IMU[INV]R[OLL] <onoff>   (IMU Roll  Euler Ang"
 2337      5420494D 
 2337      555B494E 
 2337      565D525B 
ARM GAS  C:\Users\GRAZIA~1.RAV\AppData\Local\Temp\ccodpSVr.s 			page 68


 2337      4F4C4C5D 
 2338 1a33 6C652049 		.ascii	"le Invertion)\015\000"
 2338      6E766572 
 2338      74696F6E 
 2338      290D00
 2339 1a42 0000     		.align	2
 2340              	.LC208:
 2341 1a44 20205345 		.ascii	"  SET PREX[CHANGE]  <onoff>    (IMU Pitch-Roll Eule"
 2341      54205052 
 2341      45585B43 
 2341      48414E47 
 2341      455D2020 
 2342 1a77 7220416E 		.ascii	"r Angle Exchange)\015\000"
 2342      676C6520 
 2342      45786368 
 2342      616E6765 
 2342      290D00
 2343 1a8a 0000     		.align	2
 2344              	.LC209:
 2345 1a8c 20205345 		.ascii	"  SET BETA          <avalue>   (Analog Acceleromete"
 2345      54204245 
 2345      54412020 
 2345      20202020 
 2345      20202020 
 2346 1abf 72204C6F 		.ascii	"r Low Pass Filter)\015\000"
 2346      77205061 
 2346      73732046 
 2346      696C7465 
 2346      72290D00 
 2347 1ad3 00       		.align	2
 2348              	.LC210:
 2349 1ad4 20205345 		.ascii	"  SET AACXOF[FSET]  <offset>   (Analog Acceleromete"
 2349      54204141 
 2349      43584F46 
 2349      5B465345 
 2349      545D2020 
 2350 1b07 72204178 		.ascii	"r Axis X ADC Offset)\015\000"
 2350      69732058 
 2350      20414443 
 2350      204F6666 
 2350      73657429 
 2351 1b1d 000000   		.align	2
 2352              	.LC211:
 2353 1b20 20205345 		.ascii	"  SET AACYOF[FSET]  <offset>   (Analog Acceleromete"
 2353      54204141 
 2353      43594F46 
 2353      5B465345 
 2353      545D2020 
 2354 1b53 72204178 		.ascii	"r Axis Y ADC Offset)\015\000"
 2354      69732059 
 2354      20414443 
 2354      204F6666 
 2354      73657429 
 2355 1b69 000000   		.align	2
 2356              	.LC212:
 2357 1b6c 20205345 		.ascii	"  SET AACZOF[FSET]  <offset>   (Analog Acceleromete"
 2357      54204141 
ARM GAS  C:\Users\GRAZIA~1.RAV\AppData\Local\Temp\ccodpSVr.s 			page 69


 2357      435A4F46 
 2357      5B465345 
 2357      545D2020 
 2358 1b9f 72204178 		.ascii	"r Axis Z ADC Offset)\015\000"
 2358      6973205A 
 2358      20414443 
 2358      204F6666 
 2358      73657429 
 2359 1bb5 000000   		.align	2
 2360              	.LC213:
 2361 1bb8 20205345 		.ascii	"  SET JUMPTH        <avalue>   (EVENT PARAMETER: Ju"
 2361      54204A55 
 2361      4D505448 
 2361      20202020 
 2361      20202020 
 2362 1beb 6D702047 		.ascii	"mp G Threshold)\015\000"
 2362      20546872 
 2362      6573686F 
 2362      6C64290D 
 2362      00
 2363              		.align	2
 2364              	.LC214:
 2365 1bfc 20205345 		.ascii	"  SET ACCTH         <avalue>   (EVENT PARAMETER: Ac"
 2365      54204143 
 2365      43544820 
 2365      20202020 
 2365      20202020 
 2366 1c2f 63656C65 		.ascii	"celeration G Threshold)\015\000"
 2366      72617469 
 2366      6F6E2047 
 2366      20546872 
 2366      6573686F 
 2367              		.align	2
 2368              	.LC215:
 2369 1c48 20205345 		.ascii	"  SET DIR[ECTOR]    <director> (Director Style)\015"
 2369      54204449 
 2369      525B4543 
 2369      544F525D 
 2369      20202020 
 2370 1c78 00       		.ascii	"\000"
 2371 1c79 000000   		.align	2
 2372              	.LC216:
 2373 1c7c 20205345 		.ascii	"  SET MODE          <mode>     (Machine Mode)\015\000"
 2373      54204D4F 
 2373      44452020 
 2373      20202020 
 2373      20202020 
 2374 1cab 00       		.align	2
 2375              	.LC217:
 2376 1cac 20203C70 		.ascii	"  <polarity>   = 0..1 [true | invert]\015\000"
 2376      6F6C6172 
 2376      6974793E 
 2376      2020203D 
 2376      20302E2E 
 2377 1cd3 00       		.align	2
 2378              	.LC218:
 2379 1cd4 20203C6B 		.ascii	"  <kpvalue>    = 0..100     (float n.m)\015\000"
ARM GAS  C:\Users\GRAZIA~1.RAV\AppData\Local\Temp\ccodpSVr.s 			page 70


 2379      7076616C 
 2379      75653E20 
 2379      2020203D 
 2379      20302E2E 
 2380 1cfd 000000   		.align	2
 2381              	.LC219:
 2382 1d00 20203C6B 		.ascii	"  <kdvalue>    = 0..1000    (float n.m)\015\000"
 2382      6476616C 
 2382      75653E20 
 2382      2020203D 
 2382      20302E2E 
 2383 1d29 000000   		.align	2
 2384              	.LC220:
 2385 1d2c 20203C6B 		.ascii	"  <kivalue>    = 0..100     (float n.m)\015\000"
 2385      6976616C 
 2385      75653E20 
 2385      2020203D 
 2385      20302E2E 
 2386 1d55 000000   		.align	2
 2387              	.LC221:
 2388 1d58 20203C6B 		.ascii	"  <ksivalue>   = 0..1000000 (float n.m)\015\000"
 2388      73697661 
 2388      6C75653E 
 2388      2020203D 
 2388      20302E2E 
 2389 1d81 000000   		.align	2
 2390              	.LC222:
 2391 1d84 20203C64 		.ascii	"  <dbvalue>    = 0..1000    (float n.m)\015\000"
 2391      6276616C 
 2391      75653E20 
 2391      2020203D 
 2391      20302E2E 
 2392 1dad 000000   		.align	2
 2393              	.LC223:
 2394 1db0 20203C6B 		.ascii	"  <kofvalue>   = 0..10      (float n.m)\015\000"
 2394      6F667661 
 2394      6C75653E 
 2394      2020203D 
 2394      20302E2E 
 2395 1dd9 000000   		.align	2
 2396              	.LC224:
 2397 1ddc 20203C61 		.ascii	"  <anagain>    = -1000..1000  (float n.m)\015\000"
 2397      6E616761 
 2397      696E3E20 
 2397      2020203D 
 2397      202D3130 
 2398 1e07 00       		.align	2
 2399              	.LC225:
 2400 1e08 20203C61 		.ascii	"  <astype>     = 0(no astim), 1(sine), 2(triangle),"
 2400      73747970 
 2400      653E2020 
 2400      2020203D 
 2400      2030286E 
 2401 1e3b 20332873 		.ascii	" 3(square)\015\000"
 2401      71756172 
 2401      65290D00 
 2402 1e47 00       		.align	2
ARM GAS  C:\Users\GRAZIA~1.RAV\AppData\Local\Temp\ccodpSVr.s 			page 71


 2403              	.LC226:
 2404 1e48 20203C63 		.ascii	"  <color>      = 0(gyro rate), 1(enc pos), 2(enc ve"
 2404      6F6C6F72 
 2404      3E202020 
 2404      2020203D 
 2404      20302867 
 2405 1e7b 6C292C20 		.ascii	"l), 3(astim), 4(e(t)), 5(d_e(t)/dt),\015\000"
 2405      33286173 
 2405      74696D29 
 2405      2C203428 
 2405      65287429 
 2406 1ea1 000000   		.align	2
 2407              	.LC227:
 2408 1ea4 20202020 		.ascii	"                 6(int_e(t)), 7(Ki*int_e(t)), 8(cv("
 2408      20202020 
 2408      20202020 
 2408      20202020 
 2408      20362869 
 2409 1ed7 7429290D 		.ascii	"t))\015\000"
 2409      00
 2410              		.align	2
 2411              	.LC228:
 2412 1edc 20203C61 		.ascii	"  <axis>       = [PAN | TILT]\015\000"
 2412      7869733E 
 2412      20202020 
 2412      2020203D 
 2412      205B5041 
 2413 1efb 00       		.align	2
 2414              	.LC229:
 2415 1efc 20203C61 		.ascii	"  <avalue>     = 0 .. 1 (float n.m)\015\000"
 2415      76616C75 
 2415      653E2020 
 2415      2020203D 
 2415      2030202E 
 2416 1f21 000000   		.align	2
 2417              	.LC230:
 2418 1f24 20203C6F 		.ascii	"  <onoff>      = 0 .. 1 [off | on]\015\000"
 2418      6E6F6666 
 2418      3E202020 
 2418      2020203D 
 2418      2030202E 
 2419              		.align	2
 2420              	.LC231:
 2421 1f48 20203C6D 		.ascii	"  <mode>       = 0(REMOTE CONTROL), 1(DIRECTOR)\015"
 2421      6F64653E 
 2421      20202020 
 2421      2020203D 
 2421      20302852 
 2422 1f78 00       		.ascii	"\000"
 2423 1f79 000000   		.align	2
 2424              	.LC232:
 2425 1f7c 20203C71 		.ascii	"  <qn>         = 0..99\015\000"
 2425      6E3E2020 
 2425      20202020 
 2425      2020203D 
 2425      20302E2E 
 2426              		.align	2
ARM GAS  C:\Users\GRAZIA~1.RAV\AppData\Local\Temp\ccodpSVr.s 			page 72


 2427              	.LC233:
 2428 1f94 20203C71 		.ascii	"  <qm>         = 0..32 (\"clear\" or \"c\" to clear"
 2428      6D3E2020 
 2428      20202020 
 2428      2020203D 
 2428      20302E2E 
 2429 1fc3 2051206D 		.ascii	" Q memory)\015\000"
 2429      656D6F72 
 2429      79290D00 
 2430 1fcf 00       		.align	2
 2431              	.LC234:
 2432 1fd0 20203C64 		.ascii	"  <director>   = 0(Kubrick), 1(Hitchcock), 2(De Pal"
 2432      69726563 
 2432      746F723E 
 2432      2020203D 
 2432      2030284B 
 2433 2003 6D61292C 		.ascii	"ma), 3(Chaplin), 4(Linch), 5(Coppola)\015\000"
 2433      20332843 
 2433      6861706C 
 2433      696E292C 
 2433      2034284C 
 2434 202a 0000     		.align	2
 2435              	.LC235:
 2436 202c 20202020 		.ascii	"                 6(Scorsese), 7(Tarantino), 8(Scott"
 2436      20202020 
 2436      20202020 
 2436      20202020 
 2436      20362853 
 2437 205f 292C2039 		.ascii	"), 9(Leone), 10(Spielberg), 11(Burton)\015\000"
 2437      284C656F 
 2437      6E65292C 
 2437      20313028 
 2437      53706965 
 2438 2087 00       		.align	2
 2439              	.LC236:
 2440 2088 20202020 		.ascii	"                 12(Craven), 13(Fellini), 14(Ford),"
 2440      20202020 
 2440      20202020 
 2440      20202020 
 2440      20313228 
 2441 20bb 20313528 		.ascii	" 15(Nolan), 16(Del Toro), 17(Lucas), 18(Abrams)\015"
 2441      4E6F6C61 
 2441      6E292C20 
 2441      31362844 
 2441      656C2054 
 2442 20eb 00       		.ascii	"\000"
 2443              		.align	2
 2444              	.LC237:
 2445 20ec 73686F77 		.ascii	"show\000"
 2445      00
 2446 20f1 000000   		.align	2
 2447              	.LC238:
 2448 20f4 20205348 		.ascii	"  SHOW [P | PARAMS]      (All GoBee Parameters)\015"
 2448      4F57205B 
 2448      50207C20 
 2448      50415241 
 2448      4D535D20 
ARM GAS  C:\Users\GRAZIA~1.RAV\AppData\Local\Temp\ccodpSVr.s 			page 73


 2449 2124 00       		.ascii	"\000"
 2450 2125 000000   		.align	2
 2451              	.LC239:
 2452 2128 20204641 		.ascii	"  FAULT[S]               (System Faults or Warnings"
 2452      554C545B 
 2452      535D2020 
 2452      20202020 
 2452      20202020 
 2453 215b 290D00   		.ascii	")\015\000"
 2454 215e 0000     		.align	2
 2455              	.LC240:
 2456 2160 20205348 		.ascii	"  SHOW BUT[TON]          (SW1 pushbutton state) \015"
 2456      4F572042 
 2456      55545B54 
 2456      4F4E5D20 
 2456      20202020 
 2457 2191 00       		.ascii	"\000"
 2458 2192 0000     		.align	2
 2459              	.LC241:
 2460 2194 20205348 		.ascii	"  SHOW ANA[LOGS]         (Analog Inputs as sampled "
 2460      4F572041 
 2460      4E415B4C 
 2460      4F47535D 
 2460      20202020 
 2461 21c7 62792041 		.ascii	"by ADC)\015\000"
 2461      4443290D 
 2461      00
 2462              		.align	2
 2463              	.LC242:
 2464 21d0 20205348 		.ascii	"  SHOW A[NALOG]ACC       (Bike Frame Analog Acceler"
 2464      4F572041 
 2464      5B4E414C 
 2464      4F475D41 
 2464      43432020 
 2465 2203 6F6D6574 		.ascii	"ometer Values)\015\000"
 2465      65722056 
 2465      616C7565 
 2465      73290D00 
 2466 2213 00       		.align	2
 2467              	.LC243:
 2468 2214 20205348 		.ascii	"  SHOW BIKE[ANGLES]      (BIKE Frame Euler Angles)\015"
 2468      4F572042 
 2468      494B455B 
 2468      414E474C 
 2468      45535D20 
 2469 2247 00       		.ascii	"\000"
 2470              		.align	2
 2471              	.LC244:
 2472 2248 20205348 		.ascii	"  SHOW S[YS]DYN          (Real Time System Dynamic "
 2472      4F572053 
 2472      5B59535D 
 2472      44594E20 
 2472      20202020 
 2473 227b 5363616C 		.ascii	"Scalar Value)\015\000"
 2473      61722056 
 2473      616C7565 
 2473      290D00
ARM GAS  C:\Users\GRAZIA~1.RAV\AppData\Local\Temp\ccodpSVr.s 			page 74


 2474 228a 0000     		.align	2
 2475              	.LC245:
 2476 228c 20205348 		.ascii	"  SHOW POS[ITION]        (Real Time relative and ab"
 2476      4F572050 
 2476      4F535B49 
 2476      54494F4E 
 2476      5D202020 
 2477 22bf 736F6C75 		.ascii	"solute position Values)\015\000"
 2477      74652070 
 2477      6F736974 
 2477      696F6E20 
 2477      56616C75 
 2478              		.align	2
 2479              	.LC246:
 2480 22d8 20205348 		.ascii	"  SHOW ENCF[BK]          (Real Time Feedback Encode"
 2480      4F572045 
 2480      4E43465B 
 2480      424B5D20 
 2480      20202020 
 2481 230b 7273290D 		.ascii	"rs)\015\000"
 2481      00
 2482              		.align	2
 2483              	.LC247:
 2484 2310 20205348 		.ascii	"  SHOW P[AN]LIM[ITS]     (Real Time Pan  Limits Ela"
 2484      4F572050 
 2484      5B414E5D 
 2484      4C494D5B 
 2484      4954535D 
 2485 2343 626F7261 		.ascii	"boration)\015\000"
 2485      74696F6E 
 2485      290D00
 2486 234e 0000     		.align	2
 2487              	.LC248:
 2488 2350 20205348 		.ascii	"  SHOW T[ILT]LIM[ITS]    (Real Time Tilt Limits Ela"
 2488      4F572054 
 2488      5B494C54 
 2488      5D4C494D 
 2488      5B495453 
 2489 2383 626F7261 		.ascii	"boration)\015\000"
 2489      74696F6E 
 2489      290D00
 2490 238e 0000     		.align	2
 2491              	.LC249:
 2492 2390 20205348 		.ascii	"  SHOW RATIO[ABS]P       (Pan  Encoder-Absolute Sen"
 2492      4F572052 
 2492      4154494F 
 2492      5B414253 
 2492      5D502020 
 2493 23c3 736F7220 		.ascii	"sor ratio r=reset; s=set; e=save)\015\000"
 2493      72617469 
 2493      6F20723D 
 2493      72657365 
 2493      743B2073 
 2494 23e6 0000     		.align	2
 2495              	.LC250:
 2496 23e8 20205348 		.ascii	"  SHOW RATIO[ABS]T       (Tilt Encoder-Absolute Sen"
 2496      4F572052 
ARM GAS  C:\Users\GRAZIA~1.RAV\AppData\Local\Temp\ccodpSVr.s 			page 75


 2496      4154494F 
 2496      5B414253 
 2496      5D542020 
 2497 241b 736F7220 		.ascii	"sor ratio r=reset; s=set; e=save)\015\000"
 2497      72617469 
 2497      6F20723D 
 2497      72657365 
 2497      743B2073 
 2498 243e 0000     		.align	2
 2499              	.LC251:
 2500 2440 20205348 		.ascii	"  SHOW PABS[STATS]       (Pan  Absolute Sensor Stat"
 2500      4F572050 
 2500      4142535B 
 2500      53544154 
 2500      535D2020 
 2501 2473 69737469 		.ascii	"istics results)\015\000"
 2501      63732072 
 2501      6573756C 
 2501      7473290D 
 2501      00
 2502              		.align	2
 2503              	.LC252:
 2504 2484 20205348 		.ascii	"  SHOW TABS[STATS]       (Tilt Absolute Sensor Stat"
 2504      4F572054 
 2504      4142535B 
 2504      53544154 
 2504      535D2020 
 2505 24b7 69737469 		.ascii	"istics results)\015\000"
 2505      63732072 
 2505      6573756C 
 2505      7473290D 
 2505      00
 2506              		.align	2
 2507              	.LC253:
 2508 24c8 20205348 		.ascii	"  SHOW MOT[ORSTATUS]     (Motor Status - Current OK"
 2508      4F57204D 
 2508      4F545B4F 
 2508      52535441 
 2508      5455535D 
 2509 24fb 206F7220 		.ascii	" or PEAK)\015\000"
 2509      5045414B 
 2509      290D00
 2510 2506 0000     		.align	2
 2511              	.LC254:
 2512 2508 20205348 		.ascii	"  SHOW CURRENT|I         (Motor Currents [mA])\015\000"
 2512      4F572043 
 2512      55525245 
 2512      4E547C49 
 2512      20202020 
 2513              		.align	2
 2514              	.LC255:
 2515 2538 20205348 		.ascii	"  SHOW PMT[ORQUE]        (Real Time Pan  Motor  Tor"
 2515      4F572050 
 2515      4D545B4F 
 2515      52515545 
 2515      5D202020 
 2516 256b 71756520 		.ascii	"que Statistics)\015\000"
ARM GAS  C:\Users\GRAZIA~1.RAV\AppData\Local\Temp\ccodpSVr.s 			page 76


 2516      53746174 
 2516      69737469 
 2516      6373290D 
 2516      00
 2517              		.align	2
 2518              	.LC256:
 2519 257c 20205348 		.ascii	"  SHOW POT[ORQUE]        (Real Time Pan  Output Tor"
 2519      4F572050 
 2519      4F545B4F 
 2519      52515545 
 2519      5D202020 
 2520 25af 71756520 		.ascii	"que Statistics)\015\000"
 2520      53746174 
 2520      69737469 
 2520      6373290D 
 2520      00
 2521              		.align	2
 2522              	.LC257:
 2523 25c0 20205348 		.ascii	"  SHOW PMP[OWER]         (Real Time Pan  Motor  Ero"
 2523      4F572050 
 2523      4D505B4F 
 2523      5745525D 
 2523      20202020 
 2524 25f3 67617465 		.ascii	"gated Power Statistics)\015\000"
 2524      6420506F 
 2524      77657220 
 2524      53746174 
 2524      69737469 
 2525              		.align	2
 2526              	.LC258:
 2527 260c 20205348 		.ascii	"  SHOW TMT[ORQUE]        (Real Time Tilt Motor  Tor"
 2527      4F572054 
 2527      4D545B4F 
 2527      52515545 
 2527      5D202020 
 2528 263f 71756520 		.ascii	"que Statistics)\015\000"
 2528      53746174 
 2528      69737469 
 2528      6373290D 
 2528      00
 2529              		.align	2
 2530              	.LC259:
 2531 2650 20205348 		.ascii	"  SHOW TOT[ORQUE]        (Real Time Tilt Output Tor"
 2531      4F572054 
 2531      4F545B4F 
 2531      52515545 
 2531      5D202020 
 2532 2683 71756520 		.ascii	"que Statistics)\015\000"
 2532      53746174 
 2532      69737469 
 2532      6373290D 
 2532      00
 2533              		.align	2
 2534              	.LC260:
 2535 2694 20205348 		.ascii	"  SHOW TMP[OWER]         (Real Time Tilt Motor  Ero"
 2535      4F572054 
 2535      4D505B4F 
ARM GAS  C:\Users\GRAZIA~1.RAV\AppData\Local\Temp\ccodpSVr.s 			page 77


 2535      5745525D 
 2535      20202020 
 2536 26c7 67617465 		.ascii	"gated Power Statistics)\015\000"
 2536      6420506F 
 2536      77657220 
 2536      53746174 
 2536      69737469 
 2537              		.align	2
 2538              	.LC261:
 2539 26e0 20205348 		.ascii	"  SHOW VCC               (Input Power Voltage)\015\000"
 2539      4F572056 
 2539      43432020 
 2539      20202020 
 2539      20202020 
 2540              		.align	2
 2541              	.LC262:
 2542 2710 20205348 		.ascii	"  SHOW [CONTROL|CTRL]    (Real Time Control Loop Va"
 2542      4F57205B 
 2542      434F4E54 
 2542      524F4C7C 
 2542      4354524C 
 2543 2743 6C756573 		.ascii	"lues)\015\000"
 2543      290D00
 2544 274a 0000     		.align	2
 2545              	.LC263:
 2546 274c 20205348 		.ascii	"  SHOW ASTIM             (Real Time Autostimolus Va"
 2546      4F572041 
 2546      5354494D 
 2546      20202020 
 2546      20202020 
 2547 277f 6C756573 		.ascii	"lues)\015\000"
 2547      290D00
 2548 2786 0000     		.align	2
 2549              	.LC264:
 2550 2788 20205348 		.ascii	"  SHOW PA[TH]  <n>       (Path Trapezoid Values [n="
 2550      4F572050 
 2550      415B5448 
 2550      5D20203C 
 2550      6E3E2020 
 2551 27bb 302E2E31 		.ascii	"0..15])\015\000"
 2551      355D290D 
 2551      00
 2552              		.align	2
 2553              	.LC265:
 2554 27c4 20205348 		.ascii	"  SHOW MOV[ER] <n>       (Rendering Values of Path "
 2554      4F57204D 
 2554      4F565B45 
 2554      525D203C 
 2554      6E3E2020 
 2555 27f7 6E205B6E 		.ascii	"n [n=0..15])\015\000"
 2555      3D302E2E 
 2555      31355D29 
 2555      0D00
 2556 2805 000000   		.align	2
 2557              	.LC266:
 2558 2808 20205348 		.ascii	"  SHOW MOVERS            (Real time Pan and Tilt Mo"
 2558      4F57204D 
ARM GAS  C:\Users\GRAZIA~1.RAV\AppData\Local\Temp\ccodpSVr.s 			page 78


 2558      4F564552 
 2558      53202020 
 2558      20202020 
 2559 283b 76657273 		.ascii	"vers Values)\015\000"
 2559      2056616C 
 2559      75657329 
 2559      0D00
 2560 2849 000000   		.align	2
 2561              	.LC267:
 2562 284c 20205348 		.ascii	"  SHOW CLU     <clu_num> (CLU GML definition [clu_n"
 2562      4F572043 
 2562      4C552020 
 2562      2020203C 
 2562      636C755F 
 2563 287f 756D3D30 		.ascii	"um=0..49])\015\000"
 2563      2E2E3439 
 2563      5D290D00 
 2564 288b 00       		.align	2
 2565              	.LC268:
 2566 288c 20205348 		.ascii	"  SHOW Q|SHOT  <n>       (Axis positions Q(SHOT) nu"
 2566      4F572051 
 2566      7C53484F 
 2566      5420203C 
 2566      6E3E2020 
 2567 28bf 6D626572 		.ascii	"mber <n> or <all>)\015\000"
 2567      203C6E3E 
 2567      206F7220 
 2567      3C616C6C 
 2567      3E290D00 
 2568 28d3 00       		.align	2
 2569              	.LC269:
 2570 28d4 20205348 		.ascii	"  SHOW CLUSM             (CLU Execution State Machi"
 2570      4F572043 
 2570      4C55534D 
 2570      20202020 
 2570      20202020 
 2571 2907 6E65290D 		.ascii	"ne)\015\000"
 2571      00
 2572              		.align	2
 2573              	.LC270:
 2574 290c 20205348 		.ascii	"  SHOW [EVENTS|MAPSM]    (Events & Director's Mappi"
 2574      4F57205B 
 2574      4556454E 
 2574      54537C4D 
 2574      4150534D 
 2575 293f 6E672053 		.ascii	"ng State Machine)\015\000"
 2575      74617465 
 2575      204D6163 
 2575      68696E65 
 2575      290D00
 2576 2952 0000     		.align	2
 2577              	.LC271:
 2578 2954 20202870 		.ascii	"  (press anykey to stop flushing)\015\000"
 2578      72657373 
 2578      20616E79 
 2578      6B657920 
 2578      746F2073 
ARM GAS  C:\Users\GRAZIA~1.RAV\AppData\Local\Temp\ccodpSVr.s 			page 79


 2579 2977 00       		.align	2
 2580              	.LC272:
 2581 2978 7100     		.ascii	"q\000"
 2582 297a 0000     		.align	2
 2583              	.LC273:
 2584 297c 51202873 		.ascii	"Q (shot) Table\015\000"
 2584      686F7429 
 2584      20546162 
 2584      6C650D00 
 2585              		.align	2
 2586              	.LC274:
 2587 298c 2D2D2D2D 		.ascii	"--------------\015\000"
 2587      2D2D2D2D 
 2587      2D2D2D2D 
 2587      2D2D0D00 
 2588              		.align	2
 2589              	.LC275:
 2590 299c 5130303A 		.ascii	"Q00: origin\015\000"
 2590      206F7269 
 2590      67696E0D 
 2590      00
 2591 29a9 000000   		.align	2
 2592              	.LC276:
 2593 29ac 5131313A 		.ascii	"Q11: face\015\000"
 2593      20666163 
 2593      650D00
 2594 29b7 00       		.align	2
 2595              	.LC277:
 2596 29b8 5131333A 		.ascii	"Q13: legs\015\000"
 2596      206C6567 
 2596      730D00
 2597 29c3 00       		.align	2
 2598              	.LC278:
 2599 29c4 5131343A 		.ascii	"Q14: hand dx\015\000"
 2599      2068616E 
 2599      64206478 
 2599      0D00
 2600 29d2 0000     		.align	2
 2601              	.LC279:
 2602 29d4 5131353A 		.ascii	"Q15: hand sx\015\000"
 2602      2068616E 
 2602      64207378 
 2602      0D00
 2603 29e2 0000     		.align	2
 2604              	.LC280:
 2605 29e4 5131363A 		.ascii	"Q16: pedal dx\015\000"
 2605      20706564 
 2605      616C2064 
 2605      780D00
 2606 29f3 00       		.align	2
 2607              	.LC281:
 2608 29f4 5131373A 		.ascii	"Q17: pedal sx\015\000"
 2608      20706564 
 2608      616C2073 
 2608      780D00
 2609 2a03 00       		.align	2
 2610              	.LC282:
ARM GAS  C:\Users\GRAZIA~1.RAV\AppData\Local\Temp\ccodpSVr.s 			page 80


 2611 2a04 5132313A 		.ascii	"Q21: wheel\015\000"
 2611      20776865 
 2611      656C0D00 
 2612              		.align	2
 2613              	.LC283:
 2614 2a10 5133313A 		.ascii	"Q31: road\015\000"
 2614      20726F61 
 2614      640D00
 2615 2a1b 00       		.align	2
 2616              	.LC284:
 2617 2a1c 5133333A 		.ascii	"Q33: road side dx\015\000"
 2617      20726F61 
 2617      64207369 
 2617      64652064 
 2617      780D00
 2618 2a2f 00       		.align	2
 2619              	.LC285:
 2620 2a30 5133343A 		.ascii	"Q34: road side sx\015\000"
 2620      20726F61 
 2620      64207369 
 2620      64652073 
 2620      780D00
 2621 2a43 00       		.align	2
 2622              	.LC286:
 2623 2a44 5134303A 		.ascii	"Q40: panorama front\015\000"
 2623      2070616E 
 2623      6F72616D 
 2623      61206672 
 2623      6F6E740D 
 2624 2a59 000000   		.align	2
 2625              	.LC287:
 2626 2a5c 5134313A 		.ascii	"Q41: panorama dx\015\000"
 2626      2070616E 
 2626      6F72616D 
 2626      61206478 
 2626      0D00
 2627 2a6e 0000     		.align	2
 2628              	.LC288:
 2629 2a70 5134323A 		.ascii	"Q42: panorama sx\015\000"
 2629      2070616E 
 2629      6F72616D 
 2629      61207378 
 2629      0D00
 2630 2a82 0000     		.align	2
 2631              	.LC289:
 2632 2a84 5134333A 		.ascii	"Q43: panorama dx rear\015\000"
 2632      2070616E 
 2632      6F72616D 
 2632      61206478 
 2632      20726561 
 2633 2a9b 00       		.align	2
 2634              	.LC290:
 2635 2a9c 5134343A 		.ascii	"Q44: panorama sx rear\015\000"
 2635      2070616E 
 2635      6F72616D 
 2635      61207378 
 2635      20726561 
ARM GAS  C:\Users\GRAZIA~1.RAV\AppData\Local\Temp\ccodpSVr.s 			page 81


 2636 2ab3 00       		.align	2
 2637              	.LC291:
 2638 2ab4 5135313A 		.ascii	"Q51: sky\015\000"
 2638      20736B79 
 2638      0D00
 2639 2abe 0000     		.align	2
 2640              	.LC292:
 2641 2ac0 5135323A 		.ascii	"Q52: sky sx\015\000"
 2641      20736B79 
 2641      2073780D 
 2641      00
 2642 2acd 000000   		.align	2
 2643              	.LC293:
 2644 2ad0 5135333A 		.ascii	"Q53: sky dx\015\000"
 2644      20736B79 
 2644      2064780D 
 2644      00
 2645 2add 000000   		.align	2
 2646              	.LC294:
 2647 2ae0 74657374 		.ascii	"testdac\000"
 2647      64616300 
 2648              		.align	2
 2649              	.LC295:
 2650 2ae8 54455354 		.ascii	"TESTDAC: tests STEER DAC OUTPUT\015\000"
 2650      4441433A 
 2650      20746573 
 2650      74732053 
 2650      54454552 
 2651 2b09 000000   		.align	2
 2652              	.LC296:
 2653 2b0c 20205445 		.ascii	"  TESTDAC\015\000"
 2653      53544441 
 2653      430D00
 2654 2b17 00       		.align	2
 2655              	.LC297:
 2656 2b18 20205052 		.ascii	"  PROMPT\015\000"
 2656      4F4D5054 
 2656      0D00
 2657 2b22 0000     		.align	2
 2658              	.LC298:
 2659 2b24 20205645 		.ascii	"  VERSION\015\000"
 2659      5253494F 
 2659      4E0D00
 2660 2b2f 00       		.align	2
 2661              	.LC299:
 2662 2b30 2020560D 		.ascii	"  V\015\000"
 2662      00
 2663 2b35 000000   		.align	2
 2664              	.LC300:
 2665 2b38 23455252 		.ascii	"#ERROR3: Bad parameter(s)!\000"
 2665      4F52333A 
 2665      20426164 
 2665      20706172 
 2665      616D6574 
 2666 2b53 00       		.align	2
 2667              	.LC301:
 2668 2b54 7300     		.ascii	"s\000"
ARM GAS  C:\Users\GRAZIA~1.RAV\AppData\Local\Temp\ccodpSVr.s 			page 82


 2669 2b56 0000     		.align	2
 2670              	.LC302:
 2671 2b58 636F6E74 		.ascii	"control\000"
 2671      726F6C00 
 2672              		.align	2
 2673              	.LC303:
 2674 2b60 6374726C 		.ascii	"ctrl\000"
 2674      00
 2675 2b65 000000   		.align	2
 2676              	.LC304:
 2677 2b68 1B5B324A 		.ascii	"\033[2J\000"
 2677      00
 2678 2b6d 000000   		.align	2
 2679              	.LC305:
 2680 2b70 1B5B4800 		.ascii	"\033[H\000"
 2681              		.align	2
 2682              	.LC306:
 2683 2b74 2D2D2D2D 		.ascii	"---------------------------------\015\000"
 2683      2D2D2D2D 
 2683      2D2D2D2D 
 2683      2D2D2D2D 
 2683      2D2D2D2D 
 2684 2b97 00       		.align	2
 2685              	.LC307:
 2686 2b98 2D2D2D20 		.ascii	"--- GoBee Director RT CONTROL ---\015\000"
 2686      476F4265 
 2686      65204469 
 2686      72656374 
 2686      6F722052 
 2687 2bbb 00       		.align	2
 2688              	.LC308:
 2689 2bbc 61786973 		.ascii	"axis_res(P)=%+1.3f [step/2PI]\000"
 2689      5F726573 
 2689      2850293D 
 2689      252B312E 
 2689      3366205B 
 2690 2bda 0000     		.align	2
 2691              	.LC309:
 2692 2bdc 61786973 		.ascii	"axis_res(T)=%+1.3f [step/2PI]\000"
 2692      5F726573 
 2692      2854293D 
 2692      252B312E 
 2692      3366205B 
 2693              		.global	__aeabi_i2f
 2694 2bfa 0000     		.align	2
 2695              	.LC310:
 2696 2bfc 616E676C 		.ascii	"angle(P)=%+1.4f [deg]\000"
 2696      65285029 
 2696      3D252B31 
 2696      2E346620 
 2696      5B646567 
 2697 2c12 0000     		.align	2
 2698              	.LC311:
 2699 2c14 616E676C 		.ascii	"angle(T)=%+1.4f [deg]\000"
 2699      65285429 
 2699      3D252B31 
 2699      2E346620 
ARM GAS  C:\Users\GRAZIA~1.RAV\AppData\Local\Temp\ccodpSVr.s 			page 83


 2699      5B646567 
 2700 2c2a 0000     		.align	2
 2701              	.LC312:
 2702 2c2c 66626B28 		.ascii	"fbk(P)=%+1.4f [step]\000"
 2702      50293D25 
 2702      2B312E34 
 2702      66205B73 
 2702      7465705D 
 2703 2c41 000000   		.align	2
 2704              	.LC313:
 2705 2c44 66626B28 		.ascii	"fbk(T)=%+1.4f [step]\000"
 2705      54293D25 
 2705      2B312E34 
 2705      66205B73 
 2705      7465705D 
 2706 2c59 000000   		.align	2
 2707              	.LC314:
 2708 2c5c 6D617374 		.ascii	"mast_enc(P)=%+1.4f [step]\000"
 2708      5F656E63 
 2708      2850293D 
 2708      252B312E 
 2708      3466205B 
 2709 2c76 0000     		.align	2
 2710              	.LC315:
 2711 2c78 6D617374 		.ascii	"mast_enc(T)=%+1.4f [step]\000"
 2711      5F656E63 
 2711      2854293D 
 2711      252B312E 
 2711      3466205B 
 2712 2c92 0000     		.align	2
 2713              	.LC316:
 2714 2c94 6D617374 		.ascii	"mast_joy(P)=%+1.4f [step]\000"
 2714      5F6A6F79 
 2714      2850293D 
 2714      252B312E 
 2714      3466205B 
 2715 2cae 0000     		.align	2
 2716              	.LC317:
 2717 2cb0 6D617374 		.ascii	"mast_joy(T)=%+1.4f [step]\000"
 2717      5F6A6F79 
 2717      2854293D 
 2717      252B312E 
 2717      3466205B 
 2718 2cca 0000     		.align	2
 2719              	.LC318:
 2720 2ccc 65727228 		.ascii	"err(P)=%+1.4f\000"
 2720      50293D25 
 2720      2B312E34 
 2720      6600
 2721 2cda 0000     		.align	2
 2722              	.LC319:
 2723 2cdc 65727228 		.ascii	"err(T)=%+1.4f\000"
 2723      54293D25 
 2723      2B312E34 
 2723      6600
 2724 2cea 0000     		.align	2
 2725              	.LC320:
ARM GAS  C:\Users\GRAZIA~1.RAV\AppData\Local\Temp\ccodpSVr.s 			page 84


 2726 2cec 64657272 		.ascii	"derr(P)=%+1.4f\000"
 2726      2850293D 
 2726      252B312E 
 2726      346600
 2727 2cfb 00       		.align	2
 2728              	.LC321:
 2729 2cfc 64657272 		.ascii	"derr(T)=%+1.4f\000"
 2729      2854293D 
 2729      252B312E 
 2729      346600
 2730 2d0b 00       		.align	2
 2731              	.LC322:
 2732 2d0c 69657272 		.ascii	"ierr(P)=%+1.4f\000"
 2732      2850293D 
 2732      252B312E 
 2732      346600
 2733 2d1b 00       		.align	2
 2734              	.LC323:
 2735 2d1c 69657272 		.ascii	"ierr(T)=%+1.4f\000"
 2735      2854293D 
 2735      252B312E 
 2735      346600
 2736 2d2b 00       		.align	2
 2737              	.LC324:
 2738 2d2c 63762850 		.ascii	"cv(P)=%+1.4f\000"
 2738      293D252B 
 2738      312E3466 
 2738      00
 2739 2d39 000000   		.align	2
 2740              	.LC325:
 2741 2d3c 63762854 		.ascii	"cv(T)=%+1.4f\000"
 2741      293D252B 
 2741      312E3466 
 2741      00
 2742 2d49 000000   		.align	2
 2743              	.LC326:
 2744 2d4c 70776D5F 		.ascii	"pwm_var(P)= %4i\000"
 2744      76617228 
 2744      50293D20 
 2744      25346900 
 2745              		.align	2
 2746              	.LC327:
 2747 2d5c 70776D5F 		.ascii	"pwm_var(T)= %4i\000"
 2747      76617228 
 2747      54293D20 
 2747      25346900 
 2748              		.align	2
 2749              	.LC328:
 2750 2d6c 50414E20 		.ascii	"PAN  TORQUE:\000"
 2750      20544F52 
 2750      5155453A 
 2750      00
 2751 2d79 000000   		.align	2
 2752              	.LC329:
 2753 2d7c 54494C54 		.ascii	"TILT TORQUE:\000"
 2753      20544F52 
 2753      5155453A 
ARM GAS  C:\Users\GRAZIA~1.RAV\AppData\Local\Temp\ccodpSVr.s 			page 85


 2753      00
 2754 2d89 000000   		.align	2
 2755              	.LC330:
 2756 2d8c 4D414348 		.ascii	"MACHINE\015\000"
 2756      494E450D 
 2756      00
 2757 2d95 000000   		.align	2
 2758              	.LC331:
 2759 2d98 2D2D2D2D 		.ascii	"-------\015\000"
 2759      2D2D2D0D 
 2759      00
 2760 2da1 000000   		.align	2
 2761              	.LC332:
 2762 2da4 506F7765 		.ascii	"Power Status =\000"
 2762      72205374 
 2762      61747573 
 2762      203D00
 2763 2db3 00       		.align	2
 2764              	.LC333:
 2765 2db4 20476C6F 		.ascii	" Global DEENERGIZED\015\000"
 2765      62616C20 
 2765      4445454E 
 2765      45524749 
 2765      5A45440D 
 2766 2dc9 000000   		.align	2
 2767              	.LC334:
 2768 2dcc 20476C6F 		.ascii	" Global ENERGIZED!\015\000"
 2768      62616C20 
 2768      454E4552 
 2768      47495A45 
 2768      44210D00 
 2769              		.align	2
 2770              	.LC335:
 2771 2de0 2044414E 		.ascii	" DANGER!!! INTERNAL FIRMWARE FAULT\015\000"
 2771      47455221 
 2771      21212049 
 2771      4E544552 
 2771      4E414C20 
 2772              		.align	2
 2773              	.LC336:
 2774 2e04 6374726C 		.ascii	"ctrl isr counters START=%5i STOP=%5i  \015\012\000"
 2774      20697372 
 2774      20636F75 
 2774      6E746572 
 2774      73205354 
 2775 2e2d 000000   		.align	2
 2776              	.LC337:
 2777 2e30 616E616C 		.ascii	"analogs\000"
 2777      6F677300 
 2778              		.align	2
 2779              	.LC338:
 2780 2e38 616E6100 		.ascii	"ana\000"
 2781              		.align	2
 2782              	.LC339:
 2783 2e3c 495F503D 		.ascii	"I_P=%5d\000"
 2783      25356400 
 2784              		.align	2
ARM GAS  C:\Users\GRAZIA~1.RAV\AppData\Local\Temp\ccodpSVr.s 			page 86


 2785              	.LC340:
 2786 2e44 20495F54 		.ascii	" I_T=%5d\000"
 2786      3D253564 
 2786      00
 2787 2e4d 000000   		.align	2
 2788              	.LC341:
 2789 2e50 20566363 		.ascii	" Vcc=%5d\000"
 2789      3D253564 
 2789      00
 2790 2e59 000000   		.align	2
 2791              	.LC342:
 2792 2e5c 2041783D 		.ascii	" Ax=%5d\000"
 2792      25356400 
 2793              		.align	2
 2794              	.LC343:
 2795 2e64 2041793D 		.ascii	" Ay=%5d\000"
 2795      25356400 
 2796              		.align	2
 2797              	.LC344:
 2798 2e6c 20417A3D 		.ascii	" Az=%5d\000"
 2798      25356400 
 2799              		.align	2
 2800              	.LC345:
 2801 2e74 20414253 		.ascii	" ABS_P=%5d\000"
 2801      5F503D25 
 2801      356400
 2802 2e7f 00       		.align	2
 2803              	.LC346:
 2804 2e80 20414253 		.ascii	" ABS_T=%5d\000"
 2804      5F543D25 
 2804      356400
 2805 2e8b 00       		.align	2
 2806              	.LC347:
 2807 2e8c 20617374 		.ascii	" astim=%5d\000"
 2807      696D3D25 
 2807      356400
 2808 2e97 00       		.align	2
 2809              	.LC348:
 2810 2e98 76636300 		.ascii	"vcc\000"
 2811              		.global	__aeabi_dmul
 2812              		.align	2
 2813              	.LC349:
 2814 2e9c 56434320 		.ascii	"VCC = %3.1f [V]\015\012\000"
 2814      3D202533 
 2814      2E316620 
 2814      5B565D0D 
 2814      0A00
 2815 2eae 0000     		.align	2
 2816              	.LC350:
 2817 2eb0 63757272 		.ascii	"current\000"
 2817      656E7400 
 2818              		.align	2
 2819              	.LC351:
 2820 2eb8 6900     		.ascii	"i\000"
 2821 2eba 0000     		.align	2
 2822              	.LC352:
 2823 2ebc 69287429 		.ascii	"i(t)_PAN = %5.4f [A]  i(t)_TILT = %5.4f [A]\000"
ARM GAS  C:\Users\GRAZIA~1.RAV\AppData\Local\Temp\ccodpSVr.s 			page 87


 2823      5F50414E 
 2823      203D2025 
 2823      352E3466 
 2823      205B415D 
 2824              		.align	2
 2825              	.LC353:
 2826 2ee8 20202020 		.ascii	"     Drive Status=%2u \000"
 2826      20447269 
 2826      76652053 
 2826      74617475 
 2826      733D2532 
 2827 2eff 00       		.align	2
 2828              	.LC354:
 2829 2f00 28692874 		.ascii	"(i(t)_PAN PEAK!) \000"
 2829      295F5041 
 2829      4E205045 
 2829      414B2129 
 2829      2000
 2830 2f12 0000     		.align	2
 2831              	.LC355:
 2832 2f14 28692874 		.ascii	"(i(t)_PAN OK!)  \000"
 2832      295F5041 
 2832      4E204F4B 
 2832      21292020 
 2832      00
 2833 2f25 000000   		.align	2
 2834              	.LC356:
 2835 2f28 28692874 		.ascii	"(i(t)_TILT PEAK!)\000"
 2835      295F5449 
 2835      4C542050 
 2835      45414B21 
 2835      2900
 2836 2f3a 0000     		.align	2
 2837              	.LC357:
 2838 2f3c 28692874 		.ascii	"(i(t)_TILT OK!)\000"
 2838      295F5449 
 2838      4C54204F 
 2838      4B212900 
 2839              		.align	2
 2840              	.LC358:
 2841 2f4c 706D746F 		.ascii	"pmtorque\000"
 2841      72717565 
 2841      00
 2842 2f55 000000   		.align	2
 2843              	.LC359:
 2844 2f58 706D7400 		.ascii	"pmt\000"
 2845              		.align	2
 2846              	.LC360:
 2847 2f5c 0D0A4178 		.ascii	"\015\012Axis=Pan\015\012\015\000"
 2847      69733D50 
 2847      616E0D0A 
 2847      0D00
 2848 2f6a 0000     		.align	2
 2849              	.LC361:
 2850 2f6c 695F743D 		.ascii	"i_t=%3.3f[A] (nl=%3.3f[A])  TMOT_t=%3.2f[mNm]  i_ma"
 2850      25332E33 
 2850      665B415D 
ARM GAS  C:\Users\GRAZIA~1.RAV\AppData\Local\Temp\ccodpSVr.s 			page 88


 2850      20286E6C 
 2850      3D25332E 
 2851 2f9f 783D2533 		.ascii	"x=%3.2f[A]  TMOT_max=%3.2f[mNm]  i_med=%3.2f[A]  TM"
 2851      2E32665B 
 2851      415D2020 
 2851      544D4F54 
 2851      5F6D6178 
 2852 2fd2 4F545F6D 		.ascii	"OT_med=%3.2f[mNm]\015\012\000"
 2852      65643D25 
 2852      332E3266 
 2852      5B6D4E6D 
 2852      5D0D0A00 
 2853 2fe6 0000     		.align	2
 2854              	.LC362:
 2855 2fe8 0D0A4261 		.ascii	"\015\012Battery Capacity Used=%3.2f [mAh]  Percenta"
 2855      74746572 
 2855      79204361 
 2855      70616369 
 2855      74792055 
 2856 3015 67652831 		.ascii	"ge(1000mAh)=%3.2f [%%]\015\012\000"
 2856      3030306D 
 2856      4168293D 
 2856      25332E32 
 2856      66205B25 
 2857 302e 0000     		.align	2
 2858              	.LC363:
 2859 3030 746D746F 		.ascii	"tmtorque\000"
 2859      72717565 
 2859      00
 2860 3039 000000   		.align	2
 2861              	.LC364:
 2862 303c 746D7400 		.ascii	"tmt\000"
 2863              		.align	2
 2864              	.LC365:
 2865 3040 0D0A4178 		.ascii	"\015\012Axis=Tilt\015\012\015\000"
 2865      69733D54 
 2865      696C740D 
 2865      0A0D00
 2866 304f 00       		.align	2
 2867              	.LC366:
 2868 3050 706F746F 		.ascii	"potorque\000"
 2868      72717565 
 2868      00
 2869 3059 000000   		.align	2
 2870              	.LC367:
 2871 305c 706F7400 		.ascii	"pot\000"
 2872              		.align	2
 2873              	.LC368:
 2874 3060 695F743D 		.ascii	"i_t=%3.3f[A] (nl=%3.3f[A])  TOUT_t=%3.2f[mNm]  i_ma"
 2874      25332E33 
 2874      665B415D 
 2874      20286E6C 
 2874      3D25332E 
 2875 3093 783D2533 		.ascii	"x=%3.2f[A]  TOUT_max=%3.2f[mNm]  i_med=%3.2f[A]  TO"
 2875      2E32665B 
 2875      415D2020 
 2875      544F5554 
ARM GAS  C:\Users\GRAZIA~1.RAV\AppData\Local\Temp\ccodpSVr.s 			page 89


 2875      5F6D6178 
 2876 30c6 55545F6D 		.ascii	"UT_med=%3.2f[mNm]\015\012\000"
 2876      65643D25 
 2876      332E3266 
 2876      5B6D4E6D 
 2876      5D0D0A00 
 2877 30da 0000     		.align	2
 2878              	.LC369:
 2879 30dc 746F746F 		.ascii	"totorque\000"
 2879      72717565 
 2879      00
 2880 30e5 000000   		.align	2
 2881              	.LC370:
 2882 30e8 746F7400 		.ascii	"tot\000"
 2883              		.align	2
 2884              	.LC371:
 2885 30ec 706D706F 		.ascii	"pmpower\000"
 2885      77657200 
 2886              		.align	2
 2887              	.LC372:
 2888 30f4 706D7000 		.ascii	"pmp\000"
 2889              		.align	2
 2890              	.LC373:
 2891 30f8 54287429 		.ascii	"T(t)=%3.1f[mNm]  v(t)=%3.1f[rad/sec](%3.1f[rpm])  p"
 2891      3D25332E 
 2891      31665B6D 
 2891      4E6D5D20 
 2891      20762874 
 2892 312b 2874293D 		.ascii	"(t)=%3.1f[mW]  pmax=%3.1f[mW]  pmed=%3.1f[mW]\015\012"
 2892      25332E31 
 2892      665B6D57 
 2892      5D202070 
 2892      6D61783D 
 2893 315a 00       		.ascii	"\000"
 2894 315b 00       		.align	2
 2895              	.LC374:
 2896 315c 746D706F 		.ascii	"tmpower\000"
 2896      77657200 
 2897              		.align	2
 2898              	.LC375:
 2899 3164 746D7000 		.ascii	"tmp\000"
 2900              		.align	2
 2901              	.LC376:
 2902 3168 70616273 		.ascii	"pabsstats\000"
 2902      73746174 
 2902      7300
 2903 3172 0000     		.align	2
 2904              	.LC377:
 2905 3174 70616273 		.ascii	"pabs\000"
 2905      00
 2906 3179 000000   		.align	2
 2907              	.LC378:
 2908 317c 50414E20 		.ascii	"PAN Absolute Sensor:\000"
 2908      4162736F 
 2908      6C757465 
 2908      2053656E 
 2908      736F723A 
ARM GAS  C:\Users\GRAZIA~1.RAV\AppData\Local\Temp\ccodpSVr.s 			page 90


 2909 3191 000000   		.align	2
 2910              	.LC379:
 2911 3194 206D6561 		.ascii	" mean=%+1.1f [raw]\000"
 2911      6E3D252B 
 2911      312E3166 
 2911      205B7261 
 2911      775D00
 2912 31a7 00       		.align	2
 2913              	.LC380:
 2914 31a8 206D6178 		.ascii	" max=%+1.1f [raw]\000"
 2914      3D252B31 
 2914      2E316620 
 2914      5B726177 
 2914      5D00
 2915 31ba 0000     		.align	2
 2916              	.LC381:
 2917 31bc 206D696E 		.ascii	" min=%+1.1f [raw]\000"
 2917      3D252B31 
 2917      2E316620 
 2917      5B726177 
 2917      5D00
 2918 31ce 0000     		.align	2
 2919              	.LC382:
 2920 31d0 2072616E 		.ascii	" range=%+1.1f [raw]\000"
 2920      67653D25 
 2920      2B312E31 
 2920      66205B72 
 2920      61775D00 
 2921              		.align	2
 2922              	.LC383:
 2923 31e4 74616273 		.ascii	"tabsstats\000"
 2923      73746174 
 2923      7300
 2924 31ee 0000     		.align	2
 2925              	.LC384:
 2926 31f0 74616273 		.ascii	"tabs\000"
 2926      00
 2927 31f5 000000   		.align	2
 2928              	.LC385:
 2929 31f8 54494C54 		.ascii	"TILT Absolute Sensor:\000"
 2929      20416273 
 2929      6F6C7574 
 2929      65205365 
 2929      6E736F72 
 2930 320e 0000     		.align	2
 2931              	.LC386:
 2932 3210 61737469 		.ascii	"astim\000"
 2932      6D00
 2933 3216 0000     		.align	2
 2934              	.LC387:
 2935 3218 41535449 		.ascii	"ASTIM(ADC_INPUT) =%+5d [lsb]\000"
 2935      4D284144 
 2935      435F494E 
 2935      50555429 
 2935      203D252B 
 2936 3235 000000   		.align	2
 2937              	.LC388:
ARM GAS  C:\Users\GRAZIA~1.RAV\AppData\Local\Temp\ccodpSVr.s 			page 91


 2938 3238 20202041 		.ascii	"   ASTIM(P)=%+5.1f [step]\000"
 2938      5354494D 
 2938      2850293D 
 2938      252B352E 
 2938      3166205B 
 2939 3252 0000     		.align	2
 2940              	.LC389:
 2941 3254 20202041 		.ascii	"   ASTIM(T)=%+5.1f [step]\015\012\000"
 2941      5354494D 
 2941      2854293D 
 2941      252B352E 
 2941      3166205B 
 2942              		.align	2
 2943              	.LC390:
 2944 3270 62696B65 		.ascii	"bikeangles\000"
 2944      616E676C 
 2944      657300
 2945 327b 00       		.align	2
 2946              	.LC391:
 2947 327c 62696B65 		.ascii	"bike\000"
 2947      00
 2948 3281 000000   		.align	2
 2949              	.LC392:
 2950 3284 42494B45 		.ascii	"BIKE EULER LPF ANGLES: YAW(pan):%6.3f | PITCH(tilt)"
 2950      2045554C 
 2950      4552204C 
 2950      50462041 
 2950      4E474C45 
 2951 32b7 3A25362E 		.ascii	":%6.3f | ROLL(roll):%6.3f |\015\012\000"
 2951      3366207C 
 2951      20524F4C 
 2951      4C28726F 
 2951      6C6C293A 
 2952 32d5 000000   		.align	2
 2953              	.LC393:
 2954 32d8 616E616C 		.ascii	"analogacc\000"
 2954      6F676163 
 2954      6300
 2955 32e2 0000     		.align	2
 2956              	.LC394:
 2957 32e4 61616363 		.ascii	"aacc\000"
 2957      00
 2958 32e9 000000   		.align	2
 2959              	.LC395:
 2960 32ec 783D252B 		.ascii	"x=%+1.4f[g] (%5i)\000"
 2960      312E3466 
 2960      5B675D20 
 2960      28253569 
 2960      2900
 2961 32fe 0000     		.align	2
 2962              	.LC396:
 2963 3300 20793D25 		.ascii	" y=%+1.4f[g] (%5i)\000"
 2963      2B312E34 
 2963      665B675D 
 2963      20282535 
 2963      692900
 2964 3313 00       		.align	2
ARM GAS  C:\Users\GRAZIA~1.RAV\AppData\Local\Temp\ccodpSVr.s 			page 92


 2965              	.LC397:
 2966 3314 207A3D25 		.ascii	" z=%+1.4f[g] (%5i)\000"
 2966      2B312E34 
 2966      665B675D 
 2966      20282535 
 2966      692900
 2967 3327 00       		.align	2
 2968              	.LC398:
 2969 3328 206D6F64 		.ascii	" modulo=%+1.4f[g]\000"
 2969      756C6F3D 
 2969      252B312E 
 2969      34665B67 
 2969      5D00
 2970 333a 0000     		.align	2
 2971              	.LC399:
 2972 333c 20736479 		.ascii	" sdyn=%+1.4f[g^2]\000"
 2972      6E3D252B 
 2972      312E3466 
 2972      5B675E32 
 2972      5D00
 2973 334e 0000     		.align	2
 2974              	.LC400:
 2975 3350 6576656E 		.ascii	"events\000"
 2975      747300
 2976 3357 00       		.align	2
 2977              	.LC401:
 2978 3358 6576656E 		.ascii	"event\000"
 2978      7400
 2979 335e 0000     		.align	2
 2980              	.LC402:
 2981 3360 6D617073 		.ascii	"mapsm\000"
 2981      6D00
 2982 3366 0000     		.align	2
 2983              	.LC403:
 2984 3368 4576656E 		.ascii	"Events\000"
 2984      747300
 2985 336f 00       		.align	2
 2986              	.LC404:
 2987 3370 206F6E5F 		.ascii	" on_origin_ticks=%ld\000"
 2987      6F726967 
 2987      696E5F74 
 2987      69636B73 
 2987      3D256C64 
 2988 3385 000000   		.align	2
 2989              	.LC405:
 2990 3388 20616E67 		.ascii	" angle_tilt=%2i\000"
 2990      6C655F74 
 2990      696C743D 
 2990      25326900 
 2991              		.align	2
 2992              	.LC406:
 2993 3398 20766962 		.ascii	" vibration=%2i\000"
 2993      72617469 
 2993      6F6E3D25 
 2993      326900
 2994 33a7 00       		.align	2
 2995              	.LC407:
ARM GAS  C:\Users\GRAZIA~1.RAV\AppData\Local\Temp\ccodpSVr.s 			page 93


 2996 33a8 206A756D 		.ascii	" jump=%2i\000"
 2996      703D2532 
 2996      6900
 2997 33b2 0000     		.align	2
 2998              	.LC408:
 2999 33b4 20736D3D 		.ascii	" sm=%3i \000"
 2999      25336920 
 2999      00
 3000 33bd 000000   		.align	2
 3001              	.LC409:
 3002 33c0 636C7573 		.ascii	"clusm\000"
 3002      6D00
 3003 33c6 0000     		.align	2
 3004              	.LC410:
 3005 33c8 434C5520 		.ascii	"CLU SM: \000"
 3005      534D3A20 
 3005      00
 3006 33d1 000000   		.align	2
 3007              	.LC411:
 3008 33d4 206E756D 		.ascii	" number=%3i\000"
 3008      6265723D 
 3008      25336900 
 3009              		.align	2
 3010              	.LC412:
 3011 33e0 206C696E 		.ascii	" line=%3i\000"
 3011      653D2533 
 3011      6900
 3012 33ea 0000     		.align	2
 3013              	.LC413:
 3014 33ec 20706175 		.ascii	" pauseticks=%3i\000"
 3014      73657469 
 3014      636B733D 
 3014      25336900 
 3015              		.align	2
 3016              	.LC414:
 3017 33fc 20737461 		.ascii	" status=%3i \000"
 3017      7475733D 
 3017      25336920 
 3017      00
 3018 3409 000000   		.align	2
 3019              	.LC415:
 3020 340c 62757474 		.ascii	"buttons\000"
 3020      6F6E7300 
 3021              		.align	2
 3022              	.LC416:
 3023 3414 62757400 		.ascii	"but\000"
 3024              		.align	2
 3025              	.LC417:
 3026 3418 42555454 		.ascii	"BUTTONS = %3i\000"
 3026      4F4E5320 
 3026      3D202533 
 3026      6900
 3027 3426 0000     		.align	2
 3028              	.LC418:
 3029 3428 20284F4E 		.ascii	" (ON)\000"
 3029      2900
 3030 342e 0000     		.align	2
ARM GAS  C:\Users\GRAZIA~1.RAV\AppData\Local\Temp\ccodpSVr.s 			page 94


 3031              	.LC419:
 3032 3430 20284357 		.ascii	" (CW)\000"
 3032      2900
 3033 3436 0000     		.align	2
 3034              	.LC420:
 3035 3438 20284343 		.ascii	" (CCW)\000"
 3035      572900
 3036 343f 00       		.align	2
 3037              	.LC421:
 3038 3440 73797364 		.ascii	"sysdyn\000"
 3038      796E00
 3039 3447 00       		.align	2
 3040              	.LC422:
 3041 3448 7364796E 		.ascii	"sdyn\000"
 3041      00
 3042 344d 000000   		.align	2
 3043              	.LC423:
 3044 3450 53797374 		.ascii	"System Dynamic Scalar=%1.8f  [xacc_ADC^2+yacc_ADC^2"
 3044      656D2044 
 3044      796E616D 
 3044      69632053 
 3044      63616C61 
 3045 3483 2D283167 		.ascii	"-(1g_ADC)^2]\000"
 3045      5F414443 
 3045      295E325D 
 3045      00
 3046              		.align	2
 3047              	.LC424:
 3048 3490 706F7369 		.ascii	"position\000"
 3048      74696F6E 
 3048      00
 3049 3499 000000   		.align	2
 3050              	.LC425:
 3051 349c 706F7300 		.ascii	"pos\000"
 3052              		.align	2
 3053              	.LC426:
 3054 34a0 20616273 		.ascii	" abs_pos(t)=%+ld [step]\000"
 3054      5F706F73 
 3054      2874293D 
 3054      252B6C64 
 3054      205B7374 
 3055              		.align	2
 3056              	.LC427:
 3057 34b8 2028252B 		.ascii	" (%+3.2f [rad])\000"
 3057      332E3266 
 3057      205B7261 
 3057      645D2900 
 3058              		.align	2
 3059              	.LC428:
 3060 34c8 20202020 		.ascii	"    TILT: enc(t)=%+ld [step]\000"
 3060      54494C54 
 3060      3A20656E 
 3060      63287429 
 3060      3D252B6C 
 3061 34e5 000000   		.align	2
 3062              	.LC429:
 3063 34e8 656E6366 		.ascii	"encfbk\000"
ARM GAS  C:\Users\GRAZIA~1.RAV\AppData\Local\Temp\ccodpSVr.s 			page 95


 3063      626B00
 3064 34ef 00       		.align	2
 3065              	.LC430:
 3066 34f0 656E6366 		.ascii	"encf\000"
 3066      00
 3067 34f5 000000   		.align	2
 3068              	.LC431:
 3069 34f8 44414E47 		.ascii	"DANGER!!! THIS COMMAND DISABLES MOTOR CONTROL AND M"
 3069      45522121 
 3069      21205448 
 3069      49532043 
 3069      4F4D4D41 
 3070 352b 41592050 		.ascii	"AY PRODUCE LARGE MOVEMENTS!!!\015\000"
 3070      524F4455 
 3070      4345204C 
 3070      41524745 
 3070      204D4F56 
 3071 354a 0000     		.align	2
 3072              	.LC432:
 3073 354c 41726520 		.ascii	"Are you sure to show feedback encoders [Y/N]?\000"
 3073      796F7520 
 3073      73757265 
 3073      20746F20 
 3073      73686F77 
 3074 357a 0000     		.align	2
 3075              	.LC433:
 3076 357c 50414E5F 		.ascii	"PAN_FBK=%8ld\000"
 3076      46424B3D 
 3076      25386C64 
 3076      00
 3077 3589 000000   		.align	2
 3078              	.LC434:
 3079 358c 20205449 		.ascii	"  TILT_FBK=%8ld\015\012\000"
 3079      4C545F46 
 3079      424B3D25 
 3079      386C640D 
 3079      0A00
 3080 359e 0000     		.align	2
 3081              	.LC435:
 3082 35a0 6D6F746F 		.ascii	"motorstatus\000"
 3082      72737461 
 3082      74757300 
 3083              		.align	2
 3084              	.LC436:
 3085 35ac 6D6F7400 		.ascii	"mot\000"
 3086              		.align	2
 3087              	.LC437:
 3088 35b0 4D6F746F 		.ascii	"Motor Status=%2u \000"
 3088      72205374 
 3088      61747573 
 3088      3D253275 
 3088      2000
 3089 35c2 0000     		.align	2
 3090              	.LC438:
 3091 35c4 50414E20 		.ascii	"PAN CURRENT PEAK!) \000"
 3091      43555252 
 3091      454E5420 
ARM GAS  C:\Users\GRAZIA~1.RAV\AppData\Local\Temp\ccodpSVr.s 			page 96


 3091      5045414B 
 3091      21292000 
 3092              		.align	2
 3093              	.LC439:
 3094 35d8 2850414E 		.ascii	"(PAN CURRENT OK!)  \000"
 3094      20435552 
 3094      52454E54 
 3094      204F4B21 
 3094      29202000 
 3095              		.align	2
 3096              	.LC440:
 3097 35ec 2854494C 		.ascii	"(TILT CURRENT PEAK!)\000"
 3097      54204355 
 3097      5252454E 
 3097      54205045 
 3097      414B2129 
 3098 3601 000000   		.align	2
 3099              	.LC441:
 3100 3604 2854494C 		.ascii	"(TILT CURRENT OK!)\000"
 3100      54204355 
 3100      5252454E 
 3100      54204F4B 
 3100      212900
 3101 3617 00       		.align	2
 3102              	.LC442:
 3103 3618 73686F74 		.ascii	"shot\000"
 3103      00
 3104 361d 000000   		.align	2
 3105              	.LC443:
 3106 3620 616C6C00 		.ascii	"all\000"
 3107              		.align	2
 3108              	.LC444:
 3109 3624 514D656D 		.ascii	"QMemory%02d NOT ALLOCATED!\015\012\000"
 3109      6F727925 
 3109      30326420 
 3109      4E4F5420 
 3109      414C4C4F 
 3110 3641 000000   		.align	2
 3111              	.LC445:
 3112 3644 514D656D 		.ascii	"QMemory%02d allocated to Q%02d\015\012\000"
 3112      6F727925 
 3112      30326420 
 3112      616C6C6F 
 3112      63617465 
 3113 3665 000000   		.align	2
 3114              	.LC446:
 3115 3668 51253032 		.ascii	"Q%02d PAN  ABS position=%+8ld [step]  default_param"
 3115      64205041 
 3115      4E202041 
 3115      42532070 
 3115      6F736974 
 3116 369b 3D252B38 		.ascii	"=%+8ld [step]  adjust_param=%+8ld [step]\015\012\000"
 3116      6C64205B 
 3116      73746570 
 3116      5D202061 
 3116      646A7573 
 3117 36c6 0000     		.align	2
ARM GAS  C:\Users\GRAZIA~1.RAV\AppData\Local\Temp\ccodpSVr.s 			page 97


 3118              	.LC447:
 3119 36c8 51253032 		.ascii	"Q%02d TILT ABS position=%+8ld [step]  default_param"
 3119      64205449 
 3119      4C542041 
 3119      42532070 
 3119      6F736974 
 3120 36fb 3D252B38 		.ascii	"=%+8ld [step]  adjust_param=%+8ld [step]\015\012\000"
 3120      6C64205B 
 3120      73746570 
 3120      5D202061 
 3120      646A7573 
 3121 3726 0000     		.align	2
 3122              	.LC448:
 3123 3728 0D0A2851 		.ascii	"\015\012(Q%02d is allocated in Q memory number %02d"
 3123      25303264 
 3123      20697320 
 3123      616C6C6F 
 3123      63617465 
 3124 3755 290D0A00 		.ascii	")\015\012\000"
 3125 3759 000000   		.align	2
 3126              	.LC449:
 3127 375c 0D0A5125 		.ascii	"\015\012Q%02d is not allocated!\015\012\000"
 3127      30326420 
 3127      6973206E 
 3127      6F742061 
 3127      6C6C6F63 
 3128              		.align	2
 3129              	.LC450:
 3130 3778 23455252 		.ascii	"#ERROR5: Number not allowed!\000"
 3130      4F52353A 
 3130      204E756D 
 3130      62657220 
 3130      6E6F7420 
 3131 3795 000000   		.align	2
 3132              	.LC451:
 3133 3798 70617468 		.ascii	"path\000"
 3133      00
 3134 379d 000000   		.align	2
 3135              	.LC452:
 3136 37a0 706100   		.ascii	"pa\000"
 3137 37a3 00       		.align	2
 3138              	.LC453:
 3139 37a4 20547261 		.ascii	" Trapezoid num =%3i\015\012\000"
 3139      70657A6F 
 3139      6964206E 
 3139      756D203D 
 3139      2533690D 
 3140 37ba 0000     		.align	2
 3141              	.LC454:
 3142 37bc 20416363 		.ascii	" Acc           =%+1.2f [%%]\015\012\000"
 3142      20202020 
 3142      20202020 
 3142      2020203D 
 3142      252B312E 
 3143 37da 0000     		.align	2
 3144              	.LC455:
 3145 37dc 20446563 		.ascii	" Dec           =%+1.2f [%%]\015\012\000"
ARM GAS  C:\Users\GRAZIA~1.RAV\AppData\Local\Temp\ccodpSVr.s 			page 98


 3145      20202020 
 3145      20202020 
 3145      2020203D 
 3145      252B312E 
 3146 37fa 0000     		.align	2
 3147              	.LC456:
 3148 37fc 2054696D 		.ascii	" Time          =%+1.2f [sec]\015\012\000"
 3148      65202020 
 3148      20202020 
 3148      2020203D 
 3148      252B312E 
 3149 381b 00       		.align	2
 3150              	.LC457:
 3151 381c 20537465 		.ascii	" Steps         =%+1.2f [step]\015\012\000"
 3151      70732020 
 3151      20202020 
 3151      2020203D 
 3151      252B312E 
 3152              		.align	2
 3153              	.LC458:
 3154 383c 204C6173 		.ascii	" Last_flg      =%3i [1=last]\015\012\000"
 3154      745F666C 
 3154      67202020 
 3154      2020203D 
 3154      25336920 
 3155 385b 00       		.align	2
 3156              	.LC459:
 3157 385c 2D2D2D2D 		.ascii	"----------------------------\015\000"
 3157      2D2D2D2D 
 3157      2D2D2D2D 
 3157      2D2D2D2D 
 3157      2D2D2D2D 
 3158 387a 0000     		.align	2
 3159              	.LC460:
 3160 387c 20546963 		.ascii	" Ticks Initial =%+ld [ticks]\015\012\000"
 3160      6B732049 
 3160      6E697469 
 3160      616C203D 
 3160      252B6C64 
 3161 389b 00       		.align	2
 3162              	.LC461:
 3163 389c 20416363 		.ascii	" Acc EndPoint  =%+ld [ticks]\015\012\000"
 3163      20456E64 
 3163      506F696E 
 3163      7420203D 
 3163      252B6C64 
 3164 38bb 00       		.align	2
 3165              	.LC462:
 3166 38bc 20446563 		.ascii	" Dec StartPoint=%+ld [ticks]\015\012\000"
 3166      20537461 
 3166      7274506F 
 3166      696E743D 
 3166      252B6C64 
 3167 38db 00       		.align	2
 3168              	.LC463:
 3169 38dc 20446563 		.ascii	" Dec EndPoint  =%+ld [ticks]\015\012\000"
 3169      20456E64 
ARM GAS  C:\Users\GRAZIA~1.RAV\AppData\Local\Temp\ccodpSVr.s 			page 99


 3169      506F696E 
 3169      7420203D 
 3169      252B6C64 
 3170 38fb 00       		.align	2
 3171              	.LC464:
 3172 38fc 20546963 		.ascii	" Ticks Final   =%+ld [ticks]\015\012\000"
 3172      6B732046 
 3172      696E616C 
 3172      2020203D 
 3172      252B6C64 
 3173 391b 00       		.align	2
 3174              	.LC465:
 3175 391c 20416363 		.ascii	" Acc Ticks     =%+1.2f [float ticks]\015\012\000"
 3175      20546963 
 3175      6B732020 
 3175      2020203D 
 3175      252B312E 
 3176 3943 00       		.align	2
 3177              	.LC466:
 3178 3944 2056636F 		.ascii	" Vconst Ticks  =%+1.2f [float ticks]\015\012\000"
 3178      6E737420 
 3178      5469636B 
 3178      7320203D 
 3178      252B312E 
 3179 396b 00       		.align	2
 3180              	.LC467:
 3181 396c 20446563 		.ascii	" Dec Ticks     =%+1.2f [float ticks]\015\012\000"
 3181      20546963 
 3181      6B732020 
 3181      2020203D 
 3181      252B312E 
 3182 3993 00       		.align	2
 3183              	.LC468:
 3184 3994 20562069 		.ascii	" V initial     =%+1.8f [step/ticks]\015\012\000"
 3184      6E697469 
 3184      616C2020 
 3184      2020203D 
 3184      252B312E 
 3185 39ba 0000     		.align	2
 3186              	.LC469:
 3187 39bc 20416363 		.ascii	" Acc slope     =%+1.8f [step/ticks^2]\015\012\000"
 3187      20736C6F 
 3187      70652020 
 3187      2020203D 
 3187      252B312E 
 3188              		.align	2
 3189              	.LC470:
 3190 39e4 20562063 		.ascii	" V constant    =%+1.8f [step/ticks]\015\012\000"
 3190      6F6E7374 
 3190      616E7420 
 3190      2020203D 
 3190      252B312E 
 3191 3a0a 0000     		.align	2
 3192              	.LC471:
 3193 3a0c 20446563 		.ascii	" Dec slope     =%+1.8f [step/ticks^2]\015\012\000"
 3193      20736C6F 
 3193      70652020 
ARM GAS  C:\Users\GRAZIA~1.RAV\AppData\Local\Temp\ccodpSVr.s 			page 100


 3193      2020203D 
 3193      252B312E 
 3194              		.align	2
 3195              	.LC472:
 3196 3a34 20562066 		.ascii	" V final       =%+1.8f [step/ticks]\015\012\000"
 3196      696E616C 
 3196      20202020 
 3196      2020203D 
 3196      252B312E 
 3197 3a5a 0000     		.align	2
 3198              	.LC473:
 3199 3a5c 6D6F7665 		.ascii	"movers\000"
 3199      727300
 3200 3a63 00       		.align	2
 3201              	.LC474:
 3202 3a64 4D6F7665 		.ascii	"Movers Ticks=%+ld, %+ld [ticks]\000"
 3202      72732054 
 3202      69636B73 
 3202      3D252B6C 
 3202      642C2025 
 3203              		.align	2
 3204              	.LC475:
 3205 3a84 20207374 		.ascii	"  status=%2i, %2i\000"
 3205      61747573 
 3205      3D253269 
 3205      2C202532 
 3205      6900
 3206 3a96 0000     		.align	2
 3207              	.LC476:
 3208 3a98 636C7500 		.ascii	"clu\000"
 3209              		.align	2
 3210              	.LC477:
 3211 3a9c 70616E6C 		.ascii	"panlimits\000"
 3211      696D6974 
 3211      7300
 3212 3aa6 0000     		.align	2
 3213              	.LC478:
 3214 3aa8 706C696D 		.ascii	"plim\000"
 3214      00
 3215 3aad 000000   		.align	2
 3216              	.LC479:
 3217 3ab0 50414E20 		.ascii	"PAN LIMIT=%2u \000"
 3217      4C494D49 
 3217      543D2532 
 3217      752000
 3218 3abf 00       		.align	2
 3219              	.LC480:
 3220 3ac0 74696C74 		.ascii	"tiltlimits\000"
 3220      6C696D69 
 3220      747300
 3221 3acb 00       		.align	2
 3222              	.LC481:
 3223 3acc 746C696D 		.ascii	"tlim\000"
 3223      00
 3224 3ad1 000000   		.align	2
 3225              	.LC482:
 3226 3ad4 54494C54 		.ascii	"TILT LIMIT=%2u \000"
ARM GAS  C:\Users\GRAZIA~1.RAV\AppData\Local\Temp\ccodpSVr.s 			page 101


 3226      204C494D 
 3226      49543D25 
 3226      32752000 
 3227              		.align	2
 3228              	.LC483:
 3229 3ae4 72617469 		.ascii	"ratioabsp\000"
 3229      6F616273 
 3229      7000
 3230 3aee 0000     		.align	2
 3231              	.LC484:
 3232 3af0 72617469 		.ascii	"ratiop\000"
 3232      6F7000
 3233 3af7 00       		.align	2
 3234              	.LC485:
 3235 3af8 41726520 		.ascii	"Are you sure to show absolute sensor ratios [Y/N]?\000"
 3235      796F7520 
 3235      73757265 
 3235      20746F20 
 3235      73686F77 
 3236 3b2b 00       		.align	2
 3237              	.LC486:
 3238 3b2c 50414E3A 		.ascii	"PAN: ABS_SENSOR=%5i[lsb]\000"
 3238      20414253 
 3238      5F53454E 
 3238      534F523D 
 3238      2535695B 
 3239 3b45 000000   		.align	2
 3240              	.LC487:
 3241 3b48 20454E43 		.ascii	" ENC=%9li[step]\000"
 3241      3D25396C 
 3241      695B7374 
 3241      65705D00 
 3242              		.align	2
 3243              	.LC488:
 3244 3b58 20524154 		.ascii	" RATIO=%1.4f[step/lsb]\000"
 3244      494F3D25 
 3244      312E3466 
 3244      5B737465 
 3244      702F6C73 
 3245 3b6f 00       		.align	2
 3246              	.LC489:
 3247 3b70 0D0A2A21 		.ascii	"\015\012*!point 0 sampling\015\012\015\000"
 3247      706F696E 
 3247      74203020 
 3247      73616D70 
 3247      6C696E67 
 3248              		.align	2
 3249              	.LC490:
 3250 3b88 0D0A2A21 		.ascii	"\015\012*!enc over abs ratio sampled\015\012\015\000"
 3250      656E6320 
 3250      6F766572 
 3250      20616273 
 3250      20726174 
 3251 3baa 0000     		.align	2
 3252              	.LC491:
 3253 3bac 0D0A2A21 		.ascii	"\015\012*!Absolute Sensor ratio PAN eeprom saved\015"
 3253      4162736F 
ARM GAS  C:\Users\GRAZIA~1.RAV\AppData\Local\Temp\ccodpSVr.s 			page 102


 3253      6C757465 
 3253      2053656E 
 3253      736F7220 
 3254 3bd7 0A0D00   		.ascii	"\012\015\000"
 3255 3bda 0000     		.align	2
 3256              	.LC492:
 3257 3bdc 72617469 		.ascii	"ratioabst\000"
 3257      6F616273 
 3257      7400
 3258 3be6 0000     		.align	2
 3259              	.LC493:
 3260 3be8 72617469 		.ascii	"ratiot\000"
 3260      6F7400
 3261 3bef 00       		.align	2
 3262              	.LC494:
 3263 3bf0 54494C54 		.ascii	"TILT: ABS_SENSOR=%5i[lsb]\000"
 3263      3A204142 
 3263      535F5345 
 3263      4E534F52 
 3263      3D253569 
 3264 3c0a 0000     		.align	2
 3265              	.LC495:
 3266 3c0c 0D0A2A21 		.ascii	"\015\012*!Absolute Sensor ratio TILT eeprom saved\015"
 3266      4162736F 
 3266      6C757465 
 3266      2053656E 
 3266      736F7220 
 3267 3c38 0A0D00   		.ascii	"\012\015\000"
 3268 3c3b 00       		.align	2
 3269              	.LC496:
 3270 3c3c 6661756C 		.ascii	"faults\000"
 3270      747300
 3271 3c43 00       		.align	2
 3272              	.LC497:
 3273 3c44 6661756C 		.ascii	"fault\000"
 3273      7400
 3274 3c4a 0000     		.align	2
 3275              	.LC498:
 3276 3c4c 4E4F4E45 		.ascii	"NONE: ALL OK!\015\000"
 3276      3A20414C 
 3276      4C204F4B 
 3276      210D00
 3277 3c5b 00       		.align	2
 3278              	.LC499:
 3279 3c5c 40464155 		.ascii	"@FAULT#01: PAN  AXIS HAS PROBLEMS!\015\000"
 3279      4C542330 
 3279      313A2050 
 3279      414E2020 
 3279      41584953 
 3280              		.align	2
 3281              	.LC500:
 3282 3c80 40464155 		.ascii	"@FAULT#10: FEEDBACK ENCODER INVALID TRANSITIONS!\015"
 3282      4C542331 
 3282      303A2046 
 3282      45454442 
 3282      41434B20 
 3283 3cb1 00       		.ascii	"\000"
ARM GAS  C:\Users\GRAZIA~1.RAV\AppData\Local\Temp\ccodpSVr.s 			page 103


 3284 3cb2 0000     		.align	2
 3285              	.LC501:
 3286 3cb4 40464155 		.ascii	"@FAULT#02: TILT AXIS HAS PROBLEMS!\015\000"
 3286      4C542330 
 3286      323A2054 
 3286      494C5420 
 3286      41584953 
 3287              		.align	2
 3288              	.LC502:
 3289 3cd8 70617261 		.ascii	"params\000"
 3289      6D7300
 3290 3cdf 00       		.align	2
 3291              	.LC503:
 3292 3ce0 7000     		.ascii	"p\000"
 3293 3ce2 0000     		.align	2
 3294              	.LC504:
 3295 3ce4 476F4265 		.ascii	"GoBee DIRECTOR\015\000"
 3295      65204449 
 3295      52454354 
 3295      4F520D00 
 3296              		.align	2
 3297              	.LC505:
 3298 3cf4 3D3D3D3D 		.ascii	"==============\015\000"
 3298      3D3D3D3D 
 3298      3D3D3D3D 
 3298      3D3D0D00 
 3299              		.align	2
 3300              	.LC506:
 3301 3d04 476F6265 		.ascii	"Gobee Mode                   =%2u: \000"
 3301      65204D6F 
 3301      64652020 
 3301      20202020 
 3301      20202020 
 3302              		.align	2
 3303              	.LC507:
 3304 3d28 476F6265 		.ascii	"Gobee Selected Director      =%2u: \000"
 3304      65205365 
 3304      6C656374 
 3304      65642044 
 3304      69726563 
 3305              		.align	2
 3306              	.LC508:
 3307 3d4c 476F4265 		.ascii	"GoBee PARAMETER LIST\015\000"
 3307      65205041 
 3307      52414D45 
 3307      54455220 
 3307      4C495354 
 3308 3d62 0000     		.align	2
 3309              	.LC509:
 3310 3d64 3D3D3D3D 		.ascii	"====================\015\000"
 3310      3D3D3D3D 
 3310      3D3D3D3D 
 3310      3D3D3D3D 
 3310      3D3D3D3D 
 3311 3d7a 0000     		.align	2
 3312              	.LC510:
 3313 3d7c 50616E20 		.ascii	"Pan  Axis Resolution         = \000"
ARM GAS  C:\Users\GRAZIA~1.RAV\AppData\Local\Temp\ccodpSVr.s 			page 104


 3313      20417869 
 3313      73205265 
 3313      736F6C75 
 3313      74696F6E 
 3314              		.align	2
 3315              	.LC511:
 3316 3d9c 25382E31 		.ascii	"%8.1f [step/2PI]\000"
 3316      66205B73 
 3316      7465702F 
 3316      3250495D 
 3316      00
 3317 3dad 000000   		.align	2
 3318              	.LC512:
 3319 3db0 54696C74 		.ascii	"Tilt Axis Resolution         = \000"
 3319      20417869 
 3319      73205265 
 3319      736F6C75 
 3319      74696F6E 
 3320              		.align	2
 3321              	.LC513:
 3322 3dd0 4D6F746F 		.ascii	"Motor Control\015\000"
 3322      7220436F 
 3322      6E74726F 
 3322      6C0D00
 3323 3ddf 00       		.align	2
 3324              	.LC514:
 3325 3de0 3D3D3D3D 		.ascii	"=============\015\000"
 3325      3D3D3D3D 
 3325      3D3D3D3D 
 3325      3D0D00
 3326 3def 00       		.align	2
 3327              	.LC515:
 3328 3df0 50616E20 		.ascii	"Pan  Motor Polarity          = \000"
 3328      204D6F74 
 3328      6F722050 
 3328      6F6C6172 
 3328      69747920 
 3329              		.align	2
 3330              	.LC516:
 3331 3e10 25317520 		.ascii	"%1u (0=true, 1=invert)\000"
 3331      28303D74 
 3331      7275652C 
 3331      20313D69 
 3331      6E766572 
 3332 3e27 00       		.align	2
 3333              	.LC517:
 3334 3e28 50616E20 		.ascii	"Pan  Motor Kp                = \000"
 3334      204D6F74 
 3334      6F72204B 
 3334      70202020 
 3334      20202020 
 3335              		.align	2
 3336              	.LC518:
 3337 3e48 25386600 		.ascii	"%8f\000"
 3338              		.align	2
 3339              	.LC519:
 3340 3e4c 50616E20 		.ascii	"Pan  Motor Kd                = \000"
ARM GAS  C:\Users\GRAZIA~1.RAV\AppData\Local\Temp\ccodpSVr.s 			page 105


 3340      204D6F74 
 3340      6F72204B 
 3340      64202020 
 3340      20202020 
 3341              		.align	2
 3342              	.LC520:
 3343 3e6c 50616E20 		.ascii	"Pan  Motor Ki                = \000"
 3343      204D6F74 
 3343      6F72204B 
 3343      69202020 
 3343      20202020 
 3344              		.align	2
 3345              	.LC521:
 3346 3e8c 50616E20 		.ascii	"Pan  Motor Ksi               = \000"
 3346      204D6F74 
 3346      6F72204B 
 3346      73692020 
 3346      20202020 
 3347              		.align	2
 3348              	.LC522:
 3349 3eac 25386620 		.ascii	"%8f (max AZI=%8f)\000"
 3349      286D6178 
 3349      20415A49 
 3349      3D253866 
 3349      2900
 3350 3ebe 0000     		.align	2
 3351              	.LC523:
 3352 3ec0 50616E20 		.ascii	"Pan Limit Control            = \000"
 3352      4C696D69 
 3352      7420436F 
 3352      6E74726F 
 3352      6C202020 
 3353              		.align	2
 3354              	.LC524:
 3355 3ee0 25317520 		.ascii	"%1u (0=disabled, 1=enabled)\000"
 3355      28303D64 
 3355      69736162 
 3355      6C65642C 
 3355      20313D65 
 3356              		.align	2
 3357              	.LC525:
 3358 3efc 54696C74 		.ascii	"Tilt Motor Polarity          = \000"
 3358      204D6F74 
 3358      6F722050 
 3358      6F6C6172 
 3358      69747920 
 3359              		.align	2
 3360              	.LC526:
 3361 3f1c 54696C74 		.ascii	"Tilt Motor Kp                = \000"
 3361      204D6F74 
 3361      6F72204B 
 3361      70202020 
 3361      20202020 
 3362              		.align	2
 3363              	.LC527:
 3364 3f3c 54696C74 		.ascii	"Tilt Motor Kd                = \000"
 3364      204D6F74 
ARM GAS  C:\Users\GRAZIA~1.RAV\AppData\Local\Temp\ccodpSVr.s 			page 106


 3364      6F72204B 
 3364      64202020 
 3364      20202020 
 3365              		.align	2
 3366              	.LC528:
 3367 3f5c 54696C74 		.ascii	"Tilt Motor Ki                = \000"
 3367      204D6F74 
 3367      6F72204B 
 3367      69202020 
 3367      20202020 
 3368              		.align	2
 3369              	.LC529:
 3370 3f7c 54696C74 		.ascii	"Tilt Motor Ksi               = \000"
 3370      204D6F74 
 3370      6F72204B 
 3370      73692020 
 3370      20202020 
 3371              		.align	2
 3372              	.LC530:
 3373 3f9c 54696C74 		.ascii	"Tilt Limit Control           = \000"
 3373      204C696D 
 3373      69742043 
 3373      6F6E7472 
 3373      6F6C2020 
 3374              		.align	2
 3375              	.LC531:
 3376 3fbc 4162736F 		.ascii	"Absolute Sensors\015\000"
 3376      6C757465 
 3376      2053656E 
 3376      736F7273 
 3376      0D00
 3377 3fce 0000     		.align	2
 3378              	.LC532:
 3379 3fd0 3D3D3D3D 		.ascii	"================\015\000"
 3379      3D3D3D3D 
 3379      3D3D3D3D 
 3379      3D3D3D3D 
 3379      0D00
 3380 3fe2 0000     		.align	2
 3381              	.LC533:
 3382 3fe4 50616E20 		.ascii	"Pan  Absolute sensor HOME    = \000"
 3382      20416273 
 3382      6F6C7574 
 3382      65207365 
 3382      6E736F72 
 3383              		.align	2
 3384              	.LC534:
 3385 4004 25366920 		.ascii	"%6i [ADC raw]    (invertion=%1d)\000"
 3385      5B414443 
 3385      20726177 
 3385      5D202020 
 3385      2028696E 
 3386 4025 000000   		.align	2
 3387              	.LC535:
 3388 4028 50616E20 		.ascii	"Pan  Absolute sensor LimitMAX= \000"
 3388      20416273 
 3388      6F6C7574 
ARM GAS  C:\Users\GRAZIA~1.RAV\AppData\Local\Temp\ccodpSVr.s 			page 107


 3388      65207365 
 3388      6E736F72 
 3389              		.align	2
 3390              	.LC536:
 3391 4048 25366920 		.ascii	"%6i [ADC raw]\000"
 3391      5B414443 
 3391      20726177 
 3391      5D00
 3392 4056 0000     		.align	2
 3393              	.LC537:
 3394 4058 50616E20 		.ascii	"Pan  Absolute sensor Limitmin= \000"
 3394      20416273 
 3394      6F6C7574 
 3394      65207365 
 3394      6E736F72 
 3395              		.align	2
 3396              	.LC538:
 3397 4078 50616E20 		.ascii	"Pan  Absolute sensor Hyster. = \000"
 3397      20416273 
 3397      6F6C7574 
 3397      65207365 
 3397      6E736F72 
 3398              		.align	2
 3399              	.LC539:
 3400 4098 50616E20 		.ascii	"Pan  Absolute sensor Ratio   = \000"
 3400      20416273 
 3400      6F6C7574 
 3400      65207365 
 3400      6E736F72 
 3401              		.align	2
 3402              	.LC540:
 3403 40b8 25332E33 		.ascii	"%3.3f [step/lsb]\000"
 3403      66205B73 
 3403      7465702F 
 3403      6C73625D 
 3403      00
 3404 40c9 000000   		.align	2
 3405              	.LC541:
 3406 40cc 54696C74 		.ascii	"Tilt Absolute sensor HOME    = \000"
 3406      20416273 
 3406      6F6C7574 
 3406      65207365 
 3406      6E736F72 
 3407              		.align	2
 3408              	.LC542:
 3409 40ec 54696C74 		.ascii	"Tilt Absolute sensor LimitMAX= \000"
 3409      20416273 
 3409      6F6C7574 
 3409      65207365 
 3409      6E736F72 
 3410              		.align	2
 3411              	.LC543:
 3412 410c 54696C74 		.ascii	"Tilt Absolute sensor Limitmin= \000"
 3412      20416273 
 3412      6F6C7574 
 3412      65207365 
 3412      6E736F72 
ARM GAS  C:\Users\GRAZIA~1.RAV\AppData\Local\Temp\ccodpSVr.s 			page 108


 3413              		.align	2
 3414              	.LC544:
 3415 412c 54696C74 		.ascii	"Tilt Absolute sensor Hyster. = \000"
 3415      20416273 
 3415      6F6C7574 
 3415      65207365 
 3415      6E736F72 
 3416              		.align	2
 3417              	.LC545:
 3418 414c 54696C74 		.ascii	"Tilt Absolute sensor Ratio   = \000"
 3418      20416273 
 3418      6F6C7574 
 3418      65207365 
 3418      6E736F72 
 3419              		.align	2
 3420              	.LC546:
 3421 416c 4D6F746F 		.ascii	"Motor Tuning\015\000"
 3421      72205475 
 3421      6E696E67 
 3421      0D00
 3422 417a 0000     		.align	2
 3423              	.LC547:
 3424 417c 3D3D3D3D 		.ascii	"============\015\000"
 3424      3D3D3D3D 
 3424      3D3D3D3D 
 3424      0D00
 3425 418a 0000     		.align	2
 3426              	.LC548:
 3427 418c 50616E20 		.ascii	"Pan  Motor Kopf              = \000"
 3427      204D6F74 
 3427      6F72204B 
 3427      6F706620 
 3427      20202020 
 3428              		.align	2
 3429              	.LC549:
 3430 41ac 20202041 		.ascii	"   AstimEN=%1u \000"
 3430      7374696D 
 3430      454E3D25 
 3430      31752000 
 3431              		.align	2
 3432              	.LC550:
 3433 41bc 50616E20 		.ascii	"Pan  Anaout GAIN             = \000"
 3433      20416E61 
 3433      6F757420 
 3433      4741494E 
 3433      20202020 
 3434              		.align	2
 3435              	.LC551:
 3436 41dc 50616E20 		.ascii	"Pan  AnaOut Signal (color)   = \000"
 3436      20416E61 
 3436      4F757420 
 3436      5369676E 
 3436      616C2028 
 3437              		.align	2
 3438              	.LC552:
 3439 41fc 54696C74 		.ascii	"Tilt Motor Kopf              = \000"
 3439      204D6F74 
ARM GAS  C:\Users\GRAZIA~1.RAV\AppData\Local\Temp\ccodpSVr.s 			page 109


 3439      6F72204B 
 3439      6F706620 
 3439      20202020 
 3440              		.align	2
 3441              	.LC553:
 3442 421c 54696C74 		.ascii	"Tilt Anaout GAIN             = \000"
 3442      20416E61 
 3442      6F757420 
 3442      4741494E 
 3442      20202020 
 3443              		.align	2
 3444              	.LC554:
 3445 423c 54696C74 		.ascii	"Tilt AnaOut Signal (color)   = \000"
 3445      20416E61 
 3445      4F757420 
 3445      5369676E 
 3445      616C2028 
 3446              		.align	2
 3447              	.LC555:
 3448 425c 416E616F 		.ascii	"Anaout Selected Axis         = \000"
 3448      75742053 
 3448      656C6563 
 3448      74656420 
 3448      41786973 
 3449              		.align	2
 3450              	.LC556:
 3451 427c 41636365 		.ascii	"Accelerometer (100Hz)\015\000"
 3451      6C65726F 
 3451      6D657465 
 3451      72202831 
 3451      3030487A 
 3452 4293 00       		.align	2
 3453              	.LC557:
 3454 4294 3D3D3D3D 		.ascii	"=====================\015\000"
 3454      3D3D3D3D 
 3454      3D3D3D3D 
 3454      3D3D3D3D 
 3454      3D3D3D3D 
 3455 42ab 00       		.align	2
 3456              	.LC558:
 3457 42ac 62657461 		.ascii	"beta  (accelerometer LPF)    = \000"
 3457      20202861 
 3457      6363656C 
 3457      65726F6D 
 3457      65746572 
 3458              		.align	2
 3459              	.LC559:
 3460 42cc 25386620 		.ascii	"%8f (tau=%1.4f [msec])\000"
 3460      28746175 
 3460      3D25312E 
 3460      3466205B 
 3460      6D736563 
 3461 42e3 00       		.align	2
 3462              	.LC560:
 3463 42e4 20286663 		.ascii	" (fc=%1.4f [Hz])\015\012\000"
 3463      3D25312E 
 3463      3466205B 
ARM GAS  C:\Users\GRAZIA~1.RAV\AppData\Local\Temp\ccodpSVr.s 			page 110


 3463      487A5D29 
 3463      0D0A00
 3464 42f7 00       		.align	2
 3465              	.LC561:
 3466 42f8 416E616C 		.ascii	"Analog Accel. X ADC Offset   = \000"
 3466      6F672041 
 3466      6363656C 
 3466      2E205820 
 3466      41444320 
 3467              		.align	2
 3468              	.LC562:
 3469 4318 25346420 		.ascii	"%4d [lsb]\000"
 3469      5B6C7362 
 3469      5D00
 3470 4322 0000     		.align	2
 3471              	.LC563:
 3472 4324 416E616C 		.ascii	"Analog Accel. Y ADC Offset   = \000"
 3472      6F672041 
 3472      6363656C 
 3472      2E205920 
 3472      41444320 
 3473              		.align	2
 3474              	.LC564:
 3475 4344 416E616C 		.ascii	"Analog Accel. Z ADC Offset   = \000"
 3475      6F672041 
 3475      6363656C 
 3475      2E205A20 
 3475      41444320 
 3476              		.align	2
 3477              	.LC565:
 3478 4364 42696B65 		.ascii	"Bike Frame IMU (1.5kHz)\015\000"
 3478      20467261 
 3478      6D652049 
 3478      4D552028 
 3478      312E356B 
 3479 437d 000000   		.align	2
 3480              	.LC566:
 3481 4380 3D3D3D3D 		.ascii	"=======================\015\000"
 3481      3D3D3D3D 
 3481      3D3D3D3D 
 3481      3D3D3D3D 
 3481      3D3D3D3D 
 3482 4399 000000   		.align	2
 3483              	.LC567:
 3484 439c 67616D6D 		.ascii	"gamma  (IMU LPF)             = \000"
 3484      61202028 
 3484      494D5520 
 3484      4C504629 
 3484      20202020 
 3485              		.align	2
 3486              	.LC568:
 3487 43bc 494D5520 		.ascii	"IMU Yaw angle invertion      = \000"
 3487      59617720 
 3487      616E676C 
 3487      6520696E 
 3487      76657274 
 3488              		.align	2
ARM GAS  C:\Users\GRAZIA~1.RAV\AppData\Local\Temp\ccodpSVr.s 			page 111


 3489              	.LC569:
 3490 43dc 494D5520 		.ascii	"IMU Pitch angle invertion    = \000"
 3490      50697463 
 3490      6820616E 
 3490      676C6520 
 3490      696E7665 
 3491              		.align	2
 3492              	.LC570:
 3493 43fc 494D5520 		.ascii	"IMU Roll angle invertion     = \000"
 3493      526F6C6C 
 3493      20616E67 
 3493      6C652069 
 3493      6E766572 
 3494              		.align	2
 3495              	.LC571:
 3496 441c 494D5520 		.ascii	"IMU Pith and Roll exchange   = \000"
 3496      50697468 
 3496      20616E64 
 3496      20526F6C 
 3496      6C206578 
 3497              		.align	2
 3498              	.LC572:
 3499 443c 25317520 		.ascii	"%1u (0=true, 1=exchanged)\000"
 3499      28303D74 
 3499      7275652C 
 3499      20313D65 
 3499      78636861 
 3500 4456 0000     		.align	2
 3501              	.LC573:
 3502 4458 4576656E 		.ascii	"Events Parameters\015\000"
 3502      74732050 
 3502      6172616D 
 3502      65746572 
 3502      730D00
 3503 446b 00       		.align	2
 3504              	.LC574:
 3505 446c 3D3D3D3D 		.ascii	"=================\015\000"
 3505      3D3D3D3D 
 3505      3D3D3D3D 
 3505      3D3D3D3D 
 3505      3D0D00
 3506 447f 00       		.align	2
 3507              	.LC575:
 3508 4480 4A756D70 		.ascii	"Jump G Threshold             = \000"
 3508      20472054 
 3508      68726573 
 3508      686F6C64 
 3508      20202020 
 3509              		.align	2
 3510              	.LC576:
 3511 44a0 25386620 		.ascii	"%8f [g]\015\012\000"
 3511      5B675D0D 
 3511      0A00
 3512 44aa 0000     		.align	2
 3513              	.LC577:
 3514 44ac 41636365 		.ascii	"Acceleration G Threshold     = \000"
 3514      6C657261 
ARM GAS  C:\Users\GRAZIA~1.RAV\AppData\Local\Temp\ccodpSVr.s 			page 112


 3514      74696F6E 
 3514      20472054 
 3514      68726573 
 3515              		.align	2
 3516              	.LC578:
 3517 44cc 636C7565 		.ascii	"cluexec\000"
 3517      78656300 
 3518              		.align	2
 3519              	.LC579:
 3520 44d4 434C5520 		.ascii	"CLU %2i START!\015\012\000"
 3520      25326920 
 3520      53544152 
 3520      54210D0A 
 3520      00
 3521 44e5 000000   		.align	2
 3522              	.LC580:
 3523 44e8 0D0A434C 		.ascii	"\015\012CLU %2i END!\015\012\000"
 3523      55202532 
 3523      6920454E 
 3523      44210D0A 
 3523      00
 3524 44f9 000000   		.align	2
 3525              	.LC581:
 3526 44fc 434C5520 		.ascii	"CLU not started: selected CLU is empty!\015\000"
 3526      6E6F7420 
 3526      73746172 
 3526      7465643A 
 3526      2073656C 
 3527 4525 000000   		.align	2
 3528              	.LC582:
 3529 4528 434C5520 		.ascii	"CLU not started: energize the Gobee before!\015\000"
 3529      6E6F7420 
 3529      73746172 
 3529      7465643A 
 3529      20656E65 
 3530 4555 000000   		.align	2
 3531              	.LC583:
 3532 4558 636C7573 		.ascii	"cluseq\000"
 3532      657100
 3533 455f 00       		.align	2
 3534              	.LC584:
 3535 4560 0D0A5573 		.ascii	"\015\012User Abort!\015\000"
 3535      65722041 
 3535      626F7274 
 3535      210D00
 3536 456f 00       		.align	2
 3537              	.LC585:
 3538 4570 0D0A434C 		.ascii	"\015\012CLU SEQUENCE END!\015\000"
 3538      55205345 
 3538      5155454E 
 3538      43452045 
 3538      4E44210D 
 3539 4585 000000   		.align	2
 3540              	.LC586:
 3541 4588 434C5553 		.ascii	"CLUSEQ not started: energize the Gobee before!\015\000"
 3541      4551206E 
 3541      6F742073 
ARM GAS  C:\Users\GRAZIA~1.RAV\AppData\Local\Temp\ccodpSVr.s 			page 113


 3541      74617274 
 3541      65643A20 
 3542              		.align	2
 3543              	.LC587:
 3544 45b8 676F746F 		.ascii	"gotohome\000"
 3544      686F6D65 
 3544      00
 3545 45c1 000000   		.align	2
 3546              	.LC588:
 3547 45c4 676F746F 		.ascii	"gotoh\000"
 3547      6800
 3548 45ca 0000     		.align	2
 3549              	.LC589:
 3550 45cc 476F746F 		.ascii	"Goto Home Mover START!\015\000"
 3550      20486F6D 
 3550      65204D6F 
 3550      76657220 
 3550      53544152 
 3551              		.align	2
 3552              	.LC590:
 3553 45e4 0D0A476F 		.ascii	"\015\012Goto Home Mover END!\015\000"
 3553      746F2048 
 3553      6F6D6520 
 3553      4D6F7665 
 3553      7220454E 
 3554              		.align	2
 3555              	.LC591:
 3556 45fc 476F746F 		.ascii	"Goto Home Mover Not Started: energize the Gobee bef"
 3556      20486F6D 
 3556      65204D6F 
 3556      76657220 
 3556      4E6F7420 
 3557 462f 6F726521 		.ascii	"ore!\015\000"
 3557      0D00
 3558 4635 000000   		.align	2
 3559              	.LC592:
 3560 4638 676F746F 		.ascii	"gotoq\000"
 3560      7100
 3561 463e 0000     		.align	2
 3562              	.LC593:
 3563 4640 6700     		.ascii	"g\000"
 3564              		.global	__aeabi_fcmpge
 3565              		.global	__aeabi_fcmple
 3566              		.global	__aeabi_fcmpeq
 3567 4642 0000     		.align	2
 3568              	.LC594:
 3569 4644 476F746F 		.ascii	"Goto Q Mover START!\015\000"
 3569      2051204D 
 3569      6F766572 
 3569      20535441 
 3569      5254210D 
 3570 4659 000000   		.align	2
 3571              	.LC595:
 3572 465c 0D0A476F 		.ascii	"\015\012Goto Q Mover END!\015\000"
 3572      746F2051 
 3572      204D6F76 
 3572      65722045 
ARM GAS  C:\Users\GRAZIA~1.RAV\AppData\Local\Temp\ccodpSVr.s 			page 114


 3572      4E44210D 
 3573 4671 000000   		.align	2
 3574              	.LC596:
 3575 4674 476F746F 		.ascii	"Goto Q Mover Not Started: QMemory %02d NOT ALLOCATE"
 3575      2051204D 
 3575      6F766572 
 3575      204E6F74 
 3575      20537461 
 3576 46a7 44210D0A 		.ascii	"D!\015\012\000"
 3576      00
 3577              		.align	2
 3578              	.LC597:
 3579 46ac 476F746F 		.ascii	"Goto Q Mover Not Started: energize the Gobee before"
 3579      2051204D 
 3579      6F766572 
 3579      204E6F74 
 3579      20537461 
 3580 46df 210D00   		.ascii	"!\015\000"
 3581 46e2 0000     		.align	2
 3582              	.LC598:
 3583 46e4 476F746F 		.ascii	"Goto Q Mover Not Started: Q maximum is 99!\015\000"
 3583      2051204D 
 3583      6F766572 
 3583      204E6F74 
 3583      20537461 
 3584              		.align	2
 3585              	.LC599:
 3586 4710 23455252 		.ascii	"#ERROR2: More parameters needed!\000"
 3586      4F52323A 
 3586      204D6F72 
 3586      65207061 
 3586      72616D65 
 3587 4731 000000   		.align	2
 3588              	.LC600:
 3589 4734 64697265 		.ascii	"director\000"
 3589      63746F72 
 3589      00
 3590 473d 000000   		.align	2
 3591              	.LC601:
 3592 4740 64697200 		.ascii	"dir\000"
 3593              		.align	2
 3594              	.LC602:
 3595 4744 2A20476F 		.ascii	"* Gobee Director Number setted to %2u: \000"
 3595      62656520 
 3595      44697265 
 3595      63746F72 
 3595      204E756D 
 3596              		.align	2
 3597              	.LC603:
 3598 476c 6D6F6465 		.ascii	"mode\000"
 3598      00
 3599 4771 000000   		.align	2
 3600              	.LC604:
 3601 4774 2A20476F 		.ascii	"* Gobee machine mode setted to %2u\000"
 3601      62656520 
 3601      6D616368 
 3601      696E6520 
ARM GAS  C:\Users\GRAZIA~1.RAV\AppData\Local\Temp\ccodpSVr.s 			page 115


 3601      6D6F6465 
 3602 4797 00       		.align	2
 3603              	.LC605:
 3604 4798 706F6C61 		.ascii	"polarityp\000"
 3604      72697479 
 3604      7000
 3605 47a2 0000     		.align	2
 3606              	.LC606:
 3607 47a4 706F6C70 		.ascii	"polp\000"
 3607      00
 3608 47a9 000000   		.align	2
 3609              	.LC607:
 3610 47ac 2A205061 		.ascii	"* Pan Motor Polarity setted to %2u\000"
 3610      6E204D6F 
 3610      746F7220 
 3610      506F6C61 
 3610      72697479 
 3611 47cf 00       		.align	2
 3612              	.LC608:
 3613 47d0 706F6C61 		.ascii	"polarityt\000"
 3613      72697479 
 3613      7400
 3614 47da 0000     		.align	2
 3615              	.LC609:
 3616 47dc 706F6C74 		.ascii	"polt\000"
 3616      00
 3617 47e1 000000   		.align	2
 3618              	.LC610:
 3619 47e4 2A205469 		.ascii	"* Tilt Motor Polarity setted to %2u\000"
 3619      6C74204D 
 3619      6F746F72 
 3619      20506F6C 
 3619      61726974 
 3620              		.align	2
 3621              	.LC611:
 3622 4808 6C696D69 		.ascii	"limitcp\000"
 3622      74637000 
 3623              		.align	2
 3624              	.LC612:
 3625 4810 6C637000 		.ascii	"lcp\000"
 3626              		.align	2
 3627              	.LC613:
 3628 4814 2A205061 		.ascii	"* Pan Motor Limit Control setted to %2u\000"
 3628      6E204D6F 
 3628      746F7220 
 3628      4C696D69 
 3628      7420436F 
 3629              		.align	2
 3630              	.LC614:
 3631 483c 696E7661 		.ascii	"invabsp\000"
 3631      62737000 
 3632              		.align	2
 3633              	.LC615:
 3634 4844 696E7670 		.ascii	"invp\000"
 3634      00
 3635 4849 000000   		.align	2
 3636              	.LC616:
ARM GAS  C:\Users\GRAZIA~1.RAV\AppData\Local\Temp\ccodpSVr.s 			page 116


 3637 484c 2A205061 		.ascii	"* Pan Absolute Sensor Invertion setted to %2u\015\012"
 3637      6E204162 
 3637      736F6C75 
 3637      74652053 
 3637      656E736F 
 3638 487b 00       		.ascii	"\000"
 3639              		.align	2
 3640              	.LC617:
 3641 487c 7A65726F 		.ascii	"zeroabsp\000"
 3641      61627370 
 3641      00
 3642 4885 000000   		.align	2
 3643              	.LC618:
 3644 4888 7A7000   		.ascii	"zp\000"
 3645 488b 00       		.align	2
 3646              	.LC619:
 3647 488c 2A205761 		.ascii	"* Warning! Put PAN Axis to zero (HOME) position and"
 3647      726E696E 
 3647      67212050 
 3647      75742050 
 3647      414E2041 
 3648 48bf 20707265 		.ascii	" press y!\000"
 3648      73732079 
 3648      2100
 3649 48c9 000000   		.align	2
 3650              	.LC620:
 3651 48cc 0D0A2A20 		.ascii	"\015\012* Statistics start!\015\000"
 3651      53746174 
 3651      69737469 
 3651      63732073 
 3651      74617274 
 3652 48e3 00       		.align	2
 3653              	.LC621:
 3654 48e4 2A205374 		.ascii	"* Statistics stop!\015\000"
 3654      61746973 
 3654      74696373 
 3654      2073746F 
 3654      70210D00 
 3655              		.align	2
 3656              	.LC622:
 3657 48f8 2A205061 		.ascii	"* Pan Absolute Sensor ZERO POSITION (HOME) setted t"
 3657      6E204162 
 3657      736F6C75 
 3657      74652053 
 3657      656E736F 
 3658 492b 6F20252B 		.ascii	"o %+6d [adc raw]\015\012\000"
 3658      3664205B 
 3658      61646320 
 3658      7261775D 
 3658      0D0A00
 3659 493e 0000     		.align	2
 3660              	.LC623:
 3661 4940 0D0A2A20 		.ascii	"\015\012* Pan Absolute Sensor position not sampled!"
 3661      50616E20 
 3661      4162736F 
 3661      6C757465 
 3661      2053656E 
ARM GAS  C:\Users\GRAZIA~1.RAV\AppData\Local\Temp\ccodpSVr.s 			page 117


 3662 496d 0D00     		.ascii	"\015\000"
 3663 496f 00       		.align	2
 3664              	.LC624:
 3665 4970 6C696D69 		.ascii	"limitminp\000"
 3665      746D696E 
 3665      7000
 3666 497a 0000     		.align	2
 3667              	.LC625:
 3668 497c 6C6D696E 		.ascii	"lminp\000"
 3668      7000
 3669 4982 0000     		.align	2
 3670              	.LC626:
 3671 4984 2A205761 		.ascii	"* Warning! Put PAN Axis to limit MIN position and p"
 3671      726E696E 
 3671      67212050 
 3671      75742050 
 3671      414E2041 
 3672 49b7 72657373 		.ascii	"ress y!\000"
 3672      20792100 
 3673 49bf 00       		.align	2
 3674              	.LC627:
 3675 49c0 2A205061 		.ascii	"* Pan Absolute Sensor Limit MIN setted to %+6d [adc"
 3675      6E204162 
 3675      736F6C75 
 3675      74652053 
 3675      656E736F 
 3676 49f3 20726177 		.ascii	" raw]\015\012\000"
 3676      5D0D0A00 
 3677 49fb 00       		.align	2
 3678              	.LC628:
 3679 49fc 6C696D69 		.ascii	"limitmaxp\000"
 3679      746D6178 
 3679      7000
 3680 4a06 0000     		.align	2
 3681              	.LC629:
 3682 4a08 6C6D6178 		.ascii	"lmaxp\000"
 3682      7000
 3683 4a0e 0000     		.align	2
 3684              	.LC630:
 3685 4a10 2A205761 		.ascii	"* Warning! Put PAN Axis to limit MAX position and p"
 3685      726E696E 
 3685      67212050 
 3685      75742050 
 3685      414E2041 
 3686 4a43 72657373 		.ascii	"ress y!\000"
 3686      20792100 
 3687 4a4b 00       		.align	2
 3688              	.LC631:
 3689 4a4c 2A205061 		.ascii	"* Pan Absolute Sensor Limit MAX setted to %+6d [adc"
 3689      6E204162 
 3689      736F6C75 
 3689      74652053 
 3689      656E736F 
 3690 4a7f 20726177 		.ascii	" raw]\015\012\000"
 3690      5D0D0A00 
 3691 4a87 00       		.align	2
 3692              	.LC632:
ARM GAS  C:\Users\GRAZIA~1.RAV\AppData\Local\Temp\ccodpSVr.s 			page 118


 3693 4a88 6C696D69 		.ascii	"limithystp\000"
 3693      74687973 
 3693      747000
 3694 4a93 00       		.align	2
 3695              	.LC633:
 3696 4a94 6C687973 		.ascii	"lhystp\000"
 3696      747000
 3697 4a9b 00       		.align	2
 3698              	.LC634:
 3699 4a9c 2A205061 		.ascii	"* Pan Absolute Sensor Limit Hysteresis setted to %+"
 3699      6E204162 
 3699      736F6C75 
 3699      74652053 
 3699      656E736F 
 3700 4acf 3664205B 		.ascii	"6d [adc raw]\015\012\000"
 3700      61646320 
 3700      7261775D 
 3700      0D0A00
 3701 4ade 0000     		.align	2
 3702              	.LC635:
 3703 4ae0 2A205061 		.ascii	"* Pan Encoder over Absolute Sensor ratio setted to "
 3703      6E20456E 
 3703      636F6465 
 3703      72206F76 
 3703      65722041 
 3704 4b13 252B322E 		.ascii	"%+2.6f [adc raw/step]\015\012\000"
 3704      3666205B 
 3704      61646320 
 3704      7261772F 
 3704      73746570 
 3705 4b2b 00       		.align	2
 3706              	.LC636:
 3707 4b2c 6C696D69 		.ascii	"limitct\000"
 3707      74637400 
 3708              		.align	2
 3709              	.LC637:
 3710 4b34 6C637400 		.ascii	"lct\000"
 3711              		.align	2
 3712              	.LC638:
 3713 4b38 2A205469 		.ascii	"* Tilt Motor Limit Control setted to %2u\000"
 3713      6C74204D 
 3713      6F746F72 
 3713      204C696D 
 3713      69742043 
 3714 4b61 000000   		.align	2
 3715              	.LC639:
 3716 4b64 696E7661 		.ascii	"invabst\000"
 3716      62737400 
 3717              		.align	2
 3718              	.LC640:
 3719 4b6c 696E7674 		.ascii	"invt\000"
 3719      00
 3720 4b71 000000   		.align	2
 3721              	.LC641:
 3722 4b74 2A205469 		.ascii	"* Tilt Absolute Sensor Invertion setted to %2u\015\012"
 3722      6C742041 
 3722      62736F6C 
ARM GAS  C:\Users\GRAZIA~1.RAV\AppData\Local\Temp\ccodpSVr.s 			page 119


 3722      75746520 
 3722      53656E73 
 3723 4ba4 00       		.ascii	"\000"
 3724 4ba5 000000   		.align	2
 3725              	.LC642:
 3726 4ba8 7A65726F 		.ascii	"zeroabst\000"
 3726      61627374 
 3726      00
 3727 4bb1 000000   		.align	2
 3728              	.LC643:
 3729 4bb4 7A7400   		.ascii	"zt\000"
 3730 4bb7 00       		.align	2
 3731              	.LC644:
 3732 4bb8 2A205761 		.ascii	"* Warning! Put TILT Axis to zero (HOME) position an"
 3732      726E696E 
 3732      67212050 
 3732      75742054 
 3732      494C5420 
 3733 4beb 64207072 		.ascii	"d press y!\000"
 3733      65737320 
 3733      792100
 3734 4bf6 0000     		.align	2
 3735              	.LC645:
 3736 4bf8 2A205469 		.ascii	"* Tilt Absolute Sensor ZERO POSITION (HOME) setted "
 3736      6C742041 
 3736      62736F6C 
 3736      75746520 
 3736      53656E73 
 3737 4c2b 746F2025 		.ascii	"to %+6d [adc raw]\015\012\000"
 3737      2B366420 
 3737      5B616463 
 3737      20726177 
 3737      5D0D0A00 
 3738 4c3f 00       		.align	2
 3739              	.LC646:
 3740 4c40 0D0A2A20 		.ascii	"\015\012* Tilt Absolute Sensor position not sampled"
 3740      54696C74 
 3740      20416273 
 3740      6F6C7574 
 3740      65205365 
 3741 4c6d 210D00   		.ascii	"!\015\000"
 3742              		.align	2
 3743              	.LC647:
 3744 4c70 6C696D69 		.ascii	"limitmint\000"
 3744      746D696E 
 3744      7400
 3745 4c7a 0000     		.align	2
 3746              	.LC648:
 3747 4c7c 6C6D696E 		.ascii	"lmint\000"
 3747      7400
 3748 4c82 0000     		.align	2
 3749              	.LC649:
 3750 4c84 2A205761 		.ascii	"* Warning! Put TILT Axis to limit MIN position and "
 3750      726E696E 
 3750      67212050 
 3750      75742054 
 3750      494C5420 
ARM GAS  C:\Users\GRAZIA~1.RAV\AppData\Local\Temp\ccodpSVr.s 			page 120


 3751 4cb7 70726573 		.ascii	"press y!\000"
 3751      73207921 
 3751      00
 3752              		.align	2
 3753              	.LC650:
 3754 4cc0 2A205469 		.ascii	"* Tilt Absolute Sensor Limit MIN setted to %+6d [ad"
 3754      6C742041 
 3754      62736F6C 
 3754      75746520 
 3754      53656E73 
 3755 4cf3 63207261 		.ascii	"c raw]\015\012\000"
 3755      775D0D0A 
 3755      00
 3756              		.align	2
 3757              	.LC651:
 3758 4cfc 6C696D69 		.ascii	"limitmaxt\000"
 3758      746D6178 
 3758      7400
 3759 4d06 0000     		.align	2
 3760              	.LC652:
 3761 4d08 6C6D6178 		.ascii	"lmaxt\000"
 3761      7400
 3762 4d0e 0000     		.align	2
 3763              	.LC653:
 3764 4d10 2A205761 		.ascii	"* Warning! Put TILT Axis to limit MAX position and "
 3764      726E696E 
 3764      67212050 
 3764      75742054 
 3764      494C5420 
 3765 4d43 70726573 		.ascii	"press y!\000"
 3765      73207921 
 3765      00
 3766              		.align	2
 3767              	.LC654:
 3768 4d4c 2A205469 		.ascii	"* Tilt Absolute Sensor Limit MAX setted to %+6d [ad"
 3768      6C742041 
 3768      62736F6C 
 3768      75746520 
 3768      53656E73 
 3769 4d7f 63207261 		.ascii	"c raw]\015\012\000"
 3769      775D0D0A 
 3769      00
 3770              		.align	2
 3771              	.LC655:
 3772 4d88 6C696D69 		.ascii	"limithystt\000"
 3772      74687973 
 3772      747400
 3773 4d93 00       		.align	2
 3774              	.LC656:
 3775 4d94 6C687973 		.ascii	"lhystt\000"
 3775      747400
 3776 4d9b 00       		.align	2
 3777              	.LC657:
 3778 4d9c 2A205469 		.ascii	"* Tilt Absolute Sensor Limit Hysteresis setted to %"
 3778      6C742041 
 3778      62736F6C 
 3778      75746520 
ARM GAS  C:\Users\GRAZIA~1.RAV\AppData\Local\Temp\ccodpSVr.s 			page 121


 3778      53656E73 
 3779 4dcf 2B366420 		.ascii	"+6d [adc raw]\015\012\000"
 3779      5B616463 
 3779      20726177 
 3779      5D0D0A00 
 3780 4ddf 00       		.align	2
 3781              	.LC658:
 3782 4de0 2A205469 		.ascii	"* Tilt Encoder over Absolute Sensor ratio setted to"
 3782      6C742045 
 3782      6E636F64 
 3782      6572206F 
 3782      76657220 
 3783 4e13 20252B32 		.ascii	" %+2.6f [adc raw/step]\015\012\000"
 3783      2E366620 
 3783      5B616463 
 3783      20726177 
 3783      2F737465 
 3784              		.align	2
 3785              	.LC659:
 3786 4e2c 696D7569 		.ascii	"imuinvyaw\000"
 3786      6E767961 
 3786      7700
 3787 4e36 0000     		.align	2
 3788              	.LC660:
 3789 4e38 696D7579 		.ascii	"imuy\000"
 3789      00
 3790 4e3d 000000   		.align	2
 3791              	.LC661:
 3792 4e40 2A20496E 		.ascii	"* Invertion Yaw setted to %1u\015\012\000"
 3792      76657274 
 3792      696F6E20 
 3792      59617720 
 3792      73657474 
 3793              		.align	2
 3794              	.LC662:
 3795 4e60 696D7569 		.ascii	"imuinvpitch\000"
 3795      6E767069 
 3795      74636800 
 3796              		.align	2
 3797              	.LC663:
 3798 4e6c 696D7570 		.ascii	"imup\000"
 3798      00
 3799 4e71 000000   		.align	2
 3800              	.LC664:
 3801 4e74 2A20496E 		.ascii	"* Invertion Pitch setted to %1u\015\012\000"
 3801      76657274 
 3801      696F6E20 
 3801      50697463 
 3801      68207365 
 3802 4e96 0000     		.align	2
 3803              	.LC665:
 3804 4e98 696D7569 		.ascii	"imuinvroll\000"
 3804      6E76726F 
 3804      6C6C00
 3805 4ea3 00       		.align	2
 3806              	.LC666:
 3807 4ea4 696D7572 		.ascii	"imur\000"
ARM GAS  C:\Users\GRAZIA~1.RAV\AppData\Local\Temp\ccodpSVr.s 			page 122


 3807      00
 3808 4ea9 000000   		.align	2
 3809              	.LC667:
 3810 4eac 2A20496E 		.ascii	"* Invertion Roll setted to %1u\015\012\000"
 3810      76657274 
 3810      696F6E20 
 3810      526F6C6C 
 3810      20736574 
 3811 4ecd 000000   		.align	2
 3812              	.LC668:
 3813 4ed0 70726578 		.ascii	"prexchange\000"
 3813      6368616E 
 3813      676500
 3814 4edb 00       		.align	2
 3815              	.LC669:
 3816 4edc 70726578 		.ascii	"prex\000"
 3816      00
 3817 4ee1 000000   		.align	2
 3818              	.LC670:
 3819 4ee4 2A204578 		.ascii	"* Exchange Pitch Roll setted to %1u\015\012\000"
 3819      6368616E 
 3819      67652050 
 3819      69746368 
 3819      20526F6C 
 3820 4f0a 0000     		.align	2
 3821              	.LC671:
 3822 4f0c 636C6561 		.ascii	"clear\000"
 3822      7200
 3823 4f12 0000     		.align	2
 3824              	.LC672:
 3825 4f14 6300     		.ascii	"c\000"
 3826 4f16 0000     		.align	2
 3827              	.LC673:
 3828 4f18 0D0A2A20 		.ascii	"\015\012* Q%02d element (shot) Cleared!\015\012\000"
 3828      51253032 
 3828      6420656C 
 3828      656D656E 
 3828      74202873 
 3829              		.align	2
 3830              	.LC674:
 3831 4f3c 23455252 		.ascii	"#ERROR7: EEPROM row out of bounds!\000"
 3831      4F52373A 
 3831      20454550 
 3831      524F4D20 
 3831      726F7720 
 3832 4f5f 00       		.align	2
 3833              	.LC675:
 3834 4f60 0D0A2A20 		.ascii	"\015\012* Nothing to clear: Q element is not alloca"
 3834      4E6F7468 
 3834      696E6720 
 3834      746F2063 
 3834      6C656172 
 3835 4f8d 74656421 		.ascii	"ted!\015\000"
 3835      0D00
 3836 4f93 00       		.align	2
 3837              	.LC676:
 3838 4f94 2A205761 		.ascii	"* Warning! Put All Axes to desired position and pre"
ARM GAS  C:\Users\GRAZIA~1.RAV\AppData\Local\Temp\ccodpSVr.s 			page 123


 3838      726E696E 
 3838      67212050 
 3838      75742041 
 3838      6C6C2041 
 3839 4fc7 73732079 		.ascii	"ss y!\000"
 3839      2100
 3840 4fcd 000000   		.align	2
 3841              	.LC677:
 3842 4fd0 0D0A2A20 		.ascii	"\015\012* Q%02d element (shot) ABS position setted "
 3842      51253032 
 3842      6420656C 
 3842      656D656E 
 3842      74202873 
 3843 4ffd 746F3A20 		.ascii	"to: pan=%+ld [step]   tilt=%+ld [step] and saved to"
 3843      70616E3D 
 3843      252B6C64 
 3843      205B7374 
 3843      65705D20 
 3844 5030 204D656D 		.ascii	" Memory%2d\015\012\000"
 3844      6F727925 
 3844      32640D0A 
 3844      00
 3845 503d 000000   		.align	2
 3846              	.LC678:
 3847 5040 0D0A2A20 		.ascii	"\015\012* Q element (shot) position not sampled!\015"
 3847      5120656C 
 3847      656D656E 
 3847      74202873 
 3847      686F7429 
 3848 506b 00       		.ascii	"\000"
 3849              		.align	2
 3850              	.LC679:
 3851 506c 6B707000 		.ascii	"kpp\000"
 3852              		.align	2
 3853              	.LC680:
 3854 5070 2A205061 		.ascii	"* Pan Motor Kp setted to %1.4f\000"
 3854      6E204D6F 
 3854      746F7220 
 3854      4B702073 
 3854      65747465 
 3855 508f 00       		.align	2
 3856              	.LC681:
 3857 5090 6B707400 		.ascii	"kpt\000"
 3858              		.align	2
 3859              	.LC682:
 3860 5094 2A205469 		.ascii	"* Tilt Motor Kp setted to %1.4f\000"
 3860      6C74204D 
 3860      6F746F72 
 3860      204B7020 
 3860      73657474 
 3861              		.align	2
 3862              	.LC683:
 3863 50b4 6B647000 		.ascii	"kdp\000"
 3864              		.align	2
 3865              	.LC684:
 3866 50b8 2A205061 		.ascii	"* Pan Motor Kd setted to %1.4f\000"
 3866      6E204D6F 
ARM GAS  C:\Users\GRAZIA~1.RAV\AppData\Local\Temp\ccodpSVr.s 			page 124


 3866      746F7220 
 3866      4B642073 
 3866      65747465 
 3867 50d7 00       		.align	2
 3868              	.LC685:
 3869 50d8 6B647400 		.ascii	"kdt\000"
 3870              		.align	2
 3871              	.LC686:
 3872 50dc 2A205469 		.ascii	"* Tilt Motor Kd setted to %1.4f\000"
 3872      6C74204D 
 3872      6F746F72 
 3872      204B6420 
 3872      73657474 
 3873              		.align	2
 3874              	.LC687:
 3875 50fc 6B697000 		.ascii	"kip\000"
 3876              		.align	2
 3877              	.LC688:
 3878 5100 2A205061 		.ascii	"* Pan Motor Ki setted to %1.4f\000"
 3878      6E204D6F 
 3878      746F7220 
 3878      4B692073 
 3878      65747465 
 3879 511f 00       		.align	2
 3880              	.LC689:
 3881 5120 6B697400 		.ascii	"kit\000"
 3882              		.align	2
 3883              	.LC690:
 3884 5124 2A205469 		.ascii	"* Tilt Motor Ki setted to %1.4f\000"
 3884      6C74204D 
 3884      6F746F72 
 3884      204B6920 
 3884      73657474 
 3885              		.align	2
 3886              	.LC691:
 3887 5144 6B736970 		.ascii	"ksip\000"
 3887      00
 3888 5149 000000   		.align	2
 3889              	.LC692:
 3890 514c 2A205061 		.ascii	"* Pan Motor Ksi setted to %1.4f\000"
 3890      6E204D6F 
 3890      746F7220 
 3890      4B736920 
 3890      73657474 
 3891              		.align	2
 3892              	.LC693:
 3893 516c 6B736974 		.ascii	"ksit\000"
 3893      00
 3894 5171 000000   		.align	2
 3895              	.LC694:
 3896 5174 2A205469 		.ascii	"* Tilt Motor Ksi setted to %1.4f\000"
 3896      6C74204D 
 3896      6F746F72 
 3896      204B7369 
 3896      20736574 
 3897 5195 000000   		.align	2
 3898              	.LC695:
ARM GAS  C:\Users\GRAZIA~1.RAV\AppData\Local\Temp\ccodpSVr.s 			page 125


 3899 5198 616E616F 		.ascii	"anaoutaxis\000"
 3899      75746178 
 3899      697300
 3900 51a3 00       		.align	2
 3901              	.LC696:
 3902 51a4 61617869 		.ascii	"aaxis\000"
 3902      7300
 3903 51aa 0000     		.align	2
 3904              	.LC697:
 3905 51ac 70616E00 		.ascii	"pan\000"
 3906              		.align	2
 3907              	.LC698:
 3908 51b0 74696C74 		.ascii	"tilt\000"
 3908      00
 3909 51b5 000000   		.align	2
 3910              	.LC699:
 3911 51b8 2A20416E 		.ascii	"* Anaout Axis setted to PAN\015\000"
 3911      616F7574 
 3911      20417869 
 3911      73207365 
 3911      74746564 
 3912 51d5 000000   		.align	2
 3913              	.LC700:
 3914 51d8 2A20414E 		.ascii	"* ANAPOS ZERO!\015\000"
 3914      41504F53 
 3914      205A4552 
 3914      4F210D00 
 3915              		.align	2
 3916              	.LC701:
 3917 51e8 2A20416E 		.ascii	"* Anaout Axis setted to TILT\015\000"
 3917      616F7574 
 3917      20417869 
