ARM GAS  C:\Users\GRAZIA~1.RAV\AppData\Local\Temp\ccaWNOBy.s 			page 1


   1              		.syntax unified
   2              		.cpu cortex-m3
   3              		.fpu softvfp
   4              		.eabi_attribute 20, 1
   5              		.eabi_attribute 21, 1
   6              		.eabi_attribute 23, 3
   7              		.eabi_attribute 24, 1
   8              		.eabi_attribute 25, 1
   9              		.eabi_attribute 26, 1
  10              		.eabi_attribute 30, 6
  11              		.eabi_attribute 34, 1
  12              		.eabi_attribute 18, 4
  13              		.thumb
  14              		.file	"Counter_LED.c"
  15              		.text
  16              	.Ltext0:
  17              		.cfi_sections	.debug_frame
  18              		.global	Counter_LED_initVar
  19              		.bss
  20              		.type	Counter_LED_initVar, %object
  21              		.size	Counter_LED_initVar, 1
  22              	Counter_LED_initVar:
  23 0000 00       		.space	1
  24              		.section	.text.Counter_LED_Init,"ax",%progbits
  25              		.align	2
  26              		.global	Counter_LED_Init
  27              		.thumb
  28              		.thumb_func
  29              		.type	Counter_LED_Init, %function
  30              	Counter_LED_Init:
  31              	.LFB0:
  32              		.file 1 ".\\Generated_Source\\PSoC5\\Counter_LED.c"
   1:.\Generated_Source\PSoC5/Counter_LED.c **** /*******************************************************************************
   2:.\Generated_Source\PSoC5/Counter_LED.c **** * File Name: Counter_LED.c  
   3:.\Generated_Source\PSoC5/Counter_LED.c **** * Version 2.40
   4:.\Generated_Source\PSoC5/Counter_LED.c **** *
   5:.\Generated_Source\PSoC5/Counter_LED.c **** *  Description:
   6:.\Generated_Source\PSoC5/Counter_LED.c **** *     The Counter component consists of a 8, 16, 24 or 32-bit counter with
   7:.\Generated_Source\PSoC5/Counter_LED.c **** *     a selectable period between 2 and 2^Width - 1.  
   8:.\Generated_Source\PSoC5/Counter_LED.c **** *
   9:.\Generated_Source\PSoC5/Counter_LED.c **** *   Note:
  10:.\Generated_Source\PSoC5/Counter_LED.c **** *     None
  11:.\Generated_Source\PSoC5/Counter_LED.c **** *
  12:.\Generated_Source\PSoC5/Counter_LED.c **** *******************************************************************************
  13:.\Generated_Source\PSoC5/Counter_LED.c **** * Copyright 2008-2012, Cypress Semiconductor Corporation.  All rights reserved.
  14:.\Generated_Source\PSoC5/Counter_LED.c **** * You may use this file only in accordance with the license, terms, conditions, 
  15:.\Generated_Source\PSoC5/Counter_LED.c **** * disclaimers, and limitations in the end user license agreement accompanying 
  16:.\Generated_Source\PSoC5/Counter_LED.c **** * the software package with which this file was provided.
  17:.\Generated_Source\PSoC5/Counter_LED.c **** ********************************************************************************/
  18:.\Generated_Source\PSoC5/Counter_LED.c **** 
  19:.\Generated_Source\PSoC5/Counter_LED.c **** #include "Counter_LED.h"
  20:.\Generated_Source\PSoC5/Counter_LED.c **** 
  21:.\Generated_Source\PSoC5/Counter_LED.c **** uint8 Counter_LED_initVar = 0u;
  22:.\Generated_Source\PSoC5/Counter_LED.c **** 
  23:.\Generated_Source\PSoC5/Counter_LED.c **** 
  24:.\Generated_Source\PSoC5/Counter_LED.c **** /*******************************************************************************
  25:.\Generated_Source\PSoC5/Counter_LED.c **** * Function Name: Counter_LED_Init
ARM GAS  C:\Users\GRAZIA~1.RAV\AppData\Local\Temp\ccaWNOBy.s 			page 2


  26:.\Generated_Source\PSoC5/Counter_LED.c **** ********************************************************************************
  27:.\Generated_Source\PSoC5/Counter_LED.c **** * Summary:
  28:.\Generated_Source\PSoC5/Counter_LED.c **** *     Initialize to the schematic state
  29:.\Generated_Source\PSoC5/Counter_LED.c **** * 
  30:.\Generated_Source\PSoC5/Counter_LED.c **** * Parameters:  
  31:.\Generated_Source\PSoC5/Counter_LED.c **** *  void  
  32:.\Generated_Source\PSoC5/Counter_LED.c **** *
  33:.\Generated_Source\PSoC5/Counter_LED.c **** * Return: 
  34:.\Generated_Source\PSoC5/Counter_LED.c **** *  void
  35:.\Generated_Source\PSoC5/Counter_LED.c **** *
  36:.\Generated_Source\PSoC5/Counter_LED.c **** *******************************************************************************/
  37:.\Generated_Source\PSoC5/Counter_LED.c **** void Counter_LED_Init(void) 
  38:.\Generated_Source\PSoC5/Counter_LED.c **** {
  33              		.loc 1 38 0
  34              		.cfi_startproc
  35              		@ args = 0, pretend = 0, frame = 0
  36              		@ frame_needed = 1, uses_anonymous_args = 0
  37 0000 80B5     		push	{r7, lr}
  38              	.LCFI0:
  39              		.cfi_def_cfa_offset 8
  40              		.cfi_offset 7, -8
  41              		.cfi_offset 14, -4
  42 0002 00AF     		add	r7, sp, #0
  43              	.LCFI1:
  44              		.cfi_def_cfa_register 7
  39:.\Generated_Source\PSoC5/Counter_LED.c ****         #if (!Counter_LED_UsingFixedFunction && !Counter_LED_ControlRegRemoved)
  40:.\Generated_Source\PSoC5/Counter_LED.c ****             uint8 ctrl;
  41:.\Generated_Source\PSoC5/Counter_LED.c ****         #endif /* (!Counter_LED_UsingFixedFunction && !Counter_LED_ControlRegRemoved) */
  42:.\Generated_Source\PSoC5/Counter_LED.c ****         
  43:.\Generated_Source\PSoC5/Counter_LED.c ****         #if(!Counter_LED_UsingFixedFunction) 
  44:.\Generated_Source\PSoC5/Counter_LED.c ****             /* Interrupt State Backup for Critical Region*/
  45:.\Generated_Source\PSoC5/Counter_LED.c ****             uint8 Counter_LED_interruptState;
  46:.\Generated_Source\PSoC5/Counter_LED.c ****         #endif /* (!Counter_LED_UsingFixedFunction) */
  47:.\Generated_Source\PSoC5/Counter_LED.c ****         
  48:.\Generated_Source\PSoC5/Counter_LED.c ****         #if (Counter_LED_UsingFixedFunction)
  49:.\Generated_Source\PSoC5/Counter_LED.c ****             /* Clear all bits but the enable bit (if it's already set for Timer operation */
  50:.\Generated_Source\PSoC5/Counter_LED.c ****             Counter_LED_CONTROL &= Counter_LED_CTRL_ENABLE;
  45              		.loc 1 50 0
  46 0004 4FF49E43 		mov	r3, #20224
  47 0008 C4F20003 		movt	r3, 16384
  48 000c 4FF49E42 		mov	r2, #20224
  49 0010 C4F20002 		movt	r2, 16384
  50 0014 1278     		ldrb	r2, [r2, #0]
  51 0016 D2B2     		uxtb	r2, r2
  52 0018 02F00102 		and	r2, r2, #1
  53 001c D2B2     		uxtb	r2, r2
  54 001e 1A70     		strb	r2, [r3, #0]
  51:.\Generated_Source\PSoC5/Counter_LED.c ****             
  52:.\Generated_Source\PSoC5/Counter_LED.c ****             /* Clear the mode bits for continuous run mode */
  53:.\Generated_Source\PSoC5/Counter_LED.c ****             #if (CY_PSOC5A)
  54:.\Generated_Source\PSoC5/Counter_LED.c ****                 Counter_LED_CONTROL2 &= ((uint8)(~Counter_LED_CTRL_MODE_MASK));
  55:.\Generated_Source\PSoC5/Counter_LED.c ****             #endif /* (CY_PSOC5A) */
  56:.\Generated_Source\PSoC5/Counter_LED.c ****             #if (CY_PSOC3 || CY_PSOC5LP)
  57:.\Generated_Source\PSoC5/Counter_LED.c ****                 Counter_LED_CONTROL3 &= ((uint8)(~Counter_LED_CTRL_MODE_MASK));                
  55              		.loc 1 57 0
  56 0020 44F60273 		movw	r3, #20226
  57 0024 C4F20003 		movt	r3, 16384
ARM GAS  C:\Users\GRAZIA~1.RAV\AppData\Local\Temp\ccaWNOBy.s 			page 3


  58 0028 44F60272 		movw	r2, #20226
  59 002c C4F20002 		movt	r2, 16384
  60 0030 1278     		ldrb	r2, [r2, #0]
  61 0032 D2B2     		uxtb	r2, r2
  62 0034 22F00302 		bic	r2, r2, #3
  63 0038 D2B2     		uxtb	r2, r2
  64 003a 1A70     		strb	r2, [r3, #0]
  58:.\Generated_Source\PSoC5/Counter_LED.c ****             #endif /* (CY_PSOC3 || CY_PSOC5LP) */
  59:.\Generated_Source\PSoC5/Counter_LED.c ****             /* Check if One Shot mode is enabled i.e. RunMode !=0*/
  60:.\Generated_Source\PSoC5/Counter_LED.c ****             #if (Counter_LED_RunModeUsed != 0x0u)
  61:.\Generated_Source\PSoC5/Counter_LED.c ****                 /* Set 3rd bit of Control register to enable one shot mode */
  62:.\Generated_Source\PSoC5/Counter_LED.c ****                 Counter_LED_CONTROL |= Counter_LED_ONESHOT;
  63:.\Generated_Source\PSoC5/Counter_LED.c ****             #endif /* (Counter_LED_RunModeUsed != 0x0u) */
  64:.\Generated_Source\PSoC5/Counter_LED.c ****             
  65:.\Generated_Source\PSoC5/Counter_LED.c ****             /* Set the IRQ to use the status register interrupts */
  66:.\Generated_Source\PSoC5/Counter_LED.c ****             Counter_LED_CONTROL2 |= Counter_LED_CTRL2_IRQ_SEL;
  65              		.loc 1 66 0
  66 003c 44F60173 		movw	r3, #20225
  67 0040 C4F20003 		movt	r3, 16384
  68 0044 44F60172 		movw	r2, #20225
  69 0048 C4F20002 		movt	r2, 16384
  70 004c 1278     		ldrb	r2, [r2, #0]
  71 004e D2B2     		uxtb	r2, r2
  72 0050 42F00102 		orr	r2, r2, #1
  73 0054 D2B2     		uxtb	r2, r2
  74 0056 1A70     		strb	r2, [r3, #0]
  67:.\Generated_Source\PSoC5/Counter_LED.c ****             
  68:.\Generated_Source\PSoC5/Counter_LED.c ****             /* Clear and Set SYNCTC and SYNCCMP bits of RT1 register */
  69:.\Generated_Source\PSoC5/Counter_LED.c ****             Counter_LED_RT1 &= ((uint8)(~Counter_LED_RT1_MASK));
  75              		.loc 1 69 0
  76 0058 44F60B73 		movw	r3, #20235
  77 005c C4F20003 		movt	r3, 16384
  78 0060 44F60B72 		movw	r2, #20235
  79 0064 C4F20002 		movt	r2, 16384
  80 0068 1278     		ldrb	r2, [r2, #0]
  81 006a D2B2     		uxtb	r2, r2
  82 006c 22F03002 		bic	r2, r2, #48
  83 0070 D2B2     		uxtb	r2, r2
  84 0072 1A70     		strb	r2, [r3, #0]
  70:.\Generated_Source\PSoC5/Counter_LED.c ****             Counter_LED_RT1 |= Counter_LED_SYNC;     
  85              		.loc 1 70 0
  86 0074 44F60B73 		movw	r3, #20235
  87 0078 C4F20003 		movt	r3, 16384
  88 007c 44F60B72 		movw	r2, #20235
  89 0080 C4F20002 		movt	r2, 16384
  90 0084 1278     		ldrb	r2, [r2, #0]
  91 0086 D2B2     		uxtb	r2, r2
  92 0088 42F03002 		orr	r2, r2, #48
  93 008c D2B2     		uxtb	r2, r2
  94 008e 1A70     		strb	r2, [r3, #0]
  71:.\Generated_Source\PSoC5/Counter_LED.c ****                     
  72:.\Generated_Source\PSoC5/Counter_LED.c ****             /*Enable DSI Sync all all inputs of the Timer*/
  73:.\Generated_Source\PSoC5/Counter_LED.c ****             Counter_LED_RT1 &= ((uint8)(~Counter_LED_SYNCDSI_MASK));
  95              		.loc 1 73 0
  96 0090 44F60B73 		movw	r3, #20235
  97 0094 C4F20003 		movt	r3, 16384
  98 0098 44F60B72 		movw	r2, #20235
ARM GAS  C:\Users\GRAZIA~1.RAV\AppData\Local\Temp\ccaWNOBy.s 			page 4


  99 009c C4F20002 		movt	r2, 16384
 100 00a0 1278     		ldrb	r2, [r2, #0]
 101 00a2 D2B2     		uxtb	r2, r2
 102 00a4 22F00F02 		bic	r2, r2, #15
 103 00a8 D2B2     		uxtb	r2, r2
 104 00aa 1A70     		strb	r2, [r3, #0]
  74:.\Generated_Source\PSoC5/Counter_LED.c ****             Counter_LED_RT1 |= Counter_LED_SYNCDSI_EN;
 105              		.loc 1 74 0
 106 00ac 44F60B73 		movw	r3, #20235
 107 00b0 C4F20003 		movt	r3, 16384
 108 00b4 44F60B72 		movw	r2, #20235
 109 00b8 C4F20002 		movt	r2, 16384
 110 00bc 1278     		ldrb	r2, [r2, #0]
 111 00be D2B2     		uxtb	r2, r2
 112 00c0 42F00F02 		orr	r2, r2, #15
 113 00c4 D2B2     		uxtb	r2, r2
 114 00c6 1A70     		strb	r2, [r3, #0]
  75:.\Generated_Source\PSoC5/Counter_LED.c **** 
  76:.\Generated_Source\PSoC5/Counter_LED.c ****         #else
  77:.\Generated_Source\PSoC5/Counter_LED.c ****             #if(!Counter_LED_ControlRegRemoved)
  78:.\Generated_Source\PSoC5/Counter_LED.c ****             /* Set the default compare mode defined in the parameter */
  79:.\Generated_Source\PSoC5/Counter_LED.c ****             ctrl = Counter_LED_CONTROL & ((uint8)(~Counter_LED_CTRL_CMPMODE_MASK));
  80:.\Generated_Source\PSoC5/Counter_LED.c ****             Counter_LED_CONTROL = ctrl | Counter_LED_DEFAULT_COMPARE_MODE;
  81:.\Generated_Source\PSoC5/Counter_LED.c ****             
  82:.\Generated_Source\PSoC5/Counter_LED.c ****             /* Set the default capture mode defined in the parameter */
  83:.\Generated_Source\PSoC5/Counter_LED.c ****             ctrl = Counter_LED_CONTROL & ((uint8)(~Counter_LED_CTRL_CAPMODE_MASK));
  84:.\Generated_Source\PSoC5/Counter_LED.c ****             
  85:.\Generated_Source\PSoC5/Counter_LED.c ****             #if( 0 != Counter_LED_CAPTURE_MODE_CONF)
  86:.\Generated_Source\PSoC5/Counter_LED.c ****                 Counter_LED_CONTROL = ctrl | Counter_LED_DEFAULT_CAPTURE_MODE;
  87:.\Generated_Source\PSoC5/Counter_LED.c ****             #else
  88:.\Generated_Source\PSoC5/Counter_LED.c ****                 Counter_LED_CONTROL = ctrl;
  89:.\Generated_Source\PSoC5/Counter_LED.c ****             #endif /* 0 != Counter_LED_CAPTURE_MODE */ 
  90:.\Generated_Source\PSoC5/Counter_LED.c ****             
  91:.\Generated_Source\PSoC5/Counter_LED.c ****             #endif /* (!Counter_LED_ControlRegRemoved) */
  92:.\Generated_Source\PSoC5/Counter_LED.c ****         #endif /* (Counter_LED_UsingFixedFunction) */
  93:.\Generated_Source\PSoC5/Counter_LED.c ****         
  94:.\Generated_Source\PSoC5/Counter_LED.c ****         /* Clear all data in the FIFO's */
  95:.\Generated_Source\PSoC5/Counter_LED.c ****         #if (!Counter_LED_UsingFixedFunction)
  96:.\Generated_Source\PSoC5/Counter_LED.c ****             Counter_LED_ClearFIFO();
  97:.\Generated_Source\PSoC5/Counter_LED.c ****         #endif /* (!Counter_LED_UsingFixedFunction) */
  98:.\Generated_Source\PSoC5/Counter_LED.c ****         
  99:.\Generated_Source\PSoC5/Counter_LED.c ****         /* Set Initial values from Configuration */
 100:.\Generated_Source\PSoC5/Counter_LED.c ****         Counter_LED_WritePeriod(Counter_LED_INIT_PERIOD_VALUE);
 115              		.loc 1 100 0
 116 00c8 4FF01400 		mov	r0, #20
 117 00cc FFF7FEFF 		bl	Counter_LED_WritePeriod
 101:.\Generated_Source\PSoC5/Counter_LED.c ****         #if (!(Counter_LED_UsingFixedFunction && (CY_PSOC5A)))
 102:.\Generated_Source\PSoC5/Counter_LED.c ****             Counter_LED_WriteCounter(Counter_LED_INIT_COUNTER_VALUE);
 118              		.loc 1 102 0
 119 00d0 4FF01400 		mov	r0, #20
 120 00d4 FFF7FEFF 		bl	Counter_LED_WriteCounter
 103:.\Generated_Source\PSoC5/Counter_LED.c ****         #endif /* (!(Counter_LED_UsingFixedFunction && (CY_PSOC5A))) */
 104:.\Generated_Source\PSoC5/Counter_LED.c ****         Counter_LED_SetInterruptMode(Counter_LED_INIT_INTERRUPTS_MASK);
 121              		.loc 1 104 0
 122 00d8 4FF00000 		mov	r0, #0
 123 00dc FFF7FEFF 		bl	Counter_LED_SetInterruptMode
 105:.\Generated_Source\PSoC5/Counter_LED.c ****         
ARM GAS  C:\Users\GRAZIA~1.RAV\AppData\Local\Temp\ccaWNOBy.s 			page 5


 106:.\Generated_Source\PSoC5/Counter_LED.c ****         #if (!Counter_LED_UsingFixedFunction)
 107:.\Generated_Source\PSoC5/Counter_LED.c ****             /* Read the status register to clear the unwanted interrupts */
 108:.\Generated_Source\PSoC5/Counter_LED.c ****             (void)Counter_LED_ReadStatusRegister();
 109:.\Generated_Source\PSoC5/Counter_LED.c ****             /* Set the compare value (only available to non-fixed function implementation */
 110:.\Generated_Source\PSoC5/Counter_LED.c ****             Counter_LED_WriteCompare(Counter_LED_INIT_COMPARE_VALUE);
 111:.\Generated_Source\PSoC5/Counter_LED.c ****             /* Use the interrupt output of the status register for IRQ output */
 112:.\Generated_Source\PSoC5/Counter_LED.c ****             
 113:.\Generated_Source\PSoC5/Counter_LED.c ****             /* CyEnterCriticalRegion and CyExitCriticalRegion are used to mark following region cri
 114:.\Generated_Source\PSoC5/Counter_LED.c ****             /* Enter Critical Region*/
 115:.\Generated_Source\PSoC5/Counter_LED.c ****             Counter_LED_interruptState = CyEnterCriticalSection();
 116:.\Generated_Source\PSoC5/Counter_LED.c ****             
 117:.\Generated_Source\PSoC5/Counter_LED.c ****             Counter_LED_STATUS_AUX_CTRL |= Counter_LED_STATUS_ACTL_INT_EN_MASK;
 118:.\Generated_Source\PSoC5/Counter_LED.c ****             
 119:.\Generated_Source\PSoC5/Counter_LED.c ****             /* Exit Critical Region*/
 120:.\Generated_Source\PSoC5/Counter_LED.c ****             CyExitCriticalSection(Counter_LED_interruptState);
 121:.\Generated_Source\PSoC5/Counter_LED.c ****             
 122:.\Generated_Source\PSoC5/Counter_LED.c ****         #endif /* (!Counter_LED_UsingFixedFunction) */
 123:.\Generated_Source\PSoC5/Counter_LED.c **** }
 124              		.loc 1 123 0
 125 00e0 80BD     		pop	{r7, pc}
 126              		.cfi_endproc
 127              	.LFE0:
 128              		.size	Counter_LED_Init, .-Counter_LED_Init
 129 00e2 00BF     		.section	.text.Counter_LED_Enable,"ax",%progbits
 130              		.align	2
 131              		.global	Counter_LED_Enable
 132              		.thumb
 133              		.thumb_func
 134              		.type	Counter_LED_Enable, %function
 135              	Counter_LED_Enable:
 136              	.LFB1:
 124:.\Generated_Source\PSoC5/Counter_LED.c **** 
 125:.\Generated_Source\PSoC5/Counter_LED.c **** 
 126:.\Generated_Source\PSoC5/Counter_LED.c **** /*******************************************************************************
 127:.\Generated_Source\PSoC5/Counter_LED.c **** * Function Name: Counter_LED_Enable
 128:.\Generated_Source\PSoC5/Counter_LED.c **** ********************************************************************************
 129:.\Generated_Source\PSoC5/Counter_LED.c **** * Summary:
 130:.\Generated_Source\PSoC5/Counter_LED.c **** *     Enable the Counter
 131:.\Generated_Source\PSoC5/Counter_LED.c **** * 
 132:.\Generated_Source\PSoC5/Counter_LED.c **** * Parameters:  
 133:.\Generated_Source\PSoC5/Counter_LED.c **** *  void  
 134:.\Generated_Source\PSoC5/Counter_LED.c **** *
 135:.\Generated_Source\PSoC5/Counter_LED.c **** * Return: 
 136:.\Generated_Source\PSoC5/Counter_LED.c **** *  void
 137:.\Generated_Source\PSoC5/Counter_LED.c **** *
 138:.\Generated_Source\PSoC5/Counter_LED.c **** * Side Effects: 
 139:.\Generated_Source\PSoC5/Counter_LED.c **** *   If the Enable mode is set to Hardware only then this function has no effect 
 140:.\Generated_Source\PSoC5/Counter_LED.c **** *   on the operation of the counter.
 141:.\Generated_Source\PSoC5/Counter_LED.c **** *
 142:.\Generated_Source\PSoC5/Counter_LED.c **** *******************************************************************************/
 143:.\Generated_Source\PSoC5/Counter_LED.c **** void Counter_LED_Enable(void) 
 144:.\Generated_Source\PSoC5/Counter_LED.c **** {
 137              		.loc 1 144 0
 138              		.cfi_startproc
 139              		@ args = 0, pretend = 0, frame = 0
 140              		@ frame_needed = 1, uses_anonymous_args = 0
 141              		@ link register save eliminated.
ARM GAS  C:\Users\GRAZIA~1.RAV\AppData\Local\Temp\ccaWNOBy.s 			page 6


 142 0000 80B4     		push	{r7}
 143              	.LCFI2:
 144              		.cfi_def_cfa_offset 4
 145              		.cfi_offset 7, -4
 146 0002 00AF     		add	r7, sp, #0
 147              	.LCFI3:
 148              		.cfi_def_cfa_register 7
 145:.\Generated_Source\PSoC5/Counter_LED.c ****     /* Globally Enable the Fixed Function Block chosen */
 146:.\Generated_Source\PSoC5/Counter_LED.c ****     #if (Counter_LED_UsingFixedFunction)
 147:.\Generated_Source\PSoC5/Counter_LED.c ****         Counter_LED_GLOBAL_ENABLE |= Counter_LED_BLOCK_EN_MASK;
 149              		.loc 1 147 0
 150 0004 44F2A333 		movw	r3, #17315
 151 0008 C4F20003 		movt	r3, 16384
 152 000c 44F2A332 		movw	r2, #17315
 153 0010 C4F20002 		movt	r2, 16384
 154 0014 1278     		ldrb	r2, [r2, #0]
 155 0016 D2B2     		uxtb	r2, r2
 156 0018 42F00102 		orr	r2, r2, #1
 157 001c D2B2     		uxtb	r2, r2
 158 001e 1A70     		strb	r2, [r3, #0]
 148:.\Generated_Source\PSoC5/Counter_LED.c ****         Counter_LED_GLOBAL_STBY_ENABLE |= Counter_LED_BLOCK_STBY_EN_MASK;
 159              		.loc 1 148 0
 160 0020 44F2B333 		movw	r3, #17331
 161 0024 C4F20003 		movt	r3, 16384
 162 0028 44F2B332 		movw	r2, #17331
 163 002c C4F20002 		movt	r2, 16384
 164 0030 1278     		ldrb	r2, [r2, #0]
 165 0032 D2B2     		uxtb	r2, r2
 166 0034 42F00102 		orr	r2, r2, #1
 167 0038 D2B2     		uxtb	r2, r2
 168 003a 1A70     		strb	r2, [r3, #0]
 149:.\Generated_Source\PSoC5/Counter_LED.c ****     #endif /* (Counter_LED_UsingFixedFunction) */  
 150:.\Generated_Source\PSoC5/Counter_LED.c ****         
 151:.\Generated_Source\PSoC5/Counter_LED.c ****     /* Enable the counter from the control register  */
 152:.\Generated_Source\PSoC5/Counter_LED.c ****     /* If Fixed Function then make sure Mode is set correctly */
 153:.\Generated_Source\PSoC5/Counter_LED.c ****     /* else make sure reset is clear */
 154:.\Generated_Source\PSoC5/Counter_LED.c ****     #if(!Counter_LED_ControlRegRemoved || Counter_LED_UsingFixedFunction)
 155:.\Generated_Source\PSoC5/Counter_LED.c ****         Counter_LED_CONTROL |= Counter_LED_CTRL_ENABLE;                
 169              		.loc 1 155 0
 170 003c 4FF49E43 		mov	r3, #20224
 171 0040 C4F20003 		movt	r3, 16384
 172 0044 4FF49E42 		mov	r2, #20224
 173 0048 C4F20002 		movt	r2, 16384
 174 004c 1278     		ldrb	r2, [r2, #0]
 175 004e D2B2     		uxtb	r2, r2
 176 0050 42F00102 		orr	r2, r2, #1
 177 0054 D2B2     		uxtb	r2, r2
 178 0056 1A70     		strb	r2, [r3, #0]
 156:.\Generated_Source\PSoC5/Counter_LED.c ****     #endif /* (!Counter_LED_ControlRegRemoved || Counter_LED_UsingFixedFunction) */
 157:.\Generated_Source\PSoC5/Counter_LED.c ****     
 158:.\Generated_Source\PSoC5/Counter_LED.c **** }
 179              		.loc 1 158 0
 180 0058 BD46     		mov	sp, r7
 181 005a 80BC     		pop	{r7}
 182 005c 7047     		bx	lr
 183              		.cfi_endproc
 184              	.LFE1:
ARM GAS  C:\Users\GRAZIA~1.RAV\AppData\Local\Temp\ccaWNOBy.s 			page 7


 185              		.size	Counter_LED_Enable, .-Counter_LED_Enable
 186 005e 00BF     		.section	.text.Counter_LED_Start,"ax",%progbits
 187              		.align	2
 188              		.global	Counter_LED_Start
 189              		.thumb
 190              		.thumb_func
 191              		.type	Counter_LED_Start, %function
 192              	Counter_LED_Start:
 193              	.LFB2:
 159:.\Generated_Source\PSoC5/Counter_LED.c **** 
 160:.\Generated_Source\PSoC5/Counter_LED.c **** 
 161:.\Generated_Source\PSoC5/Counter_LED.c **** /*******************************************************************************
 162:.\Generated_Source\PSoC5/Counter_LED.c **** * Function Name: Counter_LED_Start
 163:.\Generated_Source\PSoC5/Counter_LED.c **** ********************************************************************************
 164:.\Generated_Source\PSoC5/Counter_LED.c **** * Summary:
 165:.\Generated_Source\PSoC5/Counter_LED.c **** *  Enables the counter for operation 
 166:.\Generated_Source\PSoC5/Counter_LED.c **** *
 167:.\Generated_Source\PSoC5/Counter_LED.c **** * Parameters:  
 168:.\Generated_Source\PSoC5/Counter_LED.c **** *  void  
 169:.\Generated_Source\PSoC5/Counter_LED.c **** *
 170:.\Generated_Source\PSoC5/Counter_LED.c **** * Return: 
 171:.\Generated_Source\PSoC5/Counter_LED.c **** *  void
 172:.\Generated_Source\PSoC5/Counter_LED.c **** *
 173:.\Generated_Source\PSoC5/Counter_LED.c **** * Global variables:
 174:.\Generated_Source\PSoC5/Counter_LED.c **** *  Counter_LED_initVar: Is modified when this function is called for the  
 175:.\Generated_Source\PSoC5/Counter_LED.c **** *   first time. Is used to ensure that initialization happens only once.
 176:.\Generated_Source\PSoC5/Counter_LED.c **** *
 177:.\Generated_Source\PSoC5/Counter_LED.c **** *******************************************************************************/
 178:.\Generated_Source\PSoC5/Counter_LED.c **** void Counter_LED_Start(void) 
 179:.\Generated_Source\PSoC5/Counter_LED.c **** {
 194              		.loc 1 179 0
 195              		.cfi_startproc
 196              		@ args = 0, pretend = 0, frame = 0
 197              		@ frame_needed = 1, uses_anonymous_args = 0
 198 0000 80B5     		push	{r7, lr}
 199              	.LCFI4:
 200              		.cfi_def_cfa_offset 8
 201              		.cfi_offset 7, -8
 202              		.cfi_offset 14, -4
 203 0002 00AF     		add	r7, sp, #0
 204              	.LCFI5:
 205              		.cfi_def_cfa_register 7
 180:.\Generated_Source\PSoC5/Counter_LED.c ****     if(Counter_LED_initVar == 0u)
 206              		.loc 1 180 0
 207 0004 40F20003 		movw	r3, #:lower16:Counter_LED_initVar
 208 0008 C0F20003 		movt	r3, #:upper16:Counter_LED_initVar
 209 000c 1B78     		ldrb	r3, [r3, #0]	@ zero_extendqisi2
 210 000e 002B     		cmp	r3, #0
 211 0010 08D1     		bne	.L4
 181:.\Generated_Source\PSoC5/Counter_LED.c ****     {
 182:.\Generated_Source\PSoC5/Counter_LED.c ****         Counter_LED_Init();
 212              		.loc 1 182 0
 213 0012 FFF7FEFF 		bl	Counter_LED_Init
 183:.\Generated_Source\PSoC5/Counter_LED.c ****         
 184:.\Generated_Source\PSoC5/Counter_LED.c ****         Counter_LED_initVar = 1u; /* Clear this bit for Initialization */        
 214              		.loc 1 184 0
 215 0016 40F20003 		movw	r3, #:lower16:Counter_LED_initVar
ARM GAS  C:\Users\GRAZIA~1.RAV\AppData\Local\Temp\ccaWNOBy.s 			page 8


 216 001a C0F20003 		movt	r3, #:upper16:Counter_LED_initVar
 217 001e 4FF00102 		mov	r2, #1
 218 0022 1A70     		strb	r2, [r3, #0]
 219              	.L4:
 185:.\Generated_Source\PSoC5/Counter_LED.c ****     }
 186:.\Generated_Source\PSoC5/Counter_LED.c ****     
 187:.\Generated_Source\PSoC5/Counter_LED.c ****     /* Enable the Counter */
 188:.\Generated_Source\PSoC5/Counter_LED.c ****     Counter_LED_Enable();        
 220              		.loc 1 188 0
 221 0024 FFF7FEFF 		bl	Counter_LED_Enable
 189:.\Generated_Source\PSoC5/Counter_LED.c **** }
 222              		.loc 1 189 0
 223 0028 80BD     		pop	{r7, pc}
 224              		.cfi_endproc
 225              	.LFE2:
 226              		.size	Counter_LED_Start, .-Counter_LED_Start
 227 002a 00BF     		.section	.text.Counter_LED_Stop,"ax",%progbits
 228              		.align	2
 229              		.global	Counter_LED_Stop
 230              		.thumb
 231              		.thumb_func
 232              		.type	Counter_LED_Stop, %function
 233              	Counter_LED_Stop:
 234              	.LFB3:
 190:.\Generated_Source\PSoC5/Counter_LED.c **** 
 191:.\Generated_Source\PSoC5/Counter_LED.c **** 
 192:.\Generated_Source\PSoC5/Counter_LED.c **** /*******************************************************************************
 193:.\Generated_Source\PSoC5/Counter_LED.c **** * Function Name: Counter_LED_Stop
 194:.\Generated_Source\PSoC5/Counter_LED.c **** ********************************************************************************
 195:.\Generated_Source\PSoC5/Counter_LED.c **** * Summary:
 196:.\Generated_Source\PSoC5/Counter_LED.c **** * Halts the counter, but does not change any modes or disable interrupts.
 197:.\Generated_Source\PSoC5/Counter_LED.c **** *
 198:.\Generated_Source\PSoC5/Counter_LED.c **** * Parameters:  
 199:.\Generated_Source\PSoC5/Counter_LED.c **** *  void  
 200:.\Generated_Source\PSoC5/Counter_LED.c **** *
 201:.\Generated_Source\PSoC5/Counter_LED.c **** * Return: 
 202:.\Generated_Source\PSoC5/Counter_LED.c **** *  void
 203:.\Generated_Source\PSoC5/Counter_LED.c **** *
 204:.\Generated_Source\PSoC5/Counter_LED.c **** * Side Effects: If the Enable mode is set to Hardware only then this function
 205:.\Generated_Source\PSoC5/Counter_LED.c **** *               has no effect on the operation of the counter.
 206:.\Generated_Source\PSoC5/Counter_LED.c **** *
 207:.\Generated_Source\PSoC5/Counter_LED.c **** *******************************************************************************/
 208:.\Generated_Source\PSoC5/Counter_LED.c **** void Counter_LED_Stop(void) 
 209:.\Generated_Source\PSoC5/Counter_LED.c **** {
 235              		.loc 1 209 0
 236              		.cfi_startproc
 237              		@ args = 0, pretend = 0, frame = 0
 238              		@ frame_needed = 1, uses_anonymous_args = 0
 239              		@ link register save eliminated.
 240 0000 80B4     		push	{r7}
 241              	.LCFI6:
 242              		.cfi_def_cfa_offset 4
 243              		.cfi_offset 7, -4
 244 0002 00AF     		add	r7, sp, #0
 245              	.LCFI7:
 246              		.cfi_def_cfa_register 7
 210:.\Generated_Source\PSoC5/Counter_LED.c ****     /* Disable Counter */
ARM GAS  C:\Users\GRAZIA~1.RAV\AppData\Local\Temp\ccaWNOBy.s 			page 9


 211:.\Generated_Source\PSoC5/Counter_LED.c ****     #if(!Counter_LED_ControlRegRemoved || Counter_LED_UsingFixedFunction)
 212:.\Generated_Source\PSoC5/Counter_LED.c ****         Counter_LED_CONTROL &= ((uint8)(~Counter_LED_CTRL_ENABLE));        
 247              		.loc 1 212 0
 248 0004 4FF49E43 		mov	r3, #20224
 249 0008 C4F20003 		movt	r3, 16384
 250 000c 4FF49E42 		mov	r2, #20224
 251 0010 C4F20002 		movt	r2, 16384
 252 0014 1278     		ldrb	r2, [r2, #0]
 253 0016 D2B2     		uxtb	r2, r2
 254 0018 22F00102 		bic	r2, r2, #1
 255 001c D2B2     		uxtb	r2, r2
 256 001e 1A70     		strb	r2, [r3, #0]
 213:.\Generated_Source\PSoC5/Counter_LED.c ****     #endif /* (!Counter_LED_ControlRegRemoved || Counter_LED_UsingFixedFunction) */
 214:.\Generated_Source\PSoC5/Counter_LED.c ****     
 215:.\Generated_Source\PSoC5/Counter_LED.c ****     /* Globally disable the Fixed Function Block chosen */
 216:.\Generated_Source\PSoC5/Counter_LED.c ****     #if (Counter_LED_UsingFixedFunction)
 217:.\Generated_Source\PSoC5/Counter_LED.c ****         Counter_LED_GLOBAL_ENABLE &= ((uint8)(~Counter_LED_BLOCK_EN_MASK));
 257              		.loc 1 217 0
 258 0020 44F2A333 		movw	r3, #17315
 259 0024 C4F20003 		movt	r3, 16384
 260 0028 44F2A332 		movw	r2, #17315
 261 002c C4F20002 		movt	r2, 16384
 262 0030 1278     		ldrb	r2, [r2, #0]
 263 0032 D2B2     		uxtb	r2, r2
 264 0034 22F00102 		bic	r2, r2, #1
 265 0038 D2B2     		uxtb	r2, r2
 266 003a 1A70     		strb	r2, [r3, #0]
 218:.\Generated_Source\PSoC5/Counter_LED.c ****         Counter_LED_GLOBAL_STBY_ENABLE &= ((uint8)(~Counter_LED_BLOCK_STBY_EN_MASK));
 267              		.loc 1 218 0
 268 003c 44F2B333 		movw	r3, #17331
 269 0040 C4F20003 		movt	r3, 16384
 270 0044 44F2B332 		movw	r2, #17331
 271 0048 C4F20002 		movt	r2, 16384
 272 004c 1278     		ldrb	r2, [r2, #0]
 273 004e D2B2     		uxtb	r2, r2
 274 0050 22F00102 		bic	r2, r2, #1
 275 0054 D2B2     		uxtb	r2, r2
 276 0056 1A70     		strb	r2, [r3, #0]
 219:.\Generated_Source\PSoC5/Counter_LED.c ****     #endif /* (Counter_LED_UsingFixedFunction) */
 220:.\Generated_Source\PSoC5/Counter_LED.c **** }
 277              		.loc 1 220 0
 278 0058 BD46     		mov	sp, r7
 279 005a 80BC     		pop	{r7}
 280 005c 7047     		bx	lr
 281              		.cfi_endproc
 282              	.LFE3:
 283              		.size	Counter_LED_Stop, .-Counter_LED_Stop
 284 005e 00BF     		.section	.text.Counter_LED_SetInterruptMode,"ax",%progbits
 285              		.align	2
 286              		.global	Counter_LED_SetInterruptMode
 287              		.thumb
 288              		.thumb_func
 289              		.type	Counter_LED_SetInterruptMode, %function
 290              	Counter_LED_SetInterruptMode:
 291              	.LFB4:
 221:.\Generated_Source\PSoC5/Counter_LED.c **** 
 222:.\Generated_Source\PSoC5/Counter_LED.c **** 
ARM GAS  C:\Users\GRAZIA~1.RAV\AppData\Local\Temp\ccaWNOBy.s 			page 10


 223:.\Generated_Source\PSoC5/Counter_LED.c **** /*******************************************************************************
 224:.\Generated_Source\PSoC5/Counter_LED.c **** * Function Name: Counter_LED_SetInterruptMode
 225:.\Generated_Source\PSoC5/Counter_LED.c **** ********************************************************************************
 226:.\Generated_Source\PSoC5/Counter_LED.c **** * Summary:
 227:.\Generated_Source\PSoC5/Counter_LED.c **** * Configures which interrupt sources are enabled to generate the final interrupt
 228:.\Generated_Source\PSoC5/Counter_LED.c **** *
 229:.\Generated_Source\PSoC5/Counter_LED.c **** * Parameters:  
 230:.\Generated_Source\PSoC5/Counter_LED.c **** *  InterruptsMask: This parameter is an or'd collection of the status bits
 231:.\Generated_Source\PSoC5/Counter_LED.c **** *                   which will be allowed to generate the counters interrupt.   
 232:.\Generated_Source\PSoC5/Counter_LED.c **** *
 233:.\Generated_Source\PSoC5/Counter_LED.c **** * Return: 
 234:.\Generated_Source\PSoC5/Counter_LED.c **** *  void
 235:.\Generated_Source\PSoC5/Counter_LED.c **** *
 236:.\Generated_Source\PSoC5/Counter_LED.c **** *******************************************************************************/
 237:.\Generated_Source\PSoC5/Counter_LED.c **** void Counter_LED_SetInterruptMode(uint8 interruptsMask) 
 238:.\Generated_Source\PSoC5/Counter_LED.c **** {
 292              		.loc 1 238 0
 293              		.cfi_startproc
 294              		@ args = 0, pretend = 0, frame = 8
 295              		@ frame_needed = 1, uses_anonymous_args = 0
 296              		@ link register save eliminated.
 297 0000 80B4     		push	{r7}
 298              	.LCFI8:
 299              		.cfi_def_cfa_offset 4
 300              		.cfi_offset 7, -4
 301 0002 83B0     		sub	sp, sp, #12
 302              	.LCFI9:
 303              		.cfi_def_cfa_offset 16
 304 0004 00AF     		add	r7, sp, #0
 305              	.LCFI10:
 306              		.cfi_def_cfa_register 7
 307 0006 0346     		mov	r3, r0
 308 0008 FB71     		strb	r3, [r7, #7]
 239:.\Generated_Source\PSoC5/Counter_LED.c ****     Counter_LED_STATUS_MASK = interruptsMask;
 309              		.loc 1 239 0
 310 000a 44F60373 		movw	r3, #20227
 311 000e C4F20003 		movt	r3, 16384
 312 0012 FA79     		ldrb	r2, [r7, #7]
 313 0014 1A70     		strb	r2, [r3, #0]
 240:.\Generated_Source\PSoC5/Counter_LED.c **** }
 314              		.loc 1 240 0
 315 0016 07F10C07 		add	r7, r7, #12
 316 001a BD46     		mov	sp, r7
 317 001c 80BC     		pop	{r7}
 318 001e 7047     		bx	lr
 319              		.cfi_endproc
 320              	.LFE4:
 321              		.size	Counter_LED_SetInterruptMode, .-Counter_LED_SetInterruptMode
 322              		.section	.text.Counter_LED_ReadStatusRegister,"ax",%progbits
 323              		.align	2
 324              		.global	Counter_LED_ReadStatusRegister
 325              		.thumb
 326              		.thumb_func
 327              		.type	Counter_LED_ReadStatusRegister, %function
 328              	Counter_LED_ReadStatusRegister:
 329              	.LFB5:
 241:.\Generated_Source\PSoC5/Counter_LED.c **** 
ARM GAS  C:\Users\GRAZIA~1.RAV\AppData\Local\Temp\ccaWNOBy.s 			page 11


 242:.\Generated_Source\PSoC5/Counter_LED.c **** 
 243:.\Generated_Source\PSoC5/Counter_LED.c **** /*******************************************************************************
 244:.\Generated_Source\PSoC5/Counter_LED.c **** * Function Name: Counter_LED_ReadStatusRegister
 245:.\Generated_Source\PSoC5/Counter_LED.c **** ********************************************************************************
 246:.\Generated_Source\PSoC5/Counter_LED.c **** * Summary:
 247:.\Generated_Source\PSoC5/Counter_LED.c **** *   Reads the status register and returns it's state. This function should use
 248:.\Generated_Source\PSoC5/Counter_LED.c **** *       defined types for the bit-field information as the bits in this
 249:.\Generated_Source\PSoC5/Counter_LED.c **** *       register may be permuteable.
 250:.\Generated_Source\PSoC5/Counter_LED.c **** *
 251:.\Generated_Source\PSoC5/Counter_LED.c **** * Parameters:  
 252:.\Generated_Source\PSoC5/Counter_LED.c **** *  void
 253:.\Generated_Source\PSoC5/Counter_LED.c **** *
 254:.\Generated_Source\PSoC5/Counter_LED.c **** * Return: 
 255:.\Generated_Source\PSoC5/Counter_LED.c **** *  (uint8) The contents of the status register
 256:.\Generated_Source\PSoC5/Counter_LED.c **** *
 257:.\Generated_Source\PSoC5/Counter_LED.c **** * Side Effects:
 258:.\Generated_Source\PSoC5/Counter_LED.c **** *   Status register bits may be clear on read. 
 259:.\Generated_Source\PSoC5/Counter_LED.c **** *
 260:.\Generated_Source\PSoC5/Counter_LED.c **** *******************************************************************************/
 261:.\Generated_Source\PSoC5/Counter_LED.c **** uint8   Counter_LED_ReadStatusRegister(void) 
 262:.\Generated_Source\PSoC5/Counter_LED.c **** {
 330              		.loc 1 262 0
 331              		.cfi_startproc
 332              		@ args = 0, pretend = 0, frame = 0
 333              		@ frame_needed = 1, uses_anonymous_args = 0
 334              		@ link register save eliminated.
 335 0000 80B4     		push	{r7}
 336              	.LCFI11:
 337              		.cfi_def_cfa_offset 4
 338              		.cfi_offset 7, -4
 339 0002 00AF     		add	r7, sp, #0
 340              	.LCFI12:
 341              		.cfi_def_cfa_register 7
 263:.\Generated_Source\PSoC5/Counter_LED.c ****     return Counter_LED_STATUS;
 342              		.loc 1 263 0
 343 0004 44F60373 		movw	r3, #20227
 344 0008 C4F20003 		movt	r3, 16384
 345 000c 1B78     		ldrb	r3, [r3, #0]
 346 000e DBB2     		uxtb	r3, r3
 264:.\Generated_Source\PSoC5/Counter_LED.c **** }
 347              		.loc 1 264 0
 348 0010 1846     		mov	r0, r3
 349 0012 BD46     		mov	sp, r7
 350 0014 80BC     		pop	{r7}
 351 0016 7047     		bx	lr
 352              		.cfi_endproc
 353              	.LFE5:
 354              		.size	Counter_LED_ReadStatusRegister, .-Counter_LED_ReadStatusRegister
 355              		.section	.text.Counter_LED_ReadControlRegister,"ax",%progbits
 356              		.align	2
 357              		.global	Counter_LED_ReadControlRegister
 358              		.thumb
 359              		.thumb_func
 360              		.type	Counter_LED_ReadControlRegister, %function
 361              	Counter_LED_ReadControlRegister:
 362              	.LFB6:
 265:.\Generated_Source\PSoC5/Counter_LED.c **** 
ARM GAS  C:\Users\GRAZIA~1.RAV\AppData\Local\Temp\ccaWNOBy.s 			page 12


 266:.\Generated_Source\PSoC5/Counter_LED.c **** 
 267:.\Generated_Source\PSoC5/Counter_LED.c **** #if(!Counter_LED_ControlRegRemoved)
 268:.\Generated_Source\PSoC5/Counter_LED.c **** /*******************************************************************************
 269:.\Generated_Source\PSoC5/Counter_LED.c **** * Function Name: Counter_LED_ReadControlRegister
 270:.\Generated_Source\PSoC5/Counter_LED.c **** ********************************************************************************
 271:.\Generated_Source\PSoC5/Counter_LED.c **** * Summary:
 272:.\Generated_Source\PSoC5/Counter_LED.c **** *   Reads the control register and returns it's state. This function should use
 273:.\Generated_Source\PSoC5/Counter_LED.c **** *       defined types for the bit-field information as the bits in this
 274:.\Generated_Source\PSoC5/Counter_LED.c **** *       register may be permuteable.
 275:.\Generated_Source\PSoC5/Counter_LED.c **** *
 276:.\Generated_Source\PSoC5/Counter_LED.c **** * Parameters:  
 277:.\Generated_Source\PSoC5/Counter_LED.c **** *  void
 278:.\Generated_Source\PSoC5/Counter_LED.c **** *
 279:.\Generated_Source\PSoC5/Counter_LED.c **** * Return: 
 280:.\Generated_Source\PSoC5/Counter_LED.c **** *  (uint8) The contents of the control register
 281:.\Generated_Source\PSoC5/Counter_LED.c **** *
 282:.\Generated_Source\PSoC5/Counter_LED.c **** *******************************************************************************/
 283:.\Generated_Source\PSoC5/Counter_LED.c **** uint8   Counter_LED_ReadControlRegister(void) 
 284:.\Generated_Source\PSoC5/Counter_LED.c **** {
 363              		.loc 1 284 0
 364              		.cfi_startproc
 365              		@ args = 0, pretend = 0, frame = 0
 366              		@ frame_needed = 1, uses_anonymous_args = 0
 367              		@ link register save eliminated.
 368 0000 80B4     		push	{r7}
 369              	.LCFI13:
 370              		.cfi_def_cfa_offset 4
 371              		.cfi_offset 7, -4
 372 0002 00AF     		add	r7, sp, #0
 373              	.LCFI14:
 374              		.cfi_def_cfa_register 7
 285:.\Generated_Source\PSoC5/Counter_LED.c ****     return Counter_LED_CONTROL;
 375              		.loc 1 285 0
 376 0004 4FF49E43 		mov	r3, #20224
 377 0008 C4F20003 		movt	r3, 16384
 378 000c 1B78     		ldrb	r3, [r3, #0]
 379 000e DBB2     		uxtb	r3, r3
 286:.\Generated_Source\PSoC5/Counter_LED.c **** }
 380              		.loc 1 286 0
 381 0010 1846     		mov	r0, r3
 382 0012 BD46     		mov	sp, r7
 383 0014 80BC     		pop	{r7}
 384 0016 7047     		bx	lr
 385              		.cfi_endproc
 386              	.LFE6:
 387              		.size	Counter_LED_ReadControlRegister, .-Counter_LED_ReadControlRegister
 388              		.section	.text.Counter_LED_WriteControlRegister,"ax",%progbits
 389              		.align	2
 390              		.global	Counter_LED_WriteControlRegister
 391              		.thumb
 392              		.thumb_func
 393              		.type	Counter_LED_WriteControlRegister, %function
 394              	Counter_LED_WriteControlRegister:
 395              	.LFB7:
 287:.\Generated_Source\PSoC5/Counter_LED.c **** 
 288:.\Generated_Source\PSoC5/Counter_LED.c **** 
 289:.\Generated_Source\PSoC5/Counter_LED.c **** /*******************************************************************************
ARM GAS  C:\Users\GRAZIA~1.RAV\AppData\Local\Temp\ccaWNOBy.s 			page 13


 290:.\Generated_Source\PSoC5/Counter_LED.c **** * Function Name: Counter_LED_WriteControlRegister
 291:.\Generated_Source\PSoC5/Counter_LED.c **** ********************************************************************************
 292:.\Generated_Source\PSoC5/Counter_LED.c **** * Summary:
 293:.\Generated_Source\PSoC5/Counter_LED.c **** *   Sets the bit-field of the control register.  This function should use
 294:.\Generated_Source\PSoC5/Counter_LED.c **** *       defined types for the bit-field information as the bits in this
 295:.\Generated_Source\PSoC5/Counter_LED.c **** *       register may be permuteable.
 296:.\Generated_Source\PSoC5/Counter_LED.c **** *
 297:.\Generated_Source\PSoC5/Counter_LED.c **** * Parameters:  
 298:.\Generated_Source\PSoC5/Counter_LED.c **** *  void
 299:.\Generated_Source\PSoC5/Counter_LED.c **** *
 300:.\Generated_Source\PSoC5/Counter_LED.c **** * Return: 
 301:.\Generated_Source\PSoC5/Counter_LED.c **** *  (uint8) The contents of the control register
 302:.\Generated_Source\PSoC5/Counter_LED.c **** *
 303:.\Generated_Source\PSoC5/Counter_LED.c **** *******************************************************************************/
 304:.\Generated_Source\PSoC5/Counter_LED.c **** void    Counter_LED_WriteControlRegister(uint8 control) 
 305:.\Generated_Source\PSoC5/Counter_LED.c **** {
 396              		.loc 1 305 0
 397              		.cfi_startproc
 398              		@ args = 0, pretend = 0, frame = 8
 399              		@ frame_needed = 1, uses_anonymous_args = 0
 400              		@ link register save eliminated.
 401 0000 80B4     		push	{r7}
 402              	.LCFI15:
 403              		.cfi_def_cfa_offset 4
 404              		.cfi_offset 7, -4
 405 0002 83B0     		sub	sp, sp, #12
 406              	.LCFI16:
 407              		.cfi_def_cfa_offset 16
 408 0004 00AF     		add	r7, sp, #0
 409              	.LCFI17:
 410              		.cfi_def_cfa_register 7
 411 0006 0346     		mov	r3, r0
 412 0008 FB71     		strb	r3, [r7, #7]
 306:.\Generated_Source\PSoC5/Counter_LED.c ****     Counter_LED_CONTROL = control;
 413              		.loc 1 306 0
 414 000a 4FF49E43 		mov	r3, #20224
 415 000e C4F20003 		movt	r3, 16384
 416 0012 FA79     		ldrb	r2, [r7, #7]
 417 0014 1A70     		strb	r2, [r3, #0]
 307:.\Generated_Source\PSoC5/Counter_LED.c **** }
 418              		.loc 1 307 0
 419 0016 07F10C07 		add	r7, r7, #12
 420 001a BD46     		mov	sp, r7
 421 001c 80BC     		pop	{r7}
 422 001e 7047     		bx	lr
 423              		.cfi_endproc
 424              	.LFE7:
 425              		.size	Counter_LED_WriteControlRegister, .-Counter_LED_WriteControlRegister
 426              		.section	.text.Counter_LED_WriteCounter,"ax",%progbits
 427              		.align	2
 428              		.global	Counter_LED_WriteCounter
 429              		.thumb
 430              		.thumb_func
 431              		.type	Counter_LED_WriteCounter, %function
 432              	Counter_LED_WriteCounter:
 433              	.LFB8:
 308:.\Generated_Source\PSoC5/Counter_LED.c **** 
ARM GAS  C:\Users\GRAZIA~1.RAV\AppData\Local\Temp\ccaWNOBy.s 			page 14


 309:.\Generated_Source\PSoC5/Counter_LED.c **** #endif  /* (!Counter_LED_ControlRegRemoved) */
 310:.\Generated_Source\PSoC5/Counter_LED.c **** 
 311:.\Generated_Source\PSoC5/Counter_LED.c **** 
 312:.\Generated_Source\PSoC5/Counter_LED.c **** #if (!(Counter_LED_UsingFixedFunction && (CY_PSOC5A)))
 313:.\Generated_Source\PSoC5/Counter_LED.c **** /*******************************************************************************
 314:.\Generated_Source\PSoC5/Counter_LED.c **** * Function Name: Counter_LED_WriteCounter
 315:.\Generated_Source\PSoC5/Counter_LED.c **** ********************************************************************************
 316:.\Generated_Source\PSoC5/Counter_LED.c **** * Summary:
 317:.\Generated_Source\PSoC5/Counter_LED.c **** *   This funtion is used to set the counter to a specific value
 318:.\Generated_Source\PSoC5/Counter_LED.c **** *
 319:.\Generated_Source\PSoC5/Counter_LED.c **** * Parameters:  
 320:.\Generated_Source\PSoC5/Counter_LED.c **** *  counter:  New counter value. 
 321:.\Generated_Source\PSoC5/Counter_LED.c **** *
 322:.\Generated_Source\PSoC5/Counter_LED.c **** * Return: 
 323:.\Generated_Source\PSoC5/Counter_LED.c **** *  void 
 324:.\Generated_Source\PSoC5/Counter_LED.c **** *
 325:.\Generated_Source\PSoC5/Counter_LED.c **** *******************************************************************************/
 326:.\Generated_Source\PSoC5/Counter_LED.c **** void Counter_LED_WriteCounter(uint8 counter) \
 327:.\Generated_Source\PSoC5/Counter_LED.c ****                                    
 328:.\Generated_Source\PSoC5/Counter_LED.c **** {
 434              		.loc 1 328 0
 435              		.cfi_startproc
 436              		@ args = 0, pretend = 0, frame = 8
 437              		@ frame_needed = 1, uses_anonymous_args = 0
 438 0000 80B5     		push	{r7, lr}
 439              	.LCFI18:
 440              		.cfi_def_cfa_offset 8
 441              		.cfi_offset 7, -8
 442              		.cfi_offset 14, -4
 443 0002 82B0     		sub	sp, sp, #8
 444              	.LCFI19:
 445              		.cfi_def_cfa_offset 16
 446 0004 00AF     		add	r7, sp, #0
 447              	.LCFI20:
 448              		.cfi_def_cfa_register 7
 449 0006 0346     		mov	r3, r0
 450 0008 FB71     		strb	r3, [r7, #7]
 329:.\Generated_Source\PSoC5/Counter_LED.c ****     #if(Counter_LED_UsingFixedFunction)
 330:.\Generated_Source\PSoC5/Counter_LED.c ****         /* assert if block is already enabled */
 331:.\Generated_Source\PSoC5/Counter_LED.c ****         CYASSERT (0u == (Counter_LED_GLOBAL_ENABLE & Counter_LED_BLOCK_EN_MASK));
 451              		.loc 1 331 0
 452 000a 44F2A333 		movw	r3, #17315
 453 000e C4F20003 		movt	r3, 16384
 454 0012 1B78     		ldrb	r3, [r3, #0]
 455 0014 DBB2     		uxtb	r3, r3
 456 0016 03F00103 		and	r3, r3, #1
 457 001a 002B     		cmp	r3, #0
 458 001c 03D0     		beq	.L13
 459              		.loc 1 331 0 is_stmt 0 discriminator 1
 460 001e 4FF00000 		mov	r0, #0
 461 0022 FFF7FEFF 		bl	CyHalt
 462              	.L13:
 332:.\Generated_Source\PSoC5/Counter_LED.c ****         /* If block is disabled, enable it and then write the counter */
 333:.\Generated_Source\PSoC5/Counter_LED.c ****         Counter_LED_GLOBAL_ENABLE |= Counter_LED_BLOCK_EN_MASK;
 463              		.loc 1 333 0 is_stmt 1
 464 0026 44F2A333 		movw	r3, #17315
 465 002a C4F20003 		movt	r3, 16384
ARM GAS  C:\Users\GRAZIA~1.RAV\AppData\Local\Temp\ccaWNOBy.s 			page 15


 466 002e 44F2A332 		movw	r2, #17315
 467 0032 C4F20002 		movt	r2, 16384
 468 0036 1278     		ldrb	r2, [r2, #0]
 469 0038 D2B2     		uxtb	r2, r2
 470 003a 42F00102 		orr	r2, r2, #1
 471 003e D2B2     		uxtb	r2, r2
 472 0040 1A70     		strb	r2, [r3, #0]
 334:.\Generated_Source\PSoC5/Counter_LED.c ****         CY_SET_REG16(Counter_LED_COUNTER_LSB_PTR, (uint16)counter);
 473              		.loc 1 334 0
 474 0042 44F60673 		movw	r3, #20230
 475 0046 C4F20003 		movt	r3, 16384
 476 004a FA79     		ldrb	r2, [r7, #7]	@ zero_extendqisi2
 477 004c 92B2     		uxth	r2, r2
 478 004e 1A80     		strh	r2, [r3, #0]	@ movhi
 335:.\Generated_Source\PSoC5/Counter_LED.c ****         Counter_LED_GLOBAL_ENABLE &= ((uint8)(~Counter_LED_BLOCK_EN_MASK));
 479              		.loc 1 335 0
 480 0050 44F2A333 		movw	r3, #17315
 481 0054 C4F20003 		movt	r3, 16384
 482 0058 44F2A332 		movw	r2, #17315
 483 005c C4F20002 		movt	r2, 16384
 484 0060 1278     		ldrb	r2, [r2, #0]
 485 0062 D2B2     		uxtb	r2, r2
 486 0064 22F00102 		bic	r2, r2, #1
 487 0068 D2B2     		uxtb	r2, r2
 488 006a 1A70     		strb	r2, [r3, #0]
 336:.\Generated_Source\PSoC5/Counter_LED.c ****     #else
 337:.\Generated_Source\PSoC5/Counter_LED.c ****         CY_SET_REG8(Counter_LED_COUNTER_LSB_PTR, counter);
 338:.\Generated_Source\PSoC5/Counter_LED.c ****     #endif /* (Counter_LED_UsingFixedFunction) */
 339:.\Generated_Source\PSoC5/Counter_LED.c **** }
 489              		.loc 1 339 0
 490 006c 07F10807 		add	r7, r7, #8
 491 0070 BD46     		mov	sp, r7
 492 0072 80BD     		pop	{r7, pc}
 493              		.cfi_endproc
 494              	.LFE8:
 495              		.size	Counter_LED_WriteCounter, .-Counter_LED_WriteCounter
 496              		.section	.text.Counter_LED_ReadCounter,"ax",%progbits
 497              		.align	2
 498              		.global	Counter_LED_ReadCounter
 499              		.thumb
 500              		.thumb_func
 501              		.type	Counter_LED_ReadCounter, %function
 502              	Counter_LED_ReadCounter:
 503              	.LFB9:
 340:.\Generated_Source\PSoC5/Counter_LED.c **** #endif /* (!(Counter_LED_UsingFixedFunction && (CY_PSOC5A))) */
 341:.\Generated_Source\PSoC5/Counter_LED.c **** 
 342:.\Generated_Source\PSoC5/Counter_LED.c **** 
 343:.\Generated_Source\PSoC5/Counter_LED.c **** /*******************************************************************************
 344:.\Generated_Source\PSoC5/Counter_LED.c **** * Function Name: Counter_LED_ReadCounter
 345:.\Generated_Source\PSoC5/Counter_LED.c **** ********************************************************************************
 346:.\Generated_Source\PSoC5/Counter_LED.c **** * Summary:
 347:.\Generated_Source\PSoC5/Counter_LED.c **** * Returns the current value of the counter.  It doesn't matter
 348:.\Generated_Source\PSoC5/Counter_LED.c **** * if the counter is enabled or running.
 349:.\Generated_Source\PSoC5/Counter_LED.c **** *
 350:.\Generated_Source\PSoC5/Counter_LED.c **** * Parameters:  
 351:.\Generated_Source\PSoC5/Counter_LED.c **** *  void:  
 352:.\Generated_Source\PSoC5/Counter_LED.c **** *
ARM GAS  C:\Users\GRAZIA~1.RAV\AppData\Local\Temp\ccaWNOBy.s 			page 16


 353:.\Generated_Source\PSoC5/Counter_LED.c **** * Return: 
 354:.\Generated_Source\PSoC5/Counter_LED.c **** *  (uint8) The present value of the counter.
 355:.\Generated_Source\PSoC5/Counter_LED.c **** *
 356:.\Generated_Source\PSoC5/Counter_LED.c **** *******************************************************************************/
 357:.\Generated_Source\PSoC5/Counter_LED.c **** uint8 Counter_LED_ReadCounter(void) 
 358:.\Generated_Source\PSoC5/Counter_LED.c **** {
 504              		.loc 1 358 0
 505              		.cfi_startproc
 506              		@ args = 0, pretend = 0, frame = 0
 507              		@ frame_needed = 1, uses_anonymous_args = 0
 508              		@ link register save eliminated.
 509 0000 80B4     		push	{r7}
 510              	.LCFI21:
 511              		.cfi_def_cfa_offset 4
 512              		.cfi_offset 7, -4
 513 0002 00AF     		add	r7, sp, #0
 514              	.LCFI22:
 515              		.cfi_def_cfa_register 7
 359:.\Generated_Source\PSoC5/Counter_LED.c ****     /* Force capture by reading Accumulator */
 360:.\Generated_Source\PSoC5/Counter_LED.c ****     /* Must first do a software capture to be able to read the counter */
 361:.\Generated_Source\PSoC5/Counter_LED.c ****     /* It is up to the user code to make sure there isn't already captured data in the FIFO */
 362:.\Generated_Source\PSoC5/Counter_LED.c ****     #if(Counter_LED_UsingFixedFunction)
 363:.\Generated_Source\PSoC5/Counter_LED.c **** 		(void)CY_GET_REG16(Counter_LED_COUNTER_LSB_PTR);
 516              		.loc 1 363 0
 517 0004 44F60673 		movw	r3, #20230
 518 0008 C4F20003 		movt	r3, 16384
 519 000c 1B88     		ldrh	r3, [r3, #0]	@ movhi
 364:.\Generated_Source\PSoC5/Counter_LED.c **** 	#else
 365:.\Generated_Source\PSoC5/Counter_LED.c **** 		(void)CY_GET_REG8(Counter_LED_COUNTER_LSB_PTR_8BIT);
 366:.\Generated_Source\PSoC5/Counter_LED.c **** 	#endif/* (Counter_LED_UsingFixedFunction) */
 367:.\Generated_Source\PSoC5/Counter_LED.c ****     
 368:.\Generated_Source\PSoC5/Counter_LED.c ****     /* Read the data from the FIFO (or capture register for Fixed Function)*/
 369:.\Generated_Source\PSoC5/Counter_LED.c ****     #if(Counter_LED_UsingFixedFunction)
 370:.\Generated_Source\PSoC5/Counter_LED.c ****         return ((uint8)CY_GET_REG16(Counter_LED_STATICCOUNT_LSB_PTR));
 520              		.loc 1 370 0
 521 000e 44F60873 		movw	r3, #20232
 522 0012 C4F20003 		movt	r3, 16384
 523 0016 1B88     		ldrh	r3, [r3, #0]	@ movhi
 524 0018 9BB2     		uxth	r3, r3
 525 001a DBB2     		uxtb	r3, r3
 371:.\Generated_Source\PSoC5/Counter_LED.c ****     #else
 372:.\Generated_Source\PSoC5/Counter_LED.c ****         return (CY_GET_REG8(Counter_LED_STATICCOUNT_LSB_PTR));
 373:.\Generated_Source\PSoC5/Counter_LED.c ****     #endif /* (Counter_LED_UsingFixedFunction) */
 374:.\Generated_Source\PSoC5/Counter_LED.c **** }
 526              		.loc 1 374 0
 527 001c 1846     		mov	r0, r3
 528 001e BD46     		mov	sp, r7
 529 0020 80BC     		pop	{r7}
 530 0022 7047     		bx	lr
 531              		.cfi_endproc
 532              	.LFE9:
 533              		.size	Counter_LED_ReadCounter, .-Counter_LED_ReadCounter
 534              		.section	.text.Counter_LED_ReadCapture,"ax",%progbits
 535              		.align	2
 536              		.global	Counter_LED_ReadCapture
 537              		.thumb
 538              		.thumb_func
ARM GAS  C:\Users\GRAZIA~1.RAV\AppData\Local\Temp\ccaWNOBy.s 			page 17


 539              		.type	Counter_LED_ReadCapture, %function
 540              	Counter_LED_ReadCapture:
 541              	.LFB10:
 375:.\Generated_Source\PSoC5/Counter_LED.c **** 
 376:.\Generated_Source\PSoC5/Counter_LED.c **** 
 377:.\Generated_Source\PSoC5/Counter_LED.c **** /*******************************************************************************
 378:.\Generated_Source\PSoC5/Counter_LED.c **** * Function Name: Counter_LED_ReadCapture
 379:.\Generated_Source\PSoC5/Counter_LED.c **** ********************************************************************************
 380:.\Generated_Source\PSoC5/Counter_LED.c **** * Summary:
 381:.\Generated_Source\PSoC5/Counter_LED.c **** *   This function returns the last value captured.
 382:.\Generated_Source\PSoC5/Counter_LED.c **** *
 383:.\Generated_Source\PSoC5/Counter_LED.c **** * Parameters:  
 384:.\Generated_Source\PSoC5/Counter_LED.c **** *  void
 385:.\Generated_Source\PSoC5/Counter_LED.c **** *
 386:.\Generated_Source\PSoC5/Counter_LED.c **** * Return: 
 387:.\Generated_Source\PSoC5/Counter_LED.c **** *  (uint8) Present Capture value.
 388:.\Generated_Source\PSoC5/Counter_LED.c **** *
 389:.\Generated_Source\PSoC5/Counter_LED.c **** *******************************************************************************/
 390:.\Generated_Source\PSoC5/Counter_LED.c **** uint8 Counter_LED_ReadCapture(void) 
 391:.\Generated_Source\PSoC5/Counter_LED.c **** {
 542              		.loc 1 391 0
 543              		.cfi_startproc
 544              		@ args = 0, pretend = 0, frame = 0
 545              		@ frame_needed = 1, uses_anonymous_args = 0
 546              		@ link register save eliminated.
 547 0000 80B4     		push	{r7}
 548              	.LCFI23:
 549              		.cfi_def_cfa_offset 4
 550              		.cfi_offset 7, -4
 551 0002 00AF     		add	r7, sp, #0
 552              	.LCFI24:
 553              		.cfi_def_cfa_register 7
 392:.\Generated_Source\PSoC5/Counter_LED.c ****     #if(Counter_LED_UsingFixedFunction)
 393:.\Generated_Source\PSoC5/Counter_LED.c ****         return ((uint8)CY_GET_REG16(Counter_LED_STATICCOUNT_LSB_PTR));
 554              		.loc 1 393 0
 555 0004 44F60873 		movw	r3, #20232
 556 0008 C4F20003 		movt	r3, 16384
 557 000c 1B88     		ldrh	r3, [r3, #0]	@ movhi
 558 000e 9BB2     		uxth	r3, r3
 559 0010 DBB2     		uxtb	r3, r3
 394:.\Generated_Source\PSoC5/Counter_LED.c ****     #else
 395:.\Generated_Source\PSoC5/Counter_LED.c ****         return (CY_GET_REG8(Counter_LED_STATICCOUNT_LSB_PTR));
 396:.\Generated_Source\PSoC5/Counter_LED.c ****     #endif /* (Counter_LED_UsingFixedFunction) */
 397:.\Generated_Source\PSoC5/Counter_LED.c **** }
 560              		.loc 1 397 0
 561 0012 1846     		mov	r0, r3
 562 0014 BD46     		mov	sp, r7
 563 0016 80BC     		pop	{r7}
 564 0018 7047     		bx	lr
 565              		.cfi_endproc
 566              	.LFE10:
 567              		.size	Counter_LED_ReadCapture, .-Counter_LED_ReadCapture
 568 001a 00BF     		.section	.text.Counter_LED_WritePeriod,"ax",%progbits
 569              		.align	2
 570              		.global	Counter_LED_WritePeriod
 571              		.thumb
 572              		.thumb_func
ARM GAS  C:\Users\GRAZIA~1.RAV\AppData\Local\Temp\ccaWNOBy.s 			page 18


 573              		.type	Counter_LED_WritePeriod, %function
 574              	Counter_LED_WritePeriod:
 575              	.LFB11:
 398:.\Generated_Source\PSoC5/Counter_LED.c **** 
 399:.\Generated_Source\PSoC5/Counter_LED.c **** 
 400:.\Generated_Source\PSoC5/Counter_LED.c **** /*******************************************************************************
 401:.\Generated_Source\PSoC5/Counter_LED.c **** * Function Name: Counter_LED_WritePeriod
 402:.\Generated_Source\PSoC5/Counter_LED.c **** ********************************************************************************
 403:.\Generated_Source\PSoC5/Counter_LED.c **** * Summary:
 404:.\Generated_Source\PSoC5/Counter_LED.c **** * Changes the period of the counter.  The new period 
 405:.\Generated_Source\PSoC5/Counter_LED.c **** * will be loaded the next time terminal count is detected.
 406:.\Generated_Source\PSoC5/Counter_LED.c **** *
 407:.\Generated_Source\PSoC5/Counter_LED.c **** * Parameters:  
 408:.\Generated_Source\PSoC5/Counter_LED.c **** *  period: (uint8) A value of 0 will result in
 409:.\Generated_Source\PSoC5/Counter_LED.c **** *         the counter remaining at zero.  
 410:.\Generated_Source\PSoC5/Counter_LED.c **** *
 411:.\Generated_Source\PSoC5/Counter_LED.c **** * Return: 
 412:.\Generated_Source\PSoC5/Counter_LED.c **** *  void
 413:.\Generated_Source\PSoC5/Counter_LED.c **** *
 414:.\Generated_Source\PSoC5/Counter_LED.c **** *******************************************************************************/
 415:.\Generated_Source\PSoC5/Counter_LED.c **** void Counter_LED_WritePeriod(uint8 period) 
 416:.\Generated_Source\PSoC5/Counter_LED.c **** {
 576              		.loc 1 416 0
 577              		.cfi_startproc
 578              		@ args = 0, pretend = 0, frame = 8
 579              		@ frame_needed = 1, uses_anonymous_args = 0
 580              		@ link register save eliminated.
 581 0000 80B4     		push	{r7}
 582              	.LCFI25:
 583              		.cfi_def_cfa_offset 4
 584              		.cfi_offset 7, -4
 585 0002 83B0     		sub	sp, sp, #12
 586              	.LCFI26:
 587              		.cfi_def_cfa_offset 16
 588 0004 00AF     		add	r7, sp, #0
 589              	.LCFI27:
 590              		.cfi_def_cfa_register 7
 591 0006 0346     		mov	r3, r0
 592 0008 FB71     		strb	r3, [r7, #7]
 417:.\Generated_Source\PSoC5/Counter_LED.c ****     #if(Counter_LED_UsingFixedFunction)
 418:.\Generated_Source\PSoC5/Counter_LED.c ****         CY_SET_REG16(Counter_LED_PERIOD_LSB_PTR,(uint16)period);
 593              		.loc 1 418 0
 594 000a 44F60473 		movw	r3, #20228
 595 000e C4F20003 		movt	r3, 16384
 596 0012 FA79     		ldrb	r2, [r7, #7]	@ zero_extendqisi2
 597 0014 92B2     		uxth	r2, r2
 598 0016 1A80     		strh	r2, [r3, #0]	@ movhi
 419:.\Generated_Source\PSoC5/Counter_LED.c ****     #else
 420:.\Generated_Source\PSoC5/Counter_LED.c ****         CY_SET_REG8(Counter_LED_PERIOD_LSB_PTR, period);
 421:.\Generated_Source\PSoC5/Counter_LED.c ****     #endif /* (Counter_LED_UsingFixedFunction) */
 422:.\Generated_Source\PSoC5/Counter_LED.c **** }
 599              		.loc 1 422 0
 600 0018 07F10C07 		add	r7, r7, #12
 601 001c BD46     		mov	sp, r7
 602 001e 80BC     		pop	{r7}
 603 0020 7047     		bx	lr
 604              		.cfi_endproc
ARM GAS  C:\Users\GRAZIA~1.RAV\AppData\Local\Temp\ccaWNOBy.s 			page 19


 605              	.LFE11:
 606              		.size	Counter_LED_WritePeriod, .-Counter_LED_WritePeriod
 607 0022 00BF     		.section	.text.Counter_LED_ReadPeriod,"ax",%progbits
 608              		.align	2
 609              		.global	Counter_LED_ReadPeriod
 610              		.thumb
 611              		.thumb_func
 612              		.type	Counter_LED_ReadPeriod, %function
 613              	Counter_LED_ReadPeriod:
 614              	.LFB12:
 423:.\Generated_Source\PSoC5/Counter_LED.c **** 
 424:.\Generated_Source\PSoC5/Counter_LED.c **** 
 425:.\Generated_Source\PSoC5/Counter_LED.c **** /*******************************************************************************
 426:.\Generated_Source\PSoC5/Counter_LED.c **** * Function Name: Counter_LED_ReadPeriod
 427:.\Generated_Source\PSoC5/Counter_LED.c **** ********************************************************************************
 428:.\Generated_Source\PSoC5/Counter_LED.c **** * Summary:
 429:.\Generated_Source\PSoC5/Counter_LED.c **** * Reads the current period value without affecting counter operation.
 430:.\Generated_Source\PSoC5/Counter_LED.c **** *
 431:.\Generated_Source\PSoC5/Counter_LED.c **** * Parameters:  
 432:.\Generated_Source\PSoC5/Counter_LED.c **** *  void:  
 433:.\Generated_Source\PSoC5/Counter_LED.c **** *
 434:.\Generated_Source\PSoC5/Counter_LED.c **** * Return: 
 435:.\Generated_Source\PSoC5/Counter_LED.c **** *  (uint8) Present period value.
 436:.\Generated_Source\PSoC5/Counter_LED.c **** *
 437:.\Generated_Source\PSoC5/Counter_LED.c **** *******************************************************************************/
 438:.\Generated_Source\PSoC5/Counter_LED.c **** uint8 Counter_LED_ReadPeriod(void) 
 439:.\Generated_Source\PSoC5/Counter_LED.c **** {
 615              		.loc 1 439 0
 616              		.cfi_startproc
 617              		@ args = 0, pretend = 0, frame = 0
 618              		@ frame_needed = 1, uses_anonymous_args = 0
 619              		@ link register save eliminated.
 620 0000 80B4     		push	{r7}
 621              	.LCFI28:
 622              		.cfi_def_cfa_offset 4
 623              		.cfi_offset 7, -4
 624 0002 00AF     		add	r7, sp, #0
 625              	.LCFI29:
 626              		.cfi_def_cfa_register 7
 440:.\Generated_Source\PSoC5/Counter_LED.c ****     #if(Counter_LED_UsingFixedFunction)
 441:.\Generated_Source\PSoC5/Counter_LED.c ****         return ((uint8)CY_GET_REG16(Counter_LED_PERIOD_LSB_PTR));
 627              		.loc 1 441 0
 628 0004 44F60473 		movw	r3, #20228
 629 0008 C4F20003 		movt	r3, 16384
 630 000c 1B88     		ldrh	r3, [r3, #0]	@ movhi
 631 000e 9BB2     		uxth	r3, r3
 632 0010 DBB2     		uxtb	r3, r3
 442:.\Generated_Source\PSoC5/Counter_LED.c ****     #else
 443:.\Generated_Source\PSoC5/Counter_LED.c ****         return (CY_GET_REG8(Counter_LED_PERIOD_LSB_PTR));
 444:.\Generated_Source\PSoC5/Counter_LED.c ****     #endif /* (Counter_LED_UsingFixedFunction) */
 445:.\Generated_Source\PSoC5/Counter_LED.c **** }
 633              		.loc 1 445 0
 634 0012 1846     		mov	r0, r3
 635 0014 BD46     		mov	sp, r7
 636 0016 80BC     		pop	{r7}
 637 0018 7047     		bx	lr
 638              		.cfi_endproc
ARM GAS  C:\Users\GRAZIA~1.RAV\AppData\Local\Temp\ccaWNOBy.s 			page 20


 639              	.LFE12:
 640              		.size	Counter_LED_ReadPeriod, .-Counter_LED_ReadPeriod
 641 001a 00BF     		.text
 642              	.Letext0:
 643              		.file 2 ".\\Generated_Source\\PSoC5\\cytypes.h"