ARM GAS  C:\Users\gravi\AppData\Local\Temp\ccByFLrk.s 			page 1


   1              		.syntax unified
   2              		.cpu cortex-m3
   3              		.fpu softvfp
   4              		.eabi_attribute 20, 1
   5              		.eabi_attribute 21, 1
   6              		.eabi_attribute 23, 3
   7              		.eabi_attribute 24, 1
   8              		.eabi_attribute 25, 1
   9              		.eabi_attribute 26, 1
  10              		.eabi_attribute 30, 6
  11              		.eabi_attribute 34, 1
  12              		.eabi_attribute 18, 4
  13              		.thumb
  14              		.file	"cyfitter_cfg.c"
  15              		.text
  16              	.Ltext0:
  17              		.cfi_sections	.debug_frame
  18              		.section	.text.CYMEMZERO,"ax",%progbits
  19              		.align	2
  20              		.thumb
  21              		.thumb_func
  22              		.type	CYMEMZERO, %function
  23              	CYMEMZERO:
  24              	.LFB0:
  25              		.file 1 ".\\Generated_Source\\PSoC5\\cyfitter_cfg.c"
   1:.\Generated_Source\PSoC5/cyfitter_cfg.c **** /*******************************************************************************
   2:.\Generated_Source\PSoC5/cyfitter_cfg.c **** * FILENAME: cyfitter_cfg.c
   3:.\Generated_Source\PSoC5/cyfitter_cfg.c **** * PSoC Creator 3.0 SP2
   4:.\Generated_Source\PSoC5/cyfitter_cfg.c **** *
   5:.\Generated_Source\PSoC5/cyfitter_cfg.c **** * Description:
   6:.\Generated_Source\PSoC5/cyfitter_cfg.c **** * This file is automatically generated by PSoC Creator with device 
   7:.\Generated_Source\PSoC5/cyfitter_cfg.c **** * initialization code.  Except for the user defined sections in
   8:.\Generated_Source\PSoC5/cyfitter_cfg.c **** * CyClockStartupError(), this file should not be modified.
   9:.\Generated_Source\PSoC5/cyfitter_cfg.c **** *
  10:.\Generated_Source\PSoC5/cyfitter_cfg.c **** ********************************************************************************
  11:.\Generated_Source\PSoC5/cyfitter_cfg.c **** * Copyright 2013, Cypress Semiconductor Corporation.  All rights reserved.
  12:.\Generated_Source\PSoC5/cyfitter_cfg.c **** * You may use this file only in accordance with the license, terms, conditions, 
  13:.\Generated_Source\PSoC5/cyfitter_cfg.c **** * disclaimers, and limitations in the end user license agreement accompanying 
  14:.\Generated_Source\PSoC5/cyfitter_cfg.c **** * the software package with which this file was provided.
  15:.\Generated_Source\PSoC5/cyfitter_cfg.c **** ********************************************************************************/
  16:.\Generated_Source\PSoC5/cyfitter_cfg.c **** 
  17:.\Generated_Source\PSoC5/cyfitter_cfg.c **** #include <string.h>
  18:.\Generated_Source\PSoC5/cyfitter_cfg.c **** #include <cytypes.h>
  19:.\Generated_Source\PSoC5/cyfitter_cfg.c **** #include <cydevice_trm.h>
  20:.\Generated_Source\PSoC5/cyfitter_cfg.c **** #include <cyfitter.h>
  21:.\Generated_Source\PSoC5/cyfitter_cfg.c **** #include <CyLib.h>
  22:.\Generated_Source\PSoC5/cyfitter_cfg.c **** #include <cyfitter_cfg.h>
  23:.\Generated_Source\PSoC5/cyfitter_cfg.c **** 
  24:.\Generated_Source\PSoC5/cyfitter_cfg.c **** #define CY_NEED_CYCLOCKSTARTUPERROR 1
  25:.\Generated_Source\PSoC5/cyfitter_cfg.c **** 
  26:.\Generated_Source\PSoC5/cyfitter_cfg.c **** 
  27:.\Generated_Source\PSoC5/cyfitter_cfg.c **** #if defined(__GNUC__) || defined(__ARMCC_VERSION)
  28:.\Generated_Source\PSoC5/cyfitter_cfg.c ****     #define CYPACKED 
  29:.\Generated_Source\PSoC5/cyfitter_cfg.c ****     #define CYPACKED_ATTR __attribute__ ((packed))
  30:.\Generated_Source\PSoC5/cyfitter_cfg.c ****     #define CYALIGNED __attribute__ ((aligned))
  31:.\Generated_Source\PSoC5/cyfitter_cfg.c ****     #define CY_CFG_UNUSED __attribute__ ((unused))
  32:.\Generated_Source\PSoC5/cyfitter_cfg.c ****     #define CY_CFG_SECTION __attribute__ ((section(".psocinit")))
ARM GAS  C:\Users\gravi\AppData\Local\Temp\ccByFLrk.s 			page 2


  33:.\Generated_Source\PSoC5/cyfitter_cfg.c ****     
  34:.\Generated_Source\PSoC5/cyfitter_cfg.c ****     #if defined(__ARMCC_VERSION)
  35:.\Generated_Source\PSoC5/cyfitter_cfg.c ****         #define CY_CFG_MEMORY_BARRIER() __memory_changed()
  36:.\Generated_Source\PSoC5/cyfitter_cfg.c ****     #else
  37:.\Generated_Source\PSoC5/cyfitter_cfg.c ****         #define CY_CFG_MEMORY_BARRIER() __sync_synchronize()
  38:.\Generated_Source\PSoC5/cyfitter_cfg.c ****     #endif
  39:.\Generated_Source\PSoC5/cyfitter_cfg.c ****     
  40:.\Generated_Source\PSoC5/cyfitter_cfg.c **** #elif defined(__ICCARM__)
  41:.\Generated_Source\PSoC5/cyfitter_cfg.c ****     #include <intrinsics.h>
  42:.\Generated_Source\PSoC5/cyfitter_cfg.c **** 
  43:.\Generated_Source\PSoC5/cyfitter_cfg.c ****     #define CYPACKED __packed
  44:.\Generated_Source\PSoC5/cyfitter_cfg.c ****     #define CYPACKED_ATTR 
  45:.\Generated_Source\PSoC5/cyfitter_cfg.c ****     #define CYALIGNED _Pragma("data_alignment=4")
  46:.\Generated_Source\PSoC5/cyfitter_cfg.c ****     #define CY_CFG_UNUSED _Pragma("diag_suppress=Pe177")
  47:.\Generated_Source\PSoC5/cyfitter_cfg.c ****     #define CY_CFG_SECTION _Pragma("location=\".psocinit\"")
  48:.\Generated_Source\PSoC5/cyfitter_cfg.c ****     
  49:.\Generated_Source\PSoC5/cyfitter_cfg.c ****     #define CY_CFG_MEMORY_BARRIER() __DMB()
  50:.\Generated_Source\PSoC5/cyfitter_cfg.c ****     
  51:.\Generated_Source\PSoC5/cyfitter_cfg.c **** #else
  52:.\Generated_Source\PSoC5/cyfitter_cfg.c ****     #error Unsupported toolchain
  53:.\Generated_Source\PSoC5/cyfitter_cfg.c **** #endif
  54:.\Generated_Source\PSoC5/cyfitter_cfg.c **** 
  55:.\Generated_Source\PSoC5/cyfitter_cfg.c **** 
  56:.\Generated_Source\PSoC5/cyfitter_cfg.c **** CY_CFG_UNUSED
  57:.\Generated_Source\PSoC5/cyfitter_cfg.c **** static void CYMEMZERO(void *s, size_t n);
  58:.\Generated_Source\PSoC5/cyfitter_cfg.c **** CY_CFG_UNUSED
  59:.\Generated_Source\PSoC5/cyfitter_cfg.c **** static void CYMEMZERO(void *s, size_t n)
  60:.\Generated_Source\PSoC5/cyfitter_cfg.c **** {
  26              		.loc 1 60 0
  27              		.cfi_startproc
  28              		@ args = 0, pretend = 0, frame = 8
  29              		@ frame_needed = 1, uses_anonymous_args = 0
  30 0000 80B5     		push	{r7, lr}
  31              	.LCFI0:
  32              		.cfi_def_cfa_offset 8
  33              		.cfi_offset 7, -8
  34              		.cfi_offset 14, -4
  35 0002 82B0     		sub	sp, sp, #8
  36              	.LCFI1:
  37              		.cfi_def_cfa_offset 16
  38 0004 00AF     		add	r7, sp, #0
  39              	.LCFI2:
  40              		.cfi_def_cfa_register 7
  41 0006 7860     		str	r0, [r7, #4]
  42 0008 3960     		str	r1, [r7, #0]
  61:.\Generated_Source\PSoC5/cyfitter_cfg.c **** 	(void)memset(s, 0, n);
  43              		.loc 1 61 0
  44 000a 7868     		ldr	r0, [r7, #4]
  45 000c 4FF00001 		mov	r1, #0
  46 0010 3A68     		ldr	r2, [r7, #0]
  47 0012 FFF7FEFF 		bl	memset
  62:.\Generated_Source\PSoC5/cyfitter_cfg.c **** }
  48              		.loc 1 62 0
  49 0016 07F10807 		add	r7, r7, #8
  50 001a BD46     		mov	sp, r7
  51 001c 80BD     		pop	{r7, pc}
  52              		.cfi_endproc
ARM GAS  C:\Users\gravi\AppData\Local\Temp\ccByFLrk.s 			page 3


  53              	.LFE0:
  54              		.size	CYMEMZERO, .-CYMEMZERO
  55 001e 00BF     		.section	.text.CYCONFIGCPY,"ax",%progbits
  56              		.align	2
  57              		.thumb
  58              		.thumb_func
  59              		.type	CYCONFIGCPY, %function
  60              	CYCONFIGCPY:
  61              	.LFB1:
  63:.\Generated_Source\PSoC5/cyfitter_cfg.c **** CY_CFG_UNUSED
  64:.\Generated_Source\PSoC5/cyfitter_cfg.c **** static void CYCONFIGCPY(void *dest, const void *src, size_t n);
  65:.\Generated_Source\PSoC5/cyfitter_cfg.c **** CY_CFG_UNUSED
  66:.\Generated_Source\PSoC5/cyfitter_cfg.c **** static void CYCONFIGCPY(void *dest, const void *src, size_t n)
  67:.\Generated_Source\PSoC5/cyfitter_cfg.c **** {
  62              		.loc 1 67 0
  63              		.cfi_startproc
  64              		@ args = 0, pretend = 0, frame = 16
  65              		@ frame_needed = 1, uses_anonymous_args = 0
  66 0000 80B5     		push	{r7, lr}
  67              	.LCFI3:
  68              		.cfi_def_cfa_offset 8
  69              		.cfi_offset 7, -8
  70              		.cfi_offset 14, -4
  71 0002 84B0     		sub	sp, sp, #16
  72              	.LCFI4:
  73              		.cfi_def_cfa_offset 24
  74 0004 00AF     		add	r7, sp, #0
  75              	.LCFI5:
  76              		.cfi_def_cfa_register 7
  77 0006 F860     		str	r0, [r7, #12]
  78 0008 B960     		str	r1, [r7, #8]
  79 000a 7A60     		str	r2, [r7, #4]
  68:.\Generated_Source\PSoC5/cyfitter_cfg.c **** 	(void)memcpy(dest, src, n);
  80              		.loc 1 68 0
  81 000c F868     		ldr	r0, [r7, #12]
  82 000e B968     		ldr	r1, [r7, #8]
  83 0010 7A68     		ldr	r2, [r7, #4]
  84 0012 FFF7FEFF 		bl	memcpy
  69:.\Generated_Source\PSoC5/cyfitter_cfg.c **** }
  85              		.loc 1 69 0
  86 0016 07F11007 		add	r7, r7, #16
  87 001a BD46     		mov	sp, r7
  88 001c 80BD     		pop	{r7, pc}
  89              		.cfi_endproc
  90              	.LFE1:
  91              		.size	CYCONFIGCPY, .-CYCONFIGCPY
  92 001e 00BF     		.section	.text.CYCONFIGCPYCODE,"ax",%progbits
  93              		.align	2
  94              		.thumb
  95              		.thumb_func
  96              		.type	CYCONFIGCPYCODE, %function
  97              	CYCONFIGCPYCODE:
  98              	.LFB2:
  70:.\Generated_Source\PSoC5/cyfitter_cfg.c **** CY_CFG_UNUSED
  71:.\Generated_Source\PSoC5/cyfitter_cfg.c **** static void CYCONFIGCPYCODE(void *dest, const void *src, size_t n);
  72:.\Generated_Source\PSoC5/cyfitter_cfg.c **** CY_CFG_UNUSED
  73:.\Generated_Source\PSoC5/cyfitter_cfg.c **** static void CYCONFIGCPYCODE(void *dest, const void *src, size_t n)
ARM GAS  C:\Users\gravi\AppData\Local\Temp\ccByFLrk.s 			page 4


  74:.\Generated_Source\PSoC5/cyfitter_cfg.c **** {
  99              		.loc 1 74 0
 100              		.cfi_startproc
 101              		@ args = 0, pretend = 0, frame = 16
 102              		@ frame_needed = 1, uses_anonymous_args = 0
 103 0000 80B5     		push	{r7, lr}
 104              	.LCFI6:
 105              		.cfi_def_cfa_offset 8
 106              		.cfi_offset 7, -8
 107              		.cfi_offset 14, -4
 108 0002 84B0     		sub	sp, sp, #16
 109              	.LCFI7:
 110              		.cfi_def_cfa_offset 24
 111 0004 00AF     		add	r7, sp, #0
 112              	.LCFI8:
 113              		.cfi_def_cfa_register 7
 114 0006 F860     		str	r0, [r7, #12]
 115 0008 B960     		str	r1, [r7, #8]
 116 000a 7A60     		str	r2, [r7, #4]
  75:.\Generated_Source\PSoC5/cyfitter_cfg.c **** 	(void)memcpy(dest, src, n);
 117              		.loc 1 75 0
 118 000c F868     		ldr	r0, [r7, #12]
 119 000e B968     		ldr	r1, [r7, #8]
 120 0010 7A68     		ldr	r2, [r7, #4]
 121 0012 FFF7FEFF 		bl	memcpy
  76:.\Generated_Source\PSoC5/cyfitter_cfg.c **** }
 122              		.loc 1 76 0
 123 0016 07F11007 		add	r7, r7, #16
 124 001a BD46     		mov	sp, r7
 125 001c 80BD     		pop	{r7, pc}
 126              		.cfi_endproc
 127              	.LFE2:
 128              		.size	CYCONFIGCPYCODE, .-CYCONFIGCPYCODE
 129 001e 00BF     		.section	.text.CyClockStartupError,"ax",%progbits
 130              		.align	2
 131              		.thumb
 132              		.thumb_func
 133              		.type	CyClockStartupError, %function
 134              	CyClockStartupError:
 135              	.LFB3:
  77:.\Generated_Source\PSoC5/cyfitter_cfg.c **** 
  78:.\Generated_Source\PSoC5/cyfitter_cfg.c **** 
  79:.\Generated_Source\PSoC5/cyfitter_cfg.c **** 
  80:.\Generated_Source\PSoC5/cyfitter_cfg.c **** /* Clock startup error codes                                                   */
  81:.\Generated_Source\PSoC5/cyfitter_cfg.c **** #define CYCLOCKSTART_NO_ERROR    0u
  82:.\Generated_Source\PSoC5/cyfitter_cfg.c **** #define CYCLOCKSTART_XTAL_ERROR  1u
  83:.\Generated_Source\PSoC5/cyfitter_cfg.c **** #define CYCLOCKSTART_32KHZ_ERROR 2u
  84:.\Generated_Source\PSoC5/cyfitter_cfg.c **** #define CYCLOCKSTART_PLL_ERROR   3u
  85:.\Generated_Source\PSoC5/cyfitter_cfg.c **** 
  86:.\Generated_Source\PSoC5/cyfitter_cfg.c **** #ifdef CY_NEED_CYCLOCKSTARTUPERROR
  87:.\Generated_Source\PSoC5/cyfitter_cfg.c **** /*******************************************************************************
  88:.\Generated_Source\PSoC5/cyfitter_cfg.c **** * Function Name: CyClockStartupError
  89:.\Generated_Source\PSoC5/cyfitter_cfg.c **** ********************************************************************************
  90:.\Generated_Source\PSoC5/cyfitter_cfg.c **** * Summary:
  91:.\Generated_Source\PSoC5/cyfitter_cfg.c **** *  If an error is encountered during clock configuration (crystal startup error,
  92:.\Generated_Source\PSoC5/cyfitter_cfg.c **** *  PLL lock error, etc.), the system will end up here.  Unless reimplemented by
  93:.\Generated_Source\PSoC5/cyfitter_cfg.c **** *  the customer, this function will stop in an infinite loop.
ARM GAS  C:\Users\gravi\AppData\Local\Temp\ccByFLrk.s 			page 5


  94:.\Generated_Source\PSoC5/cyfitter_cfg.c **** *
  95:.\Generated_Source\PSoC5/cyfitter_cfg.c **** * Parameters:
  96:.\Generated_Source\PSoC5/cyfitter_cfg.c **** *   void
  97:.\Generated_Source\PSoC5/cyfitter_cfg.c **** *
  98:.\Generated_Source\PSoC5/cyfitter_cfg.c **** * Return:
  99:.\Generated_Source\PSoC5/cyfitter_cfg.c **** *   void
 100:.\Generated_Source\PSoC5/cyfitter_cfg.c **** *
 101:.\Generated_Source\PSoC5/cyfitter_cfg.c **** *******************************************************************************/
 102:.\Generated_Source\PSoC5/cyfitter_cfg.c **** CY_CFG_UNUSED
 103:.\Generated_Source\PSoC5/cyfitter_cfg.c **** static void CyClockStartupError(uint8 errorCode);
 104:.\Generated_Source\PSoC5/cyfitter_cfg.c **** CY_CFG_UNUSED
 105:.\Generated_Source\PSoC5/cyfitter_cfg.c **** static void CyClockStartupError(uint8 errorCode)
 106:.\Generated_Source\PSoC5/cyfitter_cfg.c **** {
 136              		.loc 1 106 0
 137              		.cfi_startproc
 138              		@ args = 0, pretend = 0, frame = 8
 139              		@ frame_needed = 1, uses_anonymous_args = 0
 140              		@ link register save eliminated.
 141 0000 80B4     		push	{r7}
 142              	.LCFI9:
 143              		.cfi_def_cfa_offset 4
 144              		.cfi_offset 7, -4
 145 0002 83B0     		sub	sp, sp, #12
 146              	.LCFI10:
 147              		.cfi_def_cfa_offset 16
 148 0004 00AF     		add	r7, sp, #0
 149              	.LCFI11:
 150              		.cfi_def_cfa_register 7
 151 0006 0346     		mov	r3, r0
 152 0008 FB71     		strb	r3, [r7, #7]
 153              	.L5:
 107:.\Generated_Source\PSoC5/cyfitter_cfg.c ****     /* To remove the compiler warning if errorCode not used.                */
 108:.\Generated_Source\PSoC5/cyfitter_cfg.c ****     errorCode = errorCode;
 109:.\Generated_Source\PSoC5/cyfitter_cfg.c **** 
 110:.\Generated_Source\PSoC5/cyfitter_cfg.c ****     /* `#START CyClockStartupError` */
 111:.\Generated_Source\PSoC5/cyfitter_cfg.c **** 
 112:.\Generated_Source\PSoC5/cyfitter_cfg.c ****     /* If we have a clock startup error (bad MHz crystal, PLL lock, etc.),  */
 113:.\Generated_Source\PSoC5/cyfitter_cfg.c ****     /* we will end up here to allow the customer to implement something to  */
 114:.\Generated_Source\PSoC5/cyfitter_cfg.c ****     /* deal with the clock condition.                                       */
 115:.\Generated_Source\PSoC5/cyfitter_cfg.c **** 
 116:.\Generated_Source\PSoC5/cyfitter_cfg.c ****     /* `#END` */
 117:.\Generated_Source\PSoC5/cyfitter_cfg.c **** 
 118:.\Generated_Source\PSoC5/cyfitter_cfg.c ****     /* If nothing else, stop here since the clocks have not started         */
 119:.\Generated_Source\PSoC5/cyfitter_cfg.c ****     /* correctly.                                                           */
 120:.\Generated_Source\PSoC5/cyfitter_cfg.c ****     while(1) {}
 154              		.loc 1 120 0 discriminator 1
 155 000a FEE7     		b	.L5
 156              		.cfi_endproc
 157              	.LFE3:
 158              		.size	CyClockStartupError, .-CyClockStartupError
 159              		.section	.text.cfg_write_bytes32,"ax",%progbits
 160              		.align	2
 161              		.thumb
 162              		.thumb_func
 163              		.type	cfg_write_bytes32, %function
 164              	cfg_write_bytes32:
 165              	.LFB4:
ARM GAS  C:\Users\gravi\AppData\Local\Temp\ccByFLrk.s 			page 6


 121:.\Generated_Source\PSoC5/cyfitter_cfg.c **** }
 122:.\Generated_Source\PSoC5/cyfitter_cfg.c **** #endif
 123:.\Generated_Source\PSoC5/cyfitter_cfg.c **** 
 124:.\Generated_Source\PSoC5/cyfitter_cfg.c **** #define CY_CFG_BASE_ADDR_COUNT 40u
 125:.\Generated_Source\PSoC5/cyfitter_cfg.c **** CYPACKED typedef struct
 126:.\Generated_Source\PSoC5/cyfitter_cfg.c **** {
 127:.\Generated_Source\PSoC5/cyfitter_cfg.c **** 	uint8 offset;
 128:.\Generated_Source\PSoC5/cyfitter_cfg.c **** 	uint8 value;
 129:.\Generated_Source\PSoC5/cyfitter_cfg.c **** } CYPACKED_ATTR cy_cfg_addrvalue_t;
 130:.\Generated_Source\PSoC5/cyfitter_cfg.c **** 
 131:.\Generated_Source\PSoC5/cyfitter_cfg.c **** #define cy_cfg_addr_table ((const uint32 CYFAR *)0x48000000u)
 132:.\Generated_Source\PSoC5/cyfitter_cfg.c **** #define cy_cfg_data_table ((const cy_cfg_addrvalue_t CYFAR *)0x480000A0u)
 133:.\Generated_Source\PSoC5/cyfitter_cfg.c **** 
 134:.\Generated_Source\PSoC5/cyfitter_cfg.c **** /* IOPORT_7 Address: CYDEV_PRTDSI_PRT12_BASE Size (bytes): 6 */
 135:.\Generated_Source\PSoC5/cyfitter_cfg.c **** #define BS_IOPORT_7_VAL ((const uint8 CYFAR *)0x48000C4Cu)
 136:.\Generated_Source\PSoC5/cyfitter_cfg.c **** 
 137:.\Generated_Source\PSoC5/cyfitter_cfg.c **** /* IDMUX_IRQ Address: CYREG_IDMUX_IRQ_CTL0 Size (bytes): 8 */
 138:.\Generated_Source\PSoC5/cyfitter_cfg.c **** #define BS_IDMUX_IRQ_VAL ((const uint8 CYFAR *)0x48000C54u)
 139:.\Generated_Source\PSoC5/cyfitter_cfg.c **** 
 140:.\Generated_Source\PSoC5/cyfitter_cfg.c **** /* UDB_1_5_1_CONFIG Address: CYDEV_UCFG_B0_P0_U1_BASE Size (bytes): 128 */
 141:.\Generated_Source\PSoC5/cyfitter_cfg.c **** #define BS_UDB_1_5_1_CONFIG_VAL ((const uint8 CYFAR *)0x48000C5Cu)
 142:.\Generated_Source\PSoC5/cyfitter_cfg.c **** 
 143:.\Generated_Source\PSoC5/cyfitter_cfg.c **** /* UCFG_BCTL0 Address: CYREG_BCTL0_MDCLK_EN Size (bytes): 16 */
 144:.\Generated_Source\PSoC5/cyfitter_cfg.c **** #define BS_UCFG_BCTL0_VAL ((const uint8 CYFAR *)0x48000CDCu)
 145:.\Generated_Source\PSoC5/cyfitter_cfg.c **** 
 146:.\Generated_Source\PSoC5/cyfitter_cfg.c **** /* IOPINS0_0 Address: CYREG_PRT0_DM0 Size (bytes): 8 */
 147:.\Generated_Source\PSoC5/cyfitter_cfg.c **** #define BS_IOPINS0_0_VAL ((const uint8 CYFAR *)0x48000CECu)
 148:.\Generated_Source\PSoC5/cyfitter_cfg.c **** 
 149:.\Generated_Source\PSoC5/cyfitter_cfg.c **** /* IOPINS0_7 Address: CYREG_PRT12_DM0 Size (bytes): 8 */
 150:.\Generated_Source\PSoC5/cyfitter_cfg.c **** #define BS_IOPINS0_7_VAL ((const uint8 CYFAR *)0x48000CF4u)
 151:.\Generated_Source\PSoC5/cyfitter_cfg.c **** 
 152:.\Generated_Source\PSoC5/cyfitter_cfg.c **** /* IOPINS0_8 Address: CYREG_PRT15_DM0 Size (bytes): 8 */
 153:.\Generated_Source\PSoC5/cyfitter_cfg.c **** #define BS_IOPINS0_8_VAL ((const uint8 CYFAR *)0x48000CFCu)
 154:.\Generated_Source\PSoC5/cyfitter_cfg.c **** 
 155:.\Generated_Source\PSoC5/cyfitter_cfg.c **** /* IOPINS0_1 Address: CYREG_PRT1_DM0 Size (bytes): 8 */
 156:.\Generated_Source\PSoC5/cyfitter_cfg.c **** #define BS_IOPINS0_1_VAL ((const uint8 CYFAR *)0x48000D04u)
 157:.\Generated_Source\PSoC5/cyfitter_cfg.c **** 
 158:.\Generated_Source\PSoC5/cyfitter_cfg.c **** /* IOPINS0_2 Address: CYREG_PRT2_DM0 Size (bytes): 8 */
 159:.\Generated_Source\PSoC5/cyfitter_cfg.c **** #define BS_IOPINS0_2_VAL ((const uint8 CYFAR *)0x48000D0Cu)
 160:.\Generated_Source\PSoC5/cyfitter_cfg.c **** 
 161:.\Generated_Source\PSoC5/cyfitter_cfg.c **** /* IOPINS0_3 Address: CYREG_PRT3_DM0 Size (bytes): 8 */
 162:.\Generated_Source\PSoC5/cyfitter_cfg.c **** #define BS_IOPINS0_3_VAL ((const uint8 CYFAR *)0x48000D14u)
 163:.\Generated_Source\PSoC5/cyfitter_cfg.c **** 
 164:.\Generated_Source\PSoC5/cyfitter_cfg.c **** /* IOPINS0_4 Address: CYREG_PRT4_DR Size (bytes): 10 */
 165:.\Generated_Source\PSoC5/cyfitter_cfg.c **** #define BS_IOPINS0_4_VAL ((const uint8 CYFAR *)0x48000D1Cu)
 166:.\Generated_Source\PSoC5/cyfitter_cfg.c **** 
 167:.\Generated_Source\PSoC5/cyfitter_cfg.c **** /* IOPINS0_5 Address: CYREG_PRT5_DM0 Size (bytes): 8 */
 168:.\Generated_Source\PSoC5/cyfitter_cfg.c **** #define BS_IOPINS0_5_VAL ((const uint8 CYFAR *)0x48000D28u)
 169:.\Generated_Source\PSoC5/cyfitter_cfg.c **** 
 170:.\Generated_Source\PSoC5/cyfitter_cfg.c **** /* IOPINS0_6 Address: CYREG_PRT6_DM0 Size (bytes): 8 */
 171:.\Generated_Source\PSoC5/cyfitter_cfg.c **** #define BS_IOPINS0_6_VAL ((const uint8 CYFAR *)0x48000D30u)
 172:.\Generated_Source\PSoC5/cyfitter_cfg.c **** 
 173:.\Generated_Source\PSoC5/cyfitter_cfg.c **** /* CYDEV_CLKDIST_ACFG0_CFG0 Address: CYREG_CLKDIST_ACFG0_CFG0 Size (bytes): 8 */
 174:.\Generated_Source\PSoC5/cyfitter_cfg.c **** #define BS_CYDEV_CLKDIST_ACFG0_CFG0_VAL ((const uint8 CYFAR *)0x48000D38u)
 175:.\Generated_Source\PSoC5/cyfitter_cfg.c **** 
 176:.\Generated_Source\PSoC5/cyfitter_cfg.c **** 
 177:.\Generated_Source\PSoC5/cyfitter_cfg.c **** /*******************************************************************************
ARM GAS  C:\Users\gravi\AppData\Local\Temp\ccByFLrk.s 			page 7


 178:.\Generated_Source\PSoC5/cyfitter_cfg.c **** * Function Name: cfg_write_bytes32
 179:.\Generated_Source\PSoC5/cyfitter_cfg.c **** ********************************************************************************
 180:.\Generated_Source\PSoC5/cyfitter_cfg.c **** * Summary:
 181:.\Generated_Source\PSoC5/cyfitter_cfg.c **** *  This function is used for setting up the chip configuration areas that
 182:.\Generated_Source\PSoC5/cyfitter_cfg.c **** *  contain relatively sparse data.
 183:.\Generated_Source\PSoC5/cyfitter_cfg.c **** *
 184:.\Generated_Source\PSoC5/cyfitter_cfg.c **** * Parameters:
 185:.\Generated_Source\PSoC5/cyfitter_cfg.c **** *   void
 186:.\Generated_Source\PSoC5/cyfitter_cfg.c **** *
 187:.\Generated_Source\PSoC5/cyfitter_cfg.c **** * Return:
 188:.\Generated_Source\PSoC5/cyfitter_cfg.c **** *   void
 189:.\Generated_Source\PSoC5/cyfitter_cfg.c **** *
 190:.\Generated_Source\PSoC5/cyfitter_cfg.c **** *******************************************************************************/
 191:.\Generated_Source\PSoC5/cyfitter_cfg.c **** static void cfg_write_bytes32(const uint32 addr_table[], const cy_cfg_addrvalue_t data_table[]);
 192:.\Generated_Source\PSoC5/cyfitter_cfg.c **** static void cfg_write_bytes32(const uint32 addr_table[], const cy_cfg_addrvalue_t data_table[])
 193:.\Generated_Source\PSoC5/cyfitter_cfg.c **** {
 166              		.loc 1 193 0
 167              		.cfi_startproc
 168              		@ args = 0, pretend = 0, frame = 24
 169              		@ frame_needed = 1, uses_anonymous_args = 0
 170              		@ link register save eliminated.
 171 0000 80B4     		push	{r7}
 172              	.LCFI12:
 173              		.cfi_def_cfa_offset 4
 174              		.cfi_offset 7, -4
 175 0002 87B0     		sub	sp, sp, #28
 176              	.LCFI13:
 177              		.cfi_def_cfa_offset 32
 178 0004 00AF     		add	r7, sp, #0
 179              	.LCFI14:
 180              		.cfi_def_cfa_register 7
 181 0006 7860     		str	r0, [r7, #4]
 182 0008 3960     		str	r1, [r7, #0]
 194:.\Generated_Source\PSoC5/cyfitter_cfg.c **** 	/* For 32-bit little-endian architectures */
 195:.\Generated_Source\PSoC5/cyfitter_cfg.c **** 	uint32 i, j = 0u;
 183              		.loc 1 195 0
 184 000a 4FF00003 		mov	r3, #0
 185 000e 3B61     		str	r3, [r7, #16]
 196:.\Generated_Source\PSoC5/cyfitter_cfg.c **** 	for (i = 0u; i < CY_CFG_BASE_ADDR_COUNT; i++)
 186              		.loc 1 196 0
 187 0010 4FF00003 		mov	r3, #0
 188 0014 7B61     		str	r3, [r7, #20]
 189 0016 2CE0     		b	.L7
 190              	.L10:
 191              	.LBB2:
 197:.\Generated_Source\PSoC5/cyfitter_cfg.c **** 	{
 198:.\Generated_Source\PSoC5/cyfitter_cfg.c **** 		uint32 baseAddr = addr_table[i];
 192              		.loc 1 198 0
 193 0018 7B69     		ldr	r3, [r7, #20]
 194 001a 4FEA8303 		lsl	r3, r3, #2
 195 001e 7A68     		ldr	r2, [r7, #4]
 196 0020 D318     		adds	r3, r2, r3
 197 0022 1B68     		ldr	r3, [r3, #0]
 198 0024 BB60     		str	r3, [r7, #8]
 199:.\Generated_Source\PSoC5/cyfitter_cfg.c **** 		uint8 count = (uint8)baseAddr;
 199              		.loc 1 199 0
 200 0026 BB68     		ldr	r3, [r7, #8]
ARM GAS  C:\Users\gravi\AppData\Local\Temp\ccByFLrk.s 			page 8


 201 0028 FB73     		strb	r3, [r7, #15]
 200:.\Generated_Source\PSoC5/cyfitter_cfg.c **** 		baseAddr &= 0xFFFFFF00u;
 202              		.loc 1 200 0
 203 002a BB68     		ldr	r3, [r7, #8]
 204 002c 23F0FF03 		bic	r3, r3, #255
 205 0030 BB60     		str	r3, [r7, #8]
 201:.\Generated_Source\PSoC5/cyfitter_cfg.c **** 		while (count != 0u)
 206              		.loc 1 201 0
 207 0032 17E0     		b	.L8
 208              	.L9:
 202:.\Generated_Source\PSoC5/cyfitter_cfg.c **** 		{
 203:.\Generated_Source\PSoC5/cyfitter_cfg.c **** 			CY_SET_XTND_REG8((void CYFAR *)(baseAddr + data_table[j].offset), data_table[j].value);
 209              		.loc 1 203 0
 210 0034 3B69     		ldr	r3, [r7, #16]
 211 0036 4FEA4303 		lsl	r3, r3, #1
 212 003a 3A68     		ldr	r2, [r7, #0]
 213 003c D318     		adds	r3, r2, r3
 214 003e 1B78     		ldrb	r3, [r3, #0]	@ zero_extendqisi2
 215 0040 1A46     		mov	r2, r3
 216 0042 BB68     		ldr	r3, [r7, #8]
 217 0044 D318     		adds	r3, r2, r3
 218 0046 3A69     		ldr	r2, [r7, #16]
 219 0048 4FEA4202 		lsl	r2, r2, #1
 220 004c 3968     		ldr	r1, [r7, #0]
 221 004e 8A18     		adds	r2, r1, r2
 222 0050 5278     		ldrb	r2, [r2, #1]	@ zero_extendqisi2
 223 0052 1A70     		strb	r2, [r3, #0]
 204:.\Generated_Source\PSoC5/cyfitter_cfg.c **** 			j++;
 224              		.loc 1 204 0
 225 0054 3B69     		ldr	r3, [r7, #16]
 226 0056 03F10103 		add	r3, r3, #1
 227 005a 3B61     		str	r3, [r7, #16]
 205:.\Generated_Source\PSoC5/cyfitter_cfg.c **** 			count--;
 228              		.loc 1 205 0
 229 005c FB7B     		ldrb	r3, [r7, #15]
 230 005e 03F1FF33 		add	r3, r3, #-1
 231 0062 FB73     		strb	r3, [r7, #15]
 232              	.L8:
 201:.\Generated_Source\PSoC5/cyfitter_cfg.c **** 		while (count != 0u)
 233              		.loc 1 201 0 discriminator 1
 234 0064 FB7B     		ldrb	r3, [r7, #15]	@ zero_extendqisi2
 235 0066 002B     		cmp	r3, #0
 236 0068 E4D1     		bne	.L9
 237              	.LBE2:
 196:.\Generated_Source\PSoC5/cyfitter_cfg.c **** 	for (i = 0u; i < CY_CFG_BASE_ADDR_COUNT; i++)
 238              		.loc 1 196 0
 239 006a 7B69     		ldr	r3, [r7, #20]
 240 006c 03F10103 		add	r3, r3, #1
 241 0070 7B61     		str	r3, [r7, #20]
 242              	.L7:
 196:.\Generated_Source\PSoC5/cyfitter_cfg.c **** 	for (i = 0u; i < CY_CFG_BASE_ADDR_COUNT; i++)
 243              		.loc 1 196 0 is_stmt 0 discriminator 1
 244 0072 7B69     		ldr	r3, [r7, #20]
 245 0074 272B     		cmp	r3, #39
 246 0076 CFD9     		bls	.L10
 206:.\Generated_Source\PSoC5/cyfitter_cfg.c **** 		}
 207:.\Generated_Source\PSoC5/cyfitter_cfg.c **** 	}
ARM GAS  C:\Users\gravi\AppData\Local\Temp\ccByFLrk.s 			page 9


 208:.\Generated_Source\PSoC5/cyfitter_cfg.c **** }
 247              		.loc 1 208 0 is_stmt 1
 248 0078 07F11C07 		add	r7, r7, #28
 249 007c BD46     		mov	sp, r7
 250 007e 80BC     		pop	{r7}
 251 0080 7047     		bx	lr
 252              		.cfi_endproc
 253              	.LFE4:
 254              		.size	cfg_write_bytes32, .-cfg_write_bytes32
 255 0082 00BF     		.section	.text.ClockSetup,"ax",%progbits
 256              		.align	2
 257              		.thumb
 258              		.thumb_func
 259              		.type	ClockSetup, %function
 260              	ClockSetup:
 261              	.LFB5:
 209:.\Generated_Source\PSoC5/cyfitter_cfg.c **** 
 210:.\Generated_Source\PSoC5/cyfitter_cfg.c **** /*******************************************************************************
 211:.\Generated_Source\PSoC5/cyfitter_cfg.c **** * Function Name: ClockSetup
 212:.\Generated_Source\PSoC5/cyfitter_cfg.c **** ********************************************************************************
 213:.\Generated_Source\PSoC5/cyfitter_cfg.c **** *
 214:.\Generated_Source\PSoC5/cyfitter_cfg.c **** * Summary:
 215:.\Generated_Source\PSoC5/cyfitter_cfg.c **** *  Performs the initialization of all of the clocks in the device based on the
 216:.\Generated_Source\PSoC5/cyfitter_cfg.c **** *  settings in the Clock tab of the DWR.  This includes enabling the requested
 217:.\Generated_Source\PSoC5/cyfitter_cfg.c **** *  clocks and setting the necessary dividers to produce the desired frequency. 
 218:.\Generated_Source\PSoC5/cyfitter_cfg.c **** *
 219:.\Generated_Source\PSoC5/cyfitter_cfg.c **** * Parameters:
 220:.\Generated_Source\PSoC5/cyfitter_cfg.c **** *  void
 221:.\Generated_Source\PSoC5/cyfitter_cfg.c **** *
 222:.\Generated_Source\PSoC5/cyfitter_cfg.c **** * Return:
 223:.\Generated_Source\PSoC5/cyfitter_cfg.c **** *  void
 224:.\Generated_Source\PSoC5/cyfitter_cfg.c **** *
 225:.\Generated_Source\PSoC5/cyfitter_cfg.c **** *******************************************************************************/
 226:.\Generated_Source\PSoC5/cyfitter_cfg.c **** static void ClockSetup(void);
 227:.\Generated_Source\PSoC5/cyfitter_cfg.c **** static void ClockSetup(void)
 228:.\Generated_Source\PSoC5/cyfitter_cfg.c **** {
 262              		.loc 1 228 0
 263              		.cfi_startproc
 264              		@ args = 0, pretend = 0, frame = 8
 265              		@ frame_needed = 1, uses_anonymous_args = 0
 266 0000 80B5     		push	{r7, lr}
 267              	.LCFI15:
 268              		.cfi_def_cfa_offset 8
 269              		.cfi_offset 7, -8
 270              		.cfi_offset 14, -4
 271 0002 82B0     		sub	sp, sp, #8
 272              	.LCFI16:
 273              		.cfi_def_cfa_offset 16
 274 0004 00AF     		add	r7, sp, #0
 275              	.LCFI17:
 276              		.cfi_def_cfa_register 7
 229:.\Generated_Source\PSoC5/cyfitter_cfg.c **** 	uint32 timeout;
 230:.\Generated_Source\PSoC5/cyfitter_cfg.c **** 	uint8 pllLock;
 231:.\Generated_Source\PSoC5/cyfitter_cfg.c **** 
 232:.\Generated_Source\PSoC5/cyfitter_cfg.c **** 
 233:.\Generated_Source\PSoC5/cyfitter_cfg.c **** 	/* Configure Digital Clocks based on settings from Clock DWR */
 234:.\Generated_Source\PSoC5/cyfitter_cfg.c **** 	CY_SET_XTND_REG16((void CYFAR *)(CYREG_CLKDIST_DCFG0_CFG0), 0x0000u);
ARM GAS  C:\Users\gravi\AppData\Local\Temp\ccByFLrk.s 			page 10


 277              		.loc 1 234 0
 278 0006 4FF48143 		mov	r3, #16512
 279 000a C4F20003 		movt	r3, 16384
 280 000e 4FF00002 		mov	r2, #0
 281 0012 1A80     		strh	r2, [r3, #0]	@ movhi
 235:.\Generated_Source\PSoC5/cyfitter_cfg.c **** 	CY_SET_XTND_REG8((void CYFAR *)(CYREG_CLKDIST_DCFG0_CFG0 + 0x2u), 0x50u);
 282              		.loc 1 235 0
 283 0014 44F28203 		movw	r3, #16514
 284 0018 C4F20003 		movt	r3, 16384
 285 001c 4FF05002 		mov	r2, #80
 286 0020 1A70     		strb	r2, [r3, #0]
 236:.\Generated_Source\PSoC5/cyfitter_cfg.c **** 	CY_SET_XTND_REG16((void CYFAR *)(CYREG_CLKDIST_DCFG1_CFG0), 0x0002u);
 287              		.loc 1 236 0
 288 0022 44F28403 		movw	r3, #16516
 289 0026 C4F20003 		movt	r3, 16384
 290 002a 4FF00202 		mov	r2, #2
 291 002e 1A80     		strh	r2, [r3, #0]	@ movhi
 237:.\Generated_Source\PSoC5/cyfitter_cfg.c **** 	CY_SET_XTND_REG8((void CYFAR *)(CYREG_CLKDIST_DCFG1_CFG0 + 0x2u), 0x18u);
 292              		.loc 1 237 0
 293 0030 44F28603 		movw	r3, #16518
 294 0034 C4F20003 		movt	r3, 16384
 295 0038 4FF01802 		mov	r2, #24
 296 003c 1A70     		strb	r2, [r3, #0]
 238:.\Generated_Source\PSoC5/cyfitter_cfg.c **** 	CY_SET_XTND_REG16((void CYFAR *)(CYREG_CLKDIST_DCFG2_CFG0), 0x008Eu);
 297              		.loc 1 238 0
 298 003e 44F28803 		movw	r3, #16520
 299 0042 C4F20003 		movt	r3, 16384
 300 0046 4FF08E02 		mov	r2, #142
 301 004a 1A80     		strh	r2, [r3, #0]	@ movhi
 239:.\Generated_Source\PSoC5/cyfitter_cfg.c **** 	CY_SET_XTND_REG8((void CYFAR *)(CYREG_CLKDIST_DCFG2_CFG0 + 0x2u), 0x18u);
 302              		.loc 1 239 0
 303 004c 44F28A03 		movw	r3, #16522
 304 0050 C4F20003 		movt	r3, 16384
 305 0054 4FF01802 		mov	r2, #24
 306 0058 1A70     		strb	r2, [r3, #0]
 240:.\Generated_Source\PSoC5/cyfitter_cfg.c **** 	CY_SET_XTND_REG16((void CYFAR *)(CYREG_CLKDIST_DCFG3_CFG0), 0x012Bu);
 307              		.loc 1 240 0
 308 005a 44F28C03 		movw	r3, #16524
 309 005e C4F20003 		movt	r3, 16384
 310 0062 40F22B12 		movw	r2, #299
 311 0066 1A80     		strh	r2, [r3, #0]	@ movhi
 241:.\Generated_Source\PSoC5/cyfitter_cfg.c **** 	CY_SET_XTND_REG8((void CYFAR *)(CYREG_CLKDIST_DCFG3_CFG0 + 0x2u), 0x19u);
 312              		.loc 1 241 0
 313 0068 44F28E03 		movw	r3, #16526
 314 006c C4F20003 		movt	r3, 16384
 315 0070 4FF01902 		mov	r2, #25
 316 0074 1A70     		strb	r2, [r3, #0]
 242:.\Generated_Source\PSoC5/cyfitter_cfg.c **** 	CY_SET_XTND_REG16((void CYFAR *)(CYREG_CLKDIST_DCFG4_CFG0), 0x752Fu);
 317              		.loc 1 242 0
 318 0076 44F29003 		movw	r3, #16528
 319 007a C4F20003 		movt	r3, 16384
 320 007e 47F22F52 		movw	r2, #29999
 321 0082 1A80     		strh	r2, [r3, #0]	@ movhi
 243:.\Generated_Source\PSoC5/cyfitter_cfg.c **** 	CY_SET_XTND_REG8((void CYFAR *)(CYREG_CLKDIST_DCFG4_CFG0 + 0x2u), 0x19u);
 322              		.loc 1 243 0
 323 0084 44F29203 		movw	r3, #16530
 324 0088 C4F20003 		movt	r3, 16384
ARM GAS  C:\Users\gravi\AppData\Local\Temp\ccByFLrk.s 			page 11


 325 008c 4FF01902 		mov	r2, #25
 326 0090 1A70     		strb	r2, [r3, #0]
 244:.\Generated_Source\PSoC5/cyfitter_cfg.c **** 
 245:.\Generated_Source\PSoC5/cyfitter_cfg.c **** 	/* Configure Analog Clocks based on settings from Clock DWR */
 246:.\Generated_Source\PSoC5/cyfitter_cfg.c **** 	CYCONFIGCPY((void CYFAR *)(CYREG_CLKDIST_ACFG0_CFG0), (const void CYFAR *)(BS_CYDEV_CLKDIST_ACFG0_
 327              		.loc 1 246 0
 328 0092 4FF48240 		mov	r0, #16640
 329 0096 C4F20000 		movt	r0, 16384
 330 009a 40F63851 		movw	r1, #3384
 331 009e C4F60001 		movt	r1, 18432
 332 00a2 4FF00802 		mov	r2, #8
 333 00a6 FFF7FEFF 		bl	CYCONFIGCPY
 247:.\Generated_Source\PSoC5/cyfitter_cfg.c **** 
 248:.\Generated_Source\PSoC5/cyfitter_cfg.c **** 	/* Configure ILO based on settings from Clock DWR */
 249:.\Generated_Source\PSoC5/cyfitter_cfg.c **** 	CY_SET_XTND_REG8((void CYFAR *)(CYREG_SLOWCLK_ILO_CR0), 0x02u);
 334              		.loc 1 249 0
 335 00aa 4FF48643 		mov	r3, #17152
 336 00ae C4F20003 		movt	r3, 16384
 337 00b2 4FF00202 		mov	r2, #2
 338 00b6 1A70     		strb	r2, [r3, #0]
 250:.\Generated_Source\PSoC5/cyfitter_cfg.c **** 	CY_SET_XTND_REG8((void CYFAR *)(CYREG_CLKDIST_CR), 0x08u);
 339              		.loc 1 250 0
 340 00b8 4FF04023 		mov	r3, #1073758208
 341 00bc 4FF00802 		mov	r2, #8
 342 00c0 1A70     		strb	r2, [r3, #0]
 251:.\Generated_Source\PSoC5/cyfitter_cfg.c **** 
 252:.\Generated_Source\PSoC5/cyfitter_cfg.c **** 	/* Configure IMO based on settings from Clock DWR */
 253:.\Generated_Source\PSoC5/cyfitter_cfg.c **** 	CY_SET_XTND_REG8((void CYFAR *)(CYREG_FASTCLK_IMO_CR), 0x03u);
 343              		.loc 1 253 0
 344 00c2 4FF48443 		mov	r3, #16896
 345 00c6 C4F20003 		movt	r3, 16384
 346 00ca 4FF00302 		mov	r2, #3
 347 00ce 1A70     		strb	r2, [r3, #0]
 254:.\Generated_Source\PSoC5/cyfitter_cfg.c **** 	CY_SET_XTND_REG8((void CYFAR *)(CYREG_IMO_TR1), (CY_GET_XTND_REG8((void CYFAR *)CYREG_FLSHID_CUST_
 348              		.loc 1 254 0
 349 00d0 44F2A163 		movw	r3, #18081
 350 00d4 C4F20003 		movt	r3, 16384
 351 00d8 4FF48472 		mov	r2, #264
 352 00dc C4F60012 		movt	r2, 18688
 353 00e0 1278     		ldrb	r2, [r2, #0]
 354 00e2 D2B2     		uxtb	r2, r2
 355 00e4 1A70     		strb	r2, [r3, #0]
 255:.\Generated_Source\PSoC5/cyfitter_cfg.c **** 
 256:.\Generated_Source\PSoC5/cyfitter_cfg.c **** 	/* Configure XTAL based on settings from Clock DWR */
 257:.\Generated_Source\PSoC5/cyfitter_cfg.c **** 	CY_SET_XTND_REG16((void CYFAR *)(CYREG_FASTCLK_XMHZ_CFG0), 0x530Eu);
 356              		.loc 1 257 0
 357 00e6 44F21223 		movw	r3, #16914
 358 00ea C4F20003 		movt	r3, 16384
 359 00ee 45F20E32 		movw	r2, #21262
 360 00f2 1A80     		strh	r2, [r3, #0]	@ movhi
 258:.\Generated_Source\PSoC5/cyfitter_cfg.c **** 	CY_SET_XTND_REG8((void CYFAR *)(CYREG_FASTCLK_XMHZ_CSR), 0x05u);
 361              		.loc 1 258 0
 362 00f4 44F21023 		movw	r3, #16912
 363 00f8 C4F20003 		movt	r3, 16384
 364 00fc 4FF00502 		mov	r2, #5
 365 0100 1A70     		strb	r2, [r3, #0]
 259:.\Generated_Source\PSoC5/cyfitter_cfg.c **** 	/* Wait up to 130000us for the XTAL to lock */
ARM GAS  C:\Users\gravi\AppData\Local\Temp\ccByFLrk.s 			page 12


 260:.\Generated_Source\PSoC5/cyfitter_cfg.c **** 	CY_GET_XTND_REG8((void CYFAR *)CYREG_FASTCLK_XMHZ_CSR);
 366              		.loc 1 260 0
 367 0102 44F21023 		movw	r3, #16912
 368 0106 C4F20003 		movt	r3, 16384
 369 010a 1B78     		ldrb	r3, [r3, #0]
 261:.\Generated_Source\PSoC5/cyfitter_cfg.c **** 	for (timeout = 130000u / 10u; (timeout > 0u) && ((CY_GET_XTND_REG8((void CYFAR *)CYREG_FASTCLK_XMH
 370              		.loc 1 261 0
 371 010c 43F2C823 		movw	r3, #13000
 372 0110 7B60     		str	r3, [r7, #4]
 373 0112 07E0     		b	.L12
 374              	.L14:
 262:.\Generated_Source\PSoC5/cyfitter_cfg.c **** 	{ 
 263:.\Generated_Source\PSoC5/cyfitter_cfg.c **** 		
 264:.\Generated_Source\PSoC5/cyfitter_cfg.c **** 		CyDelayCycles(10u * 48u); /* Delay 10us based on 48MHz clock */
 375              		.loc 1 264 0 discriminator 1
 376 0114 4FF4F070 		mov	r0, #480
 377 0118 FFF7FEFF 		bl	CyDelayCycles
 261:.\Generated_Source\PSoC5/cyfitter_cfg.c **** 	for (timeout = 130000u / 10u; (timeout > 0u) && ((CY_GET_XTND_REG8((void CYFAR *)CYREG_FASTCLK_XMH
 378              		.loc 1 261 0 discriminator 1
 379 011c 7B68     		ldr	r3, [r7, #4]
 380 011e 03F1FF33 		add	r3, r3, #-1
 381 0122 7B60     		str	r3, [r7, #4]
 382              	.L12:
 383 0124 7B68     		ldr	r3, [r7, #4]
 384 0126 002B     		cmp	r3, #0
 385 0128 09D0     		beq	.L13
 261:.\Generated_Source\PSoC5/cyfitter_cfg.c **** 	for (timeout = 130000u / 10u; (timeout > 0u) && ((CY_GET_XTND_REG8((void CYFAR *)CYREG_FASTCLK_XMH
 386              		.loc 1 261 0 is_stmt 0 discriminator 2
 387 012a 44F21023 		movw	r3, #16912
 388 012e C4F20003 		movt	r3, 16384
 389 0132 1B78     		ldrb	r3, [r3, #0]
 390 0134 DBB2     		uxtb	r3, r3
 391 0136 DBB2     		uxtb	r3, r3
 392 0138 5BB2     		sxtb	r3, r3
 393 013a 002B     		cmp	r3, #0
 394 013c EADB     		blt	.L14
 395              	.L13:
 265:.\Generated_Source\PSoC5/cyfitter_cfg.c **** 	}
 266:.\Generated_Source\PSoC5/cyfitter_cfg.c **** 	/* Enable XTAL Fault Recovery */
 267:.\Generated_Source\PSoC5/cyfitter_cfg.c **** 	CY_SET_XTND_REG8((void CYFAR *)(CYREG_FASTCLK_XMHZ_CSR), (CY_GET_XTND_REG8((void CYFAR *)CYREG_FAS
 396              		.loc 1 267 0 is_stmt 1
 397 013e 44F21023 		movw	r3, #16912
 398 0142 C4F20003 		movt	r3, 16384
 399 0146 44F21022 		movw	r2, #16912
 400 014a C4F20002 		movt	r2, 16384
 401 014e 1278     		ldrb	r2, [r2, #0]
 402 0150 D2B2     		uxtb	r2, r2
 403 0152 42F04002 		orr	r2, r2, #64
 404 0156 D2B2     		uxtb	r2, r2
 405 0158 1A70     		strb	r2, [r3, #0]
 268:.\Generated_Source\PSoC5/cyfitter_cfg.c **** 
 269:.\Generated_Source\PSoC5/cyfitter_cfg.c **** 	/* Configure PLL based on settings from Clock DWR */
 270:.\Generated_Source\PSoC5/cyfitter_cfg.c **** 	CY_SET_XTND_REG16((void CYFAR *)(CYREG_FASTCLK_PLL_P), 0x0242u);
 406              		.loc 1 270 0
 407 015a 44F22223 		movw	r3, #16930
 408 015e C4F20003 		movt	r3, 16384
 409 0162 40F24222 		movw	r2, #578
ARM GAS  C:\Users\gravi\AppData\Local\Temp\ccByFLrk.s 			page 13


 410 0166 1A80     		strh	r2, [r3, #0]	@ movhi
 271:.\Generated_Source\PSoC5/cyfitter_cfg.c **** 	CY_SET_XTND_REG16((void CYFAR *)(CYREG_FASTCLK_PLL_CFG0), 0x1251u);
 411              		.loc 1 271 0
 412 0168 44F22023 		movw	r3, #16928
 413 016c C4F20003 		movt	r3, 16384
 414 0170 41F25122 		movw	r2, #4689
 415 0174 1A80     		strh	r2, [r3, #0]	@ movhi
 272:.\Generated_Source\PSoC5/cyfitter_cfg.c **** 	/* Wait up to 250us for the PLL to lock */
 273:.\Generated_Source\PSoC5/cyfitter_cfg.c **** 	pllLock = 0u;
 416              		.loc 1 273 0
 417 0176 4FF00003 		mov	r3, #0
 418 017a FB70     		strb	r3, [r7, #3]
 274:.\Generated_Source\PSoC5/cyfitter_cfg.c **** 	for (timeout = 250u / 10u; (timeout > 0u) && (pllLock != 0x03u); timeout--)
 419              		.loc 1 274 0
 420 017c 4FF01903 		mov	r3, #25
 421 0180 7B60     		str	r3, [r7, #4]
 422 0182 19E0     		b	.L15
 423              	.L17:
 275:.\Generated_Source\PSoC5/cyfitter_cfg.c **** 	{ 
 276:.\Generated_Source\PSoC5/cyfitter_cfg.c **** 		pllLock = 0x03u & ((uint8)((uint8)pllLock << 1) | ((CY_GET_XTND_REG8((void CYFAR *)CYREG_FASTCLK_
 424              		.loc 1 276 0 discriminator 1
 425 0184 FB78     		ldrb	r3, [r7, #3]
 426 0186 4FEA4303 		lsl	r3, r3, #1
 427 018a DAB2     		uxtb	r2, r3
 428 018c 44F22523 		movw	r3, #16933
 429 0190 C4F20003 		movt	r3, 16384
 430 0194 1B78     		ldrb	r3, [r3, #0]
 431 0196 DBB2     		uxtb	r3, r3
 432 0198 03F00103 		and	r3, r3, #1
 433 019c DBB2     		uxtb	r3, r3
 434 019e 1343     		orrs	r3, r3, r2
 435 01a0 DBB2     		uxtb	r3, r3
 436 01a2 03F00303 		and	r3, r3, #3
 437 01a6 FB70     		strb	r3, [r7, #3]
 277:.\Generated_Source\PSoC5/cyfitter_cfg.c **** 		CyDelayCycles(10u * 48u); /* Delay 10us based on 48MHz clock */
 438              		.loc 1 277 0 discriminator 1
 439 01a8 4FF4F070 		mov	r0, #480
 440 01ac FFF7FEFF 		bl	CyDelayCycles
 274:.\Generated_Source\PSoC5/cyfitter_cfg.c **** 	for (timeout = 250u / 10u; (timeout > 0u) && (pllLock != 0x03u); timeout--)
 441              		.loc 1 274 0 discriminator 1
 442 01b0 7B68     		ldr	r3, [r7, #4]
 443 01b2 03F1FF33 		add	r3, r3, #-1
 444 01b6 7B60     		str	r3, [r7, #4]
 445              	.L15:
 446 01b8 7B68     		ldr	r3, [r7, #4]
 447 01ba 002B     		cmp	r3, #0
 448 01bc 02D0     		beq	.L16
 274:.\Generated_Source\PSoC5/cyfitter_cfg.c **** 	for (timeout = 250u / 10u; (timeout > 0u) && (pllLock != 0x03u); timeout--)
 449              		.loc 1 274 0 is_stmt 0 discriminator 2
 450 01be FB78     		ldrb	r3, [r7, #3]	@ zero_extendqisi2
 451 01c0 032B     		cmp	r3, #3
 452 01c2 DFD1     		bne	.L17
 453              	.L16:
 278:.\Generated_Source\PSoC5/cyfitter_cfg.c **** 	}
 279:.\Generated_Source\PSoC5/cyfitter_cfg.c **** 	/* If we ran out of time the PLL didn't lock so go to the error function */
 280:.\Generated_Source\PSoC5/cyfitter_cfg.c **** 	if (timeout == 0u)
 454              		.loc 1 280 0 is_stmt 1
ARM GAS  C:\Users\gravi\AppData\Local\Temp\ccByFLrk.s 			page 14


 455 01c4 7B68     		ldr	r3, [r7, #4]
 456 01c6 002B     		cmp	r3, #0
 457 01c8 03D1     		bne	.L18
 281:.\Generated_Source\PSoC5/cyfitter_cfg.c **** 	{
 282:.\Generated_Source\PSoC5/cyfitter_cfg.c **** 		CyClockStartupError(CYCLOCKSTART_PLL_ERROR);
 458              		.loc 1 282 0
 459 01ca 4FF00300 		mov	r0, #3
 460 01ce FFF7FEFF 		bl	CyClockStartupError
 461              	.L18:
 283:.\Generated_Source\PSoC5/cyfitter_cfg.c **** 	}
 284:.\Generated_Source\PSoC5/cyfitter_cfg.c **** 
 285:.\Generated_Source\PSoC5/cyfitter_cfg.c **** 	/* Configure Bus/Master Clock based on settings from Clock DWR */
 286:.\Generated_Source\PSoC5/cyfitter_cfg.c **** 	CY_SET_XTND_REG16((void CYFAR *)(CYREG_CLKDIST_MSTR0), 0x0100u);
 462              		.loc 1 286 0
 463 01d2 44F20403 		movw	r3, #16388
 464 01d6 C4F20003 		movt	r3, 16384
 465 01da 4FF48072 		mov	r2, #256
 466 01de 1A80     		strh	r2, [r3, #0]	@ movhi
 287:.\Generated_Source\PSoC5/cyfitter_cfg.c **** 	CY_SET_XTND_REG8((void CYFAR *)(CYREG_CLKDIST_MSTR0), 0x07u);
 467              		.loc 1 287 0
 468 01e0 44F20403 		movw	r3, #16388
 469 01e4 C4F20003 		movt	r3, 16384
 470 01e8 4FF00702 		mov	r2, #7
 471 01ec 1A70     		strb	r2, [r3, #0]
 288:.\Generated_Source\PSoC5/cyfitter_cfg.c **** 	CY_SET_XTND_REG8((void CYFAR *)(CYREG_CLKDIST_BCFG0), 0x00u);
 472              		.loc 1 288 0
 473 01ee 44F20603 		movw	r3, #16390
 474 01f2 C4F20003 		movt	r3, 16384
 475 01f6 4FF00002 		mov	r2, #0
 476 01fa 1A70     		strb	r2, [r3, #0]
 289:.\Generated_Source\PSoC5/cyfitter_cfg.c **** 	CY_SET_XTND_REG8((void CYFAR *)(CYREG_CLKDIST_BCFG2), 0x48u);
 477              		.loc 1 289 0
 478 01fc 44F20803 		movw	r3, #16392
 479 0200 C4F20003 		movt	r3, 16384
 480 0204 4FF04802 		mov	r2, #72
 481 0208 1A70     		strb	r2, [r3, #0]
 290:.\Generated_Source\PSoC5/cyfitter_cfg.c **** 	CY_SET_XTND_REG8((void CYFAR *)(CYREG_CLKDIST_MSTR0), 0x00u);
 482              		.loc 1 290 0
 483 020a 44F20403 		movw	r3, #16388
 484 020e C4F20003 		movt	r3, 16384
 485 0212 4FF00002 		mov	r2, #0
 486 0216 1A70     		strb	r2, [r3, #0]
 291:.\Generated_Source\PSoC5/cyfitter_cfg.c **** 	CY_SET_XTND_REG8((void CYFAR *)(CYREG_CLKDIST_LD), 0x02u);
 487              		.loc 1 291 0
 488 0218 44F20103 		movw	r3, #16385
 489 021c C4F20003 		movt	r3, 16384
 490 0220 4FF00202 		mov	r2, #2
 491 0224 1A70     		strb	r2, [r3, #0]
 292:.\Generated_Source\PSoC5/cyfitter_cfg.c **** 	CY_SET_XTND_REG8((void CYFAR *)(CYREG_CLKDIST_DLY1), 0x04u);
 492              		.loc 1 292 0
 493 0226 44F20B03 		movw	r3, #16395
 494 022a C4F20003 		movt	r3, 16384
 495 022e 4FF00402 		mov	r2, #4
 496 0232 1A70     		strb	r2, [r3, #0]
 293:.\Generated_Source\PSoC5/cyfitter_cfg.c **** 
 294:.\Generated_Source\PSoC5/cyfitter_cfg.c **** 	CY_SET_XTND_REG8((void CYFAR *)(CYREG_PM_ACT_CFG2), ((CY_GET_XTND_REG8((void CYFAR *)CYREG_PM_ACT_
 497              		.loc 1 294 0
ARM GAS  C:\Users\gravi\AppData\Local\Temp\ccByFLrk.s 			page 15


 498 0234 44F2A233 		movw	r3, #17314
 499 0238 C4F20003 		movt	r3, 16384
 500 023c 44F2A232 		movw	r2, #17314
 501 0240 C4F20002 		movt	r2, 16384
 502 0244 1278     		ldrb	r2, [r2, #0]
 503 0246 D2B2     		uxtb	r2, r2
 504 0248 42F01F02 		orr	r2, r2, #31
 505 024c D2B2     		uxtb	r2, r2
 506 024e 1A70     		strb	r2, [r3, #0]
 295:.\Generated_Source\PSoC5/cyfitter_cfg.c **** 	CY_SET_XTND_REG8((void CYFAR *)(CYREG_PM_ACT_CFG1), ((CY_GET_XTND_REG8((void CYFAR *)CYREG_PM_ACT_
 507              		.loc 1 295 0
 508 0250 44F2A133 		movw	r3, #17313
 509 0254 C4F20003 		movt	r3, 16384
 510 0258 44F2A132 		movw	r2, #17313
 511 025c C4F20002 		movt	r2, 16384
 512 0260 1278     		ldrb	r2, [r2, #0]
 513 0262 D2B2     		uxtb	r2, r2
 514 0264 42F00302 		orr	r2, r2, #3
 515 0268 D2B2     		uxtb	r2, r2
 516 026a 1A70     		strb	r2, [r3, #0]
 296:.\Generated_Source\PSoC5/cyfitter_cfg.c **** 	CY_SET_XTND_REG8((void CYFAR *)(CYREG_PM_ACT_CFG0), ((CY_GET_XTND_REG8((void CYFAR *)CYREG_PM_ACT_
 517              		.loc 1 296 0
 518 026c 44F2A033 		movw	r3, #17312
 519 0270 C4F20003 		movt	r3, 16384
 520 0274 44F2A032 		movw	r2, #17312
 521 0278 C4F20002 		movt	r2, 16384
 522 027c 1278     		ldrb	r2, [r2, #0]
 523 027e D2B2     		uxtb	r2, r2
 524 0280 62F07F02 		orn	r2, r2, #127
 525 0284 D2B2     		uxtb	r2, r2
 526 0286 1A70     		strb	r2, [r3, #0]
 297:.\Generated_Source\PSoC5/cyfitter_cfg.c **** }
 527              		.loc 1 297 0
 528 0288 07F10807 		add	r7, r7, #8
 529 028c BD46     		mov	sp, r7
 530 028e 80BD     		pop	{r7, pc}
 531              		.cfi_endproc
 532              	.LFE5:
 533              		.size	ClockSetup, .-ClockSetup
 534              		.section	.text.AnalogSetDefault,"ax",%progbits
 535              		.align	2
 536              		.thumb
 537              		.thumb_func
 538              		.type	AnalogSetDefault, %function
 539              	AnalogSetDefault:
 540              	.LFB6:
 298:.\Generated_Source\PSoC5/cyfitter_cfg.c **** 
 299:.\Generated_Source\PSoC5/cyfitter_cfg.c **** 
 300:.\Generated_Source\PSoC5/cyfitter_cfg.c **** /* Analog API Functions */
 301:.\Generated_Source\PSoC5/cyfitter_cfg.c **** 
 302:.\Generated_Source\PSoC5/cyfitter_cfg.c **** 
 303:.\Generated_Source\PSoC5/cyfitter_cfg.c **** /*******************************************************************************
 304:.\Generated_Source\PSoC5/cyfitter_cfg.c **** * Function Name: AnalogSetDefault
 305:.\Generated_Source\PSoC5/cyfitter_cfg.c **** ********************************************************************************
 306:.\Generated_Source\PSoC5/cyfitter_cfg.c **** *
 307:.\Generated_Source\PSoC5/cyfitter_cfg.c **** * Summary:
 308:.\Generated_Source\PSoC5/cyfitter_cfg.c **** *  Sets up the analog portions of the chip to default values based on chip
ARM GAS  C:\Users\gravi\AppData\Local\Temp\ccByFLrk.s 			page 16


 309:.\Generated_Source\PSoC5/cyfitter_cfg.c **** *  configuration options from the project.
 310:.\Generated_Source\PSoC5/cyfitter_cfg.c **** *
 311:.\Generated_Source\PSoC5/cyfitter_cfg.c **** * Parameters:
 312:.\Generated_Source\PSoC5/cyfitter_cfg.c **** *  void
 313:.\Generated_Source\PSoC5/cyfitter_cfg.c **** *
 314:.\Generated_Source\PSoC5/cyfitter_cfg.c **** * Return:
 315:.\Generated_Source\PSoC5/cyfitter_cfg.c **** *  void
 316:.\Generated_Source\PSoC5/cyfitter_cfg.c **** *
 317:.\Generated_Source\PSoC5/cyfitter_cfg.c **** *******************************************************************************/
 318:.\Generated_Source\PSoC5/cyfitter_cfg.c **** static void AnalogSetDefault(void);
 319:.\Generated_Source\PSoC5/cyfitter_cfg.c **** static void AnalogSetDefault(void)
 320:.\Generated_Source\PSoC5/cyfitter_cfg.c **** {
 541              		.loc 1 320 0
 542              		.cfi_startproc
 543              		@ args = 0, pretend = 0, frame = 8
 544              		@ frame_needed = 1, uses_anonymous_args = 0
 545              		@ link register save eliminated.
 546 0000 80B4     		push	{r7}
 547              	.LCFI18:
 548              		.cfi_def_cfa_offset 4
 549              		.cfi_offset 7, -4
 550 0002 83B0     		sub	sp, sp, #12
 551              	.LCFI19:
 552              		.cfi_def_cfa_offset 16
 553 0004 00AF     		add	r7, sp, #0
 554              	.LCFI20:
 555              		.cfi_def_cfa_register 7
 321:.\Generated_Source\PSoC5/cyfitter_cfg.c **** 	uint8 bg_xover_inl_trim = CY_GET_XTND_REG8((void CYFAR *)(CYREG_FLSHID_MFG_CFG_BG_XOVER_INL_TRIM +
 556              		.loc 1 321 0
 557 0006 40F2CF13 		movw	r3, #463
 558 000a C4F60013 		movt	r3, 18688
 559 000e 1B78     		ldrb	r3, [r3, #0]
 560 0010 FB71     		strb	r3, [r7, #7]
 322:.\Generated_Source\PSoC5/cyfitter_cfg.c **** 	CY_SET_XTND_REG8((void CYFAR *)(CYREG_BG_DFT0), (bg_xover_inl_trim & 0x07u));
 561              		.loc 1 322 0
 562 0012 45F66E03 		movw	r3, #22638
 563 0016 C4F20003 		movt	r3, 16384
 564 001a FA79     		ldrb	r2, [r7, #7]
 565 001c 02F00702 		and	r2, r2, #7
 566 0020 D2B2     		uxtb	r2, r2
 567 0022 1A70     		strb	r2, [r3, #0]
 323:.\Generated_Source\PSoC5/cyfitter_cfg.c **** 	CY_SET_XTND_REG8((void CYFAR *)(CYREG_BG_DFT1), ((bg_xover_inl_trim >> 4) & 0x0Fu));
 568              		.loc 1 323 0
 569 0024 45F66F03 		movw	r3, #22639
 570 0028 C4F20003 		movt	r3, 16384
 571 002c FA79     		ldrb	r2, [r7, #7]	@ zero_extendqisi2
 572 002e 4FEA1212 		lsr	r2, r2, #4
 573 0032 D2B2     		uxtb	r2, r2
 574 0034 1A70     		strb	r2, [r3, #0]
 324:.\Generated_Source\PSoC5/cyfitter_cfg.c **** 	CY_SET_XTND_REG8((void CYFAR *)CYREG_PRT0_AG, 0x01u);
 575              		.loc 1 324 0
 576 0036 45F20D13 		movw	r3, #20749
 577 003a C4F20003 		movt	r3, 16384
 578 003e 4FF00102 		mov	r2, #1
 579 0042 1A70     		strb	r2, [r3, #0]
 325:.\Generated_Source\PSoC5/cyfitter_cfg.c **** 	CY_SET_XTND_REG8((void CYFAR *)CYREG_PRT1_AG, 0x20u);
 580              		.loc 1 325 0
ARM GAS  C:\Users\gravi\AppData\Local\Temp\ccByFLrk.s 			page 17


 581 0044 45F21D13 		movw	r3, #20765
 582 0048 C4F20003 		movt	r3, 16384
 583 004c 4FF02002 		mov	r2, #32
 584 0050 1A70     		strb	r2, [r3, #0]
 326:.\Generated_Source\PSoC5/cyfitter_cfg.c **** 	CY_SET_XTND_REG8((void CYFAR *)CYREG_PRT6_AG, 0x06u);
 585              		.loc 1 326 0
 586 0052 45F26D13 		movw	r3, #20845
 587 0056 C4F20003 		movt	r3, 16384
 588 005a 4FF00602 		mov	r2, #6
 589 005e 1A70     		strb	r2, [r3, #0]
 327:.\Generated_Source\PSoC5/cyfitter_cfg.c **** 	CY_SET_XTND_REG8((void CYFAR *)CYREG_SC2_SW0, 0x10u);
 590              		.loc 1 327 0
 591 0060 45F62023 		movw	r3, #23072
 592 0064 C4F20003 		movt	r3, 16384
 593 0068 4FF01002 		mov	r2, #16
 594 006c 1A70     		strb	r2, [r3, #0]
 328:.\Generated_Source\PSoC5/cyfitter_cfg.c **** 	CY_SET_XTND_REG8((void CYFAR *)CYREG_SC2_SW4, 0x0Au);
 595              		.loc 1 328 0
 596 006e 45F62423 		movw	r3, #23076
 597 0072 C4F20003 		movt	r3, 16384
 598 0076 4FF00A02 		mov	r2, #10
 599 007a 1A70     		strb	r2, [r3, #0]
 329:.\Generated_Source\PSoC5/cyfitter_cfg.c **** 	CY_SET_XTND_REG8((void CYFAR *)CYREG_SC2_SW8, 0x04u);
 600              		.loc 1 329 0
 601 007c 45F62823 		movw	r3, #23080
 602 0080 C4F20003 		movt	r3, 16384
 603 0084 4FF00402 		mov	r2, #4
 604 0088 1A70     		strb	r2, [r3, #0]
 330:.\Generated_Source\PSoC5/cyfitter_cfg.c **** 	CY_SET_XTND_REG8((void CYFAR *)CYREG_DAC1_SW0, 0x02u);
 605              		.loc 1 330 0
 606 008a 45F68823 		movw	r3, #23176
 607 008e C4F20003 		movt	r3, 16384
 608 0092 4FF00202 		mov	r2, #2
 609 0096 1A70     		strb	r2, [r3, #0]
 331:.\Generated_Source\PSoC5/cyfitter_cfg.c **** 	CY_SET_XTND_REG8((void CYFAR *)CYREG_DAC2_SW2, 0x04u);
 610              		.loc 1 331 0
 611 0098 45F69223 		movw	r3, #23186
 612 009c C4F20003 		movt	r3, 16384
 613 00a0 4FF00402 		mov	r2, #4
 614 00a4 1A70     		strb	r2, [r3, #0]
 332:.\Generated_Source\PSoC5/cyfitter_cfg.c **** 	CY_SET_XTND_REG8((void CYFAR *)CYREG_DSM0_SW0, 0x41u);
 615              		.loc 1 332 0
 616 00a6 4FF4B643 		mov	r3, #23296
 617 00aa C4F20003 		movt	r3, 16384
 618 00ae 4FF04102 		mov	r2, #65
 619 00b2 1A70     		strb	r2, [r3, #0]
 333:.\Generated_Source\PSoC5/cyfitter_cfg.c **** 	CY_SET_XTND_REG8((void CYFAR *)CYREG_DSM0_SW3, 0x01u);
 620              		.loc 1 333 0
 621 00b4 45F60333 		movw	r3, #23299
 622 00b8 C4F20003 		movt	r3, 16384
 623 00bc 4FF00102 		mov	r2, #1
 624 00c0 1A70     		strb	r2, [r3, #0]
 334:.\Generated_Source\PSoC5/cyfitter_cfg.c **** 	CY_SET_XTND_REG8((void CYFAR *)CYREG_DSM0_SW4, 0x08u);
 625              		.loc 1 334 0
 626 00c2 45F60433 		movw	r3, #23300
 627 00c6 C4F20003 		movt	r3, 16384
 628 00ca 4FF00802 		mov	r2, #8
ARM GAS  C:\Users\gravi\AppData\Local\Temp\ccByFLrk.s 			page 18


 629 00ce 1A70     		strb	r2, [r3, #0]
 335:.\Generated_Source\PSoC5/cyfitter_cfg.c **** 	CY_SET_XTND_REG16((void CYFAR *)CYREG_OPAMP2_MX, 0x0107u);
 630              		.loc 1 335 0
 631 00d0 45F64433 		movw	r3, #23364
 632 00d4 C4F20003 		movt	r3, 16384
 633 00d8 40F20712 		movw	r2, #263
 634 00dc 1A80     		strh	r2, [r3, #0]	@ movhi
 336:.\Generated_Source\PSoC5/cyfitter_cfg.c **** 	CY_SET_XTND_REG8((void CYFAR *)CYREG_PUMP_CR0, 0x44u);
 635              		.loc 1 336 0
 636 00de 45F67603 		movw	r3, #22646
 637 00e2 C4F20003 		movt	r3, 16384
 638 00e6 4FF04402 		mov	r2, #68
 639 00ea 1A70     		strb	r2, [r3, #0]
 337:.\Generated_Source\PSoC5/cyfitter_cfg.c **** }
 640              		.loc 1 337 0
 641 00ec 07F10C07 		add	r7, r7, #12
 642 00f0 BD46     		mov	sp, r7
 643 00f2 80BC     		pop	{r7}
 644 00f4 7047     		bx	lr
 645              		.cfi_endproc
 646              	.LFE6:
 647              		.size	AnalogSetDefault, .-AnalogSetDefault
 648 00f6 00BF     		.section	.text.SetAnalogRoutingPumps,"ax",%progbits
 649              		.align	2
 650              		.global	SetAnalogRoutingPumps
 651              		.thumb
 652              		.thumb_func
 653              		.type	SetAnalogRoutingPumps, %function
 654              	SetAnalogRoutingPumps:
 655              	.LFB7:
 338:.\Generated_Source\PSoC5/cyfitter_cfg.c **** 
 339:.\Generated_Source\PSoC5/cyfitter_cfg.c **** 
 340:.\Generated_Source\PSoC5/cyfitter_cfg.c **** /*******************************************************************************
 341:.\Generated_Source\PSoC5/cyfitter_cfg.c **** * Function Name: SetAnalogRoutingPumps
 342:.\Generated_Source\PSoC5/cyfitter_cfg.c **** ********************************************************************************
 343:.\Generated_Source\PSoC5/cyfitter_cfg.c **** *
 344:.\Generated_Source\PSoC5/cyfitter_cfg.c **** * Summary:
 345:.\Generated_Source\PSoC5/cyfitter_cfg.c **** * Enables or disables the analog pumps feeding analog routing switches.
 346:.\Generated_Source\PSoC5/cyfitter_cfg.c **** * Intended to be called at startup, based on the Vdda system configuration;
 347:.\Generated_Source\PSoC5/cyfitter_cfg.c **** * may be called during operation when the user informs us that the Vdda voltage
 348:.\Generated_Source\PSoC5/cyfitter_cfg.c **** * crossed the pump threshold.
 349:.\Generated_Source\PSoC5/cyfitter_cfg.c **** *
 350:.\Generated_Source\PSoC5/cyfitter_cfg.c **** * Parameters:
 351:.\Generated_Source\PSoC5/cyfitter_cfg.c **** *  enabled - 1 to enable the pumps, 0 to disable the pumps
 352:.\Generated_Source\PSoC5/cyfitter_cfg.c **** *
 353:.\Generated_Source\PSoC5/cyfitter_cfg.c **** * Return:
 354:.\Generated_Source\PSoC5/cyfitter_cfg.c **** *  void
 355:.\Generated_Source\PSoC5/cyfitter_cfg.c **** *
 356:.\Generated_Source\PSoC5/cyfitter_cfg.c **** *******************************************************************************/
 357:.\Generated_Source\PSoC5/cyfitter_cfg.c **** void SetAnalogRoutingPumps(uint8 enabled)
 358:.\Generated_Source\PSoC5/cyfitter_cfg.c **** {
 656              		.loc 1 358 0
 657              		.cfi_startproc
 658              		@ args = 0, pretend = 0, frame = 16
 659              		@ frame_needed = 1, uses_anonymous_args = 0
 660              		@ link register save eliminated.
 661 0000 80B4     		push	{r7}
ARM GAS  C:\Users\gravi\AppData\Local\Temp\ccByFLrk.s 			page 19


 662              	.LCFI21:
 663              		.cfi_def_cfa_offset 4
 664              		.cfi_offset 7, -4
 665 0002 85B0     		sub	sp, sp, #20
 666              	.LCFI22:
 667              		.cfi_def_cfa_offset 24
 668 0004 00AF     		add	r7, sp, #0
 669              	.LCFI23:
 670              		.cfi_def_cfa_register 7
 671 0006 0346     		mov	r3, r0
 672 0008 FB71     		strb	r3, [r7, #7]
 359:.\Generated_Source\PSoC5/cyfitter_cfg.c **** 	uint8 regValue = CY_GET_XTND_REG8((void CYFAR *)CYREG_PUMP_CR0);
 673              		.loc 1 359 0
 674 000a 45F67603 		movw	r3, #22646
 675 000e C4F20003 		movt	r3, 16384
 676 0012 1B78     		ldrb	r3, [r3, #0]
 677 0014 FB73     		strb	r3, [r7, #15]
 360:.\Generated_Source\PSoC5/cyfitter_cfg.c **** 	if (enabled != 0u)
 678              		.loc 1 360 0
 679 0016 FB79     		ldrb	r3, [r7, #7]	@ zero_extendqisi2
 680 0018 002B     		cmp	r3, #0
 681 001a 04D0     		beq	.L21
 361:.\Generated_Source\PSoC5/cyfitter_cfg.c **** 	{
 362:.\Generated_Source\PSoC5/cyfitter_cfg.c **** 		regValue |= 0x22u;
 682              		.loc 1 362 0
 683 001c FB7B     		ldrb	r3, [r7, #15]
 684 001e 43F02203 		orr	r3, r3, #34
 685 0022 FB73     		strb	r3, [r7, #15]
 686 0024 03E0     		b	.L22
 687              	.L21:
 363:.\Generated_Source\PSoC5/cyfitter_cfg.c **** 	}
 364:.\Generated_Source\PSoC5/cyfitter_cfg.c **** 	else
 365:.\Generated_Source\PSoC5/cyfitter_cfg.c **** 	{
 366:.\Generated_Source\PSoC5/cyfitter_cfg.c **** 		regValue &= (uint8)~0x22u;
 688              		.loc 1 366 0
 689 0026 FB7B     		ldrb	r3, [r7, #15]
 690 0028 23F02203 		bic	r3, r3, #34
 691 002c FB73     		strb	r3, [r7, #15]
 692              	.L22:
 367:.\Generated_Source\PSoC5/cyfitter_cfg.c **** 	}
 368:.\Generated_Source\PSoC5/cyfitter_cfg.c **** 	CY_SET_XTND_REG8((void CYFAR *)CYREG_PUMP_CR0, regValue);
 693              		.loc 1 368 0
 694 002e 45F67603 		movw	r3, #22646
 695 0032 C4F20003 		movt	r3, 16384
 696 0036 FA7B     		ldrb	r2, [r7, #15]
 697 0038 1A70     		strb	r2, [r3, #0]
 369:.\Generated_Source\PSoC5/cyfitter_cfg.c **** }
 698              		.loc 1 369 0
 699 003a 07F11407 		add	r7, r7, #20
 700 003e BD46     		mov	sp, r7
 701 0040 80BC     		pop	{r7}
 702 0042 7047     		bx	lr
 703              		.cfi_endproc
 704              	.LFE7:
 705              		.size	SetAnalogRoutingPumps, .-SetAnalogRoutingPumps
 706              		.global	AMuxSeq_curChannel
 707              		.data
ARM GAS  C:\Users\gravi\AppData\Local\Temp\ccByFLrk.s 			page 20


 708              		.type	AMuxSeq_curChannel, %object
 709              		.size	AMuxSeq_curChannel, 1
 710              	AMuxSeq_curChannel:
 711 0000 FF       		.byte	-1
 712              		.section	.text.AMuxSeq_DisconnectAll,"ax",%progbits
 713              		.align	2
 714              		.global	AMuxSeq_DisconnectAll
 715              		.thumb
 716              		.thumb_func
 717              		.type	AMuxSeq_DisconnectAll, %function
 718              	AMuxSeq_DisconnectAll:
 719              	.LFB8:
 370:.\Generated_Source\PSoC5/cyfitter_cfg.c **** 
 371:.\Generated_Source\PSoC5/cyfitter_cfg.c **** #define CY_AMUX_UNUSED CYREG_BOOST_SR
 372:.\Generated_Source\PSoC5/cyfitter_cfg.c **** int8 AMuxSeq_curChannel = -1;
 373:.\Generated_Source\PSoC5/cyfitter_cfg.c **** 
 374:.\Generated_Source\PSoC5/cyfitter_cfg.c **** void AMuxSeq_DisconnectAll(void)
 375:.\Generated_Source\PSoC5/cyfitter_cfg.c **** {
 720              		.loc 1 375 0
 721              		.cfi_startproc
 722              		@ args = 0, pretend = 0, frame = 0
 723              		@ frame_needed = 1, uses_anonymous_args = 0
 724              		@ link register save eliminated.
 725 0000 80B4     		push	{r7}
 726              	.LCFI24:
 727              		.cfi_def_cfa_offset 4
 728              		.cfi_offset 7, -4
 729 0002 00AF     		add	r7, sp, #0
 730              	.LCFI25:
 731              		.cfi_def_cfa_register 7
 376:.\Generated_Source\PSoC5/cyfitter_cfg.c **** 	AMuxSeq_curChannel = -1;
 732              		.loc 1 376 0
 733 0004 40F20003 		movw	r3, #:lower16:AMuxSeq_curChannel
 734 0008 C0F20003 		movt	r3, #:upper16:AMuxSeq_curChannel
 735 000c 4FF0FF02 		mov	r2, #255
 736 0010 1A70     		strb	r2, [r3, #0]
 377:.\Generated_Source\PSoC5/cyfitter_cfg.c **** 	CY_SET_REG8((void CYXDATA *)CYREG_PRT0_AG, 0x01u);
 737              		.loc 1 377 0
 738 0012 45F20D13 		movw	r3, #20749
 739 0016 C4F20003 		movt	r3, 16384
 740 001a 4FF00102 		mov	r2, #1
 741 001e 1A70     		strb	r2, [r3, #0]
 378:.\Generated_Source\PSoC5/cyfitter_cfg.c **** 	CY_SET_REG8((void CYXDATA *)CYREG_DSM0_SW0, 0x41u);
 742              		.loc 1 378 0
 743 0020 4FF4B643 		mov	r3, #23296
 744 0024 C4F20003 		movt	r3, 16384
 745 0028 4FF04102 		mov	r2, #65
 746 002c 1A70     		strb	r2, [r3, #0]
 379:.\Generated_Source\PSoC5/cyfitter_cfg.c **** 	CY_SET_REG8((void CYXDATA *)CYREG_PRT6_AG, 0x06u);
 747              		.loc 1 379 0
 748 002e 45F26D13 		movw	r3, #20845
 749 0032 C4F20003 		movt	r3, 16384
 750 0036 4FF00602 		mov	r2, #6
 751 003a 1A70     		strb	r2, [r3, #0]
 380:.\Generated_Source\PSoC5/cyfitter_cfg.c **** 	CY_SET_REG8((void CYXDATA *)CYREG_PRT0_AMUX, 0x00u);
 752              		.loc 1 380 0
 753 003c 45F20C13 		movw	r3, #20748
ARM GAS  C:\Users\gravi\AppData\Local\Temp\ccByFLrk.s 			page 21


 754 0040 C4F20003 		movt	r3, 16384
 755 0044 4FF00002 		mov	r2, #0
 756 0048 1A70     		strb	r2, [r3, #0]
 381:.\Generated_Source\PSoC5/cyfitter_cfg.c **** 	CY_SET_REG8((void CYXDATA *)CYREG_PRT15_AMUX, 0x00u);
 757              		.loc 1 381 0
 758 004a 45F2FC13 		movw	r3, #20988
 759 004e C4F20003 		movt	r3, 16384
 760 0052 4FF00002 		mov	r2, #0
 761 0056 1A70     		strb	r2, [r3, #0]
 382:.\Generated_Source\PSoC5/cyfitter_cfg.c **** 	CY_SET_REG8((void CYXDATA *)CYREG_PRT15_AG, 0x00u);
 762              		.loc 1 382 0
 763 0058 45F2FD13 		movw	r3, #20989
 764 005c C4F20003 		movt	r3, 16384
 765 0060 4FF00002 		mov	r2, #0
 766 0064 1A70     		strb	r2, [r3, #0]
 383:.\Generated_Source\PSoC5/cyfitter_cfg.c **** }
 767              		.loc 1 383 0
 768 0066 BD46     		mov	sp, r7
 769 0068 80BC     		pop	{r7}
 770 006a 7047     		bx	lr
 771              		.cfi_endproc
 772              	.LFE8:
 773              		.size	AMuxSeq_DisconnectAll, .-AMuxSeq_DisconnectAll
 774              		.section	.text.AMuxSeq_Next,"ax",%progbits
 775              		.align	2
 776              		.global	AMuxSeq_Next
 777              		.thumb
 778              		.thumb_func
 779              		.type	AMuxSeq_Next, %function
 780              	AMuxSeq_Next:
 781              	.LFB9:
 384:.\Generated_Source\PSoC5/cyfitter_cfg.c **** 
 385:.\Generated_Source\PSoC5/cyfitter_cfg.c **** #if defined(__C51__) || defined(__CX51__)
 386:.\Generated_Source\PSoC5/cyfitter_cfg.c ****     #pragma OT(5, SPEED)
 387:.\Generated_Source\PSoC5/cyfitter_cfg.c **** #endif
 388:.\Generated_Source\PSoC5/cyfitter_cfg.c **** void AMuxSeq_Next(void)
 389:.\Generated_Source\PSoC5/cyfitter_cfg.c **** {
 782              		.loc 1 389 0
 783              		.cfi_startproc
 784              		@ args = 0, pretend = 0, frame = 0
 785              		@ frame_needed = 1, uses_anonymous_args = 0
 786              		@ link register save eliminated.
 787 0000 80B4     		push	{r7}
 788              	.LCFI26:
 789              		.cfi_def_cfa_offset 4
 790              		.cfi_offset 7, -4
 791 0002 00AF     		add	r7, sp, #0
 792              	.LCFI27:
 793              		.cfi_def_cfa_register 7
 390:.\Generated_Source\PSoC5/cyfitter_cfg.c **** 	AMuxSeq_curChannel++;
 794              		.loc 1 390 0
 795 0004 40F20003 		movw	r3, #:lower16:AMuxSeq_curChannel
 796 0008 C0F20003 		movt	r3, #:upper16:AMuxSeq_curChannel
 797 000c 1B78     		ldrb	r3, [r3, #0]	@ zero_extendqisi2
 798 000e 03F10103 		add	r3, r3, #1
 799 0012 DAB2     		uxtb	r2, r3
 800 0014 40F20003 		movw	r3, #:lower16:AMuxSeq_curChannel
ARM GAS  C:\Users\gravi\AppData\Local\Temp\ccByFLrk.s 			page 22


 801 0018 C0F20003 		movt	r3, #:upper16:AMuxSeq_curChannel
 802 001c 1A70     		strb	r2, [r3, #0]
 391:.\Generated_Source\PSoC5/cyfitter_cfg.c **** 	switch (AMuxSeq_curChannel)
 803              		.loc 1 391 0
 804 001e 40F20003 		movw	r3, #:lower16:AMuxSeq_curChannel
 805 0022 C0F20003 		movt	r3, #:upper16:AMuxSeq_curChannel
 806 0026 1B78     		ldrb	r3, [r3, #0]	@ zero_extendqisi2
 807 0028 5BB2     		sxtb	r3, r3
 808 002a 082B     		cmp	r3, #8
 809 002c 14D8     		bhi	.L25
 810 002e 01A2     		adr	r2, .L35
 811 0030 52F823F0 		ldr	pc, [r2, r3, lsl #2]
 812              		.align	2
 813              	.L35:
 814 0034 67000000 		.word	.L26+1
 815 0038 93000000 		.word	.L27+1
 816 003c B1000000 		.word	.L28+1
 817 0040 CF000000 		.word	.L29+1
 818 0044 ED000000 		.word	.L30+1
 819 0048 0B010000 		.word	.L31+1
 820 004c 29010000 		.word	.L32+1
 821 0050 55010000 		.word	.L33+1
 822 0054 73010000 		.word	.L34+1
 823              	.L25:
 392:.\Generated_Source\PSoC5/cyfitter_cfg.c **** 	{
 393:.\Generated_Source\PSoC5/cyfitter_cfg.c **** 	case 9:
 394:.\Generated_Source\PSoC5/cyfitter_cfg.c **** 	default:
 395:.\Generated_Source\PSoC5/cyfitter_cfg.c **** 		AMuxSeq_curChannel = 0;
 824              		.loc 1 395 0
 825 0058 40F20003 		movw	r3, #:lower16:AMuxSeq_curChannel
 826 005c C0F20003 		movt	r3, #:upper16:AMuxSeq_curChannel
 827 0060 4FF00002 		mov	r2, #0
 828 0064 1A70     		strb	r2, [r3, #0]
 829              	.L26:
 396:.\Generated_Source\PSoC5/cyfitter_cfg.c **** 	case 0:
 397:.\Generated_Source\PSoC5/cyfitter_cfg.c **** 		CY_SET_REG8((void CYXDATA *)CYREG_DSM0_SW0, 0x41u);
 830              		.loc 1 397 0
 831 0066 4FF4B643 		mov	r3, #23296
 832 006a C4F20003 		movt	r3, 16384
 833 006e 4FF04102 		mov	r2, #65
 834 0072 1A70     		strb	r2, [r3, #0]
 398:.\Generated_Source\PSoC5/cyfitter_cfg.c **** 		CY_SET_REG8((void CYXDATA *)CYREG_PRT0_AG, 0x01u | 0x08u);
 835              		.loc 1 398 0
 836 0074 45F20D13 		movw	r3, #20749
 837 0078 C4F20003 		movt	r3, 16384
 838 007c 4FF00902 		mov	r2, #9
 839 0080 1A70     		strb	r2, [r3, #0]
 399:.\Generated_Source\PSoC5/cyfitter_cfg.c **** 		CY_SET_REG8((void CYXDATA *)CYREG_DSM0_SW0, 0x41u | 0x80u);
 840              		.loc 1 399 0
 841 0082 4FF4B643 		mov	r3, #23296
 842 0086 C4F20003 		movt	r3, 16384
 843 008a 4FF0C102 		mov	r2, #193
 844 008e 1A70     		strb	r2, [r3, #0]
 400:.\Generated_Source\PSoC5/cyfitter_cfg.c **** 		break;
 845              		.loc 1 400 0
 846 0090 7EE0     		b	.L24
 847              	.L27:
ARM GAS  C:\Users\gravi\AppData\Local\Temp\ccByFLrk.s 			page 23


 401:.\Generated_Source\PSoC5/cyfitter_cfg.c **** 	case 1:
 402:.\Generated_Source\PSoC5/cyfitter_cfg.c **** 		CY_SET_REG8((void CYXDATA *)CYREG_DSM0_SW0, 0x41u);
 848              		.loc 1 402 0
 849 0092 4FF4B643 		mov	r3, #23296
 850 0096 C4F20003 		movt	r3, 16384
 851 009a 4FF04102 		mov	r2, #65
 852 009e 1A70     		strb	r2, [r3, #0]
 403:.\Generated_Source\PSoC5/cyfitter_cfg.c **** 		CY_SET_REG8((void CYXDATA *)CYREG_PRT0_AG, 0x01u | 0x04u);
 853              		.loc 1 403 0
 854 00a0 45F20D13 		movw	r3, #20749
 855 00a4 C4F20003 		movt	r3, 16384
 856 00a8 4FF00502 		mov	r2, #5
 857 00ac 1A70     		strb	r2, [r3, #0]
 404:.\Generated_Source\PSoC5/cyfitter_cfg.c **** 		break;
 858              		.loc 1 404 0
 859 00ae 6FE0     		b	.L24
 860              	.L28:
 405:.\Generated_Source\PSoC5/cyfitter_cfg.c **** 	case 2:
 406:.\Generated_Source\PSoC5/cyfitter_cfg.c **** 		CY_SET_REG8((void CYXDATA *)CYREG_PRT0_AG, 0x01u);
 861              		.loc 1 406 0
 862 00b0 45F20D13 		movw	r3, #20749
 863 00b4 C4F20003 		movt	r3, 16384
 864 00b8 4FF00102 		mov	r2, #1
 865 00bc 1A70     		strb	r2, [r3, #0]
 407:.\Generated_Source\PSoC5/cyfitter_cfg.c **** 		CY_SET_REG8((void CYXDATA *)CYREG_PRT6_AG, 0x06u | 0x01u);
 866              		.loc 1 407 0
 867 00be 45F26D13 		movw	r3, #20845
 868 00c2 C4F20003 		movt	r3, 16384
 869 00c6 4FF00702 		mov	r2, #7
 870 00ca 1A70     		strb	r2, [r3, #0]
 408:.\Generated_Source\PSoC5/cyfitter_cfg.c **** 		break;
 871              		.loc 1 408 0
 872 00cc 60E0     		b	.L24
 873              	.L29:
 409:.\Generated_Source\PSoC5/cyfitter_cfg.c **** 	case 3:
 410:.\Generated_Source\PSoC5/cyfitter_cfg.c **** 		CY_SET_REG8((void CYXDATA *)CYREG_PRT6_AG, 0x06u);
 874              		.loc 1 410 0
 875 00ce 45F26D13 		movw	r3, #20845
 876 00d2 C4F20003 		movt	r3, 16384
 877 00d6 4FF00602 		mov	r2, #6
 878 00da 1A70     		strb	r2, [r3, #0]
 411:.\Generated_Source\PSoC5/cyfitter_cfg.c **** 		CY_SET_REG8((void CYXDATA *)CYREG_PRT0_AMUX, 0x10u);
 879              		.loc 1 411 0
 880 00dc 45F20C13 		movw	r3, #20748
 881 00e0 C4F20003 		movt	r3, 16384
 882 00e4 4FF01002 		mov	r2, #16
 883 00e8 1A70     		strb	r2, [r3, #0]
 412:.\Generated_Source\PSoC5/cyfitter_cfg.c **** 		break;
 884              		.loc 1 412 0
 885 00ea 51E0     		b	.L24
 886              	.L30:
 413:.\Generated_Source\PSoC5/cyfitter_cfg.c **** 	case 4:
 414:.\Generated_Source\PSoC5/cyfitter_cfg.c **** 		CY_SET_REG8((void CYXDATA *)CYREG_PRT0_AMUX, 0x00u);
 887              		.loc 1 414 0
 888 00ec 45F20C13 		movw	r3, #20748
 889 00f0 C4F20003 		movt	r3, 16384
 890 00f4 4FF00002 		mov	r2, #0
ARM GAS  C:\Users\gravi\AppData\Local\Temp\ccByFLrk.s 			page 24


 891 00f8 1A70     		strb	r2, [r3, #0]
 415:.\Generated_Source\PSoC5/cyfitter_cfg.c **** 		CY_SET_REG8((void CYXDATA *)CYREG_PRT0_AG, 0x01u | 0x40u);
 892              		.loc 1 415 0
 893 00fa 45F20D13 		movw	r3, #20749
 894 00fe C4F20003 		movt	r3, 16384
 895 0102 4FF04102 		mov	r2, #65
 896 0106 1A70     		strb	r2, [r3, #0]
 416:.\Generated_Source\PSoC5/cyfitter_cfg.c **** 		break;
 897              		.loc 1 416 0
 898 0108 42E0     		b	.L24
 899              	.L31:
 417:.\Generated_Source\PSoC5/cyfitter_cfg.c **** 	case 5:
 418:.\Generated_Source\PSoC5/cyfitter_cfg.c **** 		CY_SET_REG8((void CYXDATA *)CYREG_PRT0_AG, 0x01u | 0x20u);
 900              		.loc 1 418 0
 901 010a 45F20D13 		movw	r3, #20749
 902 010e C4F20003 		movt	r3, 16384
 903 0112 4FF02102 		mov	r2, #33
 904 0116 1A70     		strb	r2, [r3, #0]
 419:.\Generated_Source\PSoC5/cyfitter_cfg.c **** 		CY_SET_REG8((void CYXDATA *)CYREG_DSM0_SW0, 0x41u | 0x20u);
 905              		.loc 1 419 0
 906 0118 4FF4B643 		mov	r3, #23296
 907 011c C4F20003 		movt	r3, 16384
 908 0120 4FF06102 		mov	r2, #97
 909 0124 1A70     		strb	r2, [r3, #0]
 420:.\Generated_Source\PSoC5/cyfitter_cfg.c **** 		break;
 910              		.loc 1 420 0
 911 0126 33E0     		b	.L24
 912              	.L32:
 421:.\Generated_Source\PSoC5/cyfitter_cfg.c **** 	case 6:
 422:.\Generated_Source\PSoC5/cyfitter_cfg.c **** 		CY_SET_REG8((void CYXDATA *)CYREG_PRT0_AG, 0x01u);
 913              		.loc 1 422 0
 914 0128 45F20D13 		movw	r3, #20749
 915 012c C4F20003 		movt	r3, 16384
 916 0130 4FF00102 		mov	r2, #1
 917 0134 1A70     		strb	r2, [r3, #0]
 423:.\Generated_Source\PSoC5/cyfitter_cfg.c **** 		CY_SET_REG8((void CYXDATA *)CYREG_DSM0_SW0, 0x41u);
 918              		.loc 1 423 0
 919 0136 4FF4B643 		mov	r3, #23296
 920 013a C4F20003 		movt	r3, 16384
 921 013e 4FF04102 		mov	r2, #65
 922 0142 1A70     		strb	r2, [r3, #0]
 424:.\Generated_Source\PSoC5/cyfitter_cfg.c **** 		CY_SET_REG8((void CYXDATA *)CYREG_PRT15_AMUX, 0x20u);
 923              		.loc 1 424 0
 924 0144 45F2FC13 		movw	r3, #20988
 925 0148 C4F20003 		movt	r3, 16384
 926 014c 4FF02002 		mov	r2, #32
 927 0150 1A70     		strb	r2, [r3, #0]
 425:.\Generated_Source\PSoC5/cyfitter_cfg.c **** 		break;
 928              		.loc 1 425 0
 929 0152 1DE0     		b	.L24
 930              	.L33:
 426:.\Generated_Source\PSoC5/cyfitter_cfg.c **** 	case 7:
 427:.\Generated_Source\PSoC5/cyfitter_cfg.c **** 		CY_SET_REG8((void CYXDATA *)CYREG_PRT15_AMUX, 0x00u);
 931              		.loc 1 427 0
 932 0154 45F2FC13 		movw	r3, #20988
 933 0158 C4F20003 		movt	r3, 16384
 934 015c 4FF00002 		mov	r2, #0
ARM GAS  C:\Users\gravi\AppData\Local\Temp\ccByFLrk.s 			page 25


 935 0160 1A70     		strb	r2, [r3, #0]
 428:.\Generated_Source\PSoC5/cyfitter_cfg.c **** 		CY_SET_REG8((void CYXDATA *)CYREG_PRT15_AG, 0x10u);
 936              		.loc 1 428 0
 937 0162 45F2FD13 		movw	r3, #20989
 938 0166 C4F20003 		movt	r3, 16384
 939 016a 4FF01002 		mov	r2, #16
 940 016e 1A70     		strb	r2, [r3, #0]
 429:.\Generated_Source\PSoC5/cyfitter_cfg.c **** 		break;
 941              		.loc 1 429 0
 942 0170 0EE0     		b	.L24
 943              	.L34:
 430:.\Generated_Source\PSoC5/cyfitter_cfg.c **** 	case 8:
 431:.\Generated_Source\PSoC5/cyfitter_cfg.c **** 		CY_SET_REG8((void CYXDATA *)CYREG_PRT15_AG, 0x00u);
 944              		.loc 1 431 0
 945 0172 45F2FD13 		movw	r3, #20989
 946 0176 C4F20003 		movt	r3, 16384
 947 017a 4FF00002 		mov	r2, #0
 948 017e 1A70     		strb	r2, [r3, #0]
 432:.\Generated_Source\PSoC5/cyfitter_cfg.c **** 		CY_SET_REG8((void CYXDATA *)CYREG_DSM0_SW0, 0x41u | 0x10u);
 949              		.loc 1 432 0
 950 0180 4FF4B643 		mov	r3, #23296
 951 0184 C4F20003 		movt	r3, 16384
 952 0188 4FF05102 		mov	r2, #81
 953 018c 1A70     		strb	r2, [r3, #0]
 433:.\Generated_Source\PSoC5/cyfitter_cfg.c **** 		break;
 954              		.loc 1 433 0
 955 018e 00BF     		nop
 956              	.L24:
 434:.\Generated_Source\PSoC5/cyfitter_cfg.c **** 	}
 435:.\Generated_Source\PSoC5/cyfitter_cfg.c **** }
 957              		.loc 1 435 0
 958 0190 BD46     		mov	sp, r7
 959 0192 80BC     		pop	{r7}
 960 0194 7047     		bx	lr
 961              		.cfi_endproc
 962              	.LFE9:
 963              		.size	AMuxSeq_Next, .-AMuxSeq_Next
 964 0196 00BF     		.section	.text.cyfitter_cfg,"ax",%progbits
 965              		.align	2
 966              		.global	cyfitter_cfg
 967              		.thumb
 968              		.thumb_func
 969              		.type	cyfitter_cfg, %function
 970              	cyfitter_cfg:
 971              	.LFB10:
 436:.\Generated_Source\PSoC5/cyfitter_cfg.c **** 
 437:.\Generated_Source\PSoC5/cyfitter_cfg.c **** 
 438:.\Generated_Source\PSoC5/cyfitter_cfg.c **** 
 439:.\Generated_Source\PSoC5/cyfitter_cfg.c **** /*******************************************************************************
 440:.\Generated_Source\PSoC5/cyfitter_cfg.c **** * Function Name: cyfitter_cfg
 441:.\Generated_Source\PSoC5/cyfitter_cfg.c **** ********************************************************************************
 442:.\Generated_Source\PSoC5/cyfitter_cfg.c **** * Summary:
 443:.\Generated_Source\PSoC5/cyfitter_cfg.c **** *  This function is called by the start-up code for the selected device. It
 444:.\Generated_Source\PSoC5/cyfitter_cfg.c **** *  performs all of the necessary device configuration based on the design
 445:.\Generated_Source\PSoC5/cyfitter_cfg.c **** *  settings.  This includes settings from the Design Wide Resources (DWR) such
 446:.\Generated_Source\PSoC5/cyfitter_cfg.c **** *  as Clocks and Pins as well as any component configuration that is necessary.
 447:.\Generated_Source\PSoC5/cyfitter_cfg.c **** *
ARM GAS  C:\Users\gravi\AppData\Local\Temp\ccByFLrk.s 			page 26


 448:.\Generated_Source\PSoC5/cyfitter_cfg.c **** * Parameters:  
 449:.\Generated_Source\PSoC5/cyfitter_cfg.c **** *   void
 450:.\Generated_Source\PSoC5/cyfitter_cfg.c **** *
 451:.\Generated_Source\PSoC5/cyfitter_cfg.c **** * Return:
 452:.\Generated_Source\PSoC5/cyfitter_cfg.c **** *   void
 453:.\Generated_Source\PSoC5/cyfitter_cfg.c **** *
 454:.\Generated_Source\PSoC5/cyfitter_cfg.c **** *******************************************************************************/
 455:.\Generated_Source\PSoC5/cyfitter_cfg.c **** 
 456:.\Generated_Source\PSoC5/cyfitter_cfg.c **** void cyfitter_cfg(void)
 457:.\Generated_Source\PSoC5/cyfitter_cfg.c **** {
 972              		.loc 1 457 0
 973              		.cfi_startproc
 974              		@ args = 0, pretend = 0, frame = 24
 975              		@ frame_needed = 1, uses_anonymous_args = 0
 976 0000 80B5     		push	{r7, lr}
 977              	.LCFI28:
 978              		.cfi_def_cfa_offset 8
 979              		.cfi_offset 7, -8
 980              		.cfi_offset 14, -4
 981 0002 86B0     		sub	sp, sp, #24
 982              	.LCFI29:
 983              		.cfi_def_cfa_offset 32
 984 0004 00AF     		add	r7, sp, #0
 985              	.LCFI30:
 986              		.cfi_def_cfa_register 7
 458:.\Generated_Source\PSoC5/cyfitter_cfg.c **** #ifdef CYGlobalIntDisable
 459:.\Generated_Source\PSoC5/cyfitter_cfg.c **** 	/* Disable interrupts by default. Let user enable if/when they want. */
 460:.\Generated_Source\PSoC5/cyfitter_cfg.c **** 	CYGlobalIntDisable
 987              		.loc 1 460 0
 988              	@ 460 ".\Generated_Source\PSoC5\cyfitter_cfg.c" 1
 989 0006 72B6     		CPSID   i
 990              	@ 0 "" 2
 461:.\Generated_Source\PSoC5/cyfitter_cfg.c **** #endif
 462:.\Generated_Source\PSoC5/cyfitter_cfg.c **** 
 463:.\Generated_Source\PSoC5/cyfitter_cfg.c **** 
 464:.\Generated_Source\PSoC5/cyfitter_cfg.c **** 	/* Set Flash Cycles based on max possible frequency in case a glitch occurs during ClockSetup(). *
 465:.\Generated_Source\PSoC5/cyfitter_cfg.c **** 	CY_SET_XTND_REG8((void CYFAR *)(CYREG_CACHE_CC_CTL), (((CYDEV_INSTRUCT_CACHE_ENABLED) != 0) ? 0x01
 991              		.loc 1 465 0
 992              		.thumb
 993 0008 4FF49043 		mov	r3, #18432
 994 000c C4F20003 		movt	r3, 16384
 995 0010 4FF00102 		mov	r2, #1
 996 0014 1A70     		strb	r2, [r3, #0]
 466:.\Generated_Source\PSoC5/cyfitter_cfg.c **** 	/* Setup clocks based on selections from Clock DWR */
 467:.\Generated_Source\PSoC5/cyfitter_cfg.c **** 	ClockSetup();
 997              		.loc 1 467 0
 998 0016 FFF7FEFF 		bl	ClockSetup
 468:.\Generated_Source\PSoC5/cyfitter_cfg.c **** 	/* Enable/Disable Debug functionality based on settings from System DWR */
 469:.\Generated_Source\PSoC5/cyfitter_cfg.c **** 	CY_SET_XTND_REG8((void CYFAR *)CYREG_MLOGIC_DEBUG, (CY_GET_XTND_REG8((void CYFAR *)CYREG_MLOGIC_DE
 999              		.loc 1 469 0
 1000 001a 44F2E863 		movw	r3, #18152
 1001 001e C4F20003 		movt	r3, 16384
 1002 0022 44F2E862 		movw	r2, #18152
 1003 0026 C4F20002 		movt	r2, 16384
 1004 002a 1278     		ldrb	r2, [r2, #0]
 1005 002c D2B2     		uxtb	r2, r2
 1006 002e 42F00402 		orr	r2, r2, #4
ARM GAS  C:\Users\gravi\AppData\Local\Temp\ccByFLrk.s 			page 27


 1007 0032 D2B2     		uxtb	r2, r2
 1008 0034 1A70     		strb	r2, [r3, #0]
 1009              	.LBB3:
 470:.\Generated_Source\PSoC5/cyfitter_cfg.c **** 
 471:.\Generated_Source\PSoC5/cyfitter_cfg.c **** 	{
 472:.\Generated_Source\PSoC5/cyfitter_cfg.c **** 
 473:.\Generated_Source\PSoC5/cyfitter_cfg.c **** 		CYPACKED typedef struct {
 474:.\Generated_Source\PSoC5/cyfitter_cfg.c **** 			void CYFAR *address;
 475:.\Generated_Source\PSoC5/cyfitter_cfg.c **** 			uint16 size;
 476:.\Generated_Source\PSoC5/cyfitter_cfg.c **** 		} CYPACKED_ATTR cfg_memset_t;
 477:.\Generated_Source\PSoC5/cyfitter_cfg.c **** 
 478:.\Generated_Source\PSoC5/cyfitter_cfg.c **** 
 479:.\Generated_Source\PSoC5/cyfitter_cfg.c **** 		CYPACKED typedef struct {
 480:.\Generated_Source\PSoC5/cyfitter_cfg.c **** 			void CYFAR *dest;
 481:.\Generated_Source\PSoC5/cyfitter_cfg.c **** 			const void CYFAR *src;
 482:.\Generated_Source\PSoC5/cyfitter_cfg.c **** 			uint16 size;
 483:.\Generated_Source\PSoC5/cyfitter_cfg.c **** 		} CYPACKED_ATTR cfg_memcpy_t;
 484:.\Generated_Source\PSoC5/cyfitter_cfg.c **** 
 485:.\Generated_Source\PSoC5/cyfitter_cfg.c **** 		static const cfg_memset_t CYCODE cfg_memset_list [] = {
 486:.\Generated_Source\PSoC5/cyfitter_cfg.c **** 			/* address, size */
 487:.\Generated_Source\PSoC5/cyfitter_cfg.c **** 			{(void CYFAR *)(CYREG_I2C_XCFG), 25u},
 488:.\Generated_Source\PSoC5/cyfitter_cfg.c **** 			{(void CYFAR *)(CYREG_TMR0_CFG0), 36u},
 489:.\Generated_Source\PSoC5/cyfitter_cfg.c **** 			{(void CYFAR *)(CYDEV_UCFG_B0_P0_U0_BASE), 128u},
 490:.\Generated_Source\PSoC5/cyfitter_cfg.c **** 			{(void CYFAR *)(CYDEV_UCFG_B0_P0_ROUTE_BASE), 3840u},
 491:.\Generated_Source\PSoC5/cyfitter_cfg.c **** 			{(void CYFAR *)(CYDEV_UCFG_B1_P2_U0_BASE), 2048u},
 492:.\Generated_Source\PSoC5/cyfitter_cfg.c **** 			{(void CYFAR *)(CYDEV_UCFG_DSI0_BASE), 2560u},
 493:.\Generated_Source\PSoC5/cyfitter_cfg.c **** 			{(void CYFAR *)(CYDEV_UCFG_DSI12_BASE), 512u},
 494:.\Generated_Source\PSoC5/cyfitter_cfg.c **** 			{(void CYFAR *)(CYREG_BCTL1_MDCLK_EN), 16u},
 495:.\Generated_Source\PSoC5/cyfitter_cfg.c **** 		};
 496:.\Generated_Source\PSoC5/cyfitter_cfg.c **** 
 497:.\Generated_Source\PSoC5/cyfitter_cfg.c **** 		static const cfg_memcpy_t CYCODE cfg_memcpy_list [] = {
 498:.\Generated_Source\PSoC5/cyfitter_cfg.c **** 			/* dest, src, size */
 499:.\Generated_Source\PSoC5/cyfitter_cfg.c **** 			{(void CYFAR *)(CYDEV_PRTDSI_PRT12_BASE), BS_IOPORT_7_VAL, 6u},
 500:.\Generated_Source\PSoC5/cyfitter_cfg.c **** 			{(void CYFAR *)(CYREG_IDMUX_IRQ_CTL0), BS_IDMUX_IRQ_VAL, 8u},
 501:.\Generated_Source\PSoC5/cyfitter_cfg.c **** 			{(void CYFAR *)(CYDEV_UCFG_B0_P0_U1_BASE), BS_UDB_1_5_1_CONFIG_VAL, 128u},
 502:.\Generated_Source\PSoC5/cyfitter_cfg.c **** 			{(void CYFAR *)(CYREG_BCTL0_MDCLK_EN), BS_UCFG_BCTL0_VAL, 16u},
 503:.\Generated_Source\PSoC5/cyfitter_cfg.c **** 		};
 504:.\Generated_Source\PSoC5/cyfitter_cfg.c **** 
 505:.\Generated_Source\PSoC5/cyfitter_cfg.c **** 		uint8 CYDATA i;
 506:.\Generated_Source\PSoC5/cyfitter_cfg.c **** 
 507:.\Generated_Source\PSoC5/cyfitter_cfg.c **** 		/* Zero out critical memory blocks before beginning configuration */
 508:.\Generated_Source\PSoC5/cyfitter_cfg.c **** 		for (i = 0u; i < (sizeof(cfg_memset_list)/sizeof(cfg_memset_list[0])); i++)
 1010              		.loc 1 508 0
 1011 0036 4FF00003 		mov	r3, #0
 1012 003a FB75     		strb	r3, [r7, #23]
 1013 003c 19E0     		b	.L38
 1014              	.L39:
 1015              	.LBB4:
 509:.\Generated_Source\PSoC5/cyfitter_cfg.c **** 		{
 510:.\Generated_Source\PSoC5/cyfitter_cfg.c **** 			const cfg_memset_t CYCODE * CYDATA ms = &cfg_memset_list[i];
 1016              		.loc 1 510 0 discriminator 2
 1017 003e FA7D     		ldrb	r2, [r7, #23]	@ zero_extendqisi2
 1018 0040 1346     		mov	r3, r2
 1019 0042 4FEA4303 		lsl	r3, r3, #1
 1020 0046 9B18     		adds	r3, r3, r2
 1021 0048 4FEA4303 		lsl	r3, r3, #1
 1022 004c 40F20002 		movw	r2, #:lower16:cfg_memset_list.4840
ARM GAS  C:\Users\gravi\AppData\Local\Temp\ccByFLrk.s 			page 28


 1023 0050 C0F20002 		movt	r2, #:upper16:cfg_memset_list.4840
 1024 0054 9B18     		adds	r3, r3, r2
 1025 0056 3B61     		str	r3, [r7, #16]
 511:.\Generated_Source\PSoC5/cyfitter_cfg.c **** 			CYMEMZERO(ms->address, (uint32)(ms->size));
 1026              		.loc 1 511 0 discriminator 2
 1027 0058 3B69     		ldr	r3, [r7, #16]
 1028 005a 1A68     		ldr	r2, [r3, #0]	@ unaligned
 1029 005c 3B69     		ldr	r3, [r7, #16]
 1030 005e 9B88     		ldrh	r3, [r3, #4]	@ unaligned
 1031 0060 9BB2     		uxth	r3, r3
 1032 0062 1046     		mov	r0, r2
 1033 0064 1946     		mov	r1, r3
 1034 0066 FFF7FEFF 		bl	CYMEMZERO
 1035              	.LBE4:
 508:.\Generated_Source\PSoC5/cyfitter_cfg.c **** 		for (i = 0u; i < (sizeof(cfg_memset_list)/sizeof(cfg_memset_list[0])); i++)
 1036              		.loc 1 508 0 discriminator 2
 1037 006a FB7D     		ldrb	r3, [r7, #23]
 1038 006c 03F10103 		add	r3, r3, #1
 1039 0070 FB75     		strb	r3, [r7, #23]
 1040              	.L38:
 508:.\Generated_Source\PSoC5/cyfitter_cfg.c **** 		for (i = 0u; i < (sizeof(cfg_memset_list)/sizeof(cfg_memset_list[0])); i++)
 1041              		.loc 1 508 0 is_stmt 0 discriminator 1
 1042 0072 FB7D     		ldrb	r3, [r7, #23]	@ zero_extendqisi2
 1043 0074 072B     		cmp	r3, #7
 1044 0076 E2D9     		bls	.L39
 512:.\Generated_Source\PSoC5/cyfitter_cfg.c **** 		}
 513:.\Generated_Source\PSoC5/cyfitter_cfg.c **** 
 514:.\Generated_Source\PSoC5/cyfitter_cfg.c **** 		/* Copy device configuration data into registers */
 515:.\Generated_Source\PSoC5/cyfitter_cfg.c **** 		for (i = 0u; i < (sizeof(cfg_memcpy_list)/sizeof(cfg_memcpy_list[0])); i++)
 1045              		.loc 1 515 0 is_stmt 1
 1046 0078 4FF00003 		mov	r3, #0
 1047 007c FB75     		strb	r3, [r7, #23]
 1048 007e 23E0     		b	.L40
 1049              	.L41:
 1050              	.LBB5:
 516:.\Generated_Source\PSoC5/cyfitter_cfg.c **** 		{
 517:.\Generated_Source\PSoC5/cyfitter_cfg.c **** 			const cfg_memcpy_t CYCODE * CYDATA mc = &cfg_memcpy_list[i];
 1051              		.loc 1 517 0 discriminator 2
 1052 0080 FA7D     		ldrb	r2, [r7, #23]	@ zero_extendqisi2
 1053 0082 1346     		mov	r3, r2
 1054 0084 4FEA8303 		lsl	r3, r3, #2
 1055 0088 9B18     		adds	r3, r3, r2
 1056 008a 4FEA4303 		lsl	r3, r3, #1
 1057 008e 40F20002 		movw	r2, #:lower16:cfg_memcpy_list.4841
 1058 0092 C0F20002 		movt	r2, #:upper16:cfg_memcpy_list.4841
 1059 0096 9B18     		adds	r3, r3, r2
 1060 0098 FB60     		str	r3, [r7, #12]
 518:.\Generated_Source\PSoC5/cyfitter_cfg.c **** 			void * CYDATA destPtr = mc->dest;
 1061              		.loc 1 518 0 discriminator 2
 1062 009a FB68     		ldr	r3, [r7, #12]
 1063 009c 1B68     		ldr	r3, [r3, #0]	@ unaligned
 1064 009e BB60     		str	r3, [r7, #8]
 519:.\Generated_Source\PSoC5/cyfitter_cfg.c **** 			const void * CYDATA srcPtr = mc->src;
 1065              		.loc 1 519 0 discriminator 2
 1066 00a0 FB68     		ldr	r3, [r7, #12]
 1067 00a2 5B68     		ldr	r3, [r3, #4]	@ unaligned
 1068 00a4 7B60     		str	r3, [r7, #4]
ARM GAS  C:\Users\gravi\AppData\Local\Temp\ccByFLrk.s 			page 29


 520:.\Generated_Source\PSoC5/cyfitter_cfg.c **** 			uint16 CYDATA numBytes = mc->size;
 1069              		.loc 1 520 0 discriminator 2
 1070 00a6 FB68     		ldr	r3, [r7, #12]
 1071 00a8 1A7A     		ldrb	r2, [r3, #8]	@ zero_extendqisi2
 1072 00aa 5B7A     		ldrb	r3, [r3, #9]	@ zero_extendqisi2
 1073 00ac 4FEA0323 		lsl	r3, r3, #8
 1074 00b0 1343     		orrs	r3, r3, r2
 1075 00b2 7B80     		strh	r3, [r7, #2]	@ movhi
 521:.\Generated_Source\PSoC5/cyfitter_cfg.c **** 			CYCONFIGCPY(destPtr, srcPtr, numBytes);
 1076              		.loc 1 521 0 discriminator 2
 1077 00b4 7B88     		ldrh	r3, [r7, #2]
 1078 00b6 B868     		ldr	r0, [r7, #8]
 1079 00b8 7968     		ldr	r1, [r7, #4]
 1080 00ba 1A46     		mov	r2, r3
 1081 00bc FFF7FEFF 		bl	CYCONFIGCPY
 1082              	.LBE5:
 515:.\Generated_Source\PSoC5/cyfitter_cfg.c **** 		for (i = 0u; i < (sizeof(cfg_memcpy_list)/sizeof(cfg_memcpy_list[0])); i++)
 1083              		.loc 1 515 0 discriminator 2
 1084 00c0 FB7D     		ldrb	r3, [r7, #23]
 1085 00c2 03F10103 		add	r3, r3, #1
 1086 00c6 FB75     		strb	r3, [r7, #23]
 1087              	.L40:
 515:.\Generated_Source\PSoC5/cyfitter_cfg.c **** 		for (i = 0u; i < (sizeof(cfg_memcpy_list)/sizeof(cfg_memcpy_list[0])); i++)
 1088              		.loc 1 515 0 is_stmt 0 discriminator 1
 1089 00c8 FB7D     		ldrb	r3, [r7, #23]	@ zero_extendqisi2
 1090 00ca 032B     		cmp	r3, #3
 1091 00cc D8D9     		bls	.L41
 522:.\Generated_Source\PSoC5/cyfitter_cfg.c **** 		}
 523:.\Generated_Source\PSoC5/cyfitter_cfg.c **** 
 524:.\Generated_Source\PSoC5/cyfitter_cfg.c **** 		cfg_write_bytes32(cy_cfg_addr_table, cy_cfg_data_table);
 1092              		.loc 1 524 0 is_stmt 1
 1093 00ce 4FF09040 		mov	r0, #1207959552
 1094 00d2 4FF0A001 		mov	r1, #160
 1095 00d6 C4F60001 		movt	r1, 18432
 1096 00da FFF7FEFF 		bl	cfg_write_bytes32
 525:.\Generated_Source\PSoC5/cyfitter_cfg.c **** 
 526:.\Generated_Source\PSoC5/cyfitter_cfg.c **** 		/* Perform normal device configuration. Order is not critical for these items. */
 527:.\Generated_Source\PSoC5/cyfitter_cfg.c **** 		CY_SET_XTND_REG8((void CYFAR *)(CYREG_DSM0_CR3), 0x0Au);
 1097              		.loc 1 527 0
 1098 00de 45F68303 		movw	r3, #22659
 1099 00e2 C4F20003 		movt	r3, 16384
 1100 00e6 4FF00A02 		mov	r2, #10
 1101 00ea 1A70     		strb	r2, [r3, #0]
 528:.\Generated_Source\PSoC5/cyfitter_cfg.c **** 		CYMEMZERO((void CYFAR *)(CYREG_PHUB_CFGMEM0_CFG0), 4u);
 1102              		.loc 1 528 0
 1103 00ec 4FF4EC40 		mov	r0, #30208
 1104 00f0 C4F20000 		movt	r0, 16384
 1105 00f4 4FF00401 		mov	r1, #4
 1106 00f8 FFF7FEFF 		bl	CYMEMZERO
 529:.\Generated_Source\PSoC5/cyfitter_cfg.c **** 		CYMEMZERO((void CYFAR *)(CYREG_PHUB_CFGMEM1_CFG0), 4u);
 1107              		.loc 1 529 0
 1108 00fc 47F20860 		movw	r0, #30216
 1109 0100 C4F20000 		movt	r0, 16384
 1110 0104 4FF00401 		mov	r1, #4
 1111 0108 FFF7FEFF 		bl	CYMEMZERO
 530:.\Generated_Source\PSoC5/cyfitter_cfg.c **** 
 531:.\Generated_Source\PSoC5/cyfitter_cfg.c **** 		/* Enable digital routing */
ARM GAS  C:\Users\gravi\AppData\Local\Temp\ccByFLrk.s 			page 30


 532:.\Generated_Source\PSoC5/cyfitter_cfg.c **** 		CY_SET_XTND_REG8((void CYFAR *)CYREG_BCTL0_BANK_CTL, CY_GET_XTND_REG8((void CYFAR *)CYREG_BCTL0_B
 1112              		.loc 1 532 0
 1113 010c 45F20303 		movw	r3, #20483
 1114 0110 C4F20103 		movt	r3, 16385
 1115 0114 45F20302 		movw	r2, #20483
 1116 0118 C4F20102 		movt	r2, 16385
 1117 011c 1278     		ldrb	r2, [r2, #0]
 1118 011e D2B2     		uxtb	r2, r2
 1119 0120 42F00202 		orr	r2, r2, #2
 1120 0124 D2B2     		uxtb	r2, r2
 1121 0126 1A70     		strb	r2, [r3, #0]
 533:.\Generated_Source\PSoC5/cyfitter_cfg.c **** 		CY_SET_XTND_REG8((void CYFAR *)CYREG_BCTL1_BANK_CTL, CY_GET_XTND_REG8((void CYFAR *)CYREG_BCTL1_B
 1122              		.loc 1 533 0
 1123 0128 45F21303 		movw	r3, #20499
 1124 012c C4F20103 		movt	r3, 16385
 1125 0130 45F21302 		movw	r2, #20499
 1126 0134 C4F20102 		movt	r2, 16385
 1127 0138 1278     		ldrb	r2, [r2, #0]
 1128 013a D2B2     		uxtb	r2, r2
 1129 013c 42F00202 		orr	r2, r2, #2
 1130 0140 D2B2     		uxtb	r2, r2
 1131 0142 1A70     		strb	r2, [r3, #0]
 534:.\Generated_Source\PSoC5/cyfitter_cfg.c **** 
 535:.\Generated_Source\PSoC5/cyfitter_cfg.c **** 		/* Enable UDB array */
 536:.\Generated_Source\PSoC5/cyfitter_cfg.c **** 		CY_SET_XTND_REG8((void CYFAR *)CYREG_PM_ACT_CFG0, CY_GET_XTND_REG8((void CYFAR *)CYREG_PM_ACT_CFG
 1132              		.loc 1 536 0
 1133 0144 44F2A033 		movw	r3, #17312
 1134 0148 C4F20003 		movt	r3, 16384
 1135 014c 44F2A032 		movw	r2, #17312
 1136 0150 C4F20002 		movt	r2, 16384
 1137 0154 1278     		ldrb	r2, [r2, #0]
 1138 0156 D2B2     		uxtb	r2, r2
 1139 0158 42F04002 		orr	r2, r2, #64
 1140 015c D2B2     		uxtb	r2, r2
 1141 015e 1A70     		strb	r2, [r3, #0]
 537:.\Generated_Source\PSoC5/cyfitter_cfg.c **** 		CY_SET_XTND_REG8((void CYFAR *)CYREG_PM_AVAIL_CR2, CY_GET_XTND_REG8((void CYFAR *)CYREG_PM_AVAIL_
 1142              		.loc 1 537 0
 1143 0160 44F2C233 		movw	r3, #17346
 1144 0164 C4F20003 		movt	r3, 16384
 1145 0168 44F2C232 		movw	r2, #17346
 1146 016c C4F20002 		movt	r2, 16384
 1147 0170 1278     		ldrb	r2, [r2, #0]
 1148 0172 D2B2     		uxtb	r2, r2
 1149 0174 42F01002 		orr	r2, r2, #16
 1150 0178 D2B2     		uxtb	r2, r2
 1151 017a 1A70     		strb	r2, [r3, #0]
 1152              	.LBE3:
 538:.\Generated_Source\PSoC5/cyfitter_cfg.c **** 	}
 539:.\Generated_Source\PSoC5/cyfitter_cfg.c **** 
 540:.\Generated_Source\PSoC5/cyfitter_cfg.c **** 	/* Perform second pass device configuration. These items must be configured in specific order afte
 541:.\Generated_Source\PSoC5/cyfitter_cfg.c **** 	CYCONFIGCPY((void CYFAR *)(CYREG_PRT0_DM0), (const void CYFAR *)(BS_IOPINS0_0_VAL), 8u);
 1153              		.loc 1 541 0
 1154 017c 45F20210 		movw	r0, #20738
 1155 0180 C4F20000 		movt	r0, 16384
 1156 0184 40F6EC41 		movw	r1, #3308
 1157 0188 C4F60001 		movt	r1, 18432
 1158 018c 4FF00802 		mov	r2, #8
ARM GAS  C:\Users\gravi\AppData\Local\Temp\ccByFLrk.s 			page 31


 1159 0190 FFF7FEFF 		bl	CYCONFIGCPY
 542:.\Generated_Source\PSoC5/cyfitter_cfg.c **** 	CYCONFIGCPY((void CYFAR *)(CYREG_PRT12_DM0), (const void CYFAR *)(BS_IOPINS0_7_VAL), 8u);
 1160              		.loc 1 542 0
 1161 0194 45F2C210 		movw	r0, #20930
 1162 0198 C4F20000 		movt	r0, 16384
 1163 019c 40F6F441 		movw	r1, #3316
 1164 01a0 C4F60001 		movt	r1, 18432
 1165 01a4 4FF00802 		mov	r2, #8
 1166 01a8 FFF7FEFF 		bl	CYCONFIGCPY
 543:.\Generated_Source\PSoC5/cyfitter_cfg.c **** 	CYCONFIGCPY((void CYFAR *)(CYREG_PRT15_DM0), (const void CYFAR *)(BS_IOPINS0_8_VAL), 8u);
 1167              		.loc 1 543 0
 1168 01ac 45F2F210 		movw	r0, #20978
 1169 01b0 C4F20000 		movt	r0, 16384
 1170 01b4 40F6FC41 		movw	r1, #3324
 1171 01b8 C4F60001 		movt	r1, 18432
 1172 01bc 4FF00802 		mov	r2, #8
 1173 01c0 FFF7FEFF 		bl	CYCONFIGCPY
 544:.\Generated_Source\PSoC5/cyfitter_cfg.c **** 	CYCONFIGCPY((void CYFAR *)(CYREG_PRT1_DM0), (const void CYFAR *)(BS_IOPINS0_1_VAL), 8u);
 1174              		.loc 1 544 0
 1175 01c4 45F21210 		movw	r0, #20754
 1176 01c8 C4F20000 		movt	r0, 16384
 1177 01cc 40F60451 		movw	r1, #3332
 1178 01d0 C4F60001 		movt	r1, 18432
 1179 01d4 4FF00802 		mov	r2, #8
 1180 01d8 FFF7FEFF 		bl	CYCONFIGCPY
 545:.\Generated_Source\PSoC5/cyfitter_cfg.c **** 	CYCONFIGCPY((void CYFAR *)(CYREG_PRT2_DM0), (const void CYFAR *)(BS_IOPINS0_2_VAL), 8u);
 1181              		.loc 1 545 0
 1182 01dc 45F22210 		movw	r0, #20770
 1183 01e0 C4F20000 		movt	r0, 16384
 1184 01e4 40F60C51 		movw	r1, #3340
 1185 01e8 C4F60001 		movt	r1, 18432
 1186 01ec 4FF00802 		mov	r2, #8
 1187 01f0 FFF7FEFF 		bl	CYCONFIGCPY
 546:.\Generated_Source\PSoC5/cyfitter_cfg.c **** 	CYCONFIGCPY((void CYFAR *)(CYREG_PRT3_DM0), (const void CYFAR *)(BS_IOPINS0_3_VAL), 8u);
 1188              		.loc 1 546 0
 1189 01f4 45F23210 		movw	r0, #20786
 1190 01f8 C4F20000 		movt	r0, 16384
 1191 01fc 40F61451 		movw	r1, #3348
 1192 0200 C4F60001 		movt	r1, 18432
 1193 0204 4FF00802 		mov	r2, #8
 1194 0208 FFF7FEFF 		bl	CYCONFIGCPY
 547:.\Generated_Source\PSoC5/cyfitter_cfg.c **** 	CYCONFIGCPY((void CYFAR *)(CYREG_PRT4_DR), (const void CYFAR *)(BS_IOPINS0_4_VAL), 10u);
 1195              		.loc 1 547 0
 1196 020c 45F24010 		movw	r0, #20800
 1197 0210 C4F20000 		movt	r0, 16384
 1198 0214 40F61C51 		movw	r1, #3356
 1199 0218 C4F60001 		movt	r1, 18432
 1200 021c 4FF00A02 		mov	r2, #10
 1201 0220 FFF7FEFF 		bl	CYCONFIGCPY
 548:.\Generated_Source\PSoC5/cyfitter_cfg.c **** 	CYCONFIGCPY((void CYFAR *)(CYREG_PRT5_DM0), (const void CYFAR *)(BS_IOPINS0_5_VAL), 8u);
 1202              		.loc 1 548 0
 1203 0224 45F25210 		movw	r0, #20818
 1204 0228 C4F20000 		movt	r0, 16384
 1205 022c 40F62851 		movw	r1, #3368
 1206 0230 C4F60001 		movt	r1, 18432
 1207 0234 4FF00802 		mov	r2, #8
 1208 0238 FFF7FEFF 		bl	CYCONFIGCPY
ARM GAS  C:\Users\gravi\AppData\Local\Temp\ccByFLrk.s 			page 32


 549:.\Generated_Source\PSoC5/cyfitter_cfg.c **** 	CYCONFIGCPY((void CYFAR *)(CYREG_PRT6_DM0), (const void CYFAR *)(BS_IOPINS0_6_VAL), 8u);
 1209              		.loc 1 549 0
 1210 023c 45F26210 		movw	r0, #20834
 1211 0240 C4F20000 		movt	r0, 16384
 1212 0244 4FF45361 		mov	r1, #3376
 1213 0248 C4F60001 		movt	r1, 18432
 1214 024c 4FF00802 		mov	r2, #8
 1215 0250 FFF7FEFF 		bl	CYCONFIGCPY
 550:.\Generated_Source\PSoC5/cyfitter_cfg.c **** 	CY_SET_XTND_REG8((void CYFAR *)(CYREG_B0_P2_U0_CFG27), 0x44u);
 1216              		.loc 1 550 0
 1217 0254 40F25B43 		movw	r3, #1115
 1218 0258 C4F20103 		movt	r3, 16385
 1219 025c 4FF04402 		mov	r2, #68
 1220 0260 1A70     		strb	r2, [r3, #0]
 551:.\Generated_Source\PSoC5/cyfitter_cfg.c **** 	CY_SET_XTND_REG8((void CYFAR *)(CYREG_B1_P3_U1_CFG27), 0xC4u);
 1221              		.loc 1 551 0
 1222 0262 41F2DB63 		movw	r3, #5851
 1223 0266 C4F20103 		movt	r3, 16385
 1224 026a 4FF0C402 		mov	r2, #196
 1225 026e 1A70     		strb	r2, [r3, #0]
 552:.\Generated_Source\PSoC5/cyfitter_cfg.c **** 
 553:.\Generated_Source\PSoC5/cyfitter_cfg.c **** 	/* Switch Boost to the precision bandgap reference from its internal reference */
 554:.\Generated_Source\PSoC5/cyfitter_cfg.c **** 	CY_SET_REG8((void CYXDATA *)CYREG_BOOST_CR2, (CY_GET_REG8((void CYXDATA *)CYREG_BOOST_CR2) | 0x08u
 1226              		.loc 1 554 0
 1227 0270 44F22233 		movw	r3, #17186
 1228 0274 C4F20003 		movt	r3, 16384
 1229 0278 44F22232 		movw	r2, #17186
 1230 027c C4F20002 		movt	r2, 16384
 1231 0280 1278     		ldrb	r2, [r2, #0]
 1232 0282 D2B2     		uxtb	r2, r2
 1233 0284 42F00802 		orr	r2, r2, #8
 1234 0288 D2B2     		uxtb	r2, r2
 1235 028a 1A70     		strb	r2, [r3, #0]
 555:.\Generated_Source\PSoC5/cyfitter_cfg.c **** 
 556:.\Generated_Source\PSoC5/cyfitter_cfg.c **** 	/* Perform basic analog initialization to defaults */
 557:.\Generated_Source\PSoC5/cyfitter_cfg.c **** 	AnalogSetDefault();
 1236              		.loc 1 557 0
 1237 028c FFF7FEFF 		bl	AnalogSetDefault
 558:.\Generated_Source\PSoC5/cyfitter_cfg.c **** 
 559:.\Generated_Source\PSoC5/cyfitter_cfg.c **** 	/* Configure alternate active mode */
 560:.\Generated_Source\PSoC5/cyfitter_cfg.c **** 	CYCONFIGCPY((void CYFAR *)CYDEV_PM_STBY_BASE, (const void CYFAR *)CYDEV_PM_ACT_BASE, 14u);
 1238              		.loc 1 560 0
 1239 0290 44F2B030 		movw	r0, #17328
 1240 0294 C4F20000 		movt	r0, 16384
 1241 0298 44F2A031 		movw	r1, #17312
 1242 029c C4F20001 		movt	r1, 16384
 1243 02a0 4FF00E02 		mov	r2, #14
 1244 02a4 FFF7FEFF 		bl	CYCONFIGCPY
 561:.\Generated_Source\PSoC5/cyfitter_cfg.c **** }
 1245              		.loc 1 561 0
 1246 02a8 07F11807 		add	r7, r7, #24
 1247 02ac BD46     		mov	sp, r7
 1248 02ae 80BD     		pop	{r7, pc}
 1249              		.cfi_endproc
 1250              	.LFE10:
 1251              		.size	cyfitter_cfg, .-cyfitter_cfg
 1252              		.section	.rodata
ARM GAS  C:\Users\gravi\AppData\Local\Temp\ccByFLrk.s 			page 33


 1253              		.align	2
 1254              		.type	cfg_memset_list.4840, %object
 1255              		.size	cfg_memset_list.4840, 48
 1256              	cfg_memset_list.4840:
 1257 0000 C8490040 		.word	1073760712
 1258 0004 1900     		.short	25
 1259 0006 004F0040 		.4byte	1073762048
 1260 000a 2400     		.short	36
 1261 000c 00000140 		.word	1073807360
 1262 0010 8000     		.short	128
 1263 0012 00010140 		.4byte	1073807616
 1264 0016 000F     		.short	3840
 1265 0018 00140140 		.word	1073812480
 1266 001c 0008     		.short	2048
 1267 001e 00400140 		.4byte	1073823744
 1268 0022 000A     		.short	2560
 1269 0024 004C0140 		.word	1073826816
 1270 0028 0002     		.short	512
 1271 002a 10500140 		.4byte	1073827856
 1272 002e 1000     		.short	16
 1273              		.align	2
 1274              		.type	cfg_memcpy_list.4841, %object
 1275              		.size	cfg_memcpy_list.4841, 40
 1276              	cfg_memcpy_list.4841:
 1277 0030 60520040 		.word	1073762912
 1278 0034 4C0C0048 		.word	1207962700
 1279 0038 0600     		.short	6
 1280 003a 00510140 		.4byte	1073828096
 1281 003e 540C0048 		.4byte	1207962708
 1282 0042 0800     		.short	8
 1283 0044 80000140 		.word	1073807488
 1284 0048 5C0C0048 		.word	1207962716
 1285 004c 8000     		.short	128
 1286 004e 00500140 		.4byte	1073827840
 1287 0052 DC0C0048 		.4byte	1207962844
 1288 0056 1000     		.short	16
 1289              		.text
 1290              	.Letext0:
 1291              		.file 2 "c:\\program files (x86)\\cypress\\psoc creator\\3.0\\psoc creator\\import\\gnu_cs\\arm\\4
 1292              		.file 3 "./Generated_Source/PSoC5/cytypes.h"
 1293              		.section	.debug_info,"",%progbits
 1294              	.Ldebug_info0:
 1295 0000 CA040000 		.4byte	0x4ca
 1296 0004 0200     		.2byte	0x2
 1297 0006 00000000 		.4byte	.Ldebug_abbrev0
 1298 000a 04       		.byte	0x4
 1299 000b 01       		.uleb128 0x1
 1300 000c 21020000 		.4byte	.LASF54
 1301 0010 01       		.byte	0x1
 1302 0011 03010000 		.4byte	.LASF55
 1303 0015 9A010000 		.4byte	.LASF56
 1304 0019 00000000 		.4byte	.Ldebug_ranges0+0
 1305 001d 00000000 		.4byte	0
 1306 0021 00000000 		.4byte	0
 1307 0025 00000000 		.4byte	.Ldebug_line0
 1308 0029 02       		.uleb128 0x2
 1309 002a 01       		.byte	0x1
ARM GAS  C:\Users\gravi\AppData\Local\Temp\ccByFLrk.s 			page 34


 1310 002b 06       		.byte	0x6
 1311 002c 8A000000 		.4byte	.LASF0
 1312 0030 02       		.uleb128 0x2
 1313 0031 01       		.byte	0x1
 1314 0032 08       		.byte	0x8
 1315 0033 6F020000 		.4byte	.LASF1
 1316 0037 02       		.uleb128 0x2
 1317 0038 02       		.byte	0x2
 1318 0039 05       		.byte	0x5
 1319 003a 7D020000 		.4byte	.LASF2
 1320 003e 02       		.uleb128 0x2
 1321 003f 02       		.byte	0x2
 1322 0040 07       		.byte	0x7
 1323 0041 69010000 		.4byte	.LASF3
 1324 0045 03       		.uleb128 0x3
 1325 0046 04       		.byte	0x4
 1326 0047 05       		.byte	0x5
 1327 0048 696E7400 		.ascii	"int\000"
 1328 004c 02       		.uleb128 0x2
 1329 004d 04       		.byte	0x4
 1330 004e 07       		.byte	0x7
 1331 004f ED000000 		.4byte	.LASF4
 1332 0053 02       		.uleb128 0x2
 1333 0054 08       		.byte	0x8
 1334 0055 05       		.byte	0x5
 1335 0056 7C000000 		.4byte	.LASF5
 1336 005a 02       		.uleb128 0x2
 1337 005b 08       		.byte	0x8
 1338 005c 07       		.byte	0x7
 1339 005d 49000000 		.4byte	.LASF6
 1340 0061 02       		.uleb128 0x2
 1341 0062 04       		.byte	0x4
 1342 0063 05       		.byte	0x5
 1343 0064 B5000000 		.4byte	.LASF7
 1344 0068 02       		.uleb128 0x2
 1345 0069 04       		.byte	0x4
 1346 006a 07       		.byte	0x7
 1347 006b 91010000 		.4byte	.LASF8
 1348 006f 04       		.uleb128 0x4
 1349 0070 04       		.byte	0x4
 1350 0071 02       		.uleb128 0x2
 1351 0072 04       		.byte	0x4
 1352 0073 07       		.byte	0x7
 1353 0074 2B010000 		.4byte	.LASF9
 1354 0078 02       		.uleb128 0x2
 1355 0079 01       		.byte	0x1
 1356 007a 08       		.byte	0x8
 1357 007b A2020000 		.4byte	.LASF10
 1358 007f 05       		.uleb128 0x5
 1359 0080 10000000 		.4byte	.LASF11
 1360 0084 02       		.byte	0x2
 1361 0085 D5       		.byte	0xd5
 1362 0086 4C000000 		.4byte	0x4c
 1363 008a 05       		.uleb128 0x5
 1364 008b C4000000 		.4byte	.LASF12
 1365 008f 03       		.byte	0x3
 1366 0090 5B       		.byte	0x5b
ARM GAS  C:\Users\gravi\AppData\Local\Temp\ccByFLrk.s 			page 35


 1367 0091 30000000 		.4byte	0x30
 1368 0095 05       		.uleb128 0x5
 1369 0096 00000000 		.4byte	.LASF13
 1370 009a 03       		.byte	0x3
 1371 009b 5C       		.byte	0x5c
 1372 009c 3E000000 		.4byte	0x3e
 1373 00a0 05       		.uleb128 0x5
 1374 00a1 D1000000 		.4byte	.LASF14
 1375 00a5 03       		.byte	0x3
 1376 00a6 5D       		.byte	0x5d
 1377 00a7 71000000 		.4byte	0x71
 1378 00ab 05       		.uleb128 0x5
 1379 00ac 7C010000 		.4byte	.LASF15
 1380 00b0 03       		.byte	0x3
 1381 00b1 5E       		.byte	0x5e
 1382 00b2 29000000 		.4byte	0x29
 1383 00b6 02       		.uleb128 0x2
 1384 00b7 04       		.byte	0x4
 1385 00b8 04       		.byte	0x4
 1386 00b9 13020000 		.4byte	.LASF16
 1387 00bd 02       		.uleb128 0x2
 1388 00be 08       		.byte	0x8
 1389 00bf 04       		.byte	0x4
 1390 00c0 CA000000 		.4byte	.LASF17
 1391 00c4 05       		.uleb128 0x5
 1392 00c5 6A020000 		.4byte	.LASF18
 1393 00c9 03       		.byte	0x3
 1394 00ca F0       		.byte	0xf0
 1395 00cb CF000000 		.4byte	0xcf
 1396 00cf 06       		.uleb128 0x6
 1397 00d0 8A000000 		.4byte	0x8a
 1398 00d4 05       		.uleb128 0x5
 1399 00d5 BE000000 		.4byte	.LASF19
 1400 00d9 03       		.byte	0x3
 1401 00da F1       		.byte	0xf1
 1402 00db DF000000 		.4byte	0xdf
 1403 00df 06       		.uleb128 0x6
 1404 00e0 95000000 		.4byte	0x95
 1405 00e4 07       		.uleb128 0x7
 1406 00e5 02       		.byte	0x2
 1407 00e6 01       		.byte	0x1
 1408 00e7 7D       		.byte	0x7d
 1409 00e8 09010000 		.4byte	0x109
 1410 00ec 08       		.uleb128 0x8
 1411 00ed D1020000 		.4byte	.LASF20
 1412 00f1 01       		.byte	0x1
 1413 00f2 7F       		.byte	0x7f
 1414 00f3 8A000000 		.4byte	0x8a
 1415 00f7 02       		.byte	0x2
 1416 00f8 23       		.byte	0x23
 1417 00f9 00       		.uleb128 0
 1418 00fa 08       		.uleb128 0x8
 1419 00fb E7000000 		.4byte	.LASF21
 1420 00ff 01       		.byte	0x1
 1421 0100 80       		.byte	0x80
 1422 0101 8A000000 		.4byte	0x8a
 1423 0105 02       		.byte	0x2
ARM GAS  C:\Users\gravi\AppData\Local\Temp\ccByFLrk.s 			page 36


 1424 0106 23       		.byte	0x23
 1425 0107 01       		.uleb128 0x1
 1426 0108 00       		.byte	0
 1427 0109 05       		.uleb128 0x5
 1428 010a 8F020000 		.4byte	.LASF22
 1429 010e 01       		.byte	0x1
 1430 010f 81       		.byte	0x81
 1431 0110 E4000000 		.4byte	0xe4
 1432 0114 09       		.uleb128 0x9
 1433 0115 96000000 		.4byte	.LASF23
 1434 0119 01       		.byte	0x1
 1435 011a 3B       		.byte	0x3b
 1436 011b 01       		.byte	0x1
 1437 011c 00000000 		.4byte	.LFB0
 1438 0120 1E000000 		.4byte	.LFE0
 1439 0124 00000000 		.4byte	.LLST0
 1440 0128 01       		.byte	0x1
 1441 0129 46010000 		.4byte	0x146
 1442 012d 0A       		.uleb128 0xa
 1443 012e 7300     		.ascii	"s\000"
 1444 0130 01       		.byte	0x1
 1445 0131 3B       		.byte	0x3b
 1446 0132 6F000000 		.4byte	0x6f
 1447 0136 02       		.byte	0x2
 1448 0137 91       		.byte	0x91
 1449 0138 74       		.sleb128 -12
 1450 0139 0A       		.uleb128 0xa
 1451 013a 6E00     		.ascii	"n\000"
 1452 013c 01       		.byte	0x1
 1453 013d 3B       		.byte	0x3b
 1454 013e 7F000000 		.4byte	0x7f
 1455 0142 02       		.byte	0x2
 1456 0143 91       		.byte	0x91
 1457 0144 70       		.sleb128 -16
 1458 0145 00       		.byte	0
 1459 0146 09       		.uleb128 0x9
 1460 0147 E0020000 		.4byte	.LASF24
 1461 014b 01       		.byte	0x1
 1462 014c 42       		.byte	0x42
 1463 014d 01       		.byte	0x1
 1464 014e 00000000 		.4byte	.LFB1
 1465 0152 1E000000 		.4byte	.LFE1
 1466 0156 38000000 		.4byte	.LLST1
 1467 015a 01       		.byte	0x1
 1468 015b 88010000 		.4byte	0x188
 1469 015f 0B       		.uleb128 0xb
 1470 0160 F8010000 		.4byte	.LASF25
 1471 0164 01       		.byte	0x1
 1472 0165 42       		.byte	0x42
 1473 0166 6F000000 		.4byte	0x6f
 1474 016a 02       		.byte	0x2
 1475 016b 91       		.byte	0x91
 1476 016c 74       		.sleb128 -12
 1477 016d 0A       		.uleb128 0xa
 1478 016e 73726300 		.ascii	"src\000"
 1479 0172 01       		.byte	0x1
 1480 0173 42       		.byte	0x42
ARM GAS  C:\Users\gravi\AppData\Local\Temp\ccByFLrk.s 			page 37


 1481 0174 88010000 		.4byte	0x188
 1482 0178 02       		.byte	0x2
 1483 0179 91       		.byte	0x91
 1484 017a 70       		.sleb128 -16
 1485 017b 0A       		.uleb128 0xa
 1486 017c 6E00     		.ascii	"n\000"
 1487 017e 01       		.byte	0x1
 1488 017f 42       		.byte	0x42
 1489 0180 7F000000 		.4byte	0x7f
 1490 0184 02       		.byte	0x2
 1491 0185 91       		.byte	0x91
 1492 0186 6C       		.sleb128 -20
 1493 0187 00       		.byte	0
 1494 0188 0C       		.uleb128 0xc
 1495 0189 04       		.byte	0x4
 1496 018a 8E010000 		.4byte	0x18e
 1497 018e 0D       		.uleb128 0xd
 1498 018f 09       		.uleb128 0x9
 1499 0190 81010000 		.4byte	.LASF26
 1500 0194 01       		.byte	0x1
 1501 0195 49       		.byte	0x49
 1502 0196 01       		.byte	0x1
 1503 0197 00000000 		.4byte	.LFB2
 1504 019b 1E000000 		.4byte	.LFE2
 1505 019f 70000000 		.4byte	.LLST2
 1506 01a3 01       		.byte	0x1
 1507 01a4 D1010000 		.4byte	0x1d1
 1508 01a8 0B       		.uleb128 0xb
 1509 01a9 F8010000 		.4byte	.LASF25
 1510 01ad 01       		.byte	0x1
 1511 01ae 49       		.byte	0x49
 1512 01af 6F000000 		.4byte	0x6f
 1513 01b3 02       		.byte	0x2
 1514 01b4 91       		.byte	0x91
 1515 01b5 74       		.sleb128 -12
 1516 01b6 0A       		.uleb128 0xa
 1517 01b7 73726300 		.ascii	"src\000"
 1518 01bb 01       		.byte	0x1
 1519 01bc 49       		.byte	0x49
 1520 01bd 88010000 		.4byte	0x188
 1521 01c1 02       		.byte	0x2
 1522 01c2 91       		.byte	0x91
 1523 01c3 70       		.sleb128 -16
 1524 01c4 0A       		.uleb128 0xa
 1525 01c5 6E00     		.ascii	"n\000"
 1526 01c7 01       		.byte	0x1
 1527 01c8 49       		.byte	0x49
 1528 01c9 7F000000 		.4byte	0x7f
 1529 01cd 02       		.byte	0x2
 1530 01ce 91       		.byte	0x91
 1531 01cf 6C       		.sleb128 -20
 1532 01d0 00       		.byte	0
 1533 01d1 0E       		.uleb128 0xe
 1534 01d2 17000000 		.4byte	.LASF27
 1535 01d6 01       		.byte	0x1
 1536 01d7 69       		.byte	0x69
 1537 01d8 01       		.byte	0x1
ARM GAS  C:\Users\gravi\AppData\Local\Temp\ccByFLrk.s 			page 38


 1538 01d9 00000000 		.4byte	.LFB3
 1539 01dd 0C000000 		.4byte	.LFE3
 1540 01e1 A8000000 		.4byte	.LLST3
 1541 01e5 01       		.byte	0x1
 1542 01e6 F9010000 		.4byte	0x1f9
 1543 01ea 0B       		.uleb128 0xb
 1544 01eb AB000000 		.4byte	.LASF28
 1545 01ef 01       		.byte	0x1
 1546 01f0 69       		.byte	0x69
 1547 01f1 8A000000 		.4byte	0x8a
 1548 01f5 02       		.byte	0x2
 1549 01f6 91       		.byte	0x91
 1550 01f7 77       		.sleb128 -9
 1551 01f8 00       		.byte	0
 1552 01f9 0E       		.uleb128 0xe
 1553 01fa 52010000 		.4byte	.LASF29
 1554 01fe 01       		.byte	0x1
 1555 01ff C0       		.byte	0xc0
 1556 0200 01       		.byte	0x1
 1557 0201 00000000 		.4byte	.LFB4
 1558 0205 82000000 		.4byte	.LFE4
 1559 0209 E0000000 		.4byte	.LLST4
 1560 020d 01       		.byte	0x1
 1561 020e 6D020000 		.4byte	0x26d
 1562 0212 0B       		.uleb128 0xb
 1563 0213 60000000 		.4byte	.LASF30
 1564 0217 01       		.byte	0x1
 1565 0218 C0       		.byte	0xc0
 1566 0219 6D020000 		.4byte	0x26d
 1567 021d 02       		.byte	0x2
 1568 021e 91       		.byte	0x91
 1569 021f 64       		.sleb128 -28
 1570 0220 0B       		.uleb128 0xb
 1571 0221 3E000000 		.4byte	.LASF31
 1572 0225 01       		.byte	0x1
 1573 0226 C0       		.byte	0xc0
 1574 0227 78020000 		.4byte	0x278
 1575 022b 02       		.byte	0x2
 1576 022c 91       		.byte	0x91
 1577 022d 60       		.sleb128 -32
 1578 022e 0F       		.uleb128 0xf
 1579 022f 6900     		.ascii	"i\000"
 1580 0231 01       		.byte	0x1
 1581 0232 C3       		.byte	0xc3
 1582 0233 A0000000 		.4byte	0xa0
 1583 0237 02       		.byte	0x2
 1584 0238 91       		.byte	0x91
 1585 0239 74       		.sleb128 -12
 1586 023a 0F       		.uleb128 0xf
 1587 023b 6A00     		.ascii	"j\000"
 1588 023d 01       		.byte	0x1
 1589 023e C3       		.byte	0xc3
 1590 023f A0000000 		.4byte	0xa0
 1591 0243 02       		.byte	0x2
 1592 0244 91       		.byte	0x91
 1593 0245 70       		.sleb128 -16
 1594 0246 10       		.uleb128 0x10
ARM GAS  C:\Users\gravi\AppData\Local\Temp\ccByFLrk.s 			page 39


 1595 0247 18000000 		.4byte	.LBB2
 1596 024b 6A000000 		.4byte	.LBE2
 1597 024f 11       		.uleb128 0x11
 1598 0250 07000000 		.4byte	.LASF32
 1599 0254 01       		.byte	0x1
 1600 0255 C6       		.byte	0xc6
 1601 0256 A0000000 		.4byte	0xa0
 1602 025a 02       		.byte	0x2
 1603 025b 91       		.byte	0x91
 1604 025c 68       		.sleb128 -24
 1605 025d 11       		.uleb128 0x11
 1606 025e D8000000 		.4byte	.LASF33
 1607 0262 01       		.byte	0x1
 1608 0263 C7       		.byte	0xc7
 1609 0264 8A000000 		.4byte	0x8a
 1610 0268 02       		.byte	0x2
 1611 0269 91       		.byte	0x91
 1612 026a 6F       		.sleb128 -17
 1613 026b 00       		.byte	0
 1614 026c 00       		.byte	0
 1615 026d 0C       		.uleb128 0xc
 1616 026e 04       		.byte	0x4
 1617 026f 73020000 		.4byte	0x273
 1618 0273 12       		.uleb128 0x12
 1619 0274 A0000000 		.4byte	0xa0
 1620 0278 0C       		.uleb128 0xc
 1621 0279 04       		.byte	0x4
 1622 027a 7E020000 		.4byte	0x27e
 1623 027e 12       		.uleb128 0x12
 1624 027f 09010000 		.4byte	0x109
 1625 0283 09       		.uleb128 0x9
 1626 0284 A0000000 		.4byte	.LASF34
 1627 0288 01       		.byte	0x1
 1628 0289 E3       		.byte	0xe3
 1629 028a 01       		.byte	0x1
 1630 028b 00000000 		.4byte	.LFB5
 1631 028f 90020000 		.4byte	.LFE5
 1632 0293 18010000 		.4byte	.LLST5
 1633 0297 01       		.byte	0x1
 1634 0298 B9020000 		.4byte	0x2b9
 1635 029c 11       		.uleb128 0x11
 1636 029d 3D010000 		.4byte	.LASF35
 1637 02a1 01       		.byte	0x1
 1638 02a2 E5       		.byte	0xe5
 1639 02a3 A0000000 		.4byte	0xa0
 1640 02a7 02       		.byte	0x2
 1641 02a8 91       		.byte	0x91
 1642 02a9 74       		.sleb128 -12
 1643 02aa 11       		.uleb128 0x11
 1644 02ab 87020000 		.4byte	.LASF36
 1645 02af 01       		.byte	0x1
 1646 02b0 E6       		.byte	0xe6
 1647 02b1 8A000000 		.4byte	0x8a
 1648 02b5 02       		.byte	0x2
 1649 02b6 91       		.byte	0x91
 1650 02b7 73       		.sleb128 -13
 1651 02b8 00       		.byte	0
ARM GAS  C:\Users\gravi\AppData\Local\Temp\ccByFLrk.s 			page 40


 1652 02b9 13       		.uleb128 0x13
 1653 02ba 6B000000 		.4byte	.LASF37
 1654 02be 01       		.byte	0x1
 1655 02bf 3F01     		.2byte	0x13f
 1656 02c1 01       		.byte	0x1
 1657 02c2 00000000 		.4byte	.LFB6
 1658 02c6 F6000000 		.4byte	.LFE6
 1659 02ca 50010000 		.4byte	.LLST6
 1660 02ce 01       		.byte	0x1
 1661 02cf E3020000 		.4byte	0x2e3
 1662 02d3 14       		.uleb128 0x14
 1663 02d4 C9010000 		.4byte	.LASF38
 1664 02d8 01       		.byte	0x1
 1665 02d9 4101     		.2byte	0x141
 1666 02db 8A000000 		.4byte	0x8a
 1667 02df 02       		.byte	0x2
 1668 02e0 91       		.byte	0x91
 1669 02e1 77       		.sleb128 -9
 1670 02e2 00       		.byte	0
 1671 02e3 15       		.uleb128 0x15
 1672 02e4 01       		.byte	0x1
 1673 02e5 AE020000 		.4byte	.LASF43
 1674 02e9 01       		.byte	0x1
 1675 02ea 6501     		.2byte	0x165
 1676 02ec 01       		.byte	0x1
 1677 02ed 00000000 		.4byte	.LFB7
 1678 02f1 44000000 		.4byte	.LFE7
 1679 02f5 88010000 		.4byte	.LLST7
 1680 02f9 01       		.byte	0x1
 1681 02fa 1D030000 		.4byte	0x31d
 1682 02fe 16       		.uleb128 0x16
 1683 02ff D8020000 		.4byte	.LASF39
 1684 0303 01       		.byte	0x1
 1685 0304 6501     		.2byte	0x165
 1686 0306 8A000000 		.4byte	0x8a
 1687 030a 02       		.byte	0x2
 1688 030b 91       		.byte	0x91
 1689 030c 6F       		.sleb128 -17
 1690 030d 14       		.uleb128 0x14
 1691 030e DE000000 		.4byte	.LASF40
 1692 0312 01       		.byte	0x1
 1693 0313 6701     		.2byte	0x167
 1694 0315 8A000000 		.4byte	0x8a
 1695 0319 02       		.byte	0x2
 1696 031a 91       		.byte	0x91
 1697 031b 77       		.sleb128 -9
 1698 031c 00       		.byte	0
 1699 031d 17       		.uleb128 0x17
 1700 031e 01       		.byte	0x1
 1701 031f FD010000 		.4byte	.LASF41
 1702 0323 01       		.byte	0x1
 1703 0324 7601     		.2byte	0x176
 1704 0326 01       		.byte	0x1
 1705 0327 00000000 		.4byte	.LFB8
 1706 032b 6C000000 		.4byte	.LFE8
 1707 032f C0010000 		.4byte	.LLST8
 1708 0333 01       		.byte	0x1
ARM GAS  C:\Users\gravi\AppData\Local\Temp\ccByFLrk.s 			page 41


 1709 0334 17       		.uleb128 0x17
 1710 0335 01       		.byte	0x1
 1711 0336 C4020000 		.4byte	.LASF42
 1712 033a 01       		.byte	0x1
 1713 033b 8401     		.2byte	0x184
 1714 033d 01       		.byte	0x1
 1715 033e 00000000 		.4byte	.LFB9
 1716 0342 96010000 		.4byte	.LFE9
 1717 0346 EC010000 		.4byte	.LLST9
 1718 034a 01       		.byte	0x1
 1719 034b 18       		.uleb128 0x18
 1720 034c 01       		.byte	0x1
 1721 034d 04030000 		.4byte	.LASF44
 1722 0351 01       		.byte	0x1
 1723 0352 C801     		.2byte	0x1c8
 1724 0354 01       		.byte	0x1
 1725 0355 00000000 		.4byte	.LFB10
 1726 0359 B0020000 		.4byte	.LFE10
 1727 035d 18020000 		.4byte	.LLST10
 1728 0361 01       		.byte	0x1
 1729 0362 BA040000 		.4byte	0x4ba
 1730 0366 10       		.uleb128 0x10
 1731 0367 36000000 		.4byte	.LBB3
 1732 036b 7C010000 		.4byte	.LBE3
 1733 036f 19       		.uleb128 0x19
 1734 0370 06       		.byte	0x6
 1735 0371 01       		.byte	0x1
 1736 0372 D901     		.2byte	0x1d9
 1737 0374 97030000 		.4byte	0x397
 1738 0378 1A       		.uleb128 0x1a
 1739 0379 EC020000 		.4byte	.LASF45
 1740 037d 01       		.byte	0x1
 1741 037e DA01     		.2byte	0x1da
 1742 0380 6F000000 		.4byte	0x6f
 1743 0384 02       		.byte	0x2
 1744 0385 23       		.byte	0x23
 1745 0386 00       		.uleb128 0
 1746 0387 1A       		.uleb128 0x1a
 1747 0388 64010000 		.4byte	.LASF46
 1748 038c 01       		.byte	0x1
 1749 038d DB01     		.2byte	0x1db
 1750 038f 95000000 		.4byte	0x95
 1751 0393 02       		.byte	0x2
 1752 0394 23       		.byte	0x23
 1753 0395 04       		.uleb128 0x4
 1754 0396 00       		.byte	0
 1755 0397 1B       		.uleb128 0x1b
 1756 0398 DB010000 		.4byte	.LASF47
 1757 039c 01       		.byte	0x1
 1758 039d DC01     		.2byte	0x1dc
 1759 039f 6F030000 		.4byte	0x36f
 1760 03a3 19       		.uleb128 0x19
 1761 03a4 0A       		.byte	0xa
 1762 03a5 01       		.byte	0x1
 1763 03a6 DF01     		.2byte	0x1df
 1764 03a8 DA030000 		.4byte	0x3da
 1765 03ac 1A       		.uleb128 0x1a
ARM GAS  C:\Users\gravi\AppData\Local\Temp\ccByFLrk.s 			page 42


 1766 03ad F8010000 		.4byte	.LASF25
 1767 03b1 01       		.byte	0x1
 1768 03b2 E001     		.2byte	0x1e0
 1769 03b4 6F000000 		.4byte	0x6f
 1770 03b8 02       		.byte	0x2
 1771 03b9 23       		.byte	0x23
 1772 03ba 00       		.uleb128 0
 1773 03bb 1C       		.uleb128 0x1c
 1774 03bc 73726300 		.ascii	"src\000"
 1775 03c0 01       		.byte	0x1
 1776 03c1 E101     		.2byte	0x1e1
 1777 03c3 88010000 		.4byte	0x188
 1778 03c7 02       		.byte	0x2
 1779 03c8 23       		.byte	0x23
 1780 03c9 04       		.uleb128 0x4
 1781 03ca 1A       		.uleb128 0x1a
 1782 03cb 64010000 		.4byte	.LASF46
 1783 03cf 01       		.byte	0x1
 1784 03d0 E201     		.2byte	0x1e2
 1785 03d2 95000000 		.4byte	0x95
 1786 03d6 02       		.byte	0x2
 1787 03d7 23       		.byte	0x23
 1788 03d8 08       		.uleb128 0x8
 1789 03d9 00       		.byte	0
 1790 03da 1B       		.uleb128 0x1b
 1791 03db 45010000 		.4byte	.LASF48
 1792 03df 01       		.byte	0x1
 1793 03e0 E301     		.2byte	0x1e3
 1794 03e2 A3030000 		.4byte	0x3a3
 1795 03e6 1D       		.uleb128 0x1d
 1796 03e7 97030000 		.4byte	0x397
 1797 03eb F6030000 		.4byte	0x3f6
 1798 03ef 1E       		.uleb128 0x1e
 1799 03f0 68000000 		.4byte	0x68
 1800 03f4 07       		.byte	0x7
 1801 03f5 00       		.byte	0
 1802 03f6 14       		.uleb128 0x14
 1803 03f7 E8010000 		.4byte	.LASF49
 1804 03fb 01       		.byte	0x1
 1805 03fc E501     		.2byte	0x1e5
 1806 03fe 08040000 		.4byte	0x408
 1807 0402 05       		.byte	0x5
 1808 0403 03       		.byte	0x3
 1809 0404 00000000 		.4byte	cfg_memset_list.4840
 1810 0408 12       		.uleb128 0x12
 1811 0409 E6030000 		.4byte	0x3e6
 1812 040d 1D       		.uleb128 0x1d
 1813 040e DA030000 		.4byte	0x3da
 1814 0412 1D040000 		.4byte	0x41d
 1815 0416 1E       		.uleb128 0x1e
 1816 0417 68000000 		.4byte	0x68
 1817 041b 03       		.byte	0x3
 1818 041c 00       		.byte	0
 1819 041d 14       		.uleb128 0x14
 1820 041e F4020000 		.4byte	.LASF50
 1821 0422 01       		.byte	0x1
 1822 0423 F101     		.2byte	0x1f1
ARM GAS  C:\Users\gravi\AppData\Local\Temp\ccByFLrk.s 			page 43


 1823 0425 2F040000 		.4byte	0x42f
 1824 0429 05       		.byte	0x5
 1825 042a 03       		.byte	0x3
 1826 042b 30000000 		.4byte	cfg_memcpy_list.4841
 1827 042f 12       		.uleb128 0x12
 1828 0430 0D040000 		.4byte	0x40d
 1829 0434 1F       		.uleb128 0x1f
 1830 0435 6900     		.ascii	"i\000"
 1831 0437 01       		.byte	0x1
 1832 0438 F901     		.2byte	0x1f9
 1833 043a 8A000000 		.4byte	0x8a
 1834 043e 02       		.byte	0x2
 1835 043f 91       		.byte	0x91
 1836 0440 77       		.sleb128 -9
 1837 0441 20       		.uleb128 0x20
 1838 0442 3E000000 		.4byte	.LBB4
 1839 0446 6A000000 		.4byte	.LBE4
 1840 044a 68040000 		.4byte	0x468
 1841 044e 1F       		.uleb128 0x1f
 1842 044f 6D7300   		.ascii	"ms\000"
 1843 0452 01       		.byte	0x1
 1844 0453 FE01     		.2byte	0x1fe
 1845 0455 5C040000 		.4byte	0x45c
 1846 0459 02       		.byte	0x2
 1847 045a 91       		.byte	0x91
 1848 045b 70       		.sleb128 -16
 1849 045c 0C       		.uleb128 0xc
 1850 045d 04       		.byte	0x4
 1851 045e 62040000 		.4byte	0x462
 1852 0462 12       		.uleb128 0x12
 1853 0463 97030000 		.4byte	0x397
 1854 0467 00       		.byte	0
 1855 0468 10       		.uleb128 0x10
 1856 0469 80000000 		.4byte	.LBB5
 1857 046d C0000000 		.4byte	.LBE5
 1858 0471 1F       		.uleb128 0x1f
 1859 0472 6D6300   		.ascii	"mc\000"
 1860 0475 01       		.byte	0x1
 1861 0476 0502     		.2byte	0x205
 1862 0478 7F040000 		.4byte	0x47f
 1863 047c 02       		.byte	0x2
 1864 047d 91       		.byte	0x91
 1865 047e 6C       		.sleb128 -20
 1866 047f 0C       		.uleb128 0xc
 1867 0480 04       		.byte	0x4
 1868 0481 85040000 		.4byte	0x485
 1869 0485 12       		.uleb128 0x12
 1870 0486 DA030000 		.4byte	0x3da
 1871 048a 14       		.uleb128 0x14
 1872 048b 19020000 		.4byte	.LASF51
 1873 048f 01       		.byte	0x1
 1874 0490 0602     		.2byte	0x206
 1875 0492 6F000000 		.4byte	0x6f
 1876 0496 02       		.byte	0x2
 1877 0497 91       		.byte	0x91
 1878 0498 68       		.sleb128 -24
 1879 0499 14       		.uleb128 0x14
ARM GAS  C:\Users\gravi\AppData\Local\Temp\ccByFLrk.s 			page 44


 1880 049a A7020000 		.4byte	.LASF52
 1881 049e 01       		.byte	0x1
 1882 049f 0702     		.2byte	0x207
 1883 04a1 88010000 		.4byte	0x188
 1884 04a5 02       		.byte	0x2
 1885 04a6 91       		.byte	0x91
 1886 04a7 64       		.sleb128 -28
 1887 04a8 14       		.uleb128 0x14
 1888 04a9 FA000000 		.4byte	.LASF53
 1889 04ad 01       		.byte	0x1
 1890 04ae 0802     		.2byte	0x208
 1891 04b0 95000000 		.4byte	0x95
 1892 04b4 02       		.byte	0x2
 1893 04b5 91       		.byte	0x91
 1894 04b6 62       		.sleb128 -30
 1895 04b7 00       		.byte	0
 1896 04b8 00       		.byte	0
 1897 04b9 00       		.byte	0
 1898 04ba 21       		.uleb128 0x21
 1899 04bb 2B000000 		.4byte	.LASF57
 1900 04bf 01       		.byte	0x1
 1901 04c0 7401     		.2byte	0x174
 1902 04c2 AB000000 		.4byte	0xab
 1903 04c6 01       		.byte	0x1
 1904 04c7 05       		.byte	0x5
 1905 04c8 03       		.byte	0x3
 1906 04c9 00000000 		.4byte	AMuxSeq_curChannel
 1907 04cd 00       		.byte	0
 1908              		.section	.debug_abbrev,"",%progbits
 1909              	.Ldebug_abbrev0:
 1910 0000 01       		.uleb128 0x1
 1911 0001 11       		.uleb128 0x11
 1912 0002 01       		.byte	0x1
 1913 0003 25       		.uleb128 0x25
 1914 0004 0E       		.uleb128 0xe
 1915 0005 13       		.uleb128 0x13
 1916 0006 0B       		.uleb128 0xb
 1917 0007 03       		.uleb128 0x3
 1918 0008 0E       		.uleb128 0xe
 1919 0009 1B       		.uleb128 0x1b
 1920 000a 0E       		.uleb128 0xe
 1921 000b 55       		.uleb128 0x55
 1922 000c 06       		.uleb128 0x6
 1923 000d 11       		.uleb128 0x11
 1924 000e 01       		.uleb128 0x1
 1925 000f 52       		.uleb128 0x52
 1926 0010 01       		.uleb128 0x1
 1927 0011 10       		.uleb128 0x10
 1928 0012 06       		.uleb128 0x6
 1929 0013 00       		.byte	0
 1930 0014 00       		.byte	0
 1931 0015 02       		.uleb128 0x2
 1932 0016 24       		.uleb128 0x24
 1933 0017 00       		.byte	0
 1934 0018 0B       		.uleb128 0xb
 1935 0019 0B       		.uleb128 0xb
 1936 001a 3E       		.uleb128 0x3e
ARM GAS  C:\Users\gravi\AppData\Local\Temp\ccByFLrk.s 			page 45


 1937 001b 0B       		.uleb128 0xb
 1938 001c 03       		.uleb128 0x3
 1939 001d 0E       		.uleb128 0xe
 1940 001e 00       		.byte	0
 1941 001f 00       		.byte	0
 1942 0020 03       		.uleb128 0x3
 1943 0021 24       		.uleb128 0x24
 1944 0022 00       		.byte	0
 1945 0023 0B       		.uleb128 0xb
 1946 0024 0B       		.uleb128 0xb
 1947 0025 3E       		.uleb128 0x3e
 1948 0026 0B       		.uleb128 0xb
 1949 0027 03       		.uleb128 0x3
 1950 0028 08       		.uleb128 0x8
 1951 0029 00       		.byte	0
 1952 002a 00       		.byte	0
 1953 002b 04       		.uleb128 0x4
 1954 002c 0F       		.uleb128 0xf
 1955 002d 00       		.byte	0
 1956 002e 0B       		.uleb128 0xb
 1957 002f 0B       		.uleb128 0xb
 1958 0030 00       		.byte	0
 1959 0031 00       		.byte	0
 1960 0032 05       		.uleb128 0x5
 1961 0033 16       		.uleb128 0x16
 1962 0034 00       		.byte	0
 1963 0035 03       		.uleb128 0x3
 1964 0036 0E       		.uleb128 0xe
 1965 0037 3A       		.uleb128 0x3a
 1966 0038 0B       		.uleb128 0xb
 1967 0039 3B       		.uleb128 0x3b
 1968 003a 0B       		.uleb128 0xb
 1969 003b 49       		.uleb128 0x49
 1970 003c 13       		.uleb128 0x13
 1971 003d 00       		.byte	0
 1972 003e 00       		.byte	0
 1973 003f 06       		.uleb128 0x6
 1974 0040 35       		.uleb128 0x35
 1975 0041 00       		.byte	0
 1976 0042 49       		.uleb128 0x49
 1977 0043 13       		.uleb128 0x13
 1978 0044 00       		.byte	0
 1979 0045 00       		.byte	0
 1980 0046 07       		.uleb128 0x7
 1981 0047 13       		.uleb128 0x13
 1982 0048 01       		.byte	0x1
 1983 0049 0B       		.uleb128 0xb
 1984 004a 0B       		.uleb128 0xb
 1985 004b 3A       		.uleb128 0x3a
 1986 004c 0B       		.uleb128 0xb
 1987 004d 3B       		.uleb128 0x3b
 1988 004e 0B       		.uleb128 0xb
 1989 004f 01       		.uleb128 0x1
 1990 0050 13       		.uleb128 0x13
 1991 0051 00       		.byte	0
 1992 0052 00       		.byte	0
 1993 0053 08       		.uleb128 0x8
ARM GAS  C:\Users\gravi\AppData\Local\Temp\ccByFLrk.s 			page 46


 1994 0054 0D       		.uleb128 0xd
 1995 0055 00       		.byte	0
 1996 0056 03       		.uleb128 0x3
 1997 0057 0E       		.uleb128 0xe
 1998 0058 3A       		.uleb128 0x3a
 1999 0059 0B       		.uleb128 0xb
 2000 005a 3B       		.uleb128 0x3b
 2001 005b 0B       		.uleb128 0xb
 2002 005c 49       		.uleb128 0x49
 2003 005d 13       		.uleb128 0x13
 2004 005e 38       		.uleb128 0x38
 2005 005f 0A       		.uleb128 0xa
 2006 0060 00       		.byte	0
 2007 0061 00       		.byte	0
 2008 0062 09       		.uleb128 0x9
 2009 0063 2E       		.uleb128 0x2e
 2010 0064 01       		.byte	0x1
 2011 0065 03       		.uleb128 0x3
 2012 0066 0E       		.uleb128 0xe
 2013 0067 3A       		.uleb128 0x3a
 2014 0068 0B       		.uleb128 0xb
 2015 0069 3B       		.uleb128 0x3b
 2016 006a 0B       		.uleb128 0xb
 2017 006b 27       		.uleb128 0x27
 2018 006c 0C       		.uleb128 0xc
 2019 006d 11       		.uleb128 0x11
 2020 006e 01       		.uleb128 0x1
 2021 006f 12       		.uleb128 0x12
 2022 0070 01       		.uleb128 0x1
 2023 0071 40       		.uleb128 0x40
 2024 0072 06       		.uleb128 0x6
 2025 0073 9642     		.uleb128 0x2116
 2026 0075 0C       		.uleb128 0xc
 2027 0076 01       		.uleb128 0x1
 2028 0077 13       		.uleb128 0x13
 2029 0078 00       		.byte	0
 2030 0079 00       		.byte	0
 2031 007a 0A       		.uleb128 0xa
 2032 007b 05       		.uleb128 0x5
 2033 007c 00       		.byte	0
 2034 007d 03       		.uleb128 0x3
 2035 007e 08       		.uleb128 0x8
 2036 007f 3A       		.uleb128 0x3a
 2037 0080 0B       		.uleb128 0xb
 2038 0081 3B       		.uleb128 0x3b
 2039 0082 0B       		.uleb128 0xb
 2040 0083 49       		.uleb128 0x49
 2041 0084 13       		.uleb128 0x13
 2042 0085 02       		.uleb128 0x2
 2043 0086 0A       		.uleb128 0xa
 2044 0087 00       		.byte	0
 2045 0088 00       		.byte	0
 2046 0089 0B       		.uleb128 0xb
 2047 008a 05       		.uleb128 0x5
 2048 008b 00       		.byte	0
 2049 008c 03       		.uleb128 0x3
 2050 008d 0E       		.uleb128 0xe
ARM GAS  C:\Users\gravi\AppData\Local\Temp\ccByFLrk.s 			page 47


 2051 008e 3A       		.uleb128 0x3a
 2052 008f 0B       		.uleb128 0xb
 2053 0090 3B       		.uleb128 0x3b
 2054 0091 0B       		.uleb128 0xb
 2055 0092 49       		.uleb128 0x49
 2056 0093 13       		.uleb128 0x13
 2057 0094 02       		.uleb128 0x2
 2058 0095 0A       		.uleb128 0xa
 2059 0096 00       		.byte	0
 2060 0097 00       		.byte	0
 2061 0098 0C       		.uleb128 0xc
 2062 0099 0F       		.uleb128 0xf
 2063 009a 00       		.byte	0
 2064 009b 0B       		.uleb128 0xb
 2065 009c 0B       		.uleb128 0xb
 2066 009d 49       		.uleb128 0x49
 2067 009e 13       		.uleb128 0x13
 2068 009f 00       		.byte	0
 2069 00a0 00       		.byte	0
 2070 00a1 0D       		.uleb128 0xd
 2071 00a2 26       		.uleb128 0x26
 2072 00a3 00       		.byte	0
 2073 00a4 00       		.byte	0
 2074 00a5 00       		.byte	0
 2075 00a6 0E       		.uleb128 0xe
 2076 00a7 2E       		.uleb128 0x2e
 2077 00a8 01       		.byte	0x1
 2078 00a9 03       		.uleb128 0x3
 2079 00aa 0E       		.uleb128 0xe
 2080 00ab 3A       		.uleb128 0x3a
 2081 00ac 0B       		.uleb128 0xb
 2082 00ad 3B       		.uleb128 0x3b
 2083 00ae 0B       		.uleb128 0xb
 2084 00af 27       		.uleb128 0x27
 2085 00b0 0C       		.uleb128 0xc
 2086 00b1 11       		.uleb128 0x11
 2087 00b2 01       		.uleb128 0x1
 2088 00b3 12       		.uleb128 0x12
 2089 00b4 01       		.uleb128 0x1
 2090 00b5 40       		.uleb128 0x40
 2091 00b6 06       		.uleb128 0x6
 2092 00b7 9742     		.uleb128 0x2117
 2093 00b9 0C       		.uleb128 0xc
 2094 00ba 01       		.uleb128 0x1
 2095 00bb 13       		.uleb128 0x13
 2096 00bc 00       		.byte	0
 2097 00bd 00       		.byte	0
 2098 00be 0F       		.uleb128 0xf
 2099 00bf 34       		.uleb128 0x34
 2100 00c0 00       		.byte	0
 2101 00c1 03       		.uleb128 0x3
 2102 00c2 08       		.uleb128 0x8
 2103 00c3 3A       		.uleb128 0x3a
 2104 00c4 0B       		.uleb128 0xb
 2105 00c5 3B       		.uleb128 0x3b
 2106 00c6 0B       		.uleb128 0xb
 2107 00c7 49       		.uleb128 0x49
ARM GAS  C:\Users\gravi\AppData\Local\Temp\ccByFLrk.s 			page 48


 2108 00c8 13       		.uleb128 0x13
 2109 00c9 02       		.uleb128 0x2
 2110 00ca 0A       		.uleb128 0xa
 2111 00cb 00       		.byte	0
 2112 00cc 00       		.byte	0
 2113 00cd 10       		.uleb128 0x10
 2114 00ce 0B       		.uleb128 0xb
 2115 00cf 01       		.byte	0x1
 2116 00d0 11       		.uleb128 0x11
 2117 00d1 01       		.uleb128 0x1
 2118 00d2 12       		.uleb128 0x12
 2119 00d3 01       		.uleb128 0x1
 2120 00d4 00       		.byte	0
 2121 00d5 00       		.byte	0
 2122 00d6 11       		.uleb128 0x11
 2123 00d7 34       		.uleb128 0x34
 2124 00d8 00       		.byte	0
 2125 00d9 03       		.uleb128 0x3
 2126 00da 0E       		.uleb128 0xe
 2127 00db 3A       		.uleb128 0x3a
 2128 00dc 0B       		.uleb128 0xb
 2129 00dd 3B       		.uleb128 0x3b
 2130 00de 0B       		.uleb128 0xb
 2131 00df 49       		.uleb128 0x49
 2132 00e0 13       		.uleb128 0x13
 2133 00e1 02       		.uleb128 0x2
 2134 00e2 0A       		.uleb128 0xa
 2135 00e3 00       		.byte	0
 2136 00e4 00       		.byte	0
 2137 00e5 12       		.uleb128 0x12
 2138 00e6 26       		.uleb128 0x26
 2139 00e7 00       		.byte	0
 2140 00e8 49       		.uleb128 0x49
 2141 00e9 13       		.uleb128 0x13
 2142 00ea 00       		.byte	0
 2143 00eb 00       		.byte	0
 2144 00ec 13       		.uleb128 0x13
 2145 00ed 2E       		.uleb128 0x2e
 2146 00ee 01       		.byte	0x1
 2147 00ef 03       		.uleb128 0x3
 2148 00f0 0E       		.uleb128 0xe
 2149 00f1 3A       		.uleb128 0x3a
 2150 00f2 0B       		.uleb128 0xb
 2151 00f3 3B       		.uleb128 0x3b
 2152 00f4 05       		.uleb128 0x5
 2153 00f5 27       		.uleb128 0x27
 2154 00f6 0C       		.uleb128 0xc
 2155 00f7 11       		.uleb128 0x11
 2156 00f8 01       		.uleb128 0x1
 2157 00f9 12       		.uleb128 0x12
 2158 00fa 01       		.uleb128 0x1
 2159 00fb 40       		.uleb128 0x40
 2160 00fc 06       		.uleb128 0x6
 2161 00fd 9742     		.uleb128 0x2117
 2162 00ff 0C       		.uleb128 0xc
 2163 0100 01       		.uleb128 0x1
 2164 0101 13       		.uleb128 0x13
ARM GAS  C:\Users\gravi\AppData\Local\Temp\ccByFLrk.s 			page 49


 2165 0102 00       		.byte	0
 2166 0103 00       		.byte	0
 2167 0104 14       		.uleb128 0x14
 2168 0105 34       		.uleb128 0x34
 2169 0106 00       		.byte	0
 2170 0107 03       		.uleb128 0x3
 2171 0108 0E       		.uleb128 0xe
 2172 0109 3A       		.uleb128 0x3a
 2173 010a 0B       		.uleb128 0xb
 2174 010b 3B       		.uleb128 0x3b
 2175 010c 05       		.uleb128 0x5
 2176 010d 49       		.uleb128 0x49
 2177 010e 13       		.uleb128 0x13
 2178 010f 02       		.uleb128 0x2
 2179 0110 0A       		.uleb128 0xa
 2180 0111 00       		.byte	0
 2181 0112 00       		.byte	0
 2182 0113 15       		.uleb128 0x15
 2183 0114 2E       		.uleb128 0x2e
 2184 0115 01       		.byte	0x1
 2185 0116 3F       		.uleb128 0x3f
 2186 0117 0C       		.uleb128 0xc
 2187 0118 03       		.uleb128 0x3
 2188 0119 0E       		.uleb128 0xe
 2189 011a 3A       		.uleb128 0x3a
 2190 011b 0B       		.uleb128 0xb
 2191 011c 3B       		.uleb128 0x3b
 2192 011d 05       		.uleb128 0x5
 2193 011e 27       		.uleb128 0x27
 2194 011f 0C       		.uleb128 0xc
 2195 0120 11       		.uleb128 0x11
 2196 0121 01       		.uleb128 0x1
 2197 0122 12       		.uleb128 0x12
 2198 0123 01       		.uleb128 0x1
 2199 0124 40       		.uleb128 0x40
 2200 0125 06       		.uleb128 0x6
 2201 0126 9742     		.uleb128 0x2117
 2202 0128 0C       		.uleb128 0xc
 2203 0129 01       		.uleb128 0x1
 2204 012a 13       		.uleb128 0x13
 2205 012b 00       		.byte	0
 2206 012c 00       		.byte	0
 2207 012d 16       		.uleb128 0x16
 2208 012e 05       		.uleb128 0x5
 2209 012f 00       		.byte	0
 2210 0130 03       		.uleb128 0x3
 2211 0131 0E       		.uleb128 0xe
 2212 0132 3A       		.uleb128 0x3a
 2213 0133 0B       		.uleb128 0xb
 2214 0134 3B       		.uleb128 0x3b
 2215 0135 05       		.uleb128 0x5
 2216 0136 49       		.uleb128 0x49
 2217 0137 13       		.uleb128 0x13
 2218 0138 02       		.uleb128 0x2
 2219 0139 0A       		.uleb128 0xa
 2220 013a 00       		.byte	0
 2221 013b 00       		.byte	0
ARM GAS  C:\Users\gravi\AppData\Local\Temp\ccByFLrk.s 			page 50


 2222 013c 17       		.uleb128 0x17
 2223 013d 2E       		.uleb128 0x2e
 2224 013e 00       		.byte	0
 2225 013f 3F       		.uleb128 0x3f
 2226 0140 0C       		.uleb128 0xc
 2227 0141 03       		.uleb128 0x3
 2228 0142 0E       		.uleb128 0xe
 2229 0143 3A       		.uleb128 0x3a
 2230 0144 0B       		.uleb128 0xb
 2231 0145 3B       		.uleb128 0x3b
 2232 0146 05       		.uleb128 0x5
 2233 0147 27       		.uleb128 0x27
 2234 0148 0C       		.uleb128 0xc
 2235 0149 11       		.uleb128 0x11
 2236 014a 01       		.uleb128 0x1
 2237 014b 12       		.uleb128 0x12
 2238 014c 01       		.uleb128 0x1
 2239 014d 40       		.uleb128 0x40
 2240 014e 06       		.uleb128 0x6
 2241 014f 9742     		.uleb128 0x2117
 2242 0151 0C       		.uleb128 0xc
 2243 0152 00       		.byte	0
 2244 0153 00       		.byte	0
 2245 0154 18       		.uleb128 0x18
 2246 0155 2E       		.uleb128 0x2e
 2247 0156 01       		.byte	0x1
 2248 0157 3F       		.uleb128 0x3f
 2249 0158 0C       		.uleb128 0xc
 2250 0159 03       		.uleb128 0x3
 2251 015a 0E       		.uleb128 0xe
 2252 015b 3A       		.uleb128 0x3a
 2253 015c 0B       		.uleb128 0xb
 2254 015d 3B       		.uleb128 0x3b
 2255 015e 05       		.uleb128 0x5
 2256 015f 27       		.uleb128 0x27
 2257 0160 0C       		.uleb128 0xc
 2258 0161 11       		.uleb128 0x11
 2259 0162 01       		.uleb128 0x1
 2260 0163 12       		.uleb128 0x12
 2261 0164 01       		.uleb128 0x1
 2262 0165 40       		.uleb128 0x40
 2263 0166 06       		.uleb128 0x6
 2264 0167 9642     		.uleb128 0x2116
 2265 0169 0C       		.uleb128 0xc
 2266 016a 01       		.uleb128 0x1
 2267 016b 13       		.uleb128 0x13
 2268 016c 00       		.byte	0
 2269 016d 00       		.byte	0
 2270 016e 19       		.uleb128 0x19
 2271 016f 13       		.uleb128 0x13
 2272 0170 01       		.byte	0x1
 2273 0171 0B       		.uleb128 0xb
 2274 0172 0B       		.uleb128 0xb
 2275 0173 3A       		.uleb128 0x3a
 2276 0174 0B       		.uleb128 0xb
 2277 0175 3B       		.uleb128 0x3b
 2278 0176 05       		.uleb128 0x5
ARM GAS  C:\Users\gravi\AppData\Local\Temp\ccByFLrk.s 			page 51


 2279 0177 01       		.uleb128 0x1
 2280 0178 13       		.uleb128 0x13
 2281 0179 00       		.byte	0
 2282 017a 00       		.byte	0
 2283 017b 1A       		.uleb128 0x1a
 2284 017c 0D       		.uleb128 0xd
 2285 017d 00       		.byte	0
 2286 017e 03       		.uleb128 0x3
 2287 017f 0E       		.uleb128 0xe
 2288 0180 3A       		.uleb128 0x3a
 2289 0181 0B       		.uleb128 0xb
 2290 0182 3B       		.uleb128 0x3b
 2291 0183 05       		.uleb128 0x5
 2292 0184 49       		.uleb128 0x49
 2293 0185 13       		.uleb128 0x13
 2294 0186 38       		.uleb128 0x38
 2295 0187 0A       		.uleb128 0xa
 2296 0188 00       		.byte	0
 2297 0189 00       		.byte	0
 2298 018a 1B       		.uleb128 0x1b
 2299 018b 16       		.uleb128 0x16
 2300 018c 00       		.byte	0
 2301 018d 03       		.uleb128 0x3
 2302 018e 0E       		.uleb128 0xe
 2303 018f 3A       		.uleb128 0x3a
 2304 0190 0B       		.uleb128 0xb
 2305 0191 3B       		.uleb128 0x3b
 2306 0192 05       		.uleb128 0x5
 2307 0193 49       		.uleb128 0x49
 2308 0194 13       		.uleb128 0x13
 2309 0195 00       		.byte	0
 2310 0196 00       		.byte	0
 2311 0197 1C       		.uleb128 0x1c
 2312 0198 0D       		.uleb128 0xd
 2313 0199 00       		.byte	0
 2314 019a 03       		.uleb128 0x3
 2315 019b 08       		.uleb128 0x8
 2316 019c 3A       		.uleb128 0x3a
 2317 019d 0B       		.uleb128 0xb
 2318 019e 3B       		.uleb128 0x3b
 2319 019f 05       		.uleb128 0x5
 2320 01a0 49       		.uleb128 0x49
 2321 01a1 13       		.uleb128 0x13
 2322 01a2 38       		.uleb128 0x38
 2323 01a3 0A       		.uleb128 0xa
 2324 01a4 00       		.byte	0
 2325 01a5 00       		.byte	0
 2326 01a6 1D       		.uleb128 0x1d
 2327 01a7 01       		.uleb128 0x1
 2328 01a8 01       		.byte	0x1
 2329 01a9 49       		.uleb128 0x49
 2330 01aa 13       		.uleb128 0x13
 2331 01ab 01       		.uleb128 0x1
 2332 01ac 13       		.uleb128 0x13
 2333 01ad 00       		.byte	0
 2334 01ae 00       		.byte	0
 2335 01af 1E       		.uleb128 0x1e
ARM GAS  C:\Users\gravi\AppData\Local\Temp\ccByFLrk.s 			page 52


 2336 01b0 21       		.uleb128 0x21
 2337 01b1 00       		.byte	0
 2338 01b2 49       		.uleb128 0x49
 2339 01b3 13       		.uleb128 0x13
 2340 01b4 2F       		.uleb128 0x2f
 2341 01b5 0B       		.uleb128 0xb
 2342 01b6 00       		.byte	0
 2343 01b7 00       		.byte	0
 2344 01b8 1F       		.uleb128 0x1f
 2345 01b9 34       		.uleb128 0x34
 2346 01ba 00       		.byte	0
 2347 01bb 03       		.uleb128 0x3
 2348 01bc 08       		.uleb128 0x8
 2349 01bd 3A       		.uleb128 0x3a
 2350 01be 0B       		.uleb128 0xb
 2351 01bf 3B       		.uleb128 0x3b
 2352 01c0 05       		.uleb128 0x5
 2353 01c1 49       		.uleb128 0x49
 2354 01c2 13       		.uleb128 0x13
 2355 01c3 02       		.uleb128 0x2
 2356 01c4 0A       		.uleb128 0xa
 2357 01c5 00       		.byte	0
 2358 01c6 00       		.byte	0
 2359 01c7 20       		.uleb128 0x20
 2360 01c8 0B       		.uleb128 0xb
 2361 01c9 01       		.byte	0x1
 2362 01ca 11       		.uleb128 0x11
 2363 01cb 01       		.uleb128 0x1
 2364 01cc 12       		.uleb128 0x12
 2365 01cd 01       		.uleb128 0x1
 2366 01ce 01       		.uleb128 0x1
 2367 01cf 13       		.uleb128 0x13
 2368 01d0 00       		.byte	0
 2369 01d1 00       		.byte	0
 2370 01d2 21       		.uleb128 0x21
 2371 01d3 34       		.uleb128 0x34
 2372 01d4 00       		.byte	0
 2373 01d5 03       		.uleb128 0x3
 2374 01d6 0E       		.uleb128 0xe
 2375 01d7 3A       		.uleb128 0x3a
 2376 01d8 0B       		.uleb128 0xb
 2377 01d9 3B       		.uleb128 0x3b
 2378 01da 05       		.uleb128 0x5
 2379 01db 49       		.uleb128 0x49
 2380 01dc 13       		.uleb128 0x13
 2381 01dd 3F       		.uleb128 0x3f
 2382 01de 0C       		.uleb128 0xc
 2383 01df 02       		.uleb128 0x2
 2384 01e0 0A       		.uleb128 0xa
 2385 01e1 00       		.byte	0
 2386 01e2 00       		.byte	0
 2387 01e3 00       		.byte	0
 2388              		.section	.debug_loc,"",%progbits
 2389              	.Ldebug_loc0:
 2390              	.LLST0:
 2391 0000 00000000 		.4byte	.LFB0
 2392 0004 02000000 		.4byte	.LCFI0
ARM GAS  C:\Users\gravi\AppData\Local\Temp\ccByFLrk.s 			page 53


 2393 0008 0200     		.2byte	0x2
 2394 000a 7D       		.byte	0x7d
 2395 000b 00       		.sleb128 0
 2396 000c 02000000 		.4byte	.LCFI0
 2397 0010 04000000 		.4byte	.LCFI1
 2398 0014 0200     		.2byte	0x2
 2399 0016 7D       		.byte	0x7d
 2400 0017 08       		.sleb128 8
 2401 0018 04000000 		.4byte	.LCFI1
 2402 001c 06000000 		.4byte	.LCFI2
 2403 0020 0200     		.2byte	0x2
 2404 0022 7D       		.byte	0x7d
 2405 0023 10       		.sleb128 16
 2406 0024 06000000 		.4byte	.LCFI2
 2407 0028 1E000000 		.4byte	.LFE0
 2408 002c 0200     		.2byte	0x2
 2409 002e 77       		.byte	0x77
 2410 002f 10       		.sleb128 16
 2411 0030 00000000 		.4byte	0
 2412 0034 00000000 		.4byte	0
 2413              	.LLST1:
 2414 0038 00000000 		.4byte	.LFB1
 2415 003c 02000000 		.4byte	.LCFI3
 2416 0040 0200     		.2byte	0x2
 2417 0042 7D       		.byte	0x7d
 2418 0043 00       		.sleb128 0
 2419 0044 02000000 		.4byte	.LCFI3
 2420 0048 04000000 		.4byte	.LCFI4
 2421 004c 0200     		.2byte	0x2
 2422 004e 7D       		.byte	0x7d
 2423 004f 08       		.sleb128 8
 2424 0050 04000000 		.4byte	.LCFI4
 2425 0054 06000000 		.4byte	.LCFI5
 2426 0058 0200     		.2byte	0x2
 2427 005a 7D       		.byte	0x7d
 2428 005b 18       		.sleb128 24
 2429 005c 06000000 		.4byte	.LCFI5
 2430 0060 1E000000 		.4byte	.LFE1
 2431 0064 0200     		.2byte	0x2
 2432 0066 77       		.byte	0x77
 2433 0067 18       		.sleb128 24
 2434 0068 00000000 		.4byte	0
 2435 006c 00000000 		.4byte	0
 2436              	.LLST2:
 2437 0070 00000000 		.4byte	.LFB2
 2438 0074 02000000 		.4byte	.LCFI6
 2439 0078 0200     		.2byte	0x2
 2440 007a 7D       		.byte	0x7d
 2441 007b 00       		.sleb128 0
 2442 007c 02000000 		.4byte	.LCFI6
 2443 0080 04000000 		.4byte	.LCFI7
 2444 0084 0200     		.2byte	0x2
 2445 0086 7D       		.byte	0x7d
 2446 0087 08       		.sleb128 8
 2447 0088 04000000 		.4byte	.LCFI7
 2448 008c 06000000 		.4byte	.LCFI8
 2449 0090 0200     		.2byte	0x2
ARM GAS  C:\Users\gravi\AppData\Local\Temp\ccByFLrk.s 			page 54


 2450 0092 7D       		.byte	0x7d
 2451 0093 18       		.sleb128 24
 2452 0094 06000000 		.4byte	.LCFI8
 2453 0098 1E000000 		.4byte	.LFE2
 2454 009c 0200     		.2byte	0x2
 2455 009e 77       		.byte	0x77
 2456 009f 18       		.sleb128 24
 2457 00a0 00000000 		.4byte	0
 2458 00a4 00000000 		.4byte	0
 2459              	.LLST3:
 2460 00a8 00000000 		.4byte	.LFB3
 2461 00ac 02000000 		.4byte	.LCFI9
 2462 00b0 0200     		.2byte	0x2
 2463 00b2 7D       		.byte	0x7d
 2464 00b3 00       		.sleb128 0
 2465 00b4 02000000 		.4byte	.LCFI9
 2466 00b8 04000000 		.4byte	.LCFI10
 2467 00bc 0200     		.2byte	0x2
 2468 00be 7D       		.byte	0x7d
 2469 00bf 04       		.sleb128 4
 2470 00c0 04000000 		.4byte	.LCFI10
 2471 00c4 06000000 		.4byte	.LCFI11
 2472 00c8 0200     		.2byte	0x2
 2473 00ca 7D       		.byte	0x7d
 2474 00cb 10       		.sleb128 16
 2475 00cc 06000000 		.4byte	.LCFI11
 2476 00d0 0C000000 		.4byte	.LFE3
 2477 00d4 0200     		.2byte	0x2
 2478 00d6 77       		.byte	0x77
 2479 00d7 10       		.sleb128 16
 2480 00d8 00000000 		.4byte	0
 2481 00dc 00000000 		.4byte	0
 2482              	.LLST4:
 2483 00e0 00000000 		.4byte	.LFB4
 2484 00e4 02000000 		.4byte	.LCFI12
 2485 00e8 0200     		.2byte	0x2
 2486 00ea 7D       		.byte	0x7d
 2487 00eb 00       		.sleb128 0
 2488 00ec 02000000 		.4byte	.LCFI12
 2489 00f0 04000000 		.4byte	.LCFI13
 2490 00f4 0200     		.2byte	0x2
 2491 00f6 7D       		.byte	0x7d
 2492 00f7 04       		.sleb128 4
 2493 00f8 04000000 		.4byte	.LCFI13
 2494 00fc 06000000 		.4byte	.LCFI14
 2495 0100 0200     		.2byte	0x2
 2496 0102 7D       		.byte	0x7d
 2497 0103 20       		.sleb128 32
 2498 0104 06000000 		.4byte	.LCFI14
 2499 0108 82000000 		.4byte	.LFE4
 2500 010c 0200     		.2byte	0x2
 2501 010e 77       		.byte	0x77
 2502 010f 20       		.sleb128 32
 2503 0110 00000000 		.4byte	0
 2504 0114 00000000 		.4byte	0
 2505              	.LLST5:
 2506 0118 00000000 		.4byte	.LFB5
ARM GAS  C:\Users\gravi\AppData\Local\Temp\ccByFLrk.s 			page 55


 2507 011c 02000000 		.4byte	.LCFI15
 2508 0120 0200     		.2byte	0x2
 2509 0122 7D       		.byte	0x7d
 2510 0123 00       		.sleb128 0
 2511 0124 02000000 		.4byte	.LCFI15
 2512 0128 04000000 		.4byte	.LCFI16
 2513 012c 0200     		.2byte	0x2
 2514 012e 7D       		.byte	0x7d
 2515 012f 08       		.sleb128 8
 2516 0130 04000000 		.4byte	.LCFI16
 2517 0134 06000000 		.4byte	.LCFI17
 2518 0138 0200     		.2byte	0x2
 2519 013a 7D       		.byte	0x7d
 2520 013b 10       		.sleb128 16
 2521 013c 06000000 		.4byte	.LCFI17
 2522 0140 90020000 		.4byte	.LFE5
 2523 0144 0200     		.2byte	0x2
 2524 0146 77       		.byte	0x77
 2525 0147 10       		.sleb128 16
 2526 0148 00000000 		.4byte	0
 2527 014c 00000000 		.4byte	0
 2528              	.LLST6:
 2529 0150 00000000 		.4byte	.LFB6
 2530 0154 02000000 		.4byte	.LCFI18
 2531 0158 0200     		.2byte	0x2
 2532 015a 7D       		.byte	0x7d
 2533 015b 00       		.sleb128 0
 2534 015c 02000000 		.4byte	.LCFI18
 2535 0160 04000000 		.4byte	.LCFI19
 2536 0164 0200     		.2byte	0x2
 2537 0166 7D       		.byte	0x7d
 2538 0167 04       		.sleb128 4
 2539 0168 04000000 		.4byte	.LCFI19
 2540 016c 06000000 		.4byte	.LCFI20
 2541 0170 0200     		.2byte	0x2
 2542 0172 7D       		.byte	0x7d
 2543 0173 10       		.sleb128 16
 2544 0174 06000000 		.4byte	.LCFI20
 2545 0178 F6000000 		.4byte	.LFE6
 2546 017c 0200     		.2byte	0x2
 2547 017e 77       		.byte	0x77
 2548 017f 10       		.sleb128 16
 2549 0180 00000000 		.4byte	0
 2550 0184 00000000 		.4byte	0
 2551              	.LLST7:
 2552 0188 00000000 		.4byte	.LFB7
 2553 018c 02000000 		.4byte	.LCFI21
 2554 0190 0200     		.2byte	0x2
 2555 0192 7D       		.byte	0x7d
 2556 0193 00       		.sleb128 0
 2557 0194 02000000 		.4byte	.LCFI21
 2558 0198 04000000 		.4byte	.LCFI22
 2559 019c 0200     		.2byte	0x2
 2560 019e 7D       		.byte	0x7d
 2561 019f 04       		.sleb128 4
 2562 01a0 04000000 		.4byte	.LCFI22
 2563 01a4 06000000 		.4byte	.LCFI23
ARM GAS  C:\Users\gravi\AppData\Local\Temp\ccByFLrk.s 			page 56


 2564 01a8 0200     		.2byte	0x2
 2565 01aa 7D       		.byte	0x7d
 2566 01ab 18       		.sleb128 24
 2567 01ac 06000000 		.4byte	.LCFI23
 2568 01b0 44000000 		.4byte	.LFE7
 2569 01b4 0200     		.2byte	0x2
 2570 01b6 77       		.byte	0x77
 2571 01b7 18       		.sleb128 24
 2572 01b8 00000000 		.4byte	0
 2573 01bc 00000000 		.4byte	0
 2574              	.LLST8:
 2575 01c0 00000000 		.4byte	.LFB8
 2576 01c4 02000000 		.4byte	.LCFI24
 2577 01c8 0200     		.2byte	0x2
 2578 01ca 7D       		.byte	0x7d
 2579 01cb 00       		.sleb128 0
 2580 01cc 02000000 		.4byte	.LCFI24
 2581 01d0 04000000 		.4byte	.LCFI25
 2582 01d4 0200     		.2byte	0x2
 2583 01d6 7D       		.byte	0x7d
 2584 01d7 04       		.sleb128 4
 2585 01d8 04000000 		.4byte	.LCFI25
 2586 01dc 6C000000 		.4byte	.LFE8
 2587 01e0 0200     		.2byte	0x2
 2588 01e2 77       		.byte	0x77
 2589 01e3 04       		.sleb128 4
 2590 01e4 00000000 		.4byte	0
 2591 01e8 00000000 		.4byte	0
 2592              	.LLST9:
 2593 01ec 00000000 		.4byte	.LFB9
 2594 01f0 02000000 		.4byte	.LCFI26
 2595 01f4 0200     		.2byte	0x2
 2596 01f6 7D       		.byte	0x7d
 2597 01f7 00       		.sleb128 0
 2598 01f8 02000000 		.4byte	.LCFI26
 2599 01fc 04000000 		.4byte	.LCFI27
 2600 0200 0200     		.2byte	0x2
 2601 0202 7D       		.byte	0x7d
 2602 0203 04       		.sleb128 4
 2603 0204 04000000 		.4byte	.LCFI27
 2604 0208 96010000 		.4byte	.LFE9
 2605 020c 0200     		.2byte	0x2
 2606 020e 77       		.byte	0x77
 2607 020f 04       		.sleb128 4
 2608 0210 00000000 		.4byte	0
 2609 0214 00000000 		.4byte	0
 2610              	.LLST10:
 2611 0218 00000000 		.4byte	.LFB10
 2612 021c 02000000 		.4byte	.LCFI28
 2613 0220 0200     		.2byte	0x2
 2614 0222 7D       		.byte	0x7d
 2615 0223 00       		.sleb128 0
 2616 0224 02000000 		.4byte	.LCFI28
 2617 0228 04000000 		.4byte	.LCFI29
 2618 022c 0200     		.2byte	0x2
 2619 022e 7D       		.byte	0x7d
 2620 022f 08       		.sleb128 8
ARM GAS  C:\Users\gravi\AppData\Local\Temp\ccByFLrk.s 			page 57


 2621 0230 04000000 		.4byte	.LCFI29
 2622 0234 06000000 		.4byte	.LCFI30
 2623 0238 0200     		.2byte	0x2
 2624 023a 7D       		.byte	0x7d
 2625 023b 20       		.sleb128 32
 2626 023c 06000000 		.4byte	.LCFI30
 2627 0240 B0020000 		.4byte	.LFE10
 2628 0244 0200     		.2byte	0x2
 2629 0246 77       		.byte	0x77
 2630 0247 20       		.sleb128 32
 2631 0248 00000000 		.4byte	0
 2632 024c 00000000 		.4byte	0
 2633              		.section	.debug_aranges,"",%progbits
 2634 0000 6C000000 		.4byte	0x6c
 2635 0004 0200     		.2byte	0x2
 2636 0006 00000000 		.4byte	.Ldebug_info0
 2637 000a 04       		.byte	0x4
 2638 000b 00       		.byte	0
 2639 000c 0000     		.2byte	0
 2640 000e 0000     		.2byte	0
 2641 0010 00000000 		.4byte	.LFB0
 2642 0014 1E000000 		.4byte	.LFE0-.LFB0
 2643 0018 00000000 		.4byte	.LFB1
 2644 001c 1E000000 		.4byte	.LFE1-.LFB1
 2645 0020 00000000 		.4byte	.LFB2
 2646 0024 1E000000 		.4byte	.LFE2-.LFB2
 2647 0028 00000000 		.4byte	.LFB3
 2648 002c 0C000000 		.4byte	.LFE3-.LFB3
 2649 0030 00000000 		.4byte	.LFB4
 2650 0034 82000000 		.4byte	.LFE4-.LFB4
 2651 0038 00000000 		.4byte	.LFB5
 2652 003c 90020000 		.4byte	.LFE5-.LFB5
 2653 0040 00000000 		.4byte	.LFB6
 2654 0044 F6000000 		.4byte	.LFE6-.LFB6
 2655 0048 00000000 		.4byte	.LFB7
 2656 004c 44000000 		.4byte	.LFE7-.LFB7
 2657 0050 00000000 		.4byte	.LFB8
 2658 0054 6C000000 		.4byte	.LFE8-.LFB8
 2659 0058 00000000 		.4byte	.LFB9
 2660 005c 96010000 		.4byte	.LFE9-.LFB9
 2661 0060 00000000 		.4byte	.LFB10
 2662 0064 B0020000 		.4byte	.LFE10-.LFB10
 2663 0068 00000000 		.4byte	0
 2664 006c 00000000 		.4byte	0
 2665              		.section	.debug_ranges,"",%progbits
 2666              	.Ldebug_ranges0:
 2667 0000 00000000 		.4byte	.LFB0
 2668 0004 1E000000 		.4byte	.LFE0
 2669 0008 00000000 		.4byte	.LFB1
 2670 000c 1E000000 		.4byte	.LFE1
 2671 0010 00000000 		.4byte	.LFB2
 2672 0014 1E000000 		.4byte	.LFE2
 2673 0018 00000000 		.4byte	.LFB3
 2674 001c 0C000000 		.4byte	.LFE3
 2675 0020 00000000 		.4byte	.LFB4
 2676 0024 82000000 		.4byte	.LFE4
 2677 0028 00000000 		.4byte	.LFB5
ARM GAS  C:\Users\gravi\AppData\Local\Temp\ccByFLrk.s 			page 58


 2678 002c 90020000 		.4byte	.LFE5
 2679 0030 00000000 		.4byte	.LFB6
 2680 0034 F6000000 		.4byte	.LFE6
 2681 0038 00000000 		.4byte	.LFB7
 2682 003c 44000000 		.4byte	.LFE7
 2683 0040 00000000 		.4byte	.LFB8
 2684 0044 6C000000 		.4byte	.LFE8
 2685 0048 00000000 		.4byte	.LFB9
 2686 004c 96010000 		.4byte	.LFE9
 2687 0050 00000000 		.4byte	.LFB10
 2688 0054 B0020000 		.4byte	.LFE10
 2689 0058 00000000 		.4byte	0
 2690 005c 00000000 		.4byte	0
 2691              		.section	.debug_line,"",%progbits
 2692              	.Ldebug_line0:
 2693 0000 9E020000 		.section	.debug_str,"MS",%progbits,1
 2693      0200D700 
 2693      00000201 
 2693      FB0E0D00 
 2693      01010101 
 2694              	.LASF13:
 2695 0000 75696E74 		.ascii	"uint16\000"
 2695      313600
 2696              	.LASF32:
 2697 0007 62617365 		.ascii	"baseAddr\000"
 2697      41646472 
 2697      00
 2698              	.LASF11:
 2699 0010 73697A65 		.ascii	"size_t\000"
 2699      5F7400
 2700              	.LASF27:
 2701 0017 4379436C 		.ascii	"CyClockStartupError\000"
 2701      6F636B53 
 2701      74617274 
 2701      75704572 
 2701      726F7200 
 2702              	.LASF57:
 2703 002b 414D7578 		.ascii	"AMuxSeq_curChannel\000"
 2703      5365715F 
 2703      63757243 
 2703      68616E6E 
 2703      656C00
 2704              	.LASF31:
 2705 003e 64617461 		.ascii	"data_table\000"
 2705      5F746162 
 2705      6C6500
 2706              	.LASF6:
 2707 0049 6C6F6E67 		.ascii	"long long unsigned int\000"
 2707      206C6F6E 
 2707      6720756E 
 2707      7369676E 
 2707      65642069 
 2708              	.LASF30:
 2709 0060 61646472 		.ascii	"addr_table\000"
 2709      5F746162 
 2709      6C6500
 2710              	.LASF37:
ARM GAS  C:\Users\gravi\AppData\Local\Temp\ccByFLrk.s 			page 59


 2711 006b 416E616C 		.ascii	"AnalogSetDefault\000"
 2711      6F675365 
 2711      74446566 
 2711      61756C74 
 2711      00
 2712              	.LASF5:
 2713 007c 6C6F6E67 		.ascii	"long long int\000"
 2713      206C6F6E 
 2713      6720696E 
 2713      7400
 2714              	.LASF0:
 2715 008a 7369676E 		.ascii	"signed char\000"
 2715      65642063 
 2715      68617200 
 2716              	.LASF23:
 2717 0096 43594D45 		.ascii	"CYMEMZERO\000"
 2717      4D5A4552 
 2717      4F00
 2718              	.LASF34:
 2719 00a0 436C6F63 		.ascii	"ClockSetup\000"
 2719      6B536574 
 2719      757000
 2720              	.LASF28:
 2721 00ab 6572726F 		.ascii	"errorCode\000"
 2721      72436F64 
 2721      6500
 2722              	.LASF7:
 2723 00b5 6C6F6E67 		.ascii	"long int\000"
 2723      20696E74 
 2723      00
 2724              	.LASF19:
 2725 00be 72656731 		.ascii	"reg16\000"
 2725      3600
 2726              	.LASF12:
 2727 00c4 75696E74 		.ascii	"uint8\000"
 2727      3800
 2728              	.LASF17:
 2729 00ca 646F7562 		.ascii	"double\000"
 2729      6C6500
 2730              	.LASF14:
 2731 00d1 75696E74 		.ascii	"uint32\000"
 2731      333200
 2732              	.LASF33:
 2733 00d8 636F756E 		.ascii	"count\000"
 2733      7400
 2734              	.LASF40:
 2735 00de 72656756 		.ascii	"regValue\000"
 2735      616C7565 
 2735      00
 2736              	.LASF21:
 2737 00e7 76616C75 		.ascii	"value\000"
 2737      6500
 2738              	.LASF4:
 2739 00ed 756E7369 		.ascii	"unsigned int\000"
 2739      676E6564 
 2739      20696E74 
 2739      00
ARM GAS  C:\Users\gravi\AppData\Local\Temp\ccByFLrk.s 			page 60


 2740              	.LASF53:
 2741 00fa 6E756D42 		.ascii	"numBytes\000"
 2741      79746573 
 2741      00
 2742              	.LASF55:
 2743 0103 2E5C4765 		.ascii	".\\Generated_Source\\PSoC5\\cyfitter_cfg.c\000"
 2743      6E657261 
 2743      7465645F 
 2743      536F7572 
 2743      63655C50 
 2744              	.LASF9:
 2745 012b 6C6F6E67 		.ascii	"long unsigned int\000"
 2745      20756E73 
 2745      69676E65 
 2745      6420696E 
 2745      7400
 2746              	.LASF35:
 2747 013d 74696D65 		.ascii	"timeout\000"
 2747      6F757400 
 2748              	.LASF48:
 2749 0145 6366675F 		.ascii	"cfg_memcpy_t\000"
 2749      6D656D63 
 2749      70795F74 
 2749      00
 2750              	.LASF29:
 2751 0152 6366675F 		.ascii	"cfg_write_bytes32\000"
 2751      77726974 
 2751      655F6279 
 2751      74657333 
 2751      3200
 2752              	.LASF46:
 2753 0164 73697A65 		.ascii	"size\000"
 2753      00
 2754              	.LASF3:
 2755 0169 73686F72 		.ascii	"short unsigned int\000"
 2755      7420756E 
 2755      7369676E 
 2755      65642069 
 2755      6E7400
 2756              	.LASF15:
 2757 017c 696E7438 		.ascii	"int8\000"
 2757      00
 2758              	.LASF26:
 2759 0181 4359434F 		.ascii	"CYCONFIGCPYCODE\000"
 2759      4E464947 
 2759      43505943 
 2759      4F444500 
 2760              	.LASF8:
 2761 0191 73697A65 		.ascii	"sizetype\000"
 2761      74797065 
 2761      00
 2762              	.LASF56:
 2763 019a 443A5C5F 		.ascii	"D:\\_GITHUB repos\\Squit-HW0.0\\Squit-Proto.cydsn\000"
 2763      47495448 
 2763      55422072 
 2763      65706F73 
 2763      5C537175 
ARM GAS  C:\Users\gravi\AppData\Local\Temp\ccByFLrk.s 			page 61


 2764              	.LASF38:
 2765 01c9 62675F78 		.ascii	"bg_xover_inl_trim\000"
 2765      6F766572 
 2765      5F696E6C 
 2765      5F747269 
 2765      6D00
 2766              	.LASF47:
 2767 01db 6366675F 		.ascii	"cfg_memset_t\000"
 2767      6D656D73 
 2767      65745F74 
 2767      00
 2768              	.LASF49:
 2769 01e8 6366675F 		.ascii	"cfg_memset_list\000"
 2769      6D656D73 
 2769      65745F6C 
 2769      69737400 
 2770              	.LASF25:
 2771 01f8 64657374 		.ascii	"dest\000"
 2771      00
 2772              	.LASF41:
 2773 01fd 414D7578 		.ascii	"AMuxSeq_DisconnectAll\000"
 2773      5365715F 
 2773      44697363 
 2773      6F6E6E65 
 2773      6374416C 
 2774              	.LASF16:
 2775 0213 666C6F61 		.ascii	"float\000"
 2775      7400
 2776              	.LASF51:
 2777 0219 64657374 		.ascii	"destPtr\000"
 2777      50747200 
 2778              	.LASF54:
 2779 0221 474E5520 		.ascii	"GNU C 4.7.3 20130312 (release) [ARM/embedded-4_7-br"
 2779      4320342E 
 2779      372E3320 
 2779      32303133 
 2779      30333132 
 2780 0254 616E6368 		.ascii	"anch revision 196615]\000"
 2780      20726576 
 2780      6973696F 
 2780      6E203139 
 2780      36363135 
 2781              	.LASF18:
 2782 026a 72656738 		.ascii	"reg8\000"
 2782      00
 2783              	.LASF1:
 2784 026f 756E7369 		.ascii	"unsigned char\000"
 2784      676E6564 
 2784      20636861 
 2784      7200
 2785              	.LASF2:
 2786 027d 73686F72 		.ascii	"short int\000"
 2786      7420696E 
 2786      7400
 2787              	.LASF36:
 2788 0287 706C6C4C 		.ascii	"pllLock\000"
 2788      6F636B00 
ARM GAS  C:\Users\gravi\AppData\Local\Temp\ccByFLrk.s 			page 62


 2789              	.LASF22:
 2790 028f 63795F63 		.ascii	"cy_cfg_addrvalue_t\000"
 2790      66675F61 
 2790      64647276 
 2790      616C7565 
 2790      5F7400
 2791              	.LASF10:
 2792 02a2 63686172 		.ascii	"char\000"
 2792      00
 2793              	.LASF52:
 2794 02a7 73726350 		.ascii	"srcPtr\000"
 2794      747200
 2795              	.LASF43:
 2796 02ae 53657441 		.ascii	"SetAnalogRoutingPumps\000"
 2796      6E616C6F 
 2796      67526F75 
 2796      74696E67 
 2796      50756D70 
 2797              	.LASF42:
 2798 02c4 414D7578 		.ascii	"AMuxSeq_Next\000"
 2798      5365715F 
 2798      4E657874 
 2798      00
 2799              	.LASF20:
 2800 02d1 6F666673 		.ascii	"offset\000"
 2800      657400
 2801              	.LASF39:
 2802 02d8 656E6162 		.ascii	"enabled\000"
 2802      6C656400 
 2803              	.LASF24:
 2804 02e0 4359434F 		.ascii	"CYCONFIGCPY\000"
 2804      4E464947 
 2804      43505900 
 2805              	.LASF45:
 2806 02ec 61646472 		.ascii	"address\000"
 2806      65737300 
 2807              	.LASF50:
 2808 02f4 6366675F 		.ascii	"cfg_memcpy_list\000"
 2808      6D656D63 
 2808      70795F6C 
 2808      69737400 
 2809              	.LASF44:
 2810 0304 63796669 		.ascii	"cyfitter_cfg\000"
 2810      74746572 
 2810      5F636667 
 2810      00
 2811              		.ident	"GCC: (GNU Tools for ARM Embedded Processors) 4.7.3 20130312 (release) [ARM/embedded-4_7-br
