ARM GAS  C:\Users\gravi\AppData\Local\Temp\ccByFLrk.s 			page 1


   1              		.syntax unified
   2              		.cpu cortex-m3
   3              		.fpu softvfp
   4              		.eabi_attribute 20, 1
   5              		.eabi_attribute 21, 1
   6              		.eabi_attribute 23, 3
   7              		.eabi_attribute 24, 1
   8              		.eabi_attribute 25, 1
   9              		.eabi_attribute 26, 1
  10              		.eabi_attribute 30, 6
  11              		.eabi_attribute 34, 1
  12              		.eabi_attribute 18, 4
  13              		.thumb
  14              		.file	"cyfitter_cfg.c"
  15              		.text
  16              	.Ltext0:
  17              		.cfi_sections	.debug_frame
  18              		.section	.text.CYMEMZERO,"ax",%progbits
  19              		.align	2
  20              		.thumb
  21              		.thumb_func
  22              		.type	CYMEMZERO, %function
  23              	CYMEMZERO:
  24              	.LFB0:
  25              		.file 1 ".\\Generated_Source\\PSoC5\\cyfitter_cfg.c"
   1:.\Generated_Source\PSoC5/cyfitter_cfg.c **** /*******************************************************************************
   2:.\Generated_Source\PSoC5/cyfitter_cfg.c **** * FILENAME: cyfitter_cfg.c
   3:.\Generated_Source\PSoC5/cyfitter_cfg.c **** * PSoC Creator 3.0 SP2
   4:.\Generated_Source\PSoC5/cyfitter_cfg.c **** *
   5:.\Generated_Source\PSoC5/cyfitter_cfg.c **** * Description:
   6:.\Generated_Source\PSoC5/cyfitter_cfg.c **** * This file is automatically generated by PSoC Creator with device 
   7:.\Generated_Source\PSoC5/cyfitter_cfg.c **** * initialization code.  Except for the user defined sections in
   8:.\Generated_Source\PSoC5/cyfitter_cfg.c **** * CyClockStartupError(), this file should not be modified.
   9:.\Generated_Source\PSoC5/cyfitter_cfg.c **** *
  10:.\Generated_Source\PSoC5/cyfitter_cfg.c **** ********************************************************************************
  11:.\Generated_Source\PSoC5/cyfitter_cfg.c **** * Copyright 2013, Cypress Semiconductor Corporation.  All rights reserved.
  12:.\Generated_Source\PSoC5/cyfitter_cfg.c **** * You may use this file only in accordance with the license, terms, conditions, 
  13:.\Generated_Source\PSoC5/cyfitter_cfg.c **** * disclaimers, and limitations in the end user license agreement accompanying 
  14:.\Generated_Source\PSoC5/cyfitter_cfg.c **** * the software package with which this file was provided.
  15:.\Generated_Source\PSoC5/cyfitter_cfg.c **** ********************************************************************************/
  16:.\Generated_Source\PSoC5/cyfitter_cfg.c **** 
  17:.\Generated_Source\PSoC5/cyfitter_cfg.c **** #include <string.h>
  18:.\Generated_Source\PSoC5/cyfitter_cfg.c **** #include <cytypes.h>
  19:.\Generated_Source\PSoC5/cyfitter_cfg.c **** #include <cydevice_trm.h>
  20:.\Generated_Source\PSoC5/cyfitter_cfg.c **** #include <cyfitter.h>
  21:.\Generated_Source\PSoC5/cyfitter_cfg.c **** #include <CyLib.h>
  22:.\Generated_Source\PSoC5/cyfitter_cfg.c **** #include <cyfitter_cfg.h>
  23:.\Generated_Source\PSoC5/cyfitter_cfg.c **** 
  24:.\Generated_Source\PSoC5/cyfitter_cfg.c **** #define CY_NEED_CYCLOCKSTARTUPERROR 1
  25:.\Generated_Source\PSoC5/cyfitter_cfg.c **** 
  26:.\Generated_Source\PSoC5/cyfitter_cfg.c **** 
  27:.\Generated_Source\PSoC5/cyfitter_cfg.c **** #if defined(__GNUC__) || defined(__ARMCC_VERSION)
  28:.\Generated_Source\PSoC5/cyfitter_cfg.c ****     #define CYPACKED 
  29:.\Generated_Source\PSoC5/cyfitter_cfg.c ****     #define CYPACKED_ATTR __attribute__ ((packed))
  30:.\Generated_Source\PSoC5/cyfitter_cfg.c ****     #define CYALIGNED __attribute__ ((aligned))
  31:.\Generated_Source\PSoC5/cyfitter_cfg.c ****     #define CY_CFG_UNUSED __attribute__ ((unused))
  32:.\Generated_Source\PSoC5/cyfitter_cfg.c ****     #define CY_CFG_SECTION __attribute__ ((section(".psocinit")))
ARM GAS  C:\Users\gravi\AppData\Local\Temp\ccByFLrk.s 			page 2


  33:.\Generated_Source\PSoC5/cyfitter_cfg.c ****     
  34:.\Generated_Source\PSoC5/cyfitter_cfg.c ****     #if defined(__ARMCC_VERSION)
  35:.\Generated_Source\PSoC5/cyfitter_cfg.c ****         #define CY_CFG_MEMORY_BARRIER() __memory_changed()
  36:.\Generated_Source\PSoC5/cyfitter_cfg.c ****     #else
  37:.\Generated_Source\PSoC5/cyfitter_cfg.c ****         #define CY_CFG_MEMORY_BARRIER() __sync_synchronize()
  38:.\Generated_Source\PSoC5/cyfitter_cfg.c ****     #endif
  39:.\Generated_Source\PSoC5/cyfitter_cfg.c ****     
  40:.\Generated_Source\PSoC5/cyfitter_cfg.c **** #elif defined(__ICCARM__)
  41:.\Generated_Source\PSoC5/cyfitter_cfg.c ****     #include <intrinsics.h>
  42:.\Generated_Source\PSoC5/cyfitter_cfg.c **** 
  43:.\Generated_Source\PSoC5/cyfitter_cfg.c ****     #define CYPACKED __packed
  44:.\Generated_Source\PSoC5/cyfitter_cfg.c ****     #define CYPACKED_ATTR 
  45:.\Generated_Source\PSoC5/cyfitter_cfg.c ****     #define CYALIGNED _Pragma("data_alignment=4")
  46:.\Generated_Source\PSoC5/cyfitter_cfg.c ****     #define CY_CFG_UNUSED _Pragma("diag_suppress=Pe177")
  47:.\Generated_Source\PSoC5/cyfitter_cfg.c ****     #define CY_CFG_SECTION _Pragma("location=\".psocinit\"")
  48:.\Generated_Source\PSoC5/cyfitter_cfg.c ****     
  49:.\Generated_Source\PSoC5/cyfitter_cfg.c ****     #define CY_CFG_MEMORY_BARRIER() __DMB()
  50:.\Generated_Source\PSoC5/cyfitter_cfg.c ****     
  51:.\Generated_Source\PSoC5/cyfitter_cfg.c **** #else
  52:.\Generated_Source\PSoC5/cyfitter_cfg.c ****     #error Unsupported toolchain
  53:.\Generated_Source\PSoC5/cyfitter_cfg.c **** #endif
  54:.\Generated_Source\PSoC5/cyfitter_cfg.c **** 
  55:.\Generated_Source\PSoC5/cyfitter_cfg.c **** 
  56:.\Generated_Source\PSoC5/cyfitter_cfg.c **** CY_CFG_UNUSED
  57:.\Generated_Source\PSoC5/cyfitter_cfg.c **** static void CYMEMZERO(void *s, size_t n);
  58:.\Generated_Source\PSoC5/cyfitter_cfg.c **** CY_CFG_UNUSED
  59:.\Generated_Source\PSoC5/cyfitter_cfg.c **** static void CYMEMZERO(void *s, size_t n)
  60:.\Generated_Source\PSoC5/cyfitter_cfg.c **** {
  26              		.loc 1 60 0
  27              		.cfi_startproc
  28              		@ args = 0, pretend = 0, frame = 8
  29              		@ frame_needed = 1, uses_anonymous_args = 0
  30 0000 80B5     		push	{r7, lr}
  31              	.LCFI0:
  32              		.cfi_def_cfa_offset 8
  33              		.cfi_offset 7, -8
  34              		.cfi_offset 14, -4
  35 0002 82B0     		sub	sp, sp, #8
  36              	.LCFI1:
  37              		.cfi_def_cfa_offset 16
  38 0004 00AF     		add	r7, sp, #0
  39              	.LCFI2:
  40              		.cfi_def_cfa_register 7
  41 0006 7860     		str	r0, [r7, #4]
  42 0008 3960     		str	r1, [r7, #0]
  61:.\Generated_Source\PSoC5/cyfitter_cfg.c **** 	(void)memset(s, 0, n);
  43              		.loc 1 61 0
  44 000a 7868     		ldr	r0, [r7, #4]
  45 000c 4FF00001 		mov	r1, #0
  46 0010 3A68     		ldr	r2, [r7, #0]
  47 0012 FFF7FEFF 		bl	memset
  62:.\Generated_Source\PSoC5/cyfitter_cfg.c **** }
  48              		.loc 1 62 0
  49 0016 07F10807 		add	r7, r7, #8
  50 001a BD46     		mov	sp, r7
  51 001c 80BD     		pop	{r7, pc}
  52              		.cfi_endproc
ARM GAS  C:\Users\gravi\AppData\Local\Temp\ccByFLrk.s 			page 3


  53              	.LFE0:
  54              		.size	CYMEMZERO, .-CYMEMZERO
  55 001e 00BF     		.section	.text.CYCONFIGCPY,"ax",%progbits
  56              		.align	2
  57              		.thumb
  58              		.thumb_func
  59              		.type	CYCONFIGCPY, %function
  60              	CYCONFIGCPY:
  61              	.LFB1:
  63:.\Generated_Source\PSoC5/cyfitter_cfg.c **** CY_CFG_UNUSED
  64:.\Generated_Source\PSoC5/cyfitter_cfg.c **** static void CYCONFIGCPY(void *dest, const void *src, size_t n);
  65:.\Generated_Source\PSoC5/cyfitter_cfg.c **** CY_CFG_UNUSED
  66:.\Generated_Source\PSoC5/cyfitter_cfg.c **** static void CYCONFIGCPY(void *dest, const void *src, size_t n)
  67:.\Generated_Source\PSoC5/cyfitter_cfg.c **** {
  62              		.loc 1 67 0
  63              		.cfi_startproc
  64              		@ args = 0, pretend = 0, frame = 16
  65              		@ frame_needed = 1, uses_anonymous_args = 0
  66 0000 80B5     		push	{r7, lr}
  67              	.LCFI3:
  68              		.cfi_def_cfa_offset 8
  69              		.cfi_offset 7, -8
  70              		.cfi_offset 14, -4
  71 0002 84B0     		sub	sp, sp, #16
  72              	.LCFI4:
  73              		.cfi_def_cfa_offset 24
  74 0004 00AF     		add	r7, sp, #0
  75              	.LCFI5:
  76              		.cfi_def_cfa_register 7
  77 0006 F860     		str	r0, [r7, #12]
  78 0008 B960     		str	r1, [r7, #8]
  79 000a 7A60     		str	r2, [r7, #4]
  68:.\Generated_Source\PSoC5/cyfitter_cfg.c **** 	(void)memcpy(dest, src, n);
  80              		.loc 1 68 0
  81 000c F868     		ldr	r0, [r7, #12]
  82 000e B968     		ldr	r1, [r7, #8]
  83 0010 7A68     		ldr	r2, [r7, #4]
  84 0012 FFF7FEFF 		bl	memcpy
  69:.\Generated_Source\PSoC5/cyfitter_cfg.c **** }
  85              		.loc 1 69 0
  86 0016 07F11007 		add	r7, r7, #16
  87 001a BD46     		mov	sp, r7
  88 001c 80BD     		pop	{r7, pc}
  89              		.cfi_endproc
  90              	.LFE1:
  91              		.size	CYCONFIGCPY, .-CYCONFIGCPY
  92 001e 00BF     		.section	.text.CYCONFIGCPYCODE,"ax",%progbits
  93              		.align	2
  94              		.thumb
  95              		.thumb_func
  96              		.type	CYCONFIGCPYCODE, %function
  97              	CYCONFIGCPYCODE:
  98              	.LFB2:
  70:.\Generated_Source\PSoC5/cyfitter_cfg.c **** CY_CFG_UNUSED
  71:.\Generated_Source\PSoC5/cyfitter_cfg.c **** static void CYCONFIGCPYCODE(void *dest, const void *src, size_t n);
  72:.\Generated_Source\PSoC5/cyfitter_cfg.c **** CY_CFG_UNUSED
  73:.\Generated_Source\PSoC5/cyfitter_cfg.c **** static void CYCONFIGCPYCODE(void *dest, const void *src, size_t n)
ARM GAS  C:\Users\gravi\AppData\Local\Temp\ccByFLrk.s 			page 4


  74:.\Generated_Source\PSoC5/cyfitter_cfg.c **** {
  99              		.loc 1 74 0
 100              		.cfi_startproc
 101              		@ args = 0, pretend = 0, frame = 16
 102              		@ frame_needed = 1, uses_anonymous_args = 0
 103 0000 80B5     		push	{r7, lr}
 104              	.LCFI6:
 105              		.cfi_def_cfa_offset 8
 106              		.cfi_offset 7, -8
 107              		.cfi_offset 14, -4
 108 0002 84B0     		sub	sp, sp, #16
 109              	.LCFI7:
 110              		.cfi_def_cfa_offset 24
 111 0004 00AF     		add	r7, sp, #0
 112              	.LCFI8:
 113              		.cfi_def_cfa_register 7
 114 0006 F860     		str	r0, [r7, #12]
 115 0008 B960     		str	r1, [r7, #8]
 116 000a 7A60     		str	r2, [r7, #4]
  75:.\Generated_Source\PSoC5/cyfitter_cfg.c **** 	(void)memcpy(dest, src, n);
 117              		.loc 1 75 0
 118 000c F868     		ldr	r0, [r7, #12]
 119 000e B968     		ldr	r1, [r7, #8]
 120 0010 7A68     		ldr	r2, [r7, #4]
 121 0012 FFF7FEFF 		bl	memcpy
  76:.\Generated_Source\PSoC5/cyfitter_cfg.c **** }
 122              		.loc 1 76 0
 123 0016 07F11007 		add	r7, r7, #16
 124 001a BD46     		mov	sp, r7
 125 001c 80BD     		pop	{r7, pc}
 126              		.cfi_endproc
 127              	.LFE2:
 128              		.size	CYCONFIGCPYCODE, .-CYCONFIGCPYCODE
 129 001e 00BF     		.section	.text.CyClockStartupError,"ax",%progbits
 130              		.align	2
 131              		.thumb
 132              		.thumb_func
 133              		.type	CyClockStartupError, %function
 134              	CyClockStartupError:
 135              	.LFB3:
  77:.\Generated_Source\PSoC5/cyfitter_cfg.c **** 
  78:.\Generated_Source\PSoC5/cyfitter_cfg.c **** 
  79:.\Generated_Source\PSoC5/cyfitter_cfg.c **** 
  80:.\Generated_Source\PSoC5/cyfitter_cfg.c **** /* Clock startup error codes                                                   */
  81:.\Generated_Source\PSoC5/cyfitter_cfg.c **** #define CYCLOCKSTART_NO_ERROR    0u
  82:.\Generated_Source\PSoC5/cyfitter_cfg.c **** #define CYCLOCKSTART_XTAL_ERROR  1u
  83:.\Generated_Source\PSoC5/cyfitter_cfg.c **** #define CYCLOCKSTART_32KHZ_ERROR 2u
  84:.\Generated_Source\PSoC5/cyfitter_cfg.c **** #define CYCLOCKSTART_PLL_ERROR   3u
  85:.\Generated_Source\PSoC5/cyfitter_cfg.c **** 
  86:.\Generated_Source\PSoC5/cyfitter_cfg.c **** #ifdef CY_NEED_CYCLOCKSTARTUPERROR
  87:.\Generated_Source\PSoC5/cyfitter_cfg.c **** /*******************************************************************************
  88:.\Generated_Source\PSoC5/cyfitter_cfg.c **** * Function Name: CyClockStartupError
  89:.\Generated_Source\PSoC5/cyfitter_cfg.c **** ********************************************************************************
  90:.\Generated_Source\PSoC5/cyfitter_cfg.c **** * Summary:
  91:.\Generated_Source\PSoC5/cyfitter_cfg.c **** *  If an error is encountered during clock configuration (crystal startup error,
  92:.\Generated_Source\PSoC5/cyfitter_cfg.c **** *  PLL lock error, etc.), the system will end up here.  Unless reimplemented by
  93:.\Generated_Source\PSoC5/cyfitter_cfg.c **** *  the customer, this function will stop in an infinite loop.
ARM GAS  C:\Users\gravi\AppData\Local\Temp\ccByFLrk.s 			page 5


  94:.\Generated_Source\PSoC5/cyfitter_cfg.c **** *
  95:.\Generated_Source\PSoC5/cyfitter_cfg.c **** * Parameters:
  96:.\Generated_Source\PSoC5/cyfitter_cfg.c **** *   void
  97:.\Generated_Source\PSoC5/cyfitter_cfg.c **** *
  98:.\Generated_Source\PSoC5/cyfitter_cfg.c **** * Return:
  99:.\Generated_Source\PSoC5/cyfitter_cfg.c **** *   void
 100:.\Generated_Source\PSoC5/cyfitter_cfg.c **** *
 101:.\Generated_Source\PSoC5/cyfitter_cfg.c **** *******************************************************************************/
 102:.\Generated_Source\PSoC5/cyfitter_cfg.c **** CY_CFG_UNUSED
 103:.\Generated_Source\PSoC5/cyfitter_cfg.c **** static void CyClockStartupError(uint8 errorCode);
 104:.\Generated_Source\PSoC5/cyfitter_cfg.c **** CY_CFG_UNUSED
 105:.\Generated_Source\PSoC5/cyfitter_cfg.c **** static void CyClockStartupError(uint8 errorCode)
 106:.\Generated_Source\PSoC5/cyfitter_cfg.c **** {
 136              		.loc 1 106 0
 137              		.cfi_startproc
 138              		@ args = 0, pretend = 0, frame = 8
 139              		@ frame_needed = 1, uses_anonymous_args = 0
 140              		@ link register save eliminated.
 141 0000 80B4     		push	{r7}
 142              	.LCFI9:
 143              		.cfi_def_cfa_offset 4
 144              		.cfi_offset 7, -4
 145 0002 83B0     		sub	sp, sp, #12
 146              	.LCFI10:
 147              		.cfi_def_cfa_offset 16
 148 0004 00AF     		add	r7, sp, #0
 149              	.LCFI11:
 150              		.cfi_def_cfa_register 7
 151 0006 0346     		mov	r3, r0
 152 0008 FB71     		strb	r3, [r7, #7]
 153              	.L5:
 107:.\Generated_Source\PSoC5/cyfitter_cfg.c ****     /* To remove the compiler warning if errorCode not used.                */
 108:.\Generated_Source\PSoC5/cyfitter_cfg.c ****     errorCode = errorCode;
 109:.\Generated_Source\PSoC5/cyfitter_cfg.c **** 
 110:.\Generated_Source\PSoC5/cyfitter_cfg.c ****     /* `#START CyClockStartupError` */
 111:.\Generated_Source\PSoC5/cyfitter_cfg.c **** 
 112:.\Generated_Source\PSoC5/cyfitter_cfg.c ****     /* If we have a clock startup error (bad MHz crystal, PLL lock, etc.),  */
 113:.\Generated_Source\PSoC5/cyfitter_cfg.c ****     /* we will end up here to allow the customer to implement something to  */
 114:.\Generated_Source\PSoC5/cyfitter_cfg.c ****     /* deal with the clock condition.                                       */
 115:.\Generated_Source\PSoC5/cyfitter_cfg.c **** 
 116:.\Generated_Source\PSoC5/cyfitter_cfg.c ****     /* `#END` */
 117:.\Generated_Source\PSoC5/cyfitter_cfg.c **** 
 118:.\Generated_Source\PSoC5/cyfitter_cfg.c ****     /* If nothing else, stop here since the clocks have not started         */
 119:.\Generated_Source\PSoC5/cyfitter_cfg.c ****     /* correctly.                                                           */
 120:.\Generated_Source\PSoC5/cyfitter_cfg.c ****     while(1) {}
 154              		.loc 1 120 0 discriminator 1
 155 000a FEE7     		b	.L5
 156              		.cfi_endproc
 157              	.LFE3:
 158              		.size	CyClockStartupError, .-CyClockStartupError
 159              		.section	.text.cfg_write_bytes32,"ax",%progbits
 160              		.align	2
 161              		.thumb
 162              		.thumb_func
 163              		.type	cfg_write_bytes32, %function
 164              	cfg_write_bytes32:
 165              	.LFB4:
ARM GAS  C:\Users\gravi\AppData\Local\Temp\ccByFLrk.s 			page 6


 121:.\Generated_Source\PSoC5/cyfitter_cfg.c **** }
 122:.\Generated_Source\PSoC5/cyfitter_cfg.c **** #endif
 123:.\Generated_Source\PSoC5/cyfitter_cfg.c **** 
 124:.\Generated_Source\PSoC5/cyfitter_cfg.c **** #define CY_CFG_BASE_ADDR_COUNT 40u
 125:.\Generated_Source\PSoC5/cyfitter_cfg.c **** CYPACKED typedef struct
 126:.\Generated_Source\PSoC5/cyfitter_cfg.c **** {
 127:.\Generated_Source\PSoC5/cyfitter_cfg.c **** 	uint8 offset;
 128:.\Generated_Source\PSoC5/cyfitter_cfg.c **** 	uint8 value;
 129:.\Generated_Source\PSoC5/cyfitter_cfg.c **** } CYPACKED_ATTR cy_cfg_addrvalue_t;
 130:.\Generated_Source\PSoC5/cyfitter_cfg.c **** 
 131:.\Generated_Source\PSoC5/cyfitter_cfg.c **** #define cy_cfg_addr_table ((const uint32 CYFAR *)0x48000000u)
 132:.\Generated_Source\PSoC5/cyfitter_cfg.c **** #define cy_cfg_data_table ((const cy_cfg_addrvalue_t CYFAR *)0x480000A0u)
 133:.\Generated_Source\PSoC5/cyfitter_cfg.c **** 
 134:.\Generated_Source\PSoC5/cyfitter_cfg.c **** /* IOPORT_7 Address: CYDEV_PRTDSI_PRT12_BASE Size (bytes): 6 */
 135:.\Generated_Source\PSoC5/cyfitter_cfg.c **** #define BS_IOPORT_7_VAL ((const uint8 CYFAR *)0x48000C4Cu)
 136:.\Generated_Source\PSoC5/cyfitter_cfg.c **** 
 137:.\Generated_Source\PSoC5/cyfitter_cfg.c **** /* IDMUX_IRQ Address: CYREG_IDMUX_IRQ_CTL0 Size (bytes): 8 */
 138:.\Generated_Source\PSoC5/cyfitter_cfg.c **** #define BS_IDMUX_IRQ_VAL ((const uint8 CYFAR *)0x48000C54u)
 139:.\Generated_Source\PSoC5/cyfitter_cfg.c **** 
 140:.\Generated_Source\PSoC5/cyfitter_cfg.c **** /* UDB_1_5_1_CONFIG Address: CYDEV_UCFG_B0_P0_U1_BASE Size (bytes): 128 */
 141:.\Generated_Source\PSoC5/cyfitter_cfg.c **** #define BS_UDB_1_5_1_CONFIG_VAL ((const uint8 CYFAR *)0x48000C5Cu)
 142:.\Generated_Source\PSoC5/cyfitter_cfg.c **** 
 143:.\Generated_Source\PSoC5/cyfitter_cfg.c **** /* UCFG_BCTL0 Address: CYREG_BCTL0_MDCLK_EN Size (bytes): 16 */
 144:.\Generated_Source\PSoC5/cyfitter_cfg.c **** #define BS_UCFG_BCTL0_VAL ((const uint8 CYFAR *)0x48000CDCu)
 145:.\Generated_Source\PSoC5/cyfitter_cfg.c **** 
 146:.\Generated_Source\PSoC5/cyfitter_cfg.c **** /* IOPINS0_0 Address: CYREG_PRT0_DM0 Size (bytes): 8 */
 147:.\Generated_Source\PSoC5/cyfitter_cfg.c **** #define BS_IOPINS0_0_VAL ((const uint8 CYFAR *)0x48000CECu)
 148:.\Generated_Source\PSoC5/cyfitter_cfg.c **** 
 149:.\Generated_Source\PSoC5/cyfitter_cfg.c **** /* IOPINS0_7 Address: CYREG_PRT12_DM0 Size (bytes): 8 */
 150:.\Generated_Source\PSoC5/cyfitter_cfg.c **** #define BS_IOPINS0_7_VAL ((const uint8 CYFAR *)0x48000CF4u)
 151:.\Generated_Source\PSoC5/cyfitter_cfg.c **** 
 152:.\Generated_Source\PSoC5/cyfitter_cfg.c **** /* IOPINS0_8 Address: CYREG_PRT15_DM0 Size (bytes): 8 */
 153:.\Generated_Source\PSoC5/cyfitter_cfg.c **** #define BS_IOPINS0_8_VAL ((const uint8 CYFAR *)0x48000CFCu)
 154:.\Generated_Source\PSoC5/cyfitter_cfg.c **** 
 155:.\Generated_Source\PSoC5/cyfitter_cfg.c **** /* IOPINS0_1 Address: CYREG_PRT1_DM0 Size (bytes): 8 */
 156:.\Generated_Source\PSoC5/cyfitter_cfg.c **** #define BS_IOPINS0_1_VAL ((const uint8 CYFAR *)0x48000D04u)
 157:.\Generated_Source\PSoC5/cyfitter_cfg.c **** 
 158:.\Generated_Source\PSoC5/cyfitter_cfg.c **** /* IOPINS0_2 Address: CYREG_PRT2_DM0 Size (bytes): 8 */
 159:.\Generated_Source\PSoC5/cyfitter_cfg.c **** #define BS_IOPINS0_2_VAL ((const uint8 CYFAR *)0x48000D0Cu)
 160:.\Generated_Source\PSoC5/cyfitter_cfg.c **** 
 161:.\Generated_Source\PSoC5/cyfitter_cfg.c **** /* IOPINS0_3 Address: CYREG_PRT3_DM0 Size (bytes): 8 */
 162:.\Generated_Source\PSoC5/cyfitter_cfg.c **** #define BS_IOPINS0_3_VAL ((const uint8 CYFAR *)0x48000D14u)
 163:.\Generated_Source\PSoC5/cyfitter_cfg.c **** 
 164:.\Generated_Source\PSoC5/cyfitter_cfg.c **** /* IOPINS0_4 Address: CYREG_PRT4_DR Size (bytes): 10 */
 165:.\Generated_Source\PSoC5/cyfitter_cfg.c **** #define BS_IOPINS0_4_VAL ((const uint8 CYFAR *)0x48000D1Cu)
 166:.\Generated_Source\PSoC5/cyfitter_cfg.c **** 
 167:.\Generated_Source\PSoC5/cyfitter_cfg.c **** /* IOPINS0_5 Address: CYREG_PRT5_DM0 Size (bytes): 8 */
 168:.\Generated_Source\PSoC5/cyfitter_cfg.c **** #define BS_IOPINS0_5_VAL ((const uint8 CYFAR *)0x48000D28u)
 169:.\Generated_Source\PSoC5/cyfitter_cfg.c **** 
 170:.\Generated_Source\PSoC5/cyfitter_cfg.c **** /* IOPINS0_6 Address: CYREG_PRT6_DM0 Size (bytes): 8 */
 171:.\Generated_Source\PSoC5/cyfitter_cfg.c **** #define BS_IOPINS0_6_VAL ((const uint8 CYFAR *)0x48000D30u)
 172:.\Generated_Source\PSoC5/cyfitter_cfg.c **** 
 173:.\Generated_Source\PSoC5/cyfitter_cfg.c **** /* CYDEV_CLKDIST_ACFG0_CFG0 Address: CYREG_CLKDIST_ACFG0_CFG0 Size (bytes): 8 */
 174:.\Generated_Source\PSoC5/cyfitter_cfg.c **** #define BS_CYDEV_CLKDIST_ACFG0_CFG0_VAL ((const uint8 CYFAR *)0x48000D38u)
 175:.\Generated_Source\PSoC5/cyfitter_cfg.c **** 
 176:.\Generated_Source\PSoC5/cyfitter_cfg.c **** 
 177:.\Generated_Source\PSoC5/cyfitter_cfg.c **** /*******************************************************************************
ARM GAS  C:\Users\gravi\AppData\Local\Temp\ccByFLrk.s 			page 7


 178:.\Generated_Source\PSoC5/cyfitter_cfg.c **** * Function Name: cfg_write_bytes32
 179:.\Generated_Source\PSoC5/cyfitter_cfg.c **** ********************************************************************************
 180:.\Generated_Source\PSoC5/cyfitter_cfg.c **** * Summary:
 181:.\Generated_Source\PSoC5/cyfitter_cfg.c **** *  This function is used for setting up the chip configuration areas that
 182:.\Generated_Source\PSoC5/cyfitter_cfg.c **** *  contain relatively sparse data.
 183:.\Generated_Source\PSoC5/cyfitter_cfg.c **** *
 184:.\Generated_Source\PSoC5/cyfitter_cfg.c **** * Parameters:
 185:.\Generated_Source\PSoC5/cyfitter_cfg.c **** *   void
 186:.\Generated_Source\PSoC5/cyfitter_cfg.c **** *
 187:.\Generated_Source\PSoC5/cyfitter_cfg.c **** * Return:
 188:.\Generated_Source\PSoC5/cyfitter_cfg.c **** *   void
 189:.\Generated_Source\PSoC5/cyfitter_cfg.c **** *
 190:.\Generated_Source\PSoC5/cyfitter_cfg.c **** *******************************************************************************/
 191:.\Generated_Source\PSoC5/cyfitter_cfg.c **** static void cfg_write_bytes32(const uint32 addr_table[], const cy_cfg_addrvalue_t data_table[]);
 192:.\Generated_Source\PSoC5/cyfitter_cfg.c **** static void cfg_write_bytes32(const uint32 addr_table[], const cy_cfg_addrvalue_t data_table[])
 193:.\Generated_Source\PSoC5/cyfitter_cfg.c **** {
 166              		.loc 1 193 0
 167              		.cfi_startproc
 168              		@ args = 0, pretend = 0, frame = 24
 169              		@ frame_needed = 1, uses_anonymous_args = 0
 170              		@ link register save eliminated.
 171 0000 80B4     		push	{r7}
 172              	.LCFI12:
 173              		.cfi_def_cfa_offset 4
 174              		.cfi_offset 7, -4
 175 0002 87B0     		sub	sp, sp, #28
 176              	.LCFI13:
 177              		.cfi_def_cfa_offset 32
 178 0004 00AF     		add	r7, sp, #0
 179              	.LCFI14:
 180              		.cfi_def_cfa_register 7
 181 0006 7860     		str	r0, [r7, #4]
 182 0008 3960     		str	r1, [r7, #0]
 194:.\Generated_Source\PSoC5/cyfitter_cfg.c **** 	/* For 32-bit little-endian architectures */
 195:.\Generated_Source\PSoC5/cyfitter_cfg.c **** 	uint32 i, j = 0u;
 183              		.loc 1 195 0
 184 000a 4FF00003 		mov	r3, #0
 185 000e 3B61     		str	r3, [r7, #16]
 196:.\Generated_Source\PSoC5/cyfitter_cfg.c **** 	for (i = 0u; i < CY_CFG_BASE_ADDR_COUNT; i++)
 186              		.loc 1 196 0
 187 0010 4FF00003 		mov	r3, #0
 188 0014 7B61     		str	r3, [r7, #20]
 189 0016 2CE0     		b	.L7
 190              	.L10:
 191              	.LBB2:
 197:.\Generated_Source\PSoC5/cyfitter_cfg.c **** 	{
 198:.\Generated_Source\PSoC5/cyfitter_cfg.c **** 		uint32 baseAddr = addr_table[i];
 192              		.loc 1 198 0
 193 0018 7B69     		ldr	r3, [r7, #20]
 194 001a 4FEA8303 		lsl	r3, r3, #2
 195 001e 7A68     		ldr	r2, [r7, #4]
 196 0020 D318     		adds	r3, r2, r3
 197 0022 1B68     		ldr	r3, [r3, #0]
 198 0024 BB60     		str	r3, [r7, #8]
 199:.\Generated_Source\PSoC5/cyfitter_cfg.c **** 		uint8 count = (uint8)baseAddr;
 199              		.loc 1 199 0
 200 0026 BB68     		ldr	r3, [r7, #8]
ARM GAS  C:\Users\gravi\AppData\Local\Temp\ccByFLrk.s 			page 8


 201 0028 FB73     		strb	r3, [r7, #15]
 200:.\Generated_Source\PSoC5/cyfitter_cfg.c **** 		baseAddr &= 0xFFFFFF00u;
 202              		.loc 1 200 0
 203 002a BB68     		ldr	r3, [r7, #8]
 204 002c 23F0FF03 		bic	r3, r3, #255
 205 0030 BB60     		str	r3, [r7, #8]
 201:.\Generated_Source\PSoC5/cyfitter_cfg.c **** 		while (count != 0u)
 206              		.loc 1 201 0
 207 0032 17E0     		b	.L8
 208              	.L9:
 202:.\Generated_Source\PSoC5/cyfitter_cfg.c **** 		{
 203:.\Generated_Source\PSoC5/cyfitter_cfg.c **** 			CY_SET_XTND_REG8((void CYFAR *)(baseAddr + data_table[j].offset), data_table[j].value);
 209              		.loc 1 203 0
 210 0034 3B69     		ldr	r3, [r7, #16]
 211 0036 4FEA4303 		lsl	r3, r3, #1
 212 003a 3A68     		ldr	r2, [r7, #0]
 213 003c D318     		adds	r3, r2, r3
 214 003e 1B78     		ldrb	r3, [r3, #0]	@ zero_extendqisi2
 215 0040 1A46     		mov	r2, r3
 216 0042 BB68     		ldr	r3, [r7, #8]
 217 0044 D318     		adds	r3, r2, r3
 218 0046 3A69     		ldr	r2, [r7, #16]
 219 0048 4FEA4202 		lsl	r2, r2, #1
 220 004c 3968     		ldr	r1, [r7, #0]
 221 004e 8A18     		adds	r2, r1, r2
 222 0050 5278     		ldrb	r2, [r2, #1]	@ zero_extendqisi2
 223 0052 1A70     		strb	r2, [r3, #0]
 204:.\Generated_Source\PSoC5/cyfitter_cfg.c **** 			j++;
 224              		.loc 1 204 0
 225 0054 3B69     		ldr	r3, [r7, #16]
 226 0056 03F10103 		add	r3, r3, #1
 227 005a 3B61     		str	r3, [r7, #16]
 205:.\Generated_Source\PSoC5/cyfitter_cfg.c **** 			count--;
 228              		.loc 1 205 0
 229 005c FB7B     		ldrb	r3, [r7, #15]
 230 005e 03F1FF33 		add	r3, r3, #-1
 231 0062 FB73     		strb	r3, [r7, #15]
 232              	.L8:
 201:.\Generated_Source\PSoC5/cyfitter_cfg.c **** 		while (count != 0u)
 233              		.loc 1 201 0 discriminator 1
 234 0064 FB7B     		ldrb	r3, [r7, #15]	@ zero_extendqisi2
 235 0066 002B     		cmp	r3, #0
 236 0068 E4D1     		bne	.L9
 237              	.LBE2:
 196:.\Generated_Source\PSoC5/cyfitter_cfg.c **** 	for (i = 0u; i < CY_CFG_BASE_ADDR_COUNT; i++)
 238              		.loc 1 196 0
 239 006a 7B69     		ldr	r3, [r7, #20]
 240 006c 03F10103 		add	r3, r3, #1
 241 0070 7B61     		str	r3, [r7, #20]
 242              	.L7:
 196:.\Generated_Source\PSoC5/cyfitter_cfg.c **** 	for (i = 0u; i < CY_CFG_BASE_ADDR_COUNT; i++)
 243              		.loc 1 196 0 is_stmt 0 discriminator 1
 244 0072 7B69     		ldr	r3, [r7, #20]
 245 0074 272B     		cmp	r3, #39
 246 0076 CFD9     		bls	.L10
 206:.\Generated_Source\PSoC5/cyfitter_cfg.c **** 		}
 207:.\Generated_Source\PSoC5/cyfitter_cfg.c **** 	}
ARM GAS  C:\Users\gravi\AppData\Local\Temp\ccByFLrk.s 			page 9


 208:.\Generated_Source\PSoC5/cyfitter_cfg.c **** }
 247              		.loc 1 208 0 is_stmt 1
 248 0078 07F11C07 		add	r7, r7, #28
 249 007c BD46     		mov	sp, r7
 250 007e 80BC     		pop	{r7}
 251 0080 7047     		bx	lr
 252              		.cfi_endproc
 253              	.LFE4:
 254              		.size	cfg_write_bytes32, .-cfg_write_bytes32
 255 0082 00BF     		.section	.text.ClockSetup,"ax",%progbits
 256              		.align	2
 257              		.thumb
 258              		.thumb_func
 259              		.type	ClockSetup, %function
 260              	ClockSetup:
 261              	.LFB5:
 209:.\Generated_Source\PSoC5/cyfitter_cfg.c **** 
 210:.\Generated_Source\PSoC5/cyfitter_cfg.c **** /*******************************************************************************
 211:.\Generated_Source\PSoC5/cyfitter_cfg.c **** * Function Name: ClockSetup
 212:.\Generated_Source\PSoC5/cyfitter_cfg.c **** ********************************************************************************
 213:.\Generated_Source\PSoC5/cyfitter_cfg.c **** *
 214:.\Generated_Source\PSoC5/cyfitter_cfg.c **** * Summary:
 215:.\Generated_Source\PSoC5/cyfitter_cfg.c **** *  Performs the initialization of all of the clocks in the device based on the
 216:.\Generated_Source\PSoC5/cyfitter_cfg.c **** *  settings in the Clock tab of the DWR.  This includes enabling the requested
 217:.\Generated_Source\PSoC5/cyfitter_cfg.c **** *  clocks and setting the necessary dividers to produce the desired frequency. 
 218:.\Generated_Source\PSoC5/cyfitter_cfg.c **** *
 219:.\Generated_Source\PSoC5/cyfitter_cfg.c **** * Parameters:
 220:.\Generated_Source\PSoC5/cyfitter_cfg.c **** *  void
 221:.\Generated_Source\PSoC5/cyfitter_cfg.c **** *
 222:.\Generated_Source\PSoC5/cyfitter_cfg.c **** * Return:
 223:.\Generated_Source\PSoC5/cyfitter_cfg.c **** *  void
 224:.\Generated_Source\PSoC5/cyfitter_cfg.c **** *
 225:.\Generated_Source\PSoC5/cyfitter_cfg.c **** *******************************************************************************/
 226:.\Generated_Source\PSoC5/cyfitter_cfg.c **** static void ClockSetup(void);
 227:.\Generated_Source\PSoC5/cyfitter_cfg.c **** static void ClockSetup(void)
 228:.\Generated_Source\PSoC5/cyfitter_cfg.c **** {
 262              		.loc 1 228 0
 263              		.cfi_startproc
 264              		@ args = 0, pretend = 0, frame = 8
 265              		@ frame_needed = 1, uses_anonymous_args = 0
 266 0000 80B5     		push	{r7, lr}
 267              	.LCFI15:
 268              		.cfi_def_cfa_offset 8
 269              		.cfi_offset 7, -8
 270              		.cfi_offset 14, -4
 271 0002 82B0     		sub	sp, sp, #8
 272              	.LCFI16:
 273              		.cfi_def_cfa_offset 16
 274 0004 00AF     		add	r7, sp, #0
 275              	.LCFI17:
 276              		.cfi_def_cfa_register 7
 229:.\Generated_Source\PSoC5/cyfitter_cfg.c **** 	uint32 timeout;
 230:.\Generated_Source\PSoC5/cyfitter_cfg.c **** 	uint8 pllLock;
 231:.\Generated_Source\PSoC5/cyfitter_cfg.c **** 
 232:.\Generated_Source\PSoC5/cyfitter_cfg.c **** 
 233:.\Generated_Source\PSoC5/cyfitter_cfg.c **** 	/* Configure Digital Clocks based on settings from Clock DWR */
 234:.\Generated_Source\PSoC5/cyfitter_cfg.c **** 	CY_SET_XTND_REG16((void CYFAR *)(CYREG_CLKDIST_DCFG0_CFG0), 0x0000u);
ARM GAS  C:\Users\gravi\AppData\Local\Temp\ccByFLrk.s 			page 10


 277              		.loc 1 234 0
 278 0006 4FF48143 		mov	r3, #16512
 279 000a C4F20003 		movt	r3, 16384
 280 000e 4FF00002 		mov	r2, #0
 281 0012 1A80     		strh	r2, [r3, #0]	@ movhi
 235:.\Generated_Source\PSoC5/cyfitter_cfg.c **** 	CY_SET_XTND_REG8((void CYFAR *)(CYREG_CLKDIST_DCFG0_CFG0 + 0x2u), 0x50u);
 282              		.loc 1 235 0
 283 0014 44F28203 		movw	r3, #16514
 284 0018 C4F20003 		movt	r3, 16384
 285 001c 4FF05002 		mov	r2, #80
 286 0020 1A70     		strb	r2, [r3, #0]
 236:.\Generated_Source\PSoC5/cyfitter_cfg.c **** 	CY_SET_XTND_REG16((void CYFAR *)(CYREG_CLKDIST_DCFG1_CFG0), 0x0002u);
 287              		.loc 1 236 0
 288 0022 44F28403 		movw	r3, #16516
 289 0026 C4F20003 		movt	r3, 16384
 290 002a 4FF00202 		mov	r2, #2
 291 002e 1A80     		strh	r2, [r3, #0]	@ movhi
 237:.\Generated_Source\PSoC5/cyfitter_cfg.c **** 	CY_SET_XTND_REG8((void CYFAR *)(CYREG_CLKDIST_DCFG1_CFG0 + 0x2u), 0x18u);
 292              		.loc 1 237 0
 293 0030 44F28603 		movw	r3, #16518
 294 0034 C4F20003 		movt	r3, 16384
 295 0038 4FF01802 		mov	r2, #24
 296 003c 1A70     		strb	r2, [r3, #0]
 238:.\Generated_Source\PSoC5/cyfitter_cfg.c **** 	CY_SET_XTND_REG16((void CYFAR *)(CYREG_CLKDIST_DCFG2_CFG0), 0x008Eu);
 297              		.loc 1 238 0
 298 003e 44F28803 		movw	r3, #16520
 299 0042 C4F20003 		movt	r3, 16384
 300 0046 4FF08E02 		mov	r2, #142
 301 004a 1A80     		strh	r2, [r3, #0]	@ movhi
 239:.\Generated_Source\PSoC5/cyfitter_cfg.c **** 	CY_SET_XTND_REG8((void CYFAR *)(CYREG_CLKDIST_DCFG2_CFG0 + 0x2u), 0x18u);
 302              		.loc 1 239 0
 303 004c 44F28A03 		movw	r3, #16522
 304 0050 C4F20003 		movt	r3, 16384
 305 0054 4FF01802 		mov	r2, #24
 306 0058 1A70     		strb	r2, [r3, #0]
 240:.\Generated_Source\PSoC5/cyfitter_cfg.c **** 	CY_SET_XTND_REG16((void CYFAR *)(CYREG_CLKDIST_DCFG3_CFG0), 0x012Bu);
 307              		.loc 1 240 0
 308 005a 44F28C03 		movw	r3, #16524
 309 005e C4F20003 		movt	r3, 16384
 310 0062 40F22B12 		movw	r2, #299
 311 0066 1A80     		strh	r2, [r3, #0]	@ movhi
 241:.\Generated_Source\PSoC5/cyfitter_cfg.c **** 	CY_SET_XTND_REG8((void CYFAR *)(CYREG_CLKDIST_DCFG3_CFG0 + 0x2u), 0x19u);
 312              		.loc 1 241 0
 313 0068 44F28E03 		movw	r3, #16526
 314 006c C4F20003 		movt	r3, 16384
 315 0070 4FF01902 		mov	r2, #25
 316 0074 1A70     		strb	r2, [r3, #0]
 242:.\Generated_Source\PSoC5/cyfitter_cfg.c **** 	CY_SET_XTND_REG16((void CYFAR *)(CYREG_CLKDIST_DCFG4_CFG0), 0x752Fu);
 317              		.loc 1 242 0
 318 0076 44F29003 		movw	r3, #16528
 319 007a C4F20003 		movt	r3, 16384
 320 007e 47F22F52 		movw	r2, #29999
 321 0082 1A80     		strh	r2, [r3, #0]	@ movhi
 243:.\Generated_Source\PSoC5/cyfitter_cfg.c **** 	CY_SET_XTND_REG8((void CYFAR *)(CYREG_CLKDIST_DCFG4_CFG0 + 0x2u), 0x19u);
 322              		.loc 1 243 0
 323 0084 44F29203 		movw	r3, #16530
 324 0088 C4F20003 		movt	r3, 16384
ARM GAS  C:\Users\gravi\AppData\Local\Temp\ccByFLrk.s 			page 11


 325 008c 4FF01902 		mov	r2, #25
 326 0090 1A70     		strb	r2, [r3, #0]
 244:.\Generated_Source\PSoC5/cyfitter_cfg.c **** 
 245:.\Generated_Source\PSoC5/cyfitter_cfg.c **** 	/* Configure Analog Clocks based on settings from Clock DWR */
 246:.\Generated_Source\PSoC5/cyfitter_cfg.c **** 	CYCONFIGCPY((void CYFAR *)(CYREG_CLKDIST_ACFG0_CFG0), (const void CYFAR *)(BS_CYDEV_CLKDIST_ACFG0_
 327              		.loc 1 246 0
 328 0092 4FF48240 		mov	r0, #16640
 329 0096 C4F20000 		movt	r0, 16384
 330 009a 40F63851 		movw	r1, #3384
 331 009e C4F60001 		movt	r1, 18432
 332 00a2 4FF00802 		mov	r2, #8
 333 00a6 FFF7FEFF 		bl	CYCONFIGCPY
 247:.\Generated_Source\PSoC5/cyfitter_cfg.c **** 
 248:.\Generated_Source\PSoC5/cyfitter_cfg.c **** 	/* Configure ILO based on settings from Clock DWR */
 249:.\Generated_Source\PSoC5/cyfitter_cfg.c **** 	CY_SET_XTND_REG8((void CYFAR *)(CYREG_SLOWCLK_ILO_CR0), 0x02u);
 334              		.loc 1 249 0
 335 00aa 4FF48643 		mov	r3, #17152
 336 00ae C4F20003 		movt	r3, 16384
 337 00b2 4FF00202 		mov	r2, #2
 338 00b6 1A70     		strb	r2, [r3, #0]
 250:.\Generated_Source\PSoC5/cyfitter_cfg.c **** 	CY_SET_XTND_REG8((void CYFAR *)(CYREG_CLKDIST_CR), 0x08u);
 339              		.loc 1 250 0
 340 00b8 4FF04023 		mov	r3, #1073758208
 341 00bc 4FF00802 		mov	r2, #8
 342 00c0 1A70     		strb	r2, [r3, #0]
 251:.\Generated_Source\PSoC5/cyfitter_cfg.c **** 
 252:.\Generated_Source\PSoC5/cyfitter_cfg.c **** 	/* Configure IMO based on settings from Clock DWR */
 253:.\Generated_Source\PSoC5/cyfitter_cfg.c **** 	CY_SET_XTND_REG8((void CYFAR *)(CYREG_FASTCLK_IMO_CR), 0x03u);
 343              		.loc 1 253 0
 344 00c2 4FF48443 		mov	r3, #16896
 345 00c6 C4F20003 		movt	r3, 16384
 346 00ca 4FF00302 		mov	r2, #3
 347 00ce 1A70     		strb	r2, [r3, #0]
 254:.\Generated_Source\PSoC5/cyfitter_cfg.c **** 	CY_SET_XTND_REG8((void CYFAR *)(CYREG_IMO_TR1), (CY_GET_XTND_REG8((void CYFAR *)CYREG_FLSHID_CUST_
 348              		.loc 1 254 0
 349 00d0 44F2A163 		movw	r3, #18081
 350 00d4 C4F20003 		movt	r3, 16384
 351 00d8 4FF48472 		mov	r2, #264
 352 00dc C4F60012 		movt	r2, 18688
 353 00e0 1278     		ldrb	r2, [r2, #0]
 354 00e2 D2B2     		uxtb	r2, r2
 355 00e4 1A70     		strb	r2, [r3, #0]
 255:.\Generated_Source\PSoC5/cyfitter_cfg.c **** 
 256:.\Generated_Source\PSoC5/cyfitter_cfg.c **** 	/* Configure XTAL based on settings from Clock DWR */
 257:.\Generated_Source\PSoC5/cyfitter_cfg.c **** 	CY_SET_XTND_REG16((void CYFAR *)(CYREG_FASTCLK_XMHZ_CFG0), 0x530Eu);
 356              		.loc 1 257 0
 357 00e6 44F21223 		movw	r3, #16914
 358 00ea C4F20003 		movt	r3, 16384
 359 00ee 45F20E32 		movw	r2, #21262
 360 00f2 1A80     		strh	r2, [r3, #0]	@ movhi
 258:.\Generated_Source\PSoC5/cyfitter_cfg.c **** 	CY_SET_XTND_REG8((void CYFAR *)(CYREG_FASTCLK_XMHZ_CSR), 0x05u);
 361              		.loc 1 258 0
 362 00f4 44F21023 		movw	r3, #16912
 363 00f8 C4F20003 		movt	r3, 16384
 364 00fc 4FF00502 		mov	r2, #5
 365 0100 1A70     		strb	r2, [r3, #0]
 259:.\Generated_Source\PSoC5/cyfitter_cfg.c **** 	/* Wait up to 130000us for the XTAL to lock */
ARM GAS  C:\Users\gravi\AppData\Local\Temp\ccByFLrk.s 			page 12


 260:.\Generated_Source\PSoC5/cyfitter_cfg.c **** 	CY_GET_XTND_REG8((void CYFAR *)CYREG_FASTCLK_XMHZ_CSR);
 366              		.loc 1 260 0
 367 0102 44F21023 		movw	r3, #16912
 368 0106 C4F20003 		movt	r3, 16384
 369 010a 1B78     		ldrb	r3, [r3, #0]
 261:.\Generated_Source\PSoC5/cyfitter_cfg.c **** 	for (timeout = 130000u / 10u; (timeout > 0u) && ((CY_GET_XTND_REG8((void CYFAR *)CYREG_FASTCLK_XMH
 370              		.loc 1 261 0
 371 010c 43F2C823 		movw	r3, #13000
 372 0110 7B60     		str	r3, [r7, #4]
 373 0112 07E0     		b	.L12
 374              	.L14:
 262:.\Generated_Source\PSoC5/cyfitter_cfg.c **** 	{ 
 263:.\Generated_Source\PSoC5/cyfitter_cfg.c **** 		
 264:.\Generated_Source\PSoC5/cyfitter_cfg.c **** 		CyDelayCycles(10u * 48u); /* Delay 10us based on 48MHz clock */
 375              		.loc 1 264 0 discriminator 1
 376 0114 4FF4F070 		mov	r0, #480
 377 0118 FFF7FEFF 		bl	CyDelayCycles
 261:.\Generated_Source\PSoC5/cyfitter_cfg.c **** 	for (timeout = 130000u / 10u; (timeout > 0u) && ((CY_GET_XTND_REG8((void CYFAR *)CYREG_FASTCLK_XMH
 378              		.loc 1 261 0 discriminator 1
 379 011c 7B68     		ldr	r3, [r7, #4]
 380 011e 03F1FF33 		add	r3, r3, #-1
 381 0122 7B60     		str	r3, [r7, #4]
 382              	.L12:
 383 0124 7B68     		ldr	r3, [r7, #4]
 384 0126 002B     		cmp	r3, #0
 385 0128 09D0     		beq	.L13
 261:.\Generated_Source\PSoC5/cyfitter_cfg.c **** 	for (timeout = 130000u / 10u; (timeout > 0u) && ((CY_GET_XTND_REG8((void CYFAR *)CYREG_FASTCLK_XMH
 386              		.loc 1 261 0 is_stmt 0 discriminator 2
 387 012a 44F21023 		movw	r3, #16912
 388 012e C4F20003 		movt	r3, 16384
 389 0132 1B78     		ldrb	r3, [r3, #0]
 390 0134 DBB2     		uxtb	r3, r3
 391 0136 DBB2     		uxtb	r3, r3
 392 0138 5BB2     		sxtb	r3, r3
 393 013a 002B     		cmp	r3, #0
 394 013c EADB     		blt	.L14
 395              	.L13:
 265:.\Generated_Source\PSoC5/cyfitter_cfg.c **** 	}
 266:.\Generated_Source\PSoC5/cyfitter_cfg.c **** 	/* Enable XTAL Fault Recovery */
 267:.\Generated_Source\PSoC5/cyfitter_cfg.c **** 	CY_SET_XTND_REG8((void CYFAR *)(CYREG_FASTCLK_XMHZ_CSR), (CY_GET_XTND_REG8((void CYFAR *)CYREG_FAS
 396              		.loc 1 267 0 is_stmt 1
 397 013e 44F21023 		movw	r3, #16912
 398 0142 C4F20003 		movt	r3, 16384
 399 0146 44F21022 		movw	r2, #16912
 400 014a C4F20002 		movt	r2, 16384
 401 014e 1278     		ldrb	r2, [r2, #0]
 402 0150 D2B2     		uxtb	r2, r2
 403 0152 42F04002 		orr	r2, r2, #64
 404 0156 D2B2     		uxtb	r2, r2
 405 0158 1A70     		strb	r2, [r3, #0]
 268:.\Generated_Source\PSoC5/cyfitter_cfg.c **** 
 269:.\Generated_Source\PSoC5/cyfitter_cfg.c **** 	/* Configure PLL based on settings from Clock DWR */
 270:.\Generated_Source\PSoC5/cyfitter_cfg.c **** 	CY_SET_XTND_REG16((void CYFAR *)(CYREG_FASTCLK_PLL_P), 0x0242u);
 406              		.loc 1 270 0
 407 015a 44F22223 		movw	r3, #16930
 408 015e C4F20003 		movt	r3, 16384
 409 0162 40F24222 		movw	r2, #578
ARM GAS  C:\Users\gravi\AppData\Local\Temp\ccByFLrk.s 			page 13


 410 0166 1A80     		strh	r2, [r3, #0]	@ movhi
 271:.\Generated_Source\PSoC5/cyfitter_cfg.c **** 	CY_SET_XTND_REG16((void CYFAR *)(CYREG_FASTCLK_PLL_CFG0), 0x1251u);
 411              		.loc 1 271 0
 412 0168 44F22023 		movw	r3, #16928
 413 016c C4F20003 		movt	r3, 16384
 414 0170 41F25122 		movw	r2, #4689
 415 0174 1A80     		strh	r2, [r3, #0]	@ movhi
 272:.\Generated_Source\PSoC5/cyfitter_cfg.c **** 	/* Wait up to 250us for the PLL to lock */
 273:.\Generated_Source\PSoC5/cyfitter_cfg.c **** 	pllLock = 0u;
 416              		.loc 1 273 0
 417 0176 4FF00003 		mov	r3, #0
 418 017a FB70     		strb	r3, [r7, #3]
 274:.\Generated_Source\PSoC5/cyfitter_cfg.c **** 	for (timeout = 250u / 10u; (timeout > 0u) && (pllLock != 0x03u); timeout--)
 419              		.loc 1 274 0
 420 017c 4FF01903 		mov	r3, #25
 421 0180 7B60     		str	r3, [r7, #4]
 422 0182 19E0     		b	.L15
 423              	.L17:
 275:.\Generated_Source\PSoC5/cyfitter_cfg.c **** 	{ 
 276:.\Generated_Source\PSoC5/cyfitter_cfg.c **** 		pllLock = 0x03u & ((uint8)((uint8)pllLock << 1) | ((CY_GET_XTND_REG8((void CYFAR *)CYREG_FASTCLK_
 424              		.loc 1 276 0 discriminator 1
 425 0184 FB78     		ldrb	r3, [r7, #3]
 426 0186 4FEA4303 		lsl	r3, r3, #1
 427 018a DAB2     		uxtb	r2, r3
 428 018c 44F22523 		movw	r3, #16933
 429 0190 C4F20003 		movt	r3, 16384
 430 0194 1B78     		ldrb	r3, [r3, #0]
 431 0196 DBB2     		uxtb	r3, r3
 432 0198 03F00103 		and	r3, r3, #1
 433 019c DBB2     		uxtb	r3, r3
 434 019e 1343     		orrs	r3, r3, r2
 435 01a0 DBB2     		uxtb	r3, r3
 436 01a2 03F00303 		and	r3, r3, #3
 437 01a6 FB70     		strb	r3, [r7, #3]
 277:.\Generated_Source\PSoC5/cyfitter_cfg.c **** 		CyDelayCycles(10u * 48u); /* Delay 10us based on 48MHz clock */
 438              		.loc 1 277 0 discriminator 1
 439 01a8 4FF4F070 		mov	r0, #480
 440 01ac FFF7FEFF 		bl	CyDelayCycles
 274:.\Generated_Source\PSoC5/cyfitter_cfg.c **** 	for (timeout = 250u / 10u; (timeout > 0u) && (pllLock != 0x03u); timeout--)
 441              		.loc 1 274 0 discriminator 1
 442 01b0 7B68     		ldr	r3, [r7, #4]
 443 01b2 03F1FF33 		add	r3, r3, #-1
 444 01b6 7B60     		str	r3, [r7, #4]
 445              	.L15:
 446 01b8 7B68     		ldr	r3, [r7, #4]
 447 01ba 002B     		cmp	r3, #0
 448 01bc 02D0     		beq	.L16
 274:.\Generated_Source\PSoC5/cyfitter_cfg.c **** 	for (timeout = 250u / 10u; (timeout > 0u) && (pllLock != 0x03u); timeout--)
 449              		.loc 1 274 0 is_stmt 0 discriminator 2
 450 01be FB78     		ldrb	r3, [r7, #3]	@ zero_extendqisi2
 451 01c0 032B     		cmp	r3, #3
 452 01c2 DFD1     		bne	.L17
 453              	.L16:
 278:.\Generated_Source\PSoC5/cyfitter_cfg.c **** 	}
 279:.\Generated_Source\PSoC5/cyfitter_cfg.c **** 	/* If we ran out of time the PLL didn't lock so go to the error function */
 280:.\Generated_Source\PSoC5/cyfitter_cfg.c **** 	if (timeout == 0u)
 454              		.loc 1 280 0 is_stmt 1
ARM GAS  C:\Users\gravi\AppData\Local\Temp\ccByFLrk.s 			page 14


 455 01c4 7B68     		ldr	r3, [r7, #4]
 456 01c6 002B     		cmp	r3, #0
 457 01c8 03D1     		bne	.L18
 281:.\Generated_Source\PSoC5/cyfitter_cfg.c **** 	{
 282:.\Generated_Source\PSoC5/cyfitter_cfg.c **** 		CyClockStartupError(CYCLOCKSTART_PLL_ERROR);
 458              		.loc 1 282 0
 459 01ca 4FF00300 		mov	r0, #3
 460 01ce FFF7FEFF 		bl	CyClockStartupError
 461              	.L18:
 283:.\Generated_Source\PSoC5/cyfitter_cfg.c **** 	}
 284:.\Generated_Source\PSoC5/cyfitter_cfg.c **** 
 285:.\Generated_Source\PSoC5/cyfitter_cfg.c **** 	/* Configure Bus/Master Clock based on settings from Clock DWR */
 286:.\Generated_Source\PSoC5/cyfitter_cfg.c **** 	CY_SET_XTND_REG16((void CYFAR *)(CYREG_CLKDIST_MSTR0), 0x0100u);
 462              		.loc 1 286 0
 463 01d2 44F20403 		movw	r3, #16388
 464 01d6 C4F20003 		movt	r3, 16384
 465 01da 4FF48072 		mov	r2, #256
 466 01de 1A80     		strh	r2, [r3, #0]	@ movhi
 287:.\Generated_Source\PSoC5/cyfitter_cfg.c **** 	CY_SET_XTND_REG8((void CYFAR *)(CYREG_CLKDIST_MSTR0), 0x07u);
 467              		.loc 1 287 0
 468 01e0 44F20403 		movw	r3, #16388
 469 01e4 C4F20003 		movt	r3, 16384
 470 01e8 4FF00702 		mov	r2, #7
 471 01ec 1A70     		strb	r2, [r3, #0]
 288:.\Generated_Source\PSoC5/cyfitter_cfg.c **** 	CY_SET_XTND_REG8((void CYFAR *)(CYREG_CLKDIST_BCFG0), 0x00u);
 472              		.loc 1 288 0
 473 01ee 44F20603 		movw	r3, #16390
 474 01f2 C4F20003 		movt	r3, 16384
 475 01f6 4FF00002 		mov	r2, #0
 476 01fa 1A70     		strb	r2, [r3, #0]
 289:.\Generated_Source\PSoC5/cyfitter_cfg.c **** 	CY_SET_XTND_REG8((void CYFAR *)(CYREG_CLKDIST_BCFG2), 0x48u);
 477              		.loc 1 289 0
 478 01fc 44F20803 		movw	r3, #16392
 479 0200 C4F20003 		movt	r3, 16384
 480 0204 4FF04802 		mov	r2, #72
 481 0208 1A70     		strb	r2, [r3, #0]
 290:.\Generated_Source\PSoC5/cyfitter_cfg.c **** 	CY_SET_XTND_REG8((void CYFAR *)(CYREG_CLKDIST_MSTR0), 0x00u);
 482              		.loc 1 290 0
 483 020a 44F20403 		movw	r3, #16388
 484 020e C4F20003 		movt	r3, 16384
 485 0212 4FF00002 		mov	r2, #0
 486 0216 1A70     		strb	r2, [r3, #0]
 291:.\Generated_Source\PSoC5/cyfitter_cfg.c **** 	CY_SET_XTND_REG8((void CYFAR *)(CYREG_CLKDIST_LD), 0x02u);
 487              		.loc 1 291 0
 488 0218 44F20103 		movw	r3, #16385
 489 021c C4F20003 		movt	r3, 16384
 490 0220 4FF00202 		mov	r2, #2
 491 0224 1A70     		strb	r2, [r3, #0]
 292:.\Generated_Source\PSoC5/cyfitter_cfg.c **** 	CY_SET_XTND_REG8((void CYFAR *)(CYREG_CLKDIST_DLY1), 0x04u);
 492              		.loc 1 292 0
 493 0226 44F20B03 		movw	r3, #16395
 494 022a C4F20003 		movt	r3, 16384
 495 022e 4FF00402 		mov	r2, #4
 496 0232 1A70     		strb	r2, [r3, #0]
 293:.\Generated_Source\PSoC5/cyfitter_cfg.c **** 
 294:.\Generated_Source\PSoC5/cyfitter_cfg.c **** 	CY_SET_XTND_REG8((void CYFAR *)(CYREG_PM_ACT_CFG2), ((CY_GET_XTND_REG8((void CYFAR *)CYREG_PM_ACT_
 497              		.loc 1 294 0
ARM GAS  C:\Users\gravi\AppData\Local\Temp\ccByFLrk.s 			page 15


 498 0234 44F2A233 		movw	r3, #17314
 499 0238 C4F20003 		movt	r3, 16384
 500 023c 44F2A232 		movw	r2, #17314
 501 0240 C4F20002 		movt	r2, 16384
 502 0244 1278     		ldrb	r2, [r2, #0]
 503 0246 D2B2     		uxtb	r2, r2
 504 0248 42F01F02 		orr	r2, r2, #31
 505 024c D2B2     		uxtb	r2, r2
 506 024e 1A70     		strb	r2, [r3, #0]
 295:.\Generated_Source\PSoC5/cyfitter_cfg.c **** 	CY_SET_XTND_REG8((void CYFAR *)(CYREG_PM_ACT_CFG1), ((CY_GET_XTND_REG8((void CYFAR *)CYREG_PM_ACT_
 507              		.loc 1 295 0
 508 0250 44F2A133 		movw	r3, #17313
 509 0254 C4F20003 		movt	r3, 16384
 510 0258 44F2A132 		movw	r2, #17313
 511 025c C4F20002 		movt	r2, 16384
 512 0260 1278     		ldrb	r2, [r2, #0]
 513 0262 D2B2     		uxtb	r2, r2
 514 0264 42F00302 		orr	r2, r2, #3
 515 0268 D2B2     		uxtb	r2, r2
 516 026a 1A70     		strb	r2, [r3, #0]
 296:.\Generated_Source\PSoC5/cyfitter_cfg.c **** 	CY_SET_XTND_REG8((void CYFAR *)(CYREG_PM_ACT_CFG0), ((CY_GET_XTND_REG8((void CYFAR *)CYREG_PM_ACT_
 517              		.loc 1 296 0
 518 026c 44F2A033 		movw	r3, #17312
 519 0270 C4F20003 		movt	r3, 16384
 520 0274 44F2A032 		movw	r2, #17312
 521 0278 C4F20002 		movt	r2, 16384
 522 027c 1278     		ldrb	r2, [r2, #0]
 523 027e D2B2     		uxtb	r2, r2
 524 0280 62F07F02 		orn	r2, r2, #127
 525 0284 D2B2     		uxtb	r2, r2
 526 0286 1A70     		strb	r2, [r3, #0]
 297:.\Generated_Source\PSoC5/cyfitter_cfg.c **** }
 527              		.loc 1 297 0
 528 0288 07F10807 		add	r7, r7, #8
 529 028c BD46     		mov	sp, r7
 530 028e 80BD     		pop	{r7, pc}
 531              		.cfi_endproc
 532              	.LFE5:
 533              		.size	ClockSetup, .-ClockSetup
 534              		.section	.text.AnalogSetDefault,"ax",%progbits
 535              		.align	2
 536              		.thumb
 537              		.thumb_func
 538              		.type	AnalogSetDefault, %function
 539              	AnalogSetDefault:
 540              	.LFB6:
 298:.\Generated_Source\PSoC5/cyfitter_cfg.c **** 
 299:.\Generated_Source\PSoC5/cyfitter_cfg.c **** 
 300:.\Generated_Source\PSoC5/cyfitter_cfg.c **** /* Analog API Functions */
 301:.\Generated_Source\PSoC5/cyfitter_cfg.c **** 
 302:.\Generated_Source\PSoC5/cyfitter_cfg.c **** 
 303:.\Generated_Source\PSoC5/cyfitter_cfg.c **** /*******************************************************************************
 304:.\Generated_Source\PSoC5/cyfitter_cfg.c **** * Function Name: AnalogSetDefault
 305:.\Generated_Source\PSoC5/cyfitter_cfg.c **** ********************************************************************************
 306:.\Generated_Source\PSoC5/cyfitter_cfg.c **** *
 307:.\Generated_Source\PSoC5/cyfitter_cfg.c **** * Summary:
 308:.\Generated_Source\PSoC5/cyfitter_cfg.c **** *  Sets up the analog portions of the chip to default values based on chip
ARM GAS  C:\Users\gravi\AppData\Local\Temp\ccByFLrk.s 			page 16


 309:.\Generated_Source\PSoC5/cyfitter_cfg.c **** *  configuration options from the project.
 310:.\Generated_Source\PSoC5/cyfitter_cfg.c **** *
 311:.\Generated_Source\PSoC5/cyfitter_cfg.c **** * Parameters:
 312:.\Generated_Source\PSoC5/cyfitter_cfg.c **** *  void
 313:.\Generated_Source\PSoC5/cyfitter_cfg.c **** *
 314:.\Generated_Source\PSoC5/cyfitter_cfg.c **** * Return:
 315:.\Generated_Source\PSoC5/cyfitter_cfg.c **** *  void
 316:.\Generated_Source\PSoC5/cyfitter_cfg.c **** *
 317:.\Generated_Source\PSoC5/cyfitter_cfg.c **** *******************************************************************************/
 318:.\Generated_Source\PSoC5/cyfitter_cfg.c **** static void AnalogSetDefault(void);
 319:.\Generated_Source\PSoC5/cyfitter_cfg.c **** static void AnalogSetDefault(void)
 320:.\Generated_Source\PSoC5/cyfitter_cfg.c **** {
 541              		.loc 1 320 0
 542              		.cfi_startproc
 543              		@ args = 0, pretend = 0, frame = 8
 544              		@ frame_needed = 1, uses_anonymous_args = 0
 545              		@ link register save eliminated.
 546 0000 80B4     		push	{r7}
 547              	.LCFI18:
 548              		.cfi_def_cfa_offset 4
 549              		.cfi_offset 7, -4
 550 0002 83B0     		sub	sp, sp, #12
 551              	.LCFI19:
 552              		.cfi_def_cfa_offset 16
 553 0004 00AF     		add	r7, sp, #0
 554              	.LCFI20:
 555              		.cfi_def_cfa_register 7
 321:.\Generated_Source\PSoC5/cyfitter_cfg.c **** 	uint8 bg_xover_inl_trim = CY_GET_XTND_REG8((void CYFAR *)(CYREG_FLSHID_MFG_CFG_BG_XOVER_INL_TRIM +
 556              		.loc 1 321 0
 557 0006 40F2CF13 		movw	r3, #463
 558 000a C4F60013 		movt	r3, 18688
 559 000e 1B78     		ldrb	r3, [r3, #0]
 560 0010 FB71     		strb	r3, [r7, #7]
 322:.\Generated_Source\PSoC5/cyfitter_cfg.c **** 	CY_SET_XTND_REG8((void CYFAR *)(CYREG_BG_DFT0), (bg_xover_inl_trim & 0x07u));
 561              		.loc 1 322 0
 562 0012 45F66E03 		movw	r3, #22638
 563 0016 C4F20003 		movt	r3, 16384
 564 001a FA79     		ldrb	r2, [r7, #7]
 565 001c 02F00702 		and	r2, r2, #7
 566 0020 D2B2     		uxtb	r2, r2
 567 0022 1A70     		strb	r2, [r3, #0]
 323:.\Generated_Source\PSoC5/cyfitter_cfg.c **** 	CY_SET_XTND_REG8((void CYFAR *)(CYREG_BG_DFT1), ((bg_xover_inl_trim >> 4) & 0x0Fu));
 568              		.loc 1 323 0
 569 0024 45F66F03 		movw	r3, #22639
 570 0028 C4F20003 		movt	r3, 16384
 571 002c FA79     		ldrb	r2, [r7, #7]	@ zero_extendqisi2
 572 002e 4FEA1212 		lsr	r2, r2, #4
 573 0032 D2B2     		uxtb	r2, r2
 574 0034 1A70     		strb	r2, [r3, #0]
 324:.\Generated_Source\PSoC5/cyfitter_cfg.c **** 	CY_SET_XTND_REG8((void CYFAR *)CYREG_PRT0_AG, 0x01u);
 575              		.loc 1 324 0
 576 0036 45F20D13 		movw	r3, #20749
 577 003a C4F20003 		movt	r3, 16384
 578 003e 4FF00102 		mov	r2, #1
 579 0042 1A70     		strb	r2, [r3, #0]
 325:.\Generated_Source\PSoC5/cyfitter_cfg.c **** 	CY_SET_XTND_REG8((void CYFAR *)CYREG_PRT1_AG, 0x20u);
 580              		.loc 1 325 0
ARM GAS  C:\Users\gravi\AppData\Local\Temp\ccByFLrk.s 			page 17


 581 0044 45F21D13 		movw	r3, #20765
 582 0048 C4F20003 		movt	r3, 16384
 583 004c 4FF02002 		mov	r2, #32
 584 0050 1A70     		strb	r2, [r3, #0]
 326:.\Generated_Source\PSoC5/cyfitter_cfg.c **** 	CY_SET_XTND_REG8((void CYFAR *)CYREG_PRT6_AG, 0x06u);
 585              		.loc 1 326 0
 586 0052 45F26D13 		movw	r3, #20845
 587 0056 C4F20003 		movt	r3, 16384
 588 005a 4FF00602 		mov	r2, #6
 589 005e 1A70     		strb	r2, [r3, #0]
 327:.\Generated_Source\PSoC5/cyfitter_cfg.c **** 	CY_SET_XTND_REG8((void CYFAR *)CYREG_SC2_SW0, 0x10u);
 590              		.loc 1 327 0
 591 0060 45F62023 		movw	r3, #23072
 592 0064 C4F20003 		movt	r3, 16384
 593 0068 4FF01002 		mov	r2, #16
 594 006c 1A70     		strb	r2, [r3, #0]
 328:.\Generated_Source\PSoC5/cyfitter_cfg.c **** 	CY_SET_XTND_REG8((void CYFAR *)CYREG_SC2_SW4, 0x0Au);
 595              		.loc 1 328 0
 596 006e 45F62423 		movw	r3, #23076
 597 0072 C4F20003 		movt	r3, 16384
 598 0076 4FF00A02 		mov	r2, #10
 599 007a 1A70     		strb	r2, [r3, #0]
 329:.\Generated_Source\PSoC5/cyfitter_cfg.c **** 	CY_SET_XTND_REG8((void CYFAR *)CYREG_SC2_SW8, 0x04u);
 600              		.loc 1 329 0
 601 007c 45F62823 		movw	r3, #23080
 602 0080 C4F20003 		movt	r3, 16384
 603 0084 4FF00402 		mov	r2, #4
 604 0088 1A70     		strb	r2, [r3, #0]
 330:.\Generated_Source\PSoC5/cyfitter_cfg.c **** 	CY_SET_XTND_REG8((void CYFAR *)CYREG_DAC1_SW0, 0x02u);
 605              		.loc 1 330 0
 606 008a 45F68823 		movw	r3, #23176
 607 008e C4F20003 		movt	r3, 16384
 608 0092 4FF00202 		mov	r2, #2
 609 0096 1A70     		strb	r2, [r3, #0]
 331:.\Generated_Source\PSoC5/cyfitter_cfg.c **** 	CY_SET_XTND_REG8((void CYFAR *)CYREG_DAC2_SW2, 0x04u);
 610              		.loc 1 331 0
 611 0098 45F69223 		movw	r3, #23186
 612 009c C4F20003 		movt	r3, 16384
 613 00a0 4FF00402 		mov	r2, #4
 614 00a4 1A70     		strb	r2, [r3, #0]
 332:.\Generated_Source\PSoC5/cyfitter_cfg.c **** 	CY_SET_XTND_REG8((void CYFAR *)CYREG_DSM0_SW0, 0x41u);
 615              		.loc 1 332 0
 616 00a6 4FF4B643 		mov	r3, #23296
 617 00aa C4F20003 		movt	r3, 16384
 618 00ae 4FF04102 		mov	r2, #65
 619 00b2 1A70     		strb	r2, [r3, #0]
 333:.\Generated_Source\PSoC5/cyfitter_cfg.c **** 	CY_SET_XTND_REG8((void CYFAR *)CYREG_DSM0_SW3, 0x01u);
 620              		.loc 1 333 0
 621 00b4 45F60333 		movw	r3, #23299
 622 00b8 C4F20003 		movt	r3, 16384
 623 00bc 4FF00102 		mov	r2, #1
 624 00c0 1A70     		strb	r2, [r3, #0]
 334:.\Generated_Source\PSoC5/cyfitter_cfg.c **** 	CY_SET_XTND_REG8((void CYFAR *)CYREG_DSM0_SW4, 0x08u);
 625              		.loc 1 334 0
 626 00c2 45F60433 		movw	r3, #23300
 627 00c6 C4F20003 		movt	r3, 16384
 628 00ca 4FF00802 		mov	r2, #8
ARM GAS  C:\Users\gravi\AppData\Local\Temp\ccByFLrk.s 			page 18


 629 00ce 1A70     		strb	r2, [r3, #0]
 335:.\Generated_Source\PSoC5/cyfitter_cfg.c **** 	CY_SET_XTND_REG16((void CYFAR *)CYREG_OPAMP2_MX, 0x0107u);
 630              		.loc 1 335 0
 631 00d0 45F64433 		movw	r3, #23364
 632 00d4 C4F20003 		movt	r3, 16384
 633 00d8 40F20712 		movw	r2, #263
 634 00dc 1A80     		strh	r2, [r3, #0]	@ movhi
 336:.\Generated_Source\PSoC5/cyfitter_cfg.c **** 	CY_SET_XTND_REG8((void CYFAR *)CYREG_PUMP_CR0, 0x44u);
 635              		.loc 1 336 0
 636 00de 45F67603 		movw	r3, #22646
 637 00e2 C4F20003 		movt	r3, 16384
 638 00e6 4FF04402 		mov	r2, #68
 639 00ea 1A70     		strb	r2, [r3, #0]
 337:.\Generated_Source\PSoC5/cyfitter_cfg.c **** }
 640              		.loc 1 337 0
 641 00ec 07F10C07 		add	r7, r7, #12
 642 00f0 BD46     		mov	sp, r7
 643 00f2 80BC     		pop	{r7}
 644 00f4 7047     		bx	lr
 645              		.cfi_endproc
 646              	.LFE6:
 647              		.size	AnalogSetDefault, .-AnalogSetDefault
 648 00f6 00BF     		.section	.text.SetAnalogRoutingPumps,"ax",%progbits
 649              		.align	2
 650              		.global	SetAnalogRoutingPumps
 651              		.thumb
 652              		.thumb_func
 653              		.type	SetAnalogRoutingPumps, %function
 654              	SetAnalogRoutingPumps:
 655              	.LFB7:
 338:.\Generated_Source\PSoC5/cyfitter_cfg.c **** 
 339:.\Generated_Source\PSoC5/cyfitter_cfg.c **** 
 340:.\Generated_Source\PSoC5/cyfitter_cfg.c **** /*******************************************************************************
 341:.\Generated_Source\PSoC5/cyfitter_cfg.c **** * Function Name: SetAnalogRoutingPumps
 342:.\Generated_Source\PSoC5/cyfitter_cfg.c **** ********************************************************************************
 343:.\Generated_Source\PSoC5/cyfitter_cfg.c **** *
 344:.\Generated_Source\PSoC5/cyfitter_cfg.c **** * Summary:
 345:.\Generated_Source\PSoC5/cyfitter_cfg.c **** * Enables or disables the analog pumps feeding analog routing switches.
 346:.\Generated_Source\PSoC5/cyfitter_cfg.c **** * Intended to be called at startup, based on the Vdda system configuration;
 347:.\Generated_Source\PSoC5/cyfitter_cfg.c **** * may be called during operation when the user informs us that the Vdda voltage
 348:.\Generated_Source\PSoC5/cyfitter_cfg.c **** * crossed the pump threshold.
 349:.\Generated_Source\PSoC5/cyfitter_cfg.c **** *
 350:.\Generated_Source\PSoC5/cyfitter_cfg.c **** * Parameters:
 351:.\Generated_Source\PSoC5/cyfitter_cfg.c **** *  enabled - 1 to enable the pumps, 0 to disable the pumps
 352:.\Generated_Source\PSoC5/cyfitter_cfg.c **** *
 353:.\Generated_Source\PSoC5/cyfitter_cfg.c **** * Return:
 354:.\Generated_Source\PSoC5/cyfitter_cfg.c **** *  void
 355:.\Generated_Source\PSoC5/cyfitter_cfg.c **** *
 356:.\Generated_Source\PSoC5/cyfitter_cfg.c **** *******************************************************************************/
 357:.\Generated_Source\PSoC5/cyfitter_cfg.c **** void SetAnalogRoutingPumps(uint8 enabled)
 358:.\Generated_Source\PSoC5/cyfitter_cfg.c **** {
 656              		.loc 1 358 0
 657              		.cfi_startproc
 658              		@ args = 0, pretend = 0, frame = 16
 659              		@ frame_needed = 1, uses_anonymous_args = 0
 660              		@ link register save eliminated.
 661 0000 80B4     		push	{r7}
ARM GAS  C:\Users\gravi\AppData\Local\Temp\ccByFLrk.s 			page 19


 662              	.LCFI21:
 663              		.cfi_def_cfa_offset 4
 664              		.cfi_offset 7, -4
 665 0002 85B0     		sub	sp, sp, #20
 666              	.LCFI22:
 667              		.cfi_def_cfa_offset 24
 668 0004 00AF     		add	r7, sp, #0
 669              	.LCFI23:
 670              		.cfi_def_cfa_register 7
 671 0006 0346     		mov	r3, r0
 672 0008 FB71     		strb	r3, [r7, #7]
 359:.\Generated_Source\PSoC5/cyfitter_cfg.c **** 	uint8 regValue = CY_GET_XTND_REG8((void CYFAR *)CYREG_PUMP_CR0);
 673              		.loc 1 359 0
 674 000a 45F67603 		movw	r3, #22646
 675 000e C4F20003 		movt	r3, 16384
 676 0012 1B78     		ldrb	r3, [r3, #0]
 677 0014 FB73     		strb	r3, [r7, #15]
 360:.\Generated_Source\PSoC5/cyfitter_cfg.c **** 	if (enabled != 0u)
 678              		.loc 1 360 0
 679 0016 FB79     		ldrb	r3, [r7, #7]	@ zero_extendqisi2
 680 0018 002B     		cmp	r3, #0
 681 001a 04D0     		beq	.L21
 361:.\Generated_Source\PSoC5/cyfitter_cfg.c **** 	{
 362:.\Generated_Source\PSoC5/cyfitter_cfg.c **** 		regValue |= 0x22u;
 682              		.loc 1 362 0
 683 001c FB7B     		ldrb	r3, [r7, #15]
 684 001e 43F02203 		orr	r3, r3, #34
 685 0022 FB73     		strb	r3, [r7, #15]
 686 0024 03E0     		b	.L22
 687              	.L21:
 363:.\Generated_Source\PSoC5/cyfitter_cfg.c **** 	}
 364:.\Generated_Source\PSoC5/cyfitter_cfg.c **** 	else
 365:.\Generated_Source\PSoC5/cyfitter_cfg.c **** 	{
 366:.\Generated_Source\PSoC5/cyfitter_cfg.c **** 		regValue &= (uint8)~0x22u;
 688              		.loc 1 366 0
 689 0026 FB7B     		ldrb	r3, [r7, #15]
 690 0028 23F02203 		bic	r3, r3, #34
 691 002c FB73     		strb	r3, [r7, #15]
 692              	.L22:
 367:.\Generated_Source\PSoC5/cyfitter_cfg.c **** 	}
 368:.\Generated_Source\PSoC5/cyfitter_cfg.c **** 	CY_SET_XTND_REG8((void CYFAR *)CYREG_PUMP_CR0, regValue);
 693              		.loc 1 368 0
 694 002e 45F67603 		movw	r3, #22646
 695 0032 C4F20003 		movt	r3, 16384
 696 0036 FA7B     		ldrb	r2, [r7, #15]
 697 0038 1A70     		strb	r2, [r3, #0]
 369:.\Generated_Source\PSoC5/cyfitter_cfg.c **** }
 698              		.loc 1 369 0
 699 003a 07F11407 		add	r7, r7, #20
 700 003e BD46     		mov	sp, r7
 701 0040 80BC     		pop	{r7}
 702 0042 7047     		bx	lr
 703              		.cfi_endproc
 704              	.LFE7:
 705              		.size	SetAnalogRoutingPumps, .-SetAnalogRoutingPumps
 706              		.global	AMuxSeq_curChannel
 707              		.data
ARM GAS  C:\Users\gravi\AppData\Local\Temp\ccByFLrk.s 			page 20


 708              		.type	AMuxSeq_curChannel, %object
 709              		.size	AMuxSeq_curChannel, 1
 710              	AMuxSeq_curChannel:
 711 0000 FF       		.byte	-1
 712              		.section	.text.AMuxSeq_DisconnectAll,"ax",%progbits
 713              		.align	2
 714              		.global	AMuxSeq_DisconnectAll
 715              		.thumb
 716              		.thumb_func
 717              		.type	AMuxSeq_DisconnectAll, %function
 718              	AMuxSeq_DisconnectAll:
 719              	.LFB8:
 370:.\Generated_Source\PSoC5/cyfitter_cfg.c **** 
 371:.\Generated_Source\PSoC5/cyfitter_cfg.c **** #define CY_AMUX_UNUSED CYREG_BOOST_SR
 372:.\Generated_Source\PSoC5/cyfitter_cfg.c **** int8 AMuxSeq_curChannel = -1;
 373:.\Generated_Source\PSoC5/cyfitter_cfg.c **** 
 374:.\Generated_Source\PSoC5/cyfitter_cfg.c **** void AMuxSeq_DisconnectAll(void)
 375:.\Generated_Source\PSoC5/cyfitter_cfg.c **** {
 720              		.loc 1 375 0
 721              		.cfi_startproc
 722              		@ args = 0, pretend = 0, frame = 0
 723              		@ frame_needed = 1, uses_anonymous_args = 0
 724              		@ link register save eliminated.
 725 0000 80B4     		push	{r7}
 726              	.LCFI24:
 727              		.cfi_def_cfa_offset 4
 728              		.cfi_offset 7, -4
 729 0002 00AF     		add	r7, sp, #0
 730              	.LCFI25:
 731              		.cfi_def_cfa_register 7
 376:.\Generated_Source\PSoC5/cyfitter_cfg.c **** 	AMuxSeq_curChannel = -1;
 732              		.loc 1 376 0
 733 0004 40F20003 		movw	r3, #:lower16:AMuxSeq_curChannel
 734 0008 C0F20003 		movt	r3, #:upper16:AMuxSeq_curChannel
 735 000c 4FF0FF02 		mov	r2, #255
 736 0010 1A70     		strb	r2, [r3, #0]
 377:.\Generated_Source\PSoC5/cyfitter_cfg.c **** 	CY_SET_REG8((void CYXDATA *)CYREG_PRT0_AG, 0x01u);
 737              		.loc 1 377 0
 738 0012 45F20D13 		movw	r3, #20749
 739 0016 C4F20003 		movt	r3, 16384
 740 001a 4FF00102 		mov	r2, #1
 741 001e 1A70     		strb	r2, [r3, #0]
 378:.\Generated_Source\PSoC5/cyfitter_cfg.c **** 	CY_SET_REG8((void CYXDATA *)CYREG_DSM0_SW0, 0x41u);
 742              		.loc 1 378 0
 743 0020 4FF4B643 		mov	r3, #23296
 744 0024 C4F20003 		movt	r3, 16384
 745 0028 4FF04102 		mov	r2, #65
 746 002c 1A70     		strb	r2, [r3, #0]
 379:.\Generated_Source\PSoC5/cyfitter_cfg.c **** 	CY_SET_REG8((void CYXDATA *)CYREG_PRT6_AG, 0x06u);
 747              		.loc 1 379 0
 748 002e 45F26D13 		movw	r3, #20845
 749 0032 C4F20003 		movt	r3, 16384
 750 0036 4FF00602 		mov	r2, #6
 751 003a 1A70     		strb	r2, [r3, #0]
 380:.\Generated_Source\PSoC5/cyfitter_cfg.c **** 	CY_SET_REG8((void CYXDATA *)CYREG_PRT0_AMUX, 0x00u);
 752              		.loc 1 380 0
 753 003c 45F20C13 		movw	r3, #20748
ARM GAS  C:\Users\gravi\AppData\Local\Temp\ccByFLrk.s 			page 21


 754 0040 C4F20003 		movt	r3, 16384
 755 0044 4FF00002 		mov	r2, #0
 756 0048 1A70     		strb	r2, [r3, #0]
 381:.\Generated_Source\PSoC5/cyfitter_cfg.c **** 	CY_SET_REG8((void CYXDATA *)CYREG_PRT15_AMUX, 0x00u);
 757              		.loc 1 381 0
 758 004a 45F2FC13 		movw	r3, #20988
 759 004e C4F20003 		movt	r3, 16384
 760 0052 4FF00002 		mov	r2, #0
 761 0056 1A70     		strb	r2, [r3, #0]
 382:.\Generated_Source\PSoC5/cyfitter_cfg.c **** 	CY_SET_REG8((void CYXDATA *)CYREG_PRT15_AG, 0x00u);
 762              		.loc 1 382 0
 763 0058 45F2FD13 		movw	r3, #20989
 764 005c C4F20003 		movt	r3, 16384
 765 0060 4FF00002 		mov	r2, #0
 766 0064 1A70     		strb	r2, [r3, #0]
 383:.\Generated_Source\PSoC5/cyfitter_cfg.c **** }
 767              		.loc 1 383 0
 768 0066 BD46     		mov	sp, r7
 769 0068 80BC     		pop	{r7}
 770 006a 7047     		bx	lr
 771              		.cfi_endproc
 772              	.LFE8:
 773              		.size	AMuxSeq_DisconnectAll, .-AMuxSeq_DisconnectAll
 774              		.section	.text.AMuxSeq_Next,"ax",%progbits
 775              		.align	2
 776              		.global	AMuxSeq_Next
 777              		.thumb
 778              		.thumb_func
 779              		.type	AMuxSeq_Next, %function
 780              	AMuxSeq_Next:
 781              	.LFB9:
 384:.\Generated_Source\PSoC5/cyfitter_cfg.c **** 
 385:.\Generated_Source\PSoC5/cyfitter_cfg.c **** #if defined(__C51__) || defined(__CX51__)
 386:.\Generated_Source\PSoC5/cyfitter_cfg.c ****     #pragma OT(5, SPEED)
 387:.\Generated_Source\PSoC5/cyfitter_cfg.c **** #endif
 388:.\Generated_Source\PSoC5/cyfitter_cfg.c **** void AMuxSeq_Next(void)
 389:.\Generated_Source\PSoC5/cyfitter_cfg.c **** {
 782              		.loc 1 389 0
 783              		.cfi_startproc
 784              		@ args = 0, pretend = 0, frame = 0
 785              		@ frame_needed = 1, uses_anonymous_args = 0
 786              		@ link register save eliminated.
 787 0000 80B4     		push	{r7}
 788              	.LCFI26:
 789              		.cfi_def_cfa_offset 4
 790              		.cfi_offset 7, -4
 791 0002 00AF     		add	r7, sp, #0
 792              	.LCFI27:
 793              		.cfi_def_cfa_register 7
 390:.\Generated_Source\PSoC5/cyfitter_cfg.c **** 	AMuxSeq_curChannel++;
 794              		.loc 1 390 0
 795 0004 40F20003 		movw	r3, #:lower16:AMuxSeq_curChannel
 796 0008 C0F20003 		movt	r3, #:upper16:AMuxSeq_curChannel
 797 000c 1B78     		ldrb	r3, [r3, #0]	@ zero_extendqisi2
 798 000e 03F10103 		add	r3, r3, #1
 799 0012 DAB2     		uxtb	r2, r3
 800 0014 40F20003 		movw	r3, #:lower16:AMuxSeq_curChannel
ARM GAS  C:\Users\gravi\AppData\Local\Temp\ccByFLrk.s 			page 22


 801 0018 C0F20003 		movt	r3, #:upper16:AMuxSeq_curChannel
 802 001c 1A70     		strb	r2, [r3, #0]
 391:.\Generated_Source\PSoC5/cyfitter_cfg.c **** 	switch (AMuxSeq_curChannel)
 803              		.loc 1 391 0
 804 001e 40F20003 		movw	r3, #:lower16:AMuxSeq_curChannel
 805 0022 C0F20003 		movt	r3, #:upper16:AMuxSeq_curChannel
 806 0026 1B78     		ldrb	r3, [r3, #0]	@ zero_extendqisi2
 807 0028 5BB2     		sxtb	r3, r3
 808 002a 082B     		cmp	r3, #8
 809 002c 14D8     		bhi	.L25
 810 002e 01A2     		adr	r2, .L35
 811 0030 52F823F0 		ldr	pc, [r2, r3, lsl #2]
 812              		.align	2
 813              	.L35:
 814 0034 67000000 		.word	.L26+1
 815 0038 93000000 		.word	.L27+1
 816 003c B1000000 		.word	.L28+1
 817 0040 CF000000 		.word	.L29+1
 818 0044 ED000000 		.word	.L30+1
 819 0048 0B010000 		.word	.L31+1
 820 004c 29010000 		.word	.L32+1
 821 0050 55010000 		.word	.L33+1
 822 0054 73010000 		.word	.L34+1
 823              	.L25:
 392:.\Generated_Source\PSoC5/cyfitter_cfg.c **** 	{
 393:.\Generated_Source\PSoC5/cyfitter_cfg.c **** 	case 9:
 394:.\Generated_Source\PSoC5/cyfitter_cfg.c **** 	default:
 395:.\Generated_Source\PSoC5/cyfitter_cfg.c **** 		AMuxSeq_curChannel = 0;
 824              		.loc 1 395 0
 825 0058 40F20003 		movw	r3, #:lower16:AMuxSeq_curChannel
 826 005c C0F20003 		movt	r3, #:upper16:AMuxSeq_curChannel
 827 0060 4FF00002 		mov	r2, #0
 828 0064 1A70     		strb	r2, [r3, #0]
 829              	.L26:
 396:.\Generated_Source\PSoC5/cyfitter_cfg.c **** 	case 0:
 397:.\Generated_Source\PSoC5/cyfitter_cfg.c **** 		CY_SET_REG8((void CYXDATA *)CYREG_DSM0_SW0, 0x41u);
 830              		.loc 1 397 0
 831 0066 4FF4B643 		mov	r3, #23296
 832 006a C4F20003 		movt	r3, 16384
 833 006e 4FF04102 		mov	r2, #65
 834 0072 1A70     		strb	r2, [r3, #0]
 398:.\Generated_Source\PSoC5/cyfitter_cfg.c **** 		CY_SET_REG8((void CYXDATA *)CYREG_PRT0_AG, 0x01u | 0x08u);
 835              		.loc 1 398 0
 836 0074 45F20D13 		movw	r3, #20749
 837 0078 C4F20003 		movt	r3, 16384
 838 007c 4FF00902 		mov	r2, #9
 839 0080 1A70     		strb	r2, [r3, #0]
 399:.\Generated_Source\PSoC5/cyfitter_cfg.c **** 		CY_SET_REG8((void CYXDATA *)CYREG_DSM0_SW0, 0x41u | 0x80u);
 840              		.loc 1 399 0
 841 0082 4FF4B643 		mov	r3, #23296
 842 0086 C4F20003 		movt	r3, 16384
 843 008a 4FF0C102 		mov	r2, #193
 844 008e 1A70     		strb	r2, [r3, #0]
 400:.\Generated_Source\PSoC5/cyfitter_cfg.c **** 		break;
 845              		.loc 1 400 0
 846 0090 7EE0     		b	.L24
 847              	.L27:
ARM GAS  C:\Users\gravi\AppData\Local\Temp\ccByFLrk.s 			page 23


 401:.\Generated_Source\PSoC5/cyfitter_cfg.c **** 	case 1:
 402:.\Generated_Source\PSoC5/cyfitter_cfg.c **** 		CY_SET_REG8((void CYXDATA *)CYREG_DSM0_SW0, 0x41u);
 848              		.loc 1 402 0
 849 0092 4FF4B643 		mov	r3, #23296
 850 0096 C4F20003 		movt	r3, 16384
 851 009a 4FF04102 		mov	r2, #65
 852 009e 1A70     		strb	r2, [r3, #0]
 403:.\Generated_Source\PSoC5/cyfitter_cfg.c **** 		CY_SET_REG8((void CYXDATA *)CYREG_PRT0_AG, 0x01u | 0x04u);
 853              		.loc 1 403 0
 854 00a0 45F20D13 		movw	r3, #20749
 855 00a4 C4F20003 		movt	r3, 16384
 856 00a8 4FF00502 		mov	r2, #5
 857 00ac 1A70     		strb	r2, [r3, #0]
 404:.\Generated_Source\PSoC5/cyfitter_cfg.c **** 		break;
 858              		.loc 1 404 0
 859 00ae 6FE0     		b	.L24
 860              	.L28:
 405:.\Generated_Source\PSoC5/cyfitter_cfg.c **** 	case 2:
 406:.\Generated_Source\PSoC5/cyfitter_cfg.c **** 		CY_SET_REG8((void CYXDATA *)CYREG_PRT0_AG, 0x01u);
 861              		.loc 1 406 0
 862 00b0 45F20D13 		movw	r3, #20749
 863 00b4 C4F20003 		movt	r3, 16384
 864 00b8 4FF00102 		mov	r2, #1
 865 00bc 1A70     		strb	r2, [r3, #0]
 407:.\Generated_Source\PSoC5/cyfitter_cfg.c **** 		CY_SET_REG8((void CYXDATA *)CYREG_PRT6_AG, 0x06u | 0x01u);
 866              		.loc 1 407 0
 867 00be 45F26D13 		movw	r3, #20845
 868 00c2 C4F20003 		movt	r3, 16384
 869 00c6 4FF00702 		mov	r2, #7
 870 00ca 1A70     		strb	r2, [r3, #0]
 408:.\Generated_Source\PSoC5/cyfitter_cfg.c **** 		break;
 871              		.loc 1 408 0
 872 00cc 60E0     		b	.L24
 873              	.L29:
 409:.\Generated_Source\PSoC5/cyfitter_cfg.c **** 	case 3:
 410:.\Generated_Source\PSoC5/cyfitter_cfg.c **** 		CY_SET_REG8((void CYXDATA *)CYREG_PRT6_AG, 0x06u);
 874              		.loc 1 410 0
 875 00ce 45F26D13 		movw	r3, #20845
 876 00d2 C4F20003 		movt	r3, 16384
 877 00d6 4FF00602 		mov	r2, #6
 878 00da 1A70     		strb	r2, [r3, #0]
 411:.\Generated_Source\PSoC5/cyfitter_cfg.c **** 		CY_SET_REG8((void CYXDATA *)CYREG_PRT0_AMUX, 0x10u);
 879              		.loc 1 411 0
 880 00dc 45F20C13 		movw	r3, #20748
 881 00e0 C4F20003 		movt	r3, 16384
 882 00e4 4FF01002 		mov	r2, #16
 883 00e8 1A70     		strb	r2, [r3, #0]
 412:.\Generated_Source\PSoC5/cyfitter_cfg.c **** 		break;
 884              		.loc 1 412 0
 885 00ea 51E0     		b	.L24
 886              	.L30:
 413:.\Generated_Source\PSoC5/cyfitter_cfg.c **** 	case 4:
 414:.\Generated_Source\PSoC5/cyfitter_cfg.c **** 		CY_SET_REG8((void CYXDATA *)CYREG_PRT0_AMUX, 0x00u);
 887              		.loc 1 414 0
 888 00ec 45F20C13 		movw	r3, #20748
 889 00f0 C4F20003 		movt	r3, 16384
 890 00f4 4FF00002 		mov	r2, #0
ARM GAS  C:\Users\gravi\AppData\Local\Temp\ccByFLrk.s 			page 24


 891 00f8 1A70     		strb	r2, [r3, #0]
 415:.\Generated_Source\PSoC5/cyfitter_cfg.c **** 		CY_SET_REG8((void CYXDATA *)CYREG_PRT0_AG, 0x01u | 0x40u);
 892              		.loc 1 415 0
 893 00fa 45F20D13 		movw	r3, #20749
 894 00fe C4F20003 		movt	r3, 16384
 895 0102 4FF04102 		mov	r2, #65
 896 0106 1A70     		strb	r2, [r3, #0]
 416:.\Generated_Source\PSoC5/cyfitter_cfg.c **** 		break;
 897              		.loc 1 416 0
 898 0108 42E0     		b	.L24
 899              	.L31:
 417:.\Generated_Source\PSoC5/cyfitter_cfg.c **** 	case 5:
 418:.\Generated_Source\PSoC5/cyfitter_cfg.c **** 		CY_SET_REG8((void CYXDATA *)CYREG_PRT0_AG, 0x01u | 0x20u);
 900              		.loc 1 418 0
 901 010a 45F20D13 		movw	r3, #20749
 902 010e C4F20003 		movt	r3, 16384
 903 0112 4FF02102 		mov	r2, #33
 904 0116 1A70     		strb	r2, [r3, #0]
 419:.\Generated_Source\PSoC5/cyfitter_cfg.c **** 		CY_SET_REG8((void CYXDATA *)CYREG_DSM0_SW0, 0x41u | 0x20u);
 905              		.loc 1 419 0
 906 0118 4FF4B643 		mov	r3, #23296
 907 011c C4F20003 		movt	r3, 16384
 908 0120 4FF06102 		mov	r2, #97
 909 0124 1A70     		strb	r2, [r3, #0]
 420:.\Generated_Source\PSoC5/cyfitter_cfg.c **** 		break;
 910              		.loc 1 420 0
 911 0126 33E0     		b	.L24
 912              	.L32:
 421:.\Generated_Source\PSoC5/cyfitter_cfg.c **** 	case 6:
 422:.\Generated_Source\PSoC5/cyfitter_cfg.c **** 		CY_SET_REG8((void CYXDATA *)CYREG_PRT0_AG, 0x01u);
 913              		.loc 1 422 0
 914 0128 45F20D13 		movw	r3, #20749
 915 012c C4F20003 		movt	r3, 16384
 916 0130 4FF00102 		mov	r2, #1
 917 0134 1A70     		strb	r2, [r3, #0]
 423:.\Generated_Source\PSoC5/cyfitter_cfg.c **** 		CY_SET_REG8((void CYXDATA *)CYREG_DSM0_SW0, 0x41u);
 918              		.loc 1 423 0
 919 0136 4FF4B643 		mov	r3, #23296
 920 013a C4F20003 		movt	r3, 16384
 921 013e 4FF04102 		mov	r2, #65
 922 0142 1A70     		strb	r2, [r3, #0]
 424:.\Generated_Source\PSoC5/cyfitter_cfg.c **** 		CY_SET_REG8((void CYXDATA *)CYREG_PRT15_AMUX, 0x20u);
 923              		.loc 1 424 0
 924 0144 45F2FC13 		movw	r3, #20988
 925 0148 C4F20003 		movt	r3, 16384
 926 014c 4FF02002 		mov	r2, #32
 927 0150 1A70     		strb	r2, [r3, #0]
 425:.\Generated_Source\PSoC5/cyfitter_cfg.c **** 		break;
 928              		.loc 1 425 0
 929 0152 1DE0     		b	.L24
 930              	.L33:
 426:.\Generated_Source\PSoC5/cyfitter_cfg.c **** 	case 7:
 427:.\Generated_Source\PSoC5/cyfitter_cfg.c **** 		CY_SET_REG8((void CYXDATA *)CYREG_PRT15_AMUX, 0x00u);
 931              		.loc 1 427 0
 932 0154 45F2FC13 		movw	r3, #20988
 933 0158 C4F20003 		movt	r3, 16384
 934 015c 4FF00002 		mov	r2, #0
ARM GAS  C:\Users\gravi\AppData\Local\Temp\ccByFLrk.s 			page 25


 935 0160 1A70     		strb	r2, [r3, #0]
 428:.\Generated_Source\PSoC5/cyfitter_cfg.c **** 		CY_SET_REG8((void CYXDATA *)CYREG_PRT15_AG, 0x10u);
 936              		.loc 1 428 0
 937 0162 45F2FD13 		movw	r3, #20989
 938 0166 C4F20003 		movt	r3, 16384
 939 016a 4FF01002 		mov	r2, #16
 940 016e 1A70     		strb	r2, [r3, #0]
 429:.\Generated_Source\PSoC5/cyfitter_cfg.c **** 		break;
 941              		.loc 1 429 0
 942 0170 0EE0     		b	.L24
 943              	.L34:
 430:.\Generated_Source\PSoC5/cyfitter_cfg.c **** 	case 8:
 431:.\Generated_Source\PSoC5/cyfitter_cfg.c **** 		CY_SET_REG8((void CYXDATA *)CYREG_PRT15_AG, 0x00u);
 944              		.loc 1 431 0
 945 0172 45F2FD13 		movw	r3, #20989
 946 0176 C4F20003 		movt	r3, 16384
 947 017a 4FF00002 		mov	r2, #0
 948 017e 1A70     		strb	r2, [r3, #0]
 432:.\Generated_Source\PSoC5/cyfitter_cfg.c **** 		CY_SET_REG8((void CYXDATA *)CYREG_DSM0_SW0, 0x41u | 0x10u);
 949              		.loc 1 432 0
 950 0180 4FF4B643 		mov	r3, #23296
 951 0184 C4F20003 		movt	r3, 16384
 952 0188 4FF05102 		mov	r2, #81
 953 018c 1A70     		strb	r2, [r3, #0]
 433:.\Generated_Source\PSoC5/cyfitter_cfg.c **** 		break;
 954              		.loc 1 433 0
 955 018e 00BF     		nop
 956              	.L24:
 434:.\Generated_Source\PSoC5/cyfitter_cfg.c **** 	}
 435:.\Generated_Source\PSoC5/cyfitter_cfg.c **** }
 957              		.loc 1 435 0
 958 0190 BD46     		mov	sp, r7
 959 0192 80BC     		pop	{r7}
 960 0194 7047     		bx	lr
 961              		.cfi_endproc
 962              	.LFE9:
 963              		.size	AMuxSeq_Next, .-AMuxSeq_Next
 964 0196 00BF     		.section	.text.cyfitter_cfg,"ax",%progbits
 965              		.align	2
 966              		.global	cyfitter_cfg
 967              		.thumb
 968              		.thumb_func
 969              		.type	cyfitter_cfg, %function
 970              	cyfitter_cfg:
 971              	.LFB10:
 436:.\Generated_Source\PSoC5/cyfitter_cfg.c **** 
 437:.\Generated_Source\PSoC5/cyfitter_cfg.c **** 
 438:.\Generated_Source\PSoC5/cyfitter_cfg.c **** 
 439:.\Generated_Source\PSoC5/cyfitter_cfg.c **** /*******************************************************************************
 440:.\Generated_Source\PSoC5/cyfitter_cfg.c **** * Function Name: cyfitter_cfg
 441:.\Generated_Source\PSoC5/cyfitter_cfg.c **** ********************************************************************************
 442:.\Generated_Source\PSoC5/cyfitter_cfg.c **** * Summary:
 443:.\Generated_Source\PSoC5/cyfitter_cfg.c **** *  This function is called by the start-up code for the selected device. It
 444:.\Generated_Source\PSoC5/cyfitter_cfg.c **** *  performs all of the necessary device configuration based on the design
 445:.\Generated_Source\PSoC5/cyfitter_cfg.c **** *  settings.  This includes settings from the Design Wide Resources (DWR) such
 446:.\Generated_Source\PSoC5/cyfitter_cfg.c **** *  as Clocks and Pins as well as any component configuration that is necessary.
 447:.\Generated_Source\PSoC5/cyfitter_cfg.c **** *
ARM GAS  C:\Users\gravi\AppData\Local\Temp\ccByFLrk.s 			page 26


 448:.\Generated_Source\PSoC5/cyfitter_cfg.c **** * Parameters:  
 449:.\Generated_Source\PSoC5/cyfitter_cfg.c **** *   void
 450:.\Generated_Source\PSoC5/cyfitter_cfg.c **** *
 451:.\Generated_Source\PSoC5/cyfitter_cfg.c **** * Return:
 452:.\Generated_Source\PSoC5/cyfitter_cfg.c **** *   void
 453:.\Generated_Source\PSoC5/cyfitter_cfg.c **** *
 454:.\Generated_Source\PSoC5/cyfitter_cfg.c **** *******************************************************************************/
 455:.\Generated_Source\PSoC5/cyfitter_cfg.c **** 
 456:.\Generated_Source\PSoC5/cyfitter_cfg.c **** void cyfitter_cfg(void)
 457:.\Generated_Source\PSoC5/cyfitter_cfg.c **** {
 972              		.loc 1 457 0
 973              		.cfi_startproc
 974              		@ args = 0, pretend = 0, frame = 24
 975              		@ frame_needed = 1, uses_anonymous_args = 0
 976 0000 80B5     		push	{r7, lr}
 977              	.LCFI28:
 978              		.cfi_def_cfa_offset 8
 979              		.cfi_offset 7, -8
 980              		.cfi_offset 14, -4
 981 0002 86B0     		sub	sp, sp, #24
 982              	.LCFI29:
 983              		.cfi_def_cfa_offset 32
 984 0004 00AF     		add	r7, sp, #0
 985              	.LCFI30:
 986              		.cfi_def_cfa_register 7
 458:.\Generated_Source\PSoC5/cyfitter_cfg.c **** #ifdef CYGlobalIntDisable
 459:.\Generated_Source\PSoC5/cyfitter_cfg.c **** 	/* Disable interrupts by default. Let user enable if/when they want. */
 460:.\Generated_Source\PSoC5/cyfitter_cfg.c **** 	CYGlobalIntDisable
 987              		.loc 1 460 0
 988              	@ 460 ".\Generated_Source\PSoC5\cyfitter_cfg.c" 1
 989 0006 72B6     		CPSID   i
 990              	@ 0 "" 2
 461:.\Generated_Source\PSoC5/cyfitter_cfg.c **** #endif
 462:.\Generated_Source\PSoC5/cyfitter_cfg.c **** 
 463:.\Generated_Source\PSoC5/cyfitter_cfg.c **** 
 464:.\Generated_Source\PSoC5/cyfitter_cfg.c **** 	/* Set Flash Cycles based on max possible frequency in case a glitch occurs during ClockSetup(). *
 465:.\Generated_Source\PSoC5/cyfitter_cfg.c **** 	CY_SET_XTND_REG8((void CYFAR *)(CYREG_CACHE_CC_CTL), (((CYDEV_INSTRUCT_CACHE_ENABLED) != 0) ? 0x01
 991              		.loc 1 465 0
 992              		.thumb
 993 0008 4FF49043 		mov	r3, #18432
 994 000c C4F20003 		movt	r3, 16384
 995 0010 4FF00102 		mov	r2, #1
 996 0014 1A70     		strb	r2, [r3, #0]
 466:.\Generated_Source\PSoC5/cyfitter_cfg.c **** 	/* Setup clocks based on selections from Clock DWR */
 467:.\Generated_Source\PSoC5/cyfitter_cfg.c **** 	ClockSetup();
 997              		.loc 1 467 0
 998 0016 FFF7FEFF 		bl	ClockSetup
 468:.\Generated_Source\PSoC5/cyfitter_cfg.c **** 	/* Enable/Disable Debug functionality based on settings from System DWR */
 469:.\Generated_Source\PSoC5/cyfitter_cfg.c **** 	CY_SET_XTND_REG8((void CYFAR *)CYREG_MLOGIC_DEBUG, (CY_GET_XTND_REG8((void CYFAR *)CYREG_MLOGIC_DE
 999              		.loc 1 469 0
 1000 001a 44F2E863 		movw	r3, #18152
 1001 001e C4F20003 		movt	r3, 16384
 1002 0022 44F2E862 		movw	r2, #18152
 1003 0026 C4F20002 		movt	r2, 16384
 1004 002a 1278     		ldrb	r2, [r2, #0]
 1005 002c D2B2     		uxtb	r2, r2
 1006 002e 42F00402 		orr	r2, r2, #4
ARM GAS  C:\Users\gravi\AppData\Local\Temp\ccByFLrk.s 			page 27


 1007 0032 D2B2     		uxtb	r2, r2
 1008 0034 1A70     		strb	r2, [r3, #0]
 1009              	.LBB3:
 470:.\Generated_Source\PSoC5/cyfitter_cfg.c **** 
 471:.\Generated_Source\PSoC5/cyfitter_cfg.c **** 	{
 472:.\Generated_Source\PSoC5/cyfitter_cfg.c **** 
 473:.\Generated_Source\PSoC5/cyfitter_cfg.c **** 		CYPACKED typedef struct {
 474:.\Generated_Source\PSoC5/cyfitter_cfg.c **** 			void CYFAR *address;
 475:.\Generated_Source\PSoC5/cyfitter_cfg.c **** 			uint16 size;
 476:.\Generated_Source\PSoC5/cyfitter_cfg.c **** 		} CYPACKED_ATTR cfg_memset_t;
 477:.\Generated_Source\PSoC5/cyfitter_cfg.c **** 
 478:.\Generated_Source\PSoC5/cyfitter_cfg.c **** 
 479:.\Generated_Source\PSoC5/cyfitter_cfg.c **** 		CYPACKED typedef struct {
 480:.\Generated_Source\PSoC5/cyfitter_cfg.c **** 			void CYFAR *dest;
 481:.\Generated_Source\PSoC5/cyfitter_cfg.c **** 			const void CYFAR *src;
 482:.\Generated_Source\PSoC5/cyfitter_cfg.c **** 			uint16 size;
 483:.\Generated_Source\PSoC5/cyfitter_cfg.c **** 		} CYPACKED_ATTR cfg_memcpy_t;
 484:.\Generated_Source\PSoC5/cyfitter_cfg.c **** 
 485:.\Generated_Source\PSoC5/cyfitter_cfg.c **** 		static const cfg_memset_t CYCODE cfg_memset_list [] = {
 486:.\Generated_Source\PSoC5/cyfitter_cfg.c **** 			/* address, size */
 487:.\Generated_Source\PSoC5/cyfitter_cfg.c **** 			{(void CYFAR *)(CYREG_I2C_XCFG), 25u},
 488:.\Generated_Source\PSoC5/cyfitter_cfg.c **** 			{(void CYFAR *)(CYREG_TMR0_CFG0), 36u},
 489:.\Generated_Source\PSoC5/cyfitter_cfg.c **** 			{(void CYFAR *)(CYDEV_UCFG_B0_P0_U0_BASE), 128u},
 490:.\Generated_Source\PSoC5/cyfitter_cfg.c **** 			{(void CYFAR *)(CYDEV_UCFG_B0_P0_ROUTE_BASE), 3840u},
 491:.\Generated_Source\PSoC5/cyfitter_cfg.c **** 			{(void CYFAR *)(CYDEV_UCFG_B1_P2_U0_BASE), 2048u},
 492:.\Generated_Source\PSoC5/cyfitter_cfg.c **** 			{(void CYFAR *)(CYDEV_UCFG_DSI0_BASE), 2560u},
 493:.\Generated_Source\PSoC5/cyfitter_cfg.c **** 			{(void CYFAR *)(CYDEV_UCFG_DSI12_BASE), 512u},
 494:.\Generated_Source\PSoC5/cyfitter_cfg.c **** 			{(void CYFAR *)(CYREG_BCTL1_MDCLK_EN), 16u},
 495:.\Generated_Source\PSoC5/cyfitter_cfg.c **** 		};
 496:.\Generated_Source\PSoC5/cyfitter_cfg.c **** 
 497:.\Generated_Source\PSoC5/cyfitter_cfg.c **** 		static const cfg_memcpy_t CYCODE cfg_memcpy_list [] = {
 498:.\Generated_Source\PSoC5/cyfitter_cfg.c **** 			/* dest, src, size */
 499:.\Generated_Source\PSoC5/cyfitter_cfg.c **** 			{(void CYFAR *)(CYDEV_PRTDSI_PRT12_BASE), BS_IOPORT_7_VAL, 6u},
 500:.\Generated_Source\PSoC5/cyfitter_cfg.c **** 			{(void CYFAR *)(CYREG_IDMUX_IRQ_CTL0), BS_IDMUX_IRQ_VAL, 8u},
 501:.\Generated_Source\PSoC5/cyfitter_cfg.c **** 			{(void CYFAR *)(CYDEV_UCFG_B0_P0_U1_BASE), BS_UDB_1_5_1_CONFIG_VAL, 128u},
 502:.\Generated_Source\PSoC5/cyfitter_cfg.c **** 			{(void CYFAR *)(CYREG_BCTL0_MDCLK_EN), BS_UCFG_BCTL0_VAL, 16u},
 503:.\Generated_Source\PSoC5/cyfitter_cfg.c **** 		};
 504:.\Generated_Source\PSoC5/cyfitter_cfg.c **** 
 505:.\Generated_Source\PSoC5/cyfitter_cfg.c **** 		uint8 CYDATA i;
 506:.\Generated_Source\PSoC5/cyfitter_cfg.c **** 
 507:.\Generated_Source\PSoC5/cyfitter_cfg.c **** 		/* Zero out critical memory blocks before beginning configuration */
 508:.\Generated_Source\PSoC5/cyfitter_cfg.c **** 		for (i = 0u; i < (sizeof(cfg_memset_list)/sizeof(cfg_memset_list[0])); i++)
 1010              		.loc 1 508 0
 1011 0036 4FF00003 		mov	r3, #0
 1012 003a FB75     		strb	r3, [r7, #23]
 1013 003c 19E0     		b	.L38
 1014              	.L39:
 1015              	.LBB4:
 509:.\Generated_Source\PSoC5/cyfitter_cfg.c **** 		{
 510:.\Generated_Source\PSoC5/cyfitter_cfg.c **** 			const cfg_memset_t CYCODE * CYDATA ms = &cfg_memset_list[i];
 1016              		.loc 1 510 0 discriminator 2
 1017 003e FA7D     		ldrb	r2, [r7, #23]	@ zero_extendqisi2
 1018 0040 1346     		mov	r3, r2
 1019 0042 4FEA4303 		lsl	r3, r3, #1
 1020 0046 9B18     		adds	r3, r3, r2
 1021 0048 4FEA4303 		lsl	r3, r3, #1
 1022 004c 40F20002 		movw	r2, #:lower16:cfg_memset_list.4840
ARM GAS  C:\Users\gravi\AppData\Local\Temp\ccByFLrk.s 			page 28


 1023 0050 C0F20002 		movt	r2, #:upper16:cfg_memset_list.4840
 1024 0054 9B18     		adds	r3, r3, r2
 1025 0056 3B61     		str	r3, [r7, #16]
 511:.\Generated_Source\PSoC5/cyfitter_cfg.c **** 			CYMEMZERO(ms->address, (uint32)(ms->size));
 1026              		.loc 1 511 0 discriminator 2
 1027 0058 3B69     		ldr	r3, [r7, #16]
 1028 005a 1A68     		ldr	r2, [r3, #0]	@ unaligned
 1029 005c 3B69     		ldr	r3, [r7, #16]
 1030 005e 9B88     		ldrh	r3, [r3, #4]	@ unaligned
 1031 0060 9BB2     		uxth	r3, r3
 1032 0062 1046     		mov	r0, r2
 1033 0064 1946     		mov	r1, r3
 1034 0066 FFF7FEFF 		bl	CYMEMZERO
 1035              	.LBE4:
 508:.\Generated_Source\PSoC5/cyfitter_cfg.c **** 		for (i = 0u; i < (sizeof(cfg_memset_list)/sizeof(cfg_memset_list[0])); i++)
 1036              		.loc 1 508 0 discriminator 2
 1037 006a FB7D     		ldrb	r3, [r7, #23]
 1038 006c 03F10103 		add	r3, r3, #1
 1039 0070 FB75     		strb	r3, [r7, #23]
 1040              	.L38:
 508:.\Generated_Source\PSoC5/cyfitter_cfg.c **** 		for (i = 0u; i < (sizeof(cfg_memset_list)/sizeof(cfg_memset_list[0])); i++)
 1041              		.loc 1 508 0 is_stmt 0 discriminator 1
 1042 0072 FB7D     		ldrb	r3, [r7, #23]	@ zero_extendqisi2
 1043 0074 072B     		cmp	r3, #7
 1044 0076 E2D9     		bls	.L39
 512:.\Generated_Source\PSoC5/cyfitter_cfg.c **** 		}
 513:.\Generated_Source\PSoC5/cyfitter_cfg.c **** 
 514:.\Generated_Source\PSoC5/cyfitter_cfg.c **** 		/* Copy device configuration data into registers */
 515:.\Generated_Source\PSoC5/cyfitter_cfg.c **** 		for (i = 0u; i < (sizeof(cfg_memcpy_list)/sizeof(cfg_memcpy_list[0])); i++)
 1045              		.loc 1 515 0 is_stmt 1
 1046 0078 4FF00003 		mov	r3, #0
 1047 007c FB75     		strb	r3, [r7, #23]
 1048 007e 23E0     		b	.L40
 1049              	.L41:
 1050              	.LBB5:
 516:.\Generated_Source\PSoC5/cyfitter_cfg.c **** 		{
 517:.\Generated_Source\PSoC5/cyfitter_cfg.c **** 			const cfg_memcpy_t CYCODE * CYDATA mc = &cfg_memcpy_list[i];
 1051              		.loc 1 517 0 discriminator 2
 1052 0080 FA7D     		ldrb	r2, [r7, #23]	@ zero_extendqisi2
 1053 0082 1346     		mov	r3, r2
 1054 0084 4FEA8303 		lsl	r3, r3, #2
 1055 0088 9B18     		adds	r3, r3, r2
 1056 008a 4FEA4303 		lsl	r3, r3, #1
 1057 008e 40F20002 		movw	r2, #:lower16:cfg_memcpy_list.4841
 1058 0092 C0F20002 		movt	r2, #:upper16:cfg_memcpy_list.4841
 1059 0096 9B18     		adds	r3, r3, r2
 1060 0098 FB60     		str	r3, [r7, #12]
 518:.\Generated_Source\PSoC5/cyfitter_cfg.c **** 			void * CYDATA destPtr = mc->dest;
 1061              		.loc 1 518 0 discriminator 2
 1062 009a FB68     		ldr	r3, [r7, #12]
 1063 009c 1B68     		ldr	r3, [r3, #0]	@ unaligned
 1064 009e BB60     		str	r3, [r7, #8]
 519:.\Generated_Source\PSoC5/cyfitter_cfg.c **** 			const void * CYDATA srcPtr = mc->src;
 1065              		.loc 1 519 0 discriminator 2
 1066 00a0 FB68     		ldr	r3, [r7, #12]
 1067 00a2 5B68     		ldr	r3, [r3, #4]	@ unaligned
 1068 00a4 7B60     		str	r3, [r7, #4]
ARM GAS  C:\Users\gravi\AppData\Local\Temp\ccByFLrk.s 			page 29


 520:.\Generated_Source\PSoC5/cyfitter_cfg.c **** 			uint16 CYDATA numBytes = mc->size;
 1069              		.loc 1 520 0 discriminator 2
 1070 00a6 FB68     		ldr	r3, [r7, #12]
 1071 00a8 1A7A     		ldrb	r2, [r3, #8]	@ zero_extendqisi2
 1072 00aa 5B7A     		ldrb	r3, [r3, #9]	@ zero_extendqisi2
 1073 00ac 4FEA0323 		lsl	r3, r3, #8
 1074 00b0 1343     		orrs	r3, r3, r2
 1075 00b2 7B80     		strh	r3, [r7, #2]	@ movhi
 521:.\Generated_Source\PSoC5/cyfitter_cfg.c **** 			CYCONFIGCPY(destPtr, srcPtr, numBytes);
 1076              		.loc 1 521 0 discriminator 2
 1077 00b4 7B88     		ldrh	r3, [r7, #2]
 1078 00b6 B868     		ldr	r0, [r7, #8]
 1079 00b8 7968     		ldr	r1, [r7, #4]
 1080 00ba 1A46     		mov	r2, r3
 1081 00bc FFF7FEFF 		bl	CYCONFIGCPY
 1082              	.LBE5:
 515:.\Generated_Source\PSoC5/cyfitter_cfg.c **** 		for (i = 0u; i < (sizeof(cfg_memcpy_list)/sizeof(cfg_memcpy_list[0])); i++)
 1083              		.loc 1 515 0 discriminator 2
 1084 00c0 FB7D     		ldrb	r3, [r7, #23]
 1085 00c2 03F10103 		add	r3, r3, #1
 1086 00c6 FB75     		strb	r3, [r7, #23]
 1087              	.L40:
 515:.\Generated_Source\PSoC5/cyfitter_cfg.c **** 		for (i = 0u; i < (sizeof(cfg_memcpy_list)/sizeof(cfg_memcpy_list[0])); i++)
 1088              		.loc 1 515 0 is_stmt 0 discriminator 1
 1089 00c8 FB7D     		ldrb	r3, [r7, #23]	@ zero_extendqisi2
 1090 00ca 032B     		cmp	r3, #3
 1091 00cc D8D9     		bls	.L41
 522:.\Generated_Source\PSoC5/cyfitter_cfg.c **** 		}
 523:.\Generated_Source\PSoC5/cyfitter_cfg.c **** 
 524:.\Generated_Source\PSoC5/cyfitter_cfg.c **** 		cfg_write_bytes32(cy_cfg_addr_table, cy_cfg_data_table);
 1092              		.loc 1 524 0 is_stmt 1
 1093 00ce 4FF09040 		mov	r0, #1207959552
 1094 00d2 4FF0A001 		mov	r1, #160
 1095 00d6 C4F60001 		movt	r1, 18432
 1096 00da FFF7FEFF 		bl	cfg_write_bytes32
 525:.\Generated_Source\PSoC5/cyfitter_cfg.c **** 
 526:.\Generated_Source\PSoC5/cyfitter_cfg.c **** 		/* Perform normal device configuration. Order is not critical for these items. */
 527:.\Generated_Source\PSoC5/cyfitter_cfg.c **** 		CY_SET_XTND_REG8((void CYFAR *)(CYREG_DSM0_CR3), 0x0Au);
 1097              		.loc 1 527 0
 1098 00de 45F68303 		movw	r3, #22659
 1099 00e2 C4F20003 		movt	r3, 16384
 1100 00e6 4FF00A02 		mov	r2, #10
 1101 00ea 1A70     		strb	r2, [r3, #0]
 528:.\Generated_Source\PSoC5/cyfitter_cfg.c **** 		CYMEMZERO((void CYFAR *)(CYREG_PHUB_CFGMEM0_CFG0), 4u);
 1102              		.loc 1 528 0
 1103 00ec 4FF4EC40 		mov	r0, #30208
 1104 00f0 C4F20000 		movt	r0, 16384
 1105 00f4 4FF00401 		mov	r1, #4
 1106 00f8 FFF7FEFF 		bl	CYMEMZERO
 529:.\Generated_Source\PSoC5/cyfitter_cfg.c **** 		CYMEMZERO((void CYFAR *)(CYREG_PHUB_CFGMEM1_CFG0), 4u);
 1107              		.loc 1 529 0
 1108 00fc 47F20860 		movw	r0, #30216
 1109 0100 C4F20000 		movt	r0, 16384
 1110 0104 4FF00401 		mov	r1, #4
 1111 0108 FFF7FEFF 		bl	CYMEMZERO
 530:.\Generated_Source\PSoC5/cyfitter_cfg.c **** 
 531:.\Generated_Source\PSoC5/cyfitter_cfg.c **** 		/* Enable digital routing */
ARM GAS  C:\Users\gravi\AppData\Local\Temp\ccByFLrk.s 			page 30


 532:.\Generated_Source\PSoC5/cyfitter_cfg.c **** 		CY_SET_XTND_REG8((void CYFAR *)CYREG_BCTL0_BANK_CTL, CY_GET_XTND_REG8((void CYFAR *)CYREG_BCTL0_B
 1112              		.loc 1 532 0
 1113 010c 45F20303 		movw	r3, #20483
 1114 0110 C4F20103 		movt	r3, 16385
 1115 0114 45F20302 		movw	r2, #20483
 1116 0118 C4F20102 		movt	r2, 16385
 1117 011c 1278     		ldrb	r2, [r2, #0]
 1118 011e D2B2     		uxtb	r2, r2
 1119 0120 42F00202 		orr	r2, r2, #2
 1120 0124 D2B2     		uxtb	r2, r2
 1121 0126 1A70     		strb	r2, [r3, #0]
 533:.\Generated_Source\PSoC5/cyfitter_cfg.c **** 		CY_SET_XTND_REG8((void CYFAR *)CYREG_BCTL1_BANK_CTL, CY_GET_XTND_REG8((void CYFAR *)CYREG_BCTL1_B
 1122              		.loc 1 533 0
 1123 0128 45F21303 		movw	r3, #20499
 1124 012c C4F20103 		movt	r3, 16385
 1125 0130 45F21302 		movw	r2, #20499
 1126 0134 C4F20102 		movt	r2, 16385
 1127 0138 1278     		ldrb	r2, [r2, #0]
 1128 013a D2B2     		uxtb	r2, r2
 1129 013c 42F00202 		orr	r2, r2, #2
 1130 0140 D2B2     		uxtb	r2, r2
 1131 0142 1A70     		strb	r2, [r3, #0]
 534:.\Generated_Source\PSoC5/cyfitter_cfg.c **** 
 535:.\Generated_Source\PSoC5/cyfitter_cfg.c **** 		/* Enable UDB array */
 536:.\Generated_Source\PSoC5/cyfitter_cfg.c **** 		CY_SET_XTND_REG8((void CYFAR *)CYREG_PM_ACT_CFG0, CY_GET_XTND_REG8((void CYFAR *)CYREG_PM_ACT_CFG
 1132              		.loc 1 536 0
 1133 0144 44F2A033 		movw	r3, #17312
 1134 0148 C4F20003 		movt	r3, 16384
 1135 014c 44F2A032 		movw	r2, #17312
 1136 0150 C4F20002 		movt	r2, 16384
 1137 0154 1278     		ldrb	r2, [r2, #0]
 1138 0156 D2B2     		uxtb	r2, r2
 1139 0158 42F04002 		orr	r2, r2, #64
 1140 015c D2B2     		uxtb	r2, r2
 1141 015e 1A70     		strb	r2, [r3, #0]
 537:.\Generated_Source\PSoC5/cyfitter_cfg.c **** 		CY_SET_XTND_REG8((void CYFAR *)CYREG_PM_AVAIL_CR2, CY_GET_XTND_REG8((void CYFAR *)CYREG_PM_AVAIL_
 1142              		.loc 1 537 0
 1143 0160 44F2C233 		movw	r3, #17346
 1144 0164 C4F20003 		movt	r3, 16384
 1145 0168 44F2C232 		movw	r2, #17346
 1146 016c C4F20002 		movt	r2, 16384
 1147 0170 1278     		ldrb	r2, [r2, #0]
 1148 0172 D2B2     		uxtb	r2, r2
 1149 0174 42F01002 		orr	r2, r2, #16
 1150 0178 D2B2     		uxtb	r2, r2
 1151 017a 1A70     		strb	r2, [r3, #0]
 1152              	.LBE3:
 538:.\Generated_Source\PSoC5/cyfitter_cfg.c **** 	}
 539:.\Generated_Source\PSoC5/cyfitter_cfg.c **** 
 540:.\Generated_Source\PSoC5/cyfitter_cfg.c **** 	/* Perform second pass device configuration. These items must be configured in specific order afte
 541:.\Generated_Source\PSoC5/cyfitter_cfg.c **** 	CYCONFIGCPY((void CYFAR *)(CYREG_PRT0_DM0), (const void CYFAR *)(BS_IOPINS0_0_VAL), 8u);
 1153              		.loc 1 541 0
 1154 017c 45F20210 		movw	r0, #20738
 1155 0180 C4F20000 		movt	r0, 16384
 1156 0184 40F6EC41 		movw	r1, #3308
 1157 0188 C4F60001 		movt	r1, 18432
 1158 018c 4FF00802 		mov	r2, #8
ARM GAS  C:\Users\gravi\AppData\Local\Temp\ccByFLrk.s 			page 31


 1159 0190 FFF7FEFF 		bl	CYCONFIGCPY
 542:.\Generated_Source\PSoC5/cyfitter_cfg.c **** 	CYCONFIGCPY((void CYFAR *)(CYREG_PRT12_DM0), (const void CYFAR *)(BS_IOPINS0_7_VAL), 8u);
 1160              		.loc 1 542 0
 1161 0194 45F2C210 		movw	r0, #20930
 1162 0198 C4F20000 		movt	r0, 16384
 1163 019c 40F6F441 		movw	r1, #3316
 1164 01a0 C4F60001 		movt	r1, 18432
 1165 01a4 4FF00802 		mov	r2, #8
 1166 01a8 FFF7FEFF 		bl	CYCONFIGCPY
 543:.\Generated_Source\PSoC5/cyfitter_cfg.c **** 	CYCONFIGCPY((void CYFAR *)(CYREG_PRT15_DM0), (const void CYFAR *)(BS_IOPINS0_8_VAL), 8u);
 1167              		.loc 1 543 0
 1168 01ac 45F2F210 		movw	r0, #20978
 1169 01b0 C4F20000 		movt	r0, 16384
 1170 01b4 40F6FC41 		movw	r1, #3324
 1171 01b8 C4F60001 		movt	r1, 18432
 1172 01bc 4FF00802 		mov	r2, #8
 1173 01c0 FFF7FEFF 		bl	CYCONFIGCPY
 544:.\Generated_Source\PSoC5/cyfitter_cfg.c **** 	CYCONFIGCPY((void CYFAR *)(CYREG_PRT1_DM0), (const void CYFAR *)(BS_IOPINS0_1_VAL), 8u);
 1174              		.loc 1 544 0
 1175 01c4 45F21210 		movw	r0, #20754
 1176 01c8 C4F20000 		movt	r0, 16384
 1177 01cc 40F60451 		movw	r1, #3332
 1178 01d0 C4F60001 		movt	r1, 18432
 1179 01d4 4FF00802 		mov	r2, #8
 1180 01d8 FFF7FEFF 		bl	CYCONFIGCPY
 545:.\Generated_Source\PSoC5/cyfitter_cfg.c **** 	CYCONFIGCPY((void CYFAR *)(CYREG_PRT2_DM0), (const void CYFAR *)(BS_IOPINS0_2_VAL), 8u);
 1181              		.loc 1 545 0
 1182 01dc 45F22210 		movw	r0, #20770
 1183 01e0 C4F20000 		movt	r0, 16384
 1184 01e4 40F60C51 		movw	r1, #3340
 1185 01e8 C4F60001 		movt	r1, 18432
 1186 01ec 4FF00802 		mov	r2, #8
 1187 01f0 FFF7FEFF 		bl	CYCONFIGCPY
 546:.\Generated_Source\PSoC5/cyfitter_cfg.c **** 	CYCONFIGCPY((void CYFAR *)(CYREG_PRT3_DM0), (const void CYFAR *)(BS_IOPINS0_3_VAL), 8u);
 1188              		.loc 1 546 0
 1189 01f4 45F23210 		movw	r0, #20786
 1190 01f8 C4F20000 		movt	r0, 16384
 1191 01fc 40F61451 		movw	r1, #3348
 1192 0200 C4F60001 		movt	r1, 18432
 1193 0204 4FF00802 		mov	r2, #8
 1194 0208 FFF7FEFF 		bl	CYCONFIGCPY
 547:.\Generated_Source\PSoC5/cyfitter_cfg.c **** 	CYCONFIGCPY((void CYFAR *)(CYREG_PRT4_DR), (const void CYFAR *)(BS_IOPINS0_4_VAL), 10u);
 1195              		.loc 1 547 0
 1196 020c 45F24010 		movw	r0, #20800
 1197 0210 C4F20000 		movt	r0, 16384
 1198 0214 40F61C51 		movw	r1, #3356
 1199 0218 C4F60001 		movt	r1, 18432
 1200 021c 4FF00A02 		mov	r2, #10
 1201 0220 FFF7FEFF 		bl	CYCONFIGCPY
 548:.\Generated_Source\PSoC5/cyfitter_cfg.c **** 	CYCONFIGCPY((void CYFAR *)(CYREG_PRT5_DM0), (const void CYFAR *)(BS_IOPINS0_5_VAL), 8u);
 1202              		.loc 1 548 0
 1203 0224 45F25210 		movw	r0, #20818
 1204 0228 C4F20000 		movt	r0, 16384
 1205 022c 40F62851 		movw	r1, #3368
 1206 0230 C4F60001 		movt	r1, 18432
 1207 0234 4FF00802 		mov	r2, #8
 1208 0238 FFF7FEFF 		bl	CYCONFIGCPY
ARM GAS  C:\Users\gravi\AppData\Local\Temp\ccByFLrk.s 			page 32


 549:.\Generated_Source\PSoC5/cyfitter_cfg.c **** 	CYCONFIGCPY((void CYFAR *)(CYREG_PRT6_DM0), (const void CYFAR *)(BS_IOPINS0_6_VAL), 8u);
 1209              		.loc 1 549 0
 1210 023c 45F26210 		movw	r0, #20834
 1211 0240 C4F20000 		movt	r0, 16384
 1212 0244 4FF45361 		mov	r1, #3376
 1213 0248 C4F60001 		movt	r1, 18432
 1214 024c 4FF00802 		mov	r2, #8
 1215 0250 FFF7FEFF 		bl	CYCONFIGCPY
 550:.\Generated_Source\PSoC5/cyfitter_cfg.c **** 	CY_SET_XTND_REG8((void CYFAR *)(CYREG_B0_P2_U0_CFG27), 0x44u);
 1216              		.loc 1 550 0
 1217 0254 40F25B43 		movw	r3, #1115
 1218 0258 C4F20103 		movt	r3, 16385
 1219 025c 4FF04402 		mov	r2, #68
 1220 0260 1A70     		strb	r2, [r3, #0]
 551:.\Generated_Source\PSoC5/cyfitter_cfg.c **** 	CY_SET_XTND_REG8((void CYFAR *)(CYREG_B1_P3_U1_CFG27), 0xC4u);
 1221              		.loc 1 551 0
 1222 0262 41F2DB63 		movw	r3, #5851
 1223 0266 C4F20103 		movt	r3, 16385
 1224 026a 4FF0C402 		mov	r2, #196
 1225 026e 1A70     		strb	r2, [r3, #0]
 552:.\Generated_Source\PSoC5/cyfitter_cfg.c **** 
 553:.\Generated_Source\PSoC5/cyfitter_cfg.c **** 	/* Switch Boost to the precision bandgap reference from its internal reference */
 554:.\Generated_Source\PSoC5/cyfitter_cfg.c **** 	CY_SET_REG8((void CYXDATA *)CYREG_BOOST_CR2, (CY_GET_REG8((void CYXDATA *)CYREG_BOOST_CR2) | 0x08u
 1226              		.loc 1 554 0
 1227 0270 44F22233 		movw	r3, #17186
 1228 0274 C4F20003 		movt	r3, 16384
 1229 0278 44F22232 		movw	r2, #17186
 1230 027c C4F20002 		movt	r2, 16384
 1231 0280 1278     		ldrb	r2, [r2, #0]
 1232 0282 D2B2     		uxtb	r2, r2
 1233 0284 42F00802 		orr	r2, r2, #8
 1234 0288 D2B2     		uxtb	r2, r2
 1235 028a 1A70     		strb	r2, [r3, #0]
 555:.\Generated_Source\PSoC5/cyfitter_cfg.c **** 
 556:.\Generated_Source\PSoC5/cyfitter_cfg.c **** 	/* Perform basic analog initialization to defaults */
 557:.\Generated_Source\PSoC5/cyfitter_cfg.c **** 	AnalogSetDefault();
 1236              		.loc 1 557 0
 1237 028c FFF7FEFF 		bl	AnalogSetDefault
 558:.\Generated_Source\PSoC5/cyfitter_cfg.c **** 
 559:.\Generated_Source\PSoC5/cyfitter_cfg.c **** 	/* Configure alternate active mode */
 560:.\Generated_Source\PSoC5/cyfitter_cfg.c **** 	CYCONFIGCPY((void CYFAR *)CYDEV_PM_STBY_BASE, (const void CYFAR *)CYDEV_PM_ACT_BASE, 14u);
 1238              		.loc 1 560 0
 1239 0290 44F2B030 		movw	r0, #17328
 1240 0294 C4F20000 		movt	r0, 16384
 1241 0298 44F2A031 		movw	r1, #17312
 1242 029c C4F20001 		movt	r1, 16384
 1243 02a0 4FF00E02 		mov	r2, #14
 1244 02a4 FFF7FEFF 		bl	CYCONFIGCPY
 561:.\Generated_Source\PSoC5/cyfitter_cfg.c **** }
 1245              		.loc 1 561 0
 1246 02a8 07F11807 		add	r7, r7, #24
 1247 02ac BD46     		mov	sp, r7
 1248 02ae 80BD     		pop	{r7, pc}
 1249              		.cfi_endproc
 1250              	.LFE10:
 1251              		.size	cyfitter_cfg, .-cyfitter_cfg
 1252              		.section	.rodata
ARM GAS  C:\Users\gravi\AppData\Local\Temp\ccByFLrk.s 			page 33


 1253              		.align	2
 1254              		.type	cfg_memset_list.4840, %object
 1255              		.size	cfg_memset_list.4840, 48
 1256              	cfg_memset_list.4840:
 1257 0000 C8490040 		.word	1073760712
 1258 0004 1900     		.short	25
 1259 0006 004F0040 		.4byte	1073762048
 1260 000a 2400     		.short	36
 1261 000c 00000140 		.word	1073807360
 1262 0010 8000     		.short	128
 1263 0012 00010140 		.4byte	1073807616
 1264 0016 000F     		.short	3840
 1265 0018 00140140 		.word	1073812480
 1266 001c 0008     		.short	2048
 1267 001e 00400140 		.4byte	1073823744
 1268 0022 000A     		.short	2560
 1269 0024 004C0140 		.word	1073826816
 1270 0028 0002     		.short	512
 1271 002a 10500140 		.4byte	1073827856
 1272 002e 1000     		.short	16
 1273              		.align	2
 1274              		.type	cfg_memcpy_list.4841, %object
 1275              		.size	cfg_memcpy_list.4841, 40
 1276              	cfg_memcpy_list.4841:
 1277 0030 60520040 		.word	1073762912
 1278 0034 4C0C0048 		.word	1207962700
 1279 0038 0600     		.short	6
 1280 003a 00510140 		.4byte	1073828096
 1281 003e 540C0048 		.4byte	1207962708
 1282 0042 0800     		.short	8
 1283 0044 80000140 		.word	1073807488
 1284 0048 5C0C0048 		.word	1207962716
 1285 004c 8000     		.short	128
 1286 004e 00500140 		.4byte	1073827840
 1287 0052 DC0C0048 		.4byte	1207962844
 1288 0056 1000     		.short	16
 1289              		.text
 1290              	.Letext0:
 1291              		.file 2 "c:\\program files (x86)\\cypress\\psoc creator\\3.0\\psoc creator\\import\\gnu_cs\\arm\\4
 1292              		.file 3 "./Generated_Source/PSoC5/cytypes.h"