Archive member included because of file (symbol)

.\CortexM3\ARM_GCC_473\Debug\GoBee-00_1.a(cyfitter_cfg_1.o)
                              .\CortexM3\ARM_GCC_473\Debug\main.o (AMuxSeq_Next)
.\CortexM3\ARM_GCC_473\Debug\GoBee-00_1.a(ADC.o)
                              .\CortexM3\ARM_GCC_473\Debug\main.o (ADC_Start)
.\CortexM3\ARM_GCC_473\Debug\GoBee-00_1.a(ADC_INT.o)
                              .\CortexM3\ARM_GCC_473\Debug\GoBee-00_1.a(ADC.o) (ADC_ISR1)
.\CortexM3\ARM_GCC_473\Debug\GoBee-00_1.a(UART_USB.o)
                              .\CortexM3\ARM_GCC_473\Debug\main.o (UART_USB_Start)
.\CortexM3\ARM_GCC_473\Debug\GoBee-00_1.a(Control_Reg_LED.o)
                              .\CortexM3\ARM_GCC_473\Debug\main.o (Control_Reg_LED_Write)
.\CortexM3\ARM_GCC_473\Debug\GoBee-00_1.a(EEPROM.o)
                              .\CortexM3\ARM_GCC_473\Debug\main.o (EEPROM_Enable)
.\CortexM3\ARM_GCC_473\Debug\GoBee-00_1.a(AMuxSeq.o)
                              .\CortexM3\ARM_GCC_473\Debug\main.o (AMuxSeq_Start)
.\CortexM3\ARM_GCC_473\Debug\GoBee-00_1.a(isr_CTRL.o)
                              .\CortexM3\ARM_GCC_473\Debug\main.o (isr_CTRL_Start)
.\CortexM3\ARM_GCC_473\Debug\GoBee-00_1.a(Status_Reg_BUTTON.o)
                              .\CortexM3\ARM_GCC_473\Debug\console.o (Status_Reg_BUTTON_Read)
.\CortexM3\ARM_GCC_473\Debug\GoBee-00_1.a(Counter_LED.o)
                              .\CortexM3\ARM_GCC_473\Debug\console.o (Counter_LED_WritePeriod)
.\CortexM3\ARM_GCC_473\Debug\GoBee-00_1.a(isr_DGYRO.o)
                              .\CortexM3\ARM_GCC_473\Debug\main.o (isr_DGYRO_Start)
.\CortexM3\ARM_GCC_473\Debug\GoBee-00_1.a(Clock_DGYRO.o)
                              .\CortexM3\ARM_GCC_473\Debug\main.o (Clock_DGYRO_Start)
.\CortexM3\ARM_GCC_473\Debug\GoBee-00_1.a(ADC_theACLK.o)
                              .\CortexM3\ARM_GCC_473\Debug\GoBee-00_1.a(ADC.o) (ADC_theACLK_SetDividerRegister)
.\CortexM3\ARM_GCC_473\Debug\GoBee-00_1.a(ADC_Ext_CP_Clk.o)
                              .\CortexM3\ARM_GCC_473\Debug\GoBee-00_1.a(ADC.o) (ADC_Ext_CP_Clk_SetDividerRegister)
.\CortexM3\ARM_GCC_473\Debug\GoBee-00_1.a(UART_USB_IntClock.o)
                              .\CortexM3\ARM_GCC_473\Debug\GoBee-00_1.a(UART_USB.o) (UART_USB_IntClock_Start)
.\CortexM3\ARM_GCC_473\Debug\GoBee-00_1.a(CyBootAsmGnu.o)
                              .\CortexM3\ARM_GCC_473\Debug\GoBee-00_1.a(cyfitter_cfg_1.o) (CyDelayCycles)
.\CortexM3\ARM_GCC_473\Debug\GoBee-00_1.a(CyDmac.o)
                              .\CortexM3\ARM_GCC_473\Debug\Cm3Start.o (CyDmacConfigure)
.\CortexM3\ARM_GCC_473\Debug\GoBee-00_1.a(CyFlash.o)
                              .\CortexM3\ARM_GCC_473\Debug\GoBee-00_1.a(EEPROM.o) (dieTemperature)
.\CortexM3\ARM_GCC_473\Debug\GoBee-00_1.a(CyLib.o)
                              .\CortexM3\ARM_GCC_473\Debug\Cm3Start.o (CyResetStatus)
.\CortexM3\ARM_GCC_473\Debug\GoBee-00_1.a(cyPm.o)
                              .\CortexM3\ARM_GCC_473\Debug\GoBee-00_1.a(CyLib.o) (CyPmReadStatus)
.\CortexM3\ARM_GCC_473\Debug\GoBee-00_1.a(CySpc.o)
                              .\CortexM3\ARM_GCC_473\Debug\GoBee-00_1.a(EEPROM.o) (CySpcStart)
.\CortexM3\ARM_GCC_473\Debug\GoBee-00_1.a(Control_Reg_BUZ.o)
                              .\CortexM3\ARM_GCC_473\Debug\console.o (Control_Reg_BUZ_Write)
.\CortexM3\ARM_GCC_473\Debug\GoBee-00_1.a(Control_Reg_MOTOR.o)
                              .\CortexM3\ARM_GCC_473\Debug\motor_CTRL.o (Control_Reg_MOTOR_Write)
.\CortexM3\ARM_GCC_473\Debug\GoBee-00_1.a(Status_Reg_MOTOR.o)
                              .\CortexM3\ARM_GCC_473\Debug\console.o (Status_Reg_MOTOR_Read)
.\CortexM3\ARM_GCC_473\Debug\GoBee-00_1.a(QuadDec_PAN.o)
                              .\CortexM3\ARM_GCC_473\Debug\main.o (QuadDec_PAN_Start)
.\CortexM3\ARM_GCC_473\Debug\GoBee-00_1.a(QuadDec_PAN_INT.o)
                              .\CortexM3\ARM_GCC_473\Debug\GoBee-00_1.a(QuadDec_PAN.o) (QuadDec_PAN_count32SoftPart)
.\CortexM3\ARM_GCC_473\Debug\GoBee-00_1.a(QuadDec_PAN_Cnt16.o)
                              .\CortexM3\ARM_GCC_473\Debug\GoBee-00_1.a(QuadDec_PAN.o) (QuadDec_PAN_Cnt16_WriteCounter)
.\CortexM3\ARM_GCC_473\Debug\GoBee-00_1.a(ADC_IRQ.o)
                              .\CortexM3\ARM_GCC_473\Debug\main.o (ADC_IRQ_Enable)
.\CortexM3\ARM_GCC_473\Debug\GoBee-00_1.a(Bootloadable.o)
                              .\CortexM3\ARM_GCC_473\Debug\console.o (Bootloadable_Load)
.\CortexM3\ARM_GCC_473\Debug\GoBee-00_1.a(isr_Ticks.o)
                              .\CortexM3\ARM_GCC_473\Debug\console.o (isr_Ticks_Start)
.\CortexM3\ARM_GCC_473\Debug\GoBee-00_1.a(PWM_MOTOR_PAN.o)
                              .\CortexM3\ARM_GCC_473\Debug\main.o (PWM_MOTOR_PAN_Start)
.\CortexM3\ARM_GCC_473\Debug\GoBee-00_1.a(isr_BUTTON.o)
                              .\CortexM3\ARM_GCC_473\Debug\main.o (isr_BUTTON_Start)
.\CortexM3\ARM_GCC_473\Debug\GoBee-00_1.a(WaveDAC8.o)
                              .\CortexM3\ARM_GCC_473\Debug\console.o (WaveDAC8_Start)
.\CortexM3\ARM_GCC_473\Debug\GoBee-00_1.a(WaveDAC8_DacClk.o)
                              .\CortexM3\ARM_GCC_473\Debug\GoBee-00_1.a(WaveDAC8.o) (WaveDAC8_DacClk_Start)
.\CortexM3\ARM_GCC_473\Debug\GoBee-00_1.a(WaveDAC8_Wave1_DMA_dma.o)
                              .\CortexM3\ARM_GCC_473\Debug\GoBee-00_1.a(WaveDAC8.o) (WaveDAC8_Wave1_DMA_DmaInitialize)
.\CortexM3\ARM_GCC_473\Debug\GoBee-00_1.a(WaveDAC8_Wave2_DMA_dma.o)
                              .\CortexM3\ARM_GCC_473\Debug\GoBee-00_1.a(WaveDAC8.o) (WaveDAC8_Wave2_DMA_DmaInitialize)
.\CortexM3\ARM_GCC_473\Debug\GoBee-00_1.a(WaveDAC8_VDAC8.o)
                              .\CortexM3\ARM_GCC_473\Debug\GoBee-00_1.a(WaveDAC8.o) (WaveDAC8_VDAC8_Init)
.\CortexM3\ARM_GCC_473\Debug\GoBee-00_1.a(WaveDAC8_BuffAmp.o)
                              .\CortexM3\ARM_GCC_473\Debug\GoBee-00_1.a(WaveDAC8.o) (WaveDAC8_BuffAmp_Init)
.\CortexM3\ARM_GCC_473\Debug\GoBee-00_1.a(VDAC8_ANAPOS.o)
                              .\CortexM3\ARM_GCC_473\Debug\motor_CTRL.o (VDAC8_ANAPOS_SetValue)
.\CortexM3\ARM_GCC_473\Debug\GoBee-00_1.a(Control_Reg_WaveDAC8.o)
                              .\CortexM3\ARM_GCC_473\Debug\console.o (Control_Reg_WaveDAC8_Write)
c:/programmi/cypress/psoc creator/3.0/psoc creator/import/gnu_cs/arm/4.7.3/bin/../lib/gcc/arm-none-eabi/4.7.3/armv7-m\libgcc.a(_arm_addsubdf3.o)
                              .\CortexM3\ARM_GCC_473\Debug\console.o (__aeabi_dsub)
c:/programmi/cypress/psoc creator/3.0/psoc creator/import/gnu_cs/arm/4.7.3/bin/../lib/gcc/arm-none-eabi/4.7.3/armv7-m\libgcc.a(_arm_muldivdf3.o)
                              .\CortexM3\ARM_GCC_473\Debug\console.o (__aeabi_dmul)
c:/programmi/cypress/psoc creator/3.0/psoc creator/import/gnu_cs/arm/4.7.3/bin/../lib/gcc/arm-none-eabi/4.7.3/armv7-m\libgcc.a(_arm_cmpdf2.o)
                              .\CortexM3\ARM_GCC_473\Debug\console.o (__aeabi_dcmple)
c:/programmi/cypress/psoc creator/3.0/psoc creator/import/gnu_cs/arm/4.7.3/bin/../lib/gcc/arm-none-eabi/4.7.3/armv7-m\libgcc.a(_arm_truncdfsf2.o)
                              .\CortexM3\ARM_GCC_473\Debug\console.o (__aeabi_d2f)
c:/programmi/cypress/psoc creator/3.0/psoc creator/import/gnu_cs/arm/4.7.3/bin/../lib/gcc/arm-none-eabi/4.7.3/armv7-m\libgcc.a(_arm_addsubsf3.o)
                              .\CortexM3\ARM_GCC_473\Debug\gobeelib.o (__aeabi_fsub)
c:/programmi/cypress/psoc creator/3.0/psoc creator/import/gnu_cs/arm/4.7.3/bin/../lib/gcc/arm-none-eabi/4.7.3/armv7-m\libgcc.a(_arm_muldivsf3.o)
                              .\CortexM3\ARM_GCC_473\Debug\console.o (__aeabi_fmul)
c:/programmi/cypress/psoc creator/3.0/psoc creator/import/gnu_cs/arm/4.7.3/bin/../lib/gcc/arm-none-eabi/4.7.3/armv7-m\libgcc.a(_arm_cmpsf2.o)
                              .\CortexM3\ARM_GCC_473\Debug\sensor_CTRL.o (__aeabi_fcmpeq)
c:/programmi/cypress/psoc creator/3.0/psoc creator/import/gnu_cs/arm/4.7.3/bin/../lib/gcc/arm-none-eabi/4.7.3/armv7-m\libgcc.a(_arm_fixsfsi.o)
                              .\CortexM3\ARM_GCC_473\Debug\console.o (__aeabi_f2iz)
c:/programmi/cypress/psoc creator/3.0/psoc creator/import/gnu_cs/arm/4.7.3/bin/../lib/gcc/arm-none-eabi/4.7.3/armv7-m\libgcc.a(_arm_fixunssfsi.o)
                              .\CortexM3\ARM_GCC_473\Debug\gobeelib.o (__aeabi_f2uiz)
c:/programmi/cypress/psoc creator/3.0/psoc creator/import/gnu_cs/arm/4.7.3/bin/../lib/gcc/arm-none-eabi/4.7.3/../../../../arm-none-eabi/lib/armv7-m\libg.a(lib_a-__atexit.o)
                              c:/programmi/cypress/psoc creator/3.0/psoc creator/import/gnu_cs/arm/4.7.3/bin/../lib/gcc/arm-none-eabi/4.7.3/../../../../arm-none-eabi/lib/armv7-m/crt0.o (__register_exitproc)
c:/programmi/cypress/psoc creator/3.0/psoc creator/import/gnu_cs/arm/4.7.3/bin/../lib/gcc/arm-none-eabi/4.7.3/../../../../arm-none-eabi/lib/armv7-m\libg.a(lib_a-atof.o)
                              .\CortexM3\ARM_GCC_473\Debug\console.o (atof)
c:/programmi/cypress/psoc creator/3.0/psoc creator/import/gnu_cs/arm/4.7.3/bin/../lib/gcc/arm-none-eabi/4.7.3/../../../../arm-none-eabi/lib/armv7-m\libg.a(lib_a-atoi.o)
                              .\CortexM3\ARM_GCC_473\Debug\console.o (atoi)
c:/programmi/cypress/psoc creator/3.0/psoc creator/import/gnu_cs/arm/4.7.3/bin/../lib/gcc/arm-none-eabi/4.7.3/../../../../arm-none-eabi/lib/armv7-m\libg.a(lib_a-ctype_.o)
                              .\CortexM3\ARM_GCC_473\Debug\console.o (__ctype_ptr__)
c:/programmi/cypress/psoc creator/3.0/psoc creator/import/gnu_cs/arm/4.7.3/bin/../lib/gcc/arm-none-eabi/4.7.3/../../../../arm-none-eabi/lib/armv7-m\libg.a(lib_a-exit.o)
                              c:/programmi/cypress/psoc creator/3.0/psoc creator/import/gnu_cs/arm/4.7.3/bin/../lib/gcc/arm-none-eabi/4.7.3/../../../../arm-none-eabi/lib/armv7-m/crt0.o (exit)
c:/programmi/cypress/psoc creator/3.0/psoc creator/import/gnu_cs/arm/4.7.3/bin/../lib/gcc/arm-none-eabi/4.7.3/../../../../arm-none-eabi/lib/armv7-m\libg.a(lib_a-fini.o)
                              c:/programmi/cypress/psoc creator/3.0/psoc creator/import/gnu_cs/arm/4.7.3/bin/../lib/gcc/arm-none-eabi/4.7.3/../../../../arm-none-eabi/lib/armv7-m/crt0.o (__libc_fini_array)
c:/programmi/cypress/psoc creator/3.0/psoc creator/import/gnu_cs/arm/4.7.3/bin/../lib/gcc/arm-none-eabi/4.7.3/../../../../arm-none-eabi/lib/armv7-m\libg.a(lib_a-impure.o)
                              c:/programmi/cypress/psoc creator/3.0/psoc creator/import/gnu_cs/arm/4.7.3/bin/../lib/gcc/arm-none-eabi/4.7.3/../../../../arm-none-eabi/lib/armv7-m\libg.a(lib_a-__atexit.o) (_global_impure_ptr)
c:/programmi/cypress/psoc creator/3.0/psoc creator/import/gnu_cs/arm/4.7.3/bin/../lib/gcc/arm-none-eabi/4.7.3/../../../../arm-none-eabi/lib/armv7-m\libg.a(lib_a-init.o)
                              c:/programmi/cypress/psoc creator/3.0/psoc creator/import/gnu_cs/arm/4.7.3/bin/../lib/gcc/arm-none-eabi/4.7.3/../../../../arm-none-eabi/lib/armv7-m/crt0.o (__libc_init_array)
c:/programmi/cypress/psoc creator/3.0/psoc creator/import/gnu_cs/arm/4.7.3/bin/../lib/gcc/arm-none-eabi/4.7.3/../../../../arm-none-eabi/lib/armv7-m\libg.a(lib_a-memcpy.o)
                              .\CortexM3\ARM_GCC_473\Debug\GoBee-00_1.a(cyfitter_cfg_1.o) (memcpy)
c:/programmi/cypress/psoc creator/3.0/psoc creator/import/gnu_cs/arm/4.7.3/bin/../lib/gcc/arm-none-eabi/4.7.3/../../../../arm-none-eabi/lib/armv7-m\libg.a(lib_a-memset.o)
                              c:/programmi/cypress/psoc creator/3.0/psoc creator/import/gnu_cs/arm/4.7.3/bin/../lib/gcc/arm-none-eabi/4.7.3/../../../../arm-none-eabi/lib/armv7-m/crt0.o (memset)
c:/programmi/cypress/psoc creator/3.0/psoc creator/import/gnu_cs/arm/4.7.3/bin/../lib/gcc/arm-none-eabi/4.7.3/../../../../arm-none-eabi/lib/armv7-m\libg.a(lib_a-printf.o)
                              .\CortexM3\ARM_GCC_473\Debug\main.o (printf)
c:/programmi/cypress/psoc creator/3.0/psoc creator/import/gnu_cs/arm/4.7.3/bin/../lib/gcc/arm-none-eabi/4.7.3/../../../../arm-none-eabi/lib/armv7-m\libg.a(lib_a-putchar.o)
                              .\CortexM3\ARM_GCC_473\Debug\main.o (putchar)
c:/programmi/cypress/psoc creator/3.0/psoc creator/import/gnu_cs/arm/4.7.3/bin/../lib/gcc/arm-none-eabi/4.7.3/../../../../arm-none-eabi/lib/armv7-m\libg.a(lib_a-puts.o)
                              .\CortexM3\ARM_GCC_473\Debug\main.o (puts)
c:/programmi/cypress/psoc creator/3.0/psoc creator/import/gnu_cs/arm/4.7.3/bin/../lib/gcc/arm-none-eabi/4.7.3/../../../../arm-none-eabi/lib/armv7-m\libg.a(lib_a-setvbuf.o)
                              .\CortexM3\ARM_GCC_473\Debug\main.o (setvbuf)
c:/programmi/cypress/psoc creator/3.0/psoc creator/import/gnu_cs/arm/4.7.3/bin/../lib/gcc/arm-none-eabi/4.7.3/../../../../arm-none-eabi/lib/armv7-m\libg.a(lib_a-strcmp.o)
                              .\CortexM3\ARM_GCC_473\Debug\console.o (strcmp)
c:/programmi/cypress/psoc creator/3.0/psoc creator/import/gnu_cs/arm/4.7.3/bin/../lib/gcc/arm-none-eabi/4.7.3/../../../../arm-none-eabi/lib/armv7-m\libg.a(lib_a-strcpy.o)
                              .\CortexM3\ARM_GCC_473\Debug\console.o (strcpy)
c:/programmi/cypress/psoc creator/3.0/psoc creator/import/gnu_cs/arm/4.7.3/bin/../lib/gcc/arm-none-eabi/4.7.3/../../../../arm-none-eabi/lib/armv7-m\libg.a(lib_a-strlen.o)
                              .\CortexM3\ARM_GCC_473\Debug\gobeelib.o (strlen)
c:/programmi/cypress/psoc creator/3.0/psoc creator/import/gnu_cs/arm/4.7.3/bin/../lib/gcc/arm-none-eabi/4.7.3/../../../../arm-none-eabi/lib/armv7-m\libg.a(lib_a-strtod.o)
                              c:/programmi/cypress/psoc creator/3.0/psoc creator/import/gnu_cs/arm/4.7.3/bin/../lib/gcc/arm-none-eabi/4.7.3/../../../../arm-none-eabi/lib/armv7-m\libg.a(lib_a-atof.o) (strtod)
c:/programmi/cypress/psoc creator/3.0/psoc creator/import/gnu_cs/arm/4.7.3/bin/../lib/gcc/arm-none-eabi/4.7.3/../../../../arm-none-eabi/lib/armv7-m\libg.a(lib_a-strtok.o)
                              .\CortexM3\ARM_GCC_473\Debug\console.o (strtok)
c:/programmi/cypress/psoc creator/3.0/psoc creator/import/gnu_cs/arm/4.7.3/bin/../lib/gcc/arm-none-eabi/4.7.3/../../../../arm-none-eabi/lib/armv7-m\libg.a(lib_a-strtok_r.o)
                              c:/programmi/cypress/psoc creator/3.0/psoc creator/import/gnu_cs/arm/4.7.3/bin/../lib/gcc/arm-none-eabi/4.7.3/../../../../arm-none-eabi/lib/armv7-m\libg.a(lib_a-strtok.o) (__strtok_r)
c:/programmi/cypress/psoc creator/3.0/psoc creator/import/gnu_cs/arm/4.7.3/bin/../lib/gcc/arm-none-eabi/4.7.3/../../../../arm-none-eabi/lib/armv7-m\libg.a(lib_a-strtol.o)
                              c:/programmi/cypress/psoc creator/3.0/psoc creator/import/gnu_cs/arm/4.7.3/bin/../lib/gcc/arm-none-eabi/4.7.3/../../../../arm-none-eabi/lib/armv7-m\libg.a(lib_a-atoi.o) (_strtol_r)
c:/programmi/cypress/psoc creator/3.0/psoc creator/import/gnu_cs/arm/4.7.3/bin/../lib/gcc/arm-none-eabi/4.7.3/../../../../arm-none-eabi/lib/armv7-m\libg.a(lib_a-vfprintf.o)
                              c:/programmi/cypress/psoc creator/3.0/psoc creator/import/gnu_cs/arm/4.7.3/bin/../lib/gcc/arm-none-eabi/4.7.3/../../../../arm-none-eabi/lib/armv7-m\libg.a(lib_a-printf.o) (_vfprintf_r)
c:/programmi/cypress/psoc creator/3.0/psoc creator/import/gnu_cs/arm/4.7.3/bin/../lib/gcc/arm-none-eabi/4.7.3/../../../../arm-none-eabi/lib/armv7-m\libg.a(lib_a-wsetup.o)
                              c:/programmi/cypress/psoc creator/3.0/psoc creator/import/gnu_cs/arm/4.7.3/bin/../lib/gcc/arm-none-eabi/4.7.3/../../../../arm-none-eabi/lib/armv7-m\libg.a(lib_a-vfprintf.o) (__swsetup_r)
c:/programmi/cypress/psoc creator/3.0/psoc creator/import/gnu_cs/arm/4.7.3/bin/../lib/gcc/arm-none-eabi/4.7.3/../../../../arm-none-eabi/lib/armv7-m\libg.a(lib_a-__call_atexit.o)
                              c:/programmi/cypress/psoc creator/3.0/psoc creator/import/gnu_cs/arm/4.7.3/bin/../lib/gcc/arm-none-eabi/4.7.3/../../../../arm-none-eabi/lib/armv7-m\libg.a(lib_a-exit.o) (__call_exitprocs)
c:/programmi/cypress/psoc creator/3.0/psoc creator/import/gnu_cs/arm/4.7.3/bin/../lib/gcc/arm-none-eabi/4.7.3/../../../../arm-none-eabi/lib/armv7-m\libg.a(lib_a-atexit.o)
                              c:/programmi/cypress/psoc creator/3.0/psoc creator/import/gnu_cs/arm/4.7.3/bin/../lib/gcc/arm-none-eabi/4.7.3/../../../../arm-none-eabi/lib/armv7-m\libg.a(lib_a-__call_atexit.o) (atexit)
c:/programmi/cypress/psoc creator/3.0/psoc creator/import/gnu_cs/arm/4.7.3/bin/../lib/gcc/arm-none-eabi/4.7.3/../../../../arm-none-eabi/lib/armv7-m\libg.a(lib_a-dtoa.o)
                              c:/programmi/cypress/psoc creator/3.0/psoc creator/import/gnu_cs/arm/4.7.3/bin/../lib/gcc/arm-none-eabi/4.7.3/../../../../arm-none-eabi/lib/armv7-m\libg.a(lib_a-vfprintf.o) (_dtoa_r)
c:/programmi/cypress/psoc creator/3.0/psoc creator/import/gnu_cs/arm/4.7.3/bin/../lib/gcc/arm-none-eabi/4.7.3/../../../../arm-none-eabi/lib/armv7-m\libg.a(lib_a-fflush.o)
                              c:/programmi/cypress/psoc creator/3.0/psoc creator/import/gnu_cs/arm/4.7.3/bin/../lib/gcc/arm-none-eabi/4.7.3/../../../../arm-none-eabi/lib/armv7-m\libg.a(lib_a-setvbuf.o) (_fflush_r)
c:/programmi/cypress/psoc creator/3.0/psoc creator/import/gnu_cs/arm/4.7.3/bin/../lib/gcc/arm-none-eabi/4.7.3/../../../../arm-none-eabi/lib/armv7-m\libg.a(lib_a-findfp.o)
                              c:/programmi/cypress/psoc creator/3.0/psoc creator/import/gnu_cs/arm/4.7.3/bin/../lib/gcc/arm-none-eabi/4.7.3/../../../../arm-none-eabi/lib/armv7-m\libg.a(lib_a-setvbuf.o) (_cleanup_r)
c:/programmi/cypress/psoc creator/3.0/psoc creator/import/gnu_cs/arm/4.7.3/bin/../lib/gcc/arm-none-eabi/4.7.3/../../../../arm-none-eabi/lib/armv7-m\libg.a(lib_a-freer.o)
                              c:/programmi/cypress/psoc creator/3.0/psoc creator/import/gnu_cs/arm/4.7.3/bin/../lib/gcc/arm-none-eabi/4.7.3/../../../../arm-none-eabi/lib/armv7-m\libg.a(lib_a-setvbuf.o) (_free_r)
c:/programmi/cypress/psoc creator/3.0/psoc creator/import/gnu_cs/arm/4.7.3/bin/../lib/gcc/arm-none-eabi/4.7.3/../../../../arm-none-eabi/lib/armv7-m\libg.a(lib_a-fvwrite.o)
                              c:/programmi/cypress/psoc creator/3.0/psoc creator/import/gnu_cs/arm/4.7.3/bin/../lib/gcc/arm-none-eabi/4.7.3/../../../../arm-none-eabi/lib/armv7-m\libg.a(lib_a-puts.o) (__sfvwrite_r)
c:/programmi/cypress/psoc creator/3.0/psoc creator/import/gnu_cs/arm/4.7.3/bin/../lib/gcc/arm-none-eabi/4.7.3/../../../../arm-none-eabi/lib/armv7-m\libg.a(lib_a-fwalk.o)
                              c:/programmi/cypress/psoc creator/3.0/psoc creator/import/gnu_cs/arm/4.7.3/bin/../lib/gcc/arm-none-eabi/4.7.3/../../../../arm-none-eabi/lib/armv7-m\libg.a(lib_a-findfp.o) (_fwalk)
c:/programmi/cypress/psoc creator/3.0/psoc creator/import/gnu_cs/arm/4.7.3/bin/../lib/gcc/arm-none-eabi/4.7.3/../../../../arm-none-eabi/lib/armv7-m\libg.a(lib_a-gdtoa-gethex.o)
                              c:/programmi/cypress/psoc creator/3.0/psoc creator/import/gnu_cs/arm/4.7.3/bin/../lib/gcc/arm-none-eabi/4.7.3/../../../../arm-none-eabi/lib/armv7-m\libg.a(lib_a-strtod.o) (__gethex)
c:/programmi/cypress/psoc creator/3.0/psoc creator/import/gnu_cs/arm/4.7.3/bin/../lib/gcc/arm-none-eabi/4.7.3/../../../../arm-none-eabi/lib/armv7-m\libg.a(lib_a-gdtoa-hexnan.o)
                              c:/programmi/cypress/psoc creator/3.0/psoc creator/import/gnu_cs/arm/4.7.3/bin/../lib/gcc/arm-none-eabi/4.7.3/../../../../arm-none-eabi/lib/armv7-m\libg.a(lib_a-strtod.o) (__hexnan)
c:/programmi/cypress/psoc creator/3.0/psoc creator/import/gnu_cs/arm/4.7.3/bin/../lib/gcc/arm-none-eabi/4.7.3/../../../../arm-none-eabi/lib/armv7-m\libg.a(lib_a-locale.o)
                              c:/programmi/cypress/psoc creator/3.0/psoc creator/import/gnu_cs/arm/4.7.3/bin/../lib/gcc/arm-none-eabi/4.7.3/../../../../arm-none-eabi/lib/armv7-m\libg.a(lib_a-strtod.o) (_localeconv_r)
c:/programmi/cypress/psoc creator/3.0/psoc creator/import/gnu_cs/arm/4.7.3/bin/../lib/gcc/arm-none-eabi/4.7.3/../../../../arm-none-eabi/lib/armv7-m\libg.a(lib_a-makebuf.o)
                              c:/programmi/cypress/psoc creator/3.0/psoc creator/import/gnu_cs/arm/4.7.3/bin/../lib/gcc/arm-none-eabi/4.7.3/../../../../arm-none-eabi/lib/armv7-m\libg.a(lib_a-wsetup.o) (__smakebuf_r)
c:/programmi/cypress/psoc creator/3.0/psoc creator/import/gnu_cs/arm/4.7.3/bin/../lib/gcc/arm-none-eabi/4.7.3/../../../../arm-none-eabi/lib/armv7-m\libg.a(lib_a-malloc.o)
                              c:/programmi/cypress/psoc creator/3.0/psoc creator/import/gnu_cs/arm/4.7.3/bin/../lib/gcc/arm-none-eabi/4.7.3/../../../../arm-none-eabi/lib/armv7-m\libg.a(lib_a-setvbuf.o) (malloc)
c:/programmi/cypress/psoc creator/3.0/psoc creator/import/gnu_cs/arm/4.7.3/bin/../lib/gcc/arm-none-eabi/4.7.3/../../../../arm-none-eabi/lib/armv7-m\libg.a(lib_a-mallocr.o)
                              c:/programmi/cypress/psoc creator/3.0/psoc creator/import/gnu_cs/arm/4.7.3/bin/../lib/gcc/arm-none-eabi/4.7.3/../../../../arm-none-eabi/lib/armv7-m\libg.a(lib_a-findfp.o) (_malloc_r)
c:/programmi/cypress/psoc creator/3.0/psoc creator/import/gnu_cs/arm/4.7.3/bin/../lib/gcc/arm-none-eabi/4.7.3/../../../../arm-none-eabi/lib/armv7-m\libg.a(lib_a-memchr.o)
                              c:/programmi/cypress/psoc creator/3.0/psoc creator/import/gnu_cs/arm/4.7.3/bin/../lib/gcc/arm-none-eabi/4.7.3/../../../../arm-none-eabi/lib/armv7-m\libg.a(lib_a-vfprintf.o) (memchr)
c:/programmi/cypress/psoc creator/3.0/psoc creator/import/gnu_cs/arm/4.7.3/bin/../lib/gcc/arm-none-eabi/4.7.3/../../../../arm-none-eabi/lib/armv7-m\libg.a(lib_a-memmove.o)
                              c:/programmi/cypress/psoc creator/3.0/psoc creator/import/gnu_cs/arm/4.7.3/bin/../lib/gcc/arm-none-eabi/4.7.3/../../../../arm-none-eabi/lib/armv7-m\libg.a(lib_a-fvwrite.o) (memmove)
c:/programmi/cypress/psoc creator/3.0/psoc creator/import/gnu_cs/arm/4.7.3/bin/../lib/gcc/arm-none-eabi/4.7.3/../../../../arm-none-eabi/lib/armv7-m\libg.a(lib_a-mlock.o)
                              c:/programmi/cypress/psoc creator/3.0/psoc creator/import/gnu_cs/arm/4.7.3/bin/../lib/gcc/arm-none-eabi/4.7.3/../../../../arm-none-eabi/lib/armv7-m\libg.a(lib_a-freer.o) (__malloc_lock)
c:/programmi/cypress/psoc creator/3.0/psoc creator/import/gnu_cs/arm/4.7.3/bin/../lib/gcc/arm-none-eabi/4.7.3/../../../../arm-none-eabi/lib/armv7-m\libg.a(lib_a-mprec.o)
                              c:/programmi/cypress/psoc creator/3.0/psoc creator/import/gnu_cs/arm/4.7.3/bin/../lib/gcc/arm-none-eabi/4.7.3/../../../../arm-none-eabi/lib/armv7-m\libg.a(lib_a-strtod.o) (_Balloc)
c:/programmi/cypress/psoc creator/3.0/psoc creator/import/gnu_cs/arm/4.7.3/bin/../lib/gcc/arm-none-eabi/4.7.3/../../../../arm-none-eabi/lib/armv7-m\libg.a(lib_a-putc.o)
                              c:/programmi/cypress/psoc creator/3.0/psoc creator/import/gnu_cs/arm/4.7.3/bin/../lib/gcc/arm-none-eabi/4.7.3/../../../../arm-none-eabi/lib/armv7-m\libg.a(lib_a-putchar.o) (_putc_r)
c:/programmi/cypress/psoc creator/3.0/psoc creator/import/gnu_cs/arm/4.7.3/bin/../lib/gcc/arm-none-eabi/4.7.3/../../../../arm-none-eabi/lib/armv7-m\libg.a(lib_a-reallocr.o)
                              c:/programmi/cypress/psoc creator/3.0/psoc creator/import/gnu_cs/arm/4.7.3/bin/../lib/gcc/arm-none-eabi/4.7.3/../../../../arm-none-eabi/lib/armv7-m\libg.a(lib_a-fvwrite.o) (_realloc_r)
c:/programmi/cypress/psoc creator/3.0/psoc creator/import/gnu_cs/arm/4.7.3/bin/../lib/gcc/arm-none-eabi/4.7.3/../../../../arm-none-eabi/lib/armv7-m\libg.a(lib_a-s_fpclassify.o)
                              c:/programmi/cypress/psoc creator/3.0/psoc creator/import/gnu_cs/arm/4.7.3/bin/../lib/gcc/arm-none-eabi/4.7.3/../../../../arm-none-eabi/lib/armv7-m\libg.a(lib_a-strtod.o) (__fpclassifyd)
c:/programmi/cypress/psoc creator/3.0/psoc creator/import/gnu_cs/arm/4.7.3/bin/../lib/gcc/arm-none-eabi/4.7.3/../../../../arm-none-eabi/lib/armv7-m\libg.a(lib_a-sbrkr.o)
                              c:/programmi/cypress/psoc creator/3.0/psoc creator/import/gnu_cs/arm/4.7.3/bin/../lib/gcc/arm-none-eabi/4.7.3/../../../../arm-none-eabi/lib/armv7-m\libg.a(lib_a-freer.o) (_sbrk_r)
c:/programmi/cypress/psoc creator/3.0/psoc creator/import/gnu_cs/arm/4.7.3/bin/../lib/gcc/arm-none-eabi/4.7.3/../../../../arm-none-eabi/lib/armv7-m\libg.a(lib_a-sf_nan.o)
                              c:/programmi/cypress/psoc creator/3.0/psoc creator/import/gnu_cs/arm/4.7.3/bin/../lib/gcc/arm-none-eabi/4.7.3/../../../../arm-none-eabi/lib/armv7-m\libg.a(lib_a-strtod.o) (nanf)
c:/programmi/cypress/psoc creator/3.0/psoc creator/import/gnu_cs/arm/4.7.3/bin/../lib/gcc/arm-none-eabi/4.7.3/../../../../arm-none-eabi/lib/armv7-m\libg.a(lib_a-stdio.o)
                              c:/programmi/cypress/psoc creator/3.0/psoc creator/import/gnu_cs/arm/4.7.3/bin/../lib/gcc/arm-none-eabi/4.7.3/../../../../arm-none-eabi/lib/armv7-m\libg.a(lib_a-findfp.o) (__sread)
c:/programmi/cypress/psoc creator/3.0/psoc creator/import/gnu_cs/arm/4.7.3/bin/../lib/gcc/arm-none-eabi/4.7.3/../../../../arm-none-eabi/lib/armv7-m\libg.a(lib_a-strncmp.o)
                              c:/programmi/cypress/psoc creator/3.0/psoc creator/import/gnu_cs/arm/4.7.3/bin/../lib/gcc/arm-none-eabi/4.7.3/../../../../arm-none-eabi/lib/armv7-m\libg.a(lib_a-strtod.o) (strncmp)
c:/programmi/cypress/psoc creator/3.0/psoc creator/import/gnu_cs/arm/4.7.3/bin/../lib/gcc/arm-none-eabi/4.7.3/../../../../arm-none-eabi/lib/armv7-m\libg.a(lib_a-vfiprintf.o)
                              c:/programmi/cypress/psoc creator/3.0/psoc creator/import/gnu_cs/arm/4.7.3/bin/../lib/gcc/arm-none-eabi/4.7.3/../../../../arm-none-eabi/lib/armv7-m\libg.a(lib_a-vfprintf.o) (__sprint_r)
c:/programmi/cypress/psoc creator/3.0/psoc creator/import/gnu_cs/arm/4.7.3/bin/../lib/gcc/arm-none-eabi/4.7.3/../../../../arm-none-eabi/lib/armv7-m\libg.a(lib_a-wbuf.o)
                              c:/programmi/cypress/psoc creator/3.0/psoc creator/import/gnu_cs/arm/4.7.3/bin/../lib/gcc/arm-none-eabi/4.7.3/../../../../arm-none-eabi/lib/armv7-m\libg.a(lib_a-putc.o) (__swbuf_r)
c:/programmi/cypress/psoc creator/3.0/psoc creator/import/gnu_cs/arm/4.7.3/bin/../lib/gcc/arm-none-eabi/4.7.3/../../../../arm-none-eabi/lib/armv7-m\libg.a(lib_a-writer.o)
                              c:/programmi/cypress/psoc creator/3.0/psoc creator/import/gnu_cs/arm/4.7.3/bin/../lib/gcc/arm-none-eabi/4.7.3/../../../../arm-none-eabi/lib/armv7-m\libg.a(lib_a-stdio.o) (_write_r)
c:/programmi/cypress/psoc creator/3.0/psoc creator/import/gnu_cs/arm/4.7.3/bin/../lib/gcc/arm-none-eabi/4.7.3/../../../../arm-none-eabi/lib/armv7-m\libg.a(lib_a-callocr.o)
                              c:/programmi/cypress/psoc creator/3.0/psoc creator/import/gnu_cs/arm/4.7.3/bin/../lib/gcc/arm-none-eabi/4.7.3/../../../../arm-none-eabi/lib/armv7-m\libg.a(lib_a-mprec.o) (_calloc_r)
c:/programmi/cypress/psoc creator/3.0/psoc creator/import/gnu_cs/arm/4.7.3/bin/../lib/gcc/arm-none-eabi/4.7.3/../../../../arm-none-eabi/lib/armv7-m\libg.a(lib_a-closer.o)
                              c:/programmi/cypress/psoc creator/3.0/psoc creator/import/gnu_cs/arm/4.7.3/bin/../lib/gcc/arm-none-eabi/4.7.3/../../../../arm-none-eabi/lib/armv7-m\libg.a(lib_a-stdio.o) (_close_r)
c:/programmi/cypress/psoc creator/3.0/psoc creator/import/gnu_cs/arm/4.7.3/bin/../lib/gcc/arm-none-eabi/4.7.3/../../../../arm-none-eabi/lib/armv7-m\libg.a(lib_a-fclose.o)
                              c:/programmi/cypress/psoc creator/3.0/psoc creator/import/gnu_cs/arm/4.7.3/bin/../lib/gcc/arm-none-eabi/4.7.3/../../../../arm-none-eabi/lib/armv7-m\libg.a(lib_a-findfp.o) (fclose)
c:/programmi/cypress/psoc creator/3.0/psoc creator/import/gnu_cs/arm/4.7.3/bin/../lib/gcc/arm-none-eabi/4.7.3/../../../../arm-none-eabi/lib/armv7-m\libg.a(lib_a-fputwc.o)
                              c:/programmi/cypress/psoc creator/3.0/psoc creator/import/gnu_cs/arm/4.7.3/bin/../lib/gcc/arm-none-eabi/4.7.3/../../../../arm-none-eabi/lib/armv7-m\libg.a(lib_a-vfiprintf.o) (_fputwc_r)
c:/programmi/cypress/psoc creator/3.0/psoc creator/import/gnu_cs/arm/4.7.3/bin/../lib/gcc/arm-none-eabi/4.7.3/../../../../arm-none-eabi/lib/armv7-m\libg.a(lib_a-fstatr.o)
                              c:/programmi/cypress/psoc creator/3.0/psoc creator/import/gnu_cs/arm/4.7.3/bin/../lib/gcc/arm-none-eabi/4.7.3/../../../../arm-none-eabi/lib/armv7-m\libg.a(lib_a-makebuf.o) (_fstat_r)
c:/programmi/cypress/psoc creator/3.0/psoc creator/import/gnu_cs/arm/4.7.3/bin/../lib/gcc/arm-none-eabi/4.7.3/../../../../arm-none-eabi/lib/armv7-m\libg.a(lib_a-isattyr.o)
                              c:/programmi/cypress/psoc creator/3.0/psoc creator/import/gnu_cs/arm/4.7.3/bin/../lib/gcc/arm-none-eabi/4.7.3/../../../../arm-none-eabi/lib/armv7-m\libg.a(lib_a-makebuf.o) (_isatty_r)
c:/programmi/cypress/psoc creator/3.0/psoc creator/import/gnu_cs/arm/4.7.3/bin/../lib/gcc/arm-none-eabi/4.7.3/../../../../arm-none-eabi/lib/armv7-m\libg.a(lib_a-lseekr.o)
                              c:/programmi/cypress/psoc creator/3.0/psoc creator/import/gnu_cs/arm/4.7.3/bin/../lib/gcc/arm-none-eabi/4.7.3/../../../../arm-none-eabi/lib/armv7-m\libg.a(lib_a-stdio.o) (_lseek_r)
c:/programmi/cypress/psoc creator/3.0/psoc creator/import/gnu_cs/arm/4.7.3/bin/../lib/gcc/arm-none-eabi/4.7.3/../../../../arm-none-eabi/lib/armv7-m\libg.a(lib_a-readr.o)
                              c:/programmi/cypress/psoc creator/3.0/psoc creator/import/gnu_cs/arm/4.7.3/bin/../lib/gcc/arm-none-eabi/4.7.3/../../../../arm-none-eabi/lib/armv7-m\libg.a(lib_a-stdio.o) (_read_r)
c:/programmi/cypress/psoc creator/3.0/psoc creator/import/gnu_cs/arm/4.7.3/bin/../lib/gcc/arm-none-eabi/4.7.3/../../../../arm-none-eabi/lib/armv7-m\libg.a(lib_a-reent.o)
                              c:/programmi/cypress/psoc creator/3.0/psoc creator/import/gnu_cs/arm/4.7.3/bin/../lib/gcc/arm-none-eabi/4.7.3/../../../../arm-none-eabi/lib/armv7-m\libg.a(lib_a-sbrkr.o) (errno)
c:/programmi/cypress/psoc creator/3.0/psoc creator/import/gnu_cs/arm/4.7.3/bin/../lib/gcc/arm-none-eabi/4.7.3/../../../../arm-none-eabi/lib/armv7-m\libg.a(lib_a-wcrtomb.o)
                              c:/programmi/cypress/psoc creator/3.0/psoc creator/import/gnu_cs/arm/4.7.3/bin/../lib/gcc/arm-none-eabi/4.7.3/../../../../arm-none-eabi/lib/armv7-m\libg.a(lib_a-fputwc.o) (_wcrtomb_r)
c:/programmi/cypress/psoc creator/3.0/psoc creator/import/gnu_cs/arm/4.7.3/bin/../lib/gcc/arm-none-eabi/4.7.3/../../../../arm-none-eabi/lib/armv7-m\libg.a(lib_a-wctomb_r.o)
                              c:/programmi/cypress/psoc creator/3.0/psoc creator/import/gnu_cs/arm/4.7.3/bin/../lib/gcc/arm-none-eabi/4.7.3/../../../../arm-none-eabi/lib/armv7-m\libg.a(lib_a-wcrtomb.o) (__wctomb)
c:/programmi/cypress/psoc creator/3.0/psoc creator/import/gnu_cs/arm/4.7.3/bin/../lib/gcc/arm-none-eabi/4.7.3/armv7-m\libgcc.a(_arm_fixdfsi.o)
                              c:/programmi/cypress/psoc creator/3.0/psoc creator/import/gnu_cs/arm/4.7.3/bin/../lib/gcc/arm-none-eabi/4.7.3/../../../../arm-none-eabi/lib/armv7-m\libg.a(lib_a-strtod.o) (__aeabi_d2iz)
c:/programmi/cypress/psoc creator/3.0/psoc creator/import/gnu_cs/arm/4.7.3/bin/../lib/gcc/arm-none-eabi/4.7.3/armv7-m\libgcc.a(_arm_fixunsdfsi.o)
                              c:/programmi/cypress/psoc creator/3.0/psoc creator/import/gnu_cs/arm/4.7.3/bin/../lib/gcc/arm-none-eabi/4.7.3/../../../../arm-none-eabi/lib/armv7-m\libg.a(lib_a-strtod.o) (__aeabi_d2uiz)
c:/programmi/cypress/psoc creator/3.0/psoc creator/import/gnu_cs/arm/4.7.3/bin/../lib/gcc/arm-none-eabi/4.7.3/armv7-m\libgcc.a(_aeabi_uldivmod.o)
                              c:/programmi/cypress/psoc creator/3.0/psoc creator/import/gnu_cs/arm/4.7.3/bin/../lib/gcc/arm-none-eabi/4.7.3/../../../../arm-none-eabi/lib/armv7-m\libg.a(lib_a-vfprintf.o) (__aeabi_uldivmod)
c:/programmi/cypress/psoc creator/3.0/psoc creator/import/gnu_cs/arm/4.7.3/bin/../lib/gcc/arm-none-eabi/4.7.3/armv7-m\libgcc.a(bpabi.o)
                              c:/programmi/cypress/psoc creator/3.0/psoc creator/import/gnu_cs/arm/4.7.3/bin/../lib/gcc/arm-none-eabi/4.7.3/armv7-m\libgcc.a(_aeabi_uldivmod.o) (__gnu_uldivmod_helper)
c:/programmi/cypress/psoc creator/3.0/psoc creator/import/gnu_cs/arm/4.7.3/bin/../lib/gcc/arm-none-eabi/4.7.3/armv7-m\libgcc.a(_dvmd_tls.o)
                              c:/programmi/cypress/psoc creator/3.0/psoc creator/import/gnu_cs/arm/4.7.3/bin/../lib/gcc/arm-none-eabi/4.7.3/armv7-m\libgcc.a(_aeabi_uldivmod.o) (__aeabi_ldiv0)
c:/programmi/cypress/psoc creator/3.0/psoc creator/import/gnu_cs/arm/4.7.3/bin/../lib/gcc/arm-none-eabi/4.7.3/armv7-m\libgcc.a(_divdi3.o)
                              c:/programmi/cypress/psoc creator/3.0/psoc creator/import/gnu_cs/arm/4.7.3/bin/../lib/gcc/arm-none-eabi/4.7.3/armv7-m\libgcc.a(bpabi.o) (__divdi3)
c:/programmi/cypress/psoc creator/3.0/psoc creator/import/gnu_cs/arm/4.7.3/bin/../lib/gcc/arm-none-eabi/4.7.3/armv7-m\libgcc.a(_udivdi3.o)
                              c:/programmi/cypress/psoc creator/3.0/psoc creator/import/gnu_cs/arm/4.7.3/bin/../lib/gcc/arm-none-eabi/4.7.3/armv7-m\libgcc.a(bpabi.o) (__udivdi3)
c:/programmi/cypress/psoc creator/3.0/psoc creator/import/gnu_cs/arm/4.7.3/bin/../lib/gcc/arm-none-eabi/4.7.3/../../../../arm-none-eabi/lib/armv7-m\libnosys.a(sbrk.o)
                              c:/programmi/cypress/psoc creator/3.0/psoc creator/import/gnu_cs/arm/4.7.3/bin/../lib/gcc/arm-none-eabi/4.7.3/../../../../arm-none-eabi/lib/armv7-m\libg.a(lib_a-sbrkr.o) (_sbrk)

Allocating common symbols
Common symbol       size              file

gyro_lowpass        0x4               .\CortexM3\ARM_GCC_473\Debug\main.o
EEreadBuffer        0x12              .\CortexM3\ARM_GCC_473\Debug\main.o
GyroNullPauseTicks  0x2               .\CortexM3\ARM_GCC_473\Debug\main.o
dgyro_offset_fine   0x4               .\CortexM3\ARM_GCC_473\Debug\sensor_CTRL.o
x_acc_ADC           0x2               .\CortexM3\ARM_GCC_473\Debug\main.o
y_acc_ADC           0x2               .\CortexM3\ARM_GCC_473\Debug\main.o
pan_axis            0x50              .\CortexM3\ARM_GCC_473\Debug\main.o
gyro_scale          0x4               .\CortexM3\ARM_GCC_473\Debug\main.o
angle_estim_analog_gyro
                    0x4               .\CortexM3\ARM_GCC_473\Debug\main.o
errno               0x4               c:/programmi/cypress/psoc creator/3.0/psoc creator/import/gnu_cs/arm/4.7.3/bin/../lib/gcc/arm-none-eabi/4.7.3/../../../../arm-none-eabi/lib/armv7-m\libg.a(lib_a-reent.o)
ADC_Offset          0x4               .\CortexM3\ARM_GCC_473\Debug\GoBee-00_1.a(ADC.o)
y_acc_scale         0x4               .\CortexM3\ARM_GCC_473\Debug\main.o
EEwriteBuffer       0x12              .\CortexM3\ARM_GCC_473\Debug\main.o
x_acc_scale         0x4               .\CortexM3\ARM_GCC_473\Debug\main.o
__hexdig            0x100             c:/programmi/cypress/psoc creator/3.0/psoc creator/import/gnu_cs/arm/4.7.3/bin/../lib/gcc/arm-none-eabi/4.7.3/../../../../arm-none-eabi/lib/armv7-m\libg.a(lib_a-gdtoa-gethex.o)
pan_feedback_encoder
                    0x14              .\CortexM3\ARM_GCC_473\Debug\main.o
x_acc               0x4               .\CortexM3\ARM_GCC_473\Debug\main.o
ADC_CountsPerVolt   0x4               .\CortexM3\ARM_GCC_473\Debug\GoBee-00_1.a(ADC.o)
gyro                0x4               .\CortexM3\ARM_GCC_473\Debug\main.o
y_acc_ADC_offset    0x2               .\CortexM3\ARM_GCC_473\Debug\main.o
das                 0x30              .\CortexM3\ARM_GCC_473\Debug\main.o
gyro_ADC            0x2               .\CortexM3\ARM_GCC_473\Debug\main.o
angle_estim_acc     0x4               .\CortexM3\ARM_GCC_473\Debug\main.o
x_acc_ADC_offset    0x2               .\CortexM3\ARM_GCC_473\Debug\main.o
actual_cmd          0x2d              .\CortexM3\ARM_GCC_473\Debug\console.o
buffer              0xc8              .\CortexM3\ARM_GCC_473\Debug\estimators.o
VSenseSUM           0x2               .\CortexM3\ARM_GCC_473\Debug\main.o
angle_var           0x2               .\CortexM3\ARM_GCC_473\Debug\main.o
angle               0x4               .\CortexM3\ARM_GCC_473\Debug\main.o
dgyro_rate_float    0x4               .\CortexM3\ARM_GCC_473\Debug\main.o
angle_estim_acc_last_good
                    0x4               .\CortexM3\ARM_GCC_473\Debug\main.o
angle_estim         0x4               .\CortexM3\ARM_GCC_473\Debug\main.o
machine_state_backup
                    0x1               .\CortexM3\ARM_GCC_473\Debug\main.o
angle_lowpass       0x4               .\CortexM3\ARM_GCC_473\Debug\main.o
agyro               0x1c              .\CortexM3\ARM_GCC_473\Debug\main.o
gyro_ADC_offset     0x2               .\CortexM3\ARM_GCC_473\Debug\main.o
system_dynamic_scalar
                    0x4               .\CortexM3\ARM_GCC_473\Debug\main.o
USB_Check_prev      0x1               .\CortexM3\ARM_GCC_473\Debug\console.o
y_acc               0x4               .\CortexM3\ARM_GCC_473\Debug\main.o
gobee_param         0x30              .\CortexM3\ARM_GCC_473\Debug\main.o
dgyro_spi32         0x4               .\CortexM3\ARM_GCC_473\Debug\main.o
dieTemperature      0x2               .\CortexM3\ARM_GCC_473\Debug\GoBee-00_1.a(CyFlash.o)
angle_digi          0x2               .\CortexM3\ARM_GCC_473\Debug\main.o
aacc                0x28              .\CortexM3\ARM_GCC_473\Debug\main.o
dgyro_mean_previous_of
                    0x4               .\CortexM3\ARM_GCC_473\Debug\main.o
dgyro_mean_of       0x4               .\CortexM3\ARM_GCC_473\Debug\main.o
angle_estim_digital_gyro
                    0x4               .\CortexM3\ARM_GCC_473\Debug\main.o
AdcValue            0x10              .\CortexM3\ARM_GCC_473\Debug\main.o

Discarded input sections

 .text          0x00000000        0x0 c:/programmi/cypress/psoc creator/3.0/psoc creator/import/gnu_cs/arm/4.7.3/bin/../lib/gcc/arm-none-eabi/4.7.3/armv7-m/crti.o
 .data          0x00000000        0x0 c:/programmi/cypress/psoc creator/3.0/psoc creator/import/gnu_cs/arm/4.7.3/bin/../lib/gcc/arm-none-eabi/4.7.3/armv7-m/crti.o
 .bss           0x00000000        0x0 c:/programmi/cypress/psoc creator/3.0/psoc creator/import/gnu_cs/arm/4.7.3/bin/../lib/gcc/arm-none-eabi/4.7.3/armv7-m/crti.o
 .data          0x00000000        0x4 c:/programmi/cypress/psoc creator/3.0/psoc creator/import/gnu_cs/arm/4.7.3/bin/../lib/gcc/arm-none-eabi/4.7.3/armv7-m/crtbegin.o
 .text          0x00000000       0x70 c:/programmi/cypress/psoc creator/3.0/psoc creator/import/gnu_cs/arm/4.7.3/bin/../lib/gcc/arm-none-eabi/4.7.3/../../../../arm-none-eabi/lib/armv7-m/crt0.o
 .data          0x00000000        0x0 c:/programmi/cypress/psoc creator/3.0/psoc creator/import/gnu_cs/arm/4.7.3/bin/../lib/gcc/arm-none-eabi/4.7.3/../../../../arm-none-eabi/lib/armv7-m/crt0.o
 .bss           0x00000000        0x0 c:/programmi/cypress/psoc creator/3.0/psoc creator/import/gnu_cs/arm/4.7.3/bin/../lib/gcc/arm-none-eabi/4.7.3/../../../../arm-none-eabi/lib/armv7-m/crt0.o
 .ARM.extab     0x00000000        0x0 c:/programmi/cypress/psoc creator/3.0/psoc creator/import/gnu_cs/arm/4.7.3/bin/../lib/gcc/arm-none-eabi/4.7.3/../../../../arm-none-eabi/lib/armv7-m/crt0.o
 .ARM.exidx     0x00000000        0x8 c:/programmi/cypress/psoc creator/3.0/psoc creator/import/gnu_cs/arm/4.7.3/bin/../lib/gcc/arm-none-eabi/4.7.3/../../../../arm-none-eabi/lib/armv7-m/crt0.o
 .text          0x00000000        0x0 .\CortexM3\ARM_GCC_473\Debug\main.o
 .text          0x00000000        0x0 .\CortexM3\ARM_GCC_473\Debug\console.o
 .data          0x00000000        0x0 .\CortexM3\ARM_GCC_473\Debug\console.o
 .text          0x00000000        0x0 .\CortexM3\ARM_GCC_473\Debug\gobeelib.o
 .data          0x00000000        0x0 .\CortexM3\ARM_GCC_473\Debug\gobeelib.o
 .bss           0x00000000        0x0 .\CortexM3\ARM_GCC_473\Debug\gobeelib.o
 .text.EEPROM_WriteBuffer
                0x00000000       0x28 .\CortexM3\ARM_GCC_473\Debug\gobeelib.o
 .text.clshome_console
                0x00000000       0x20 .\CortexM3\ARM_GCC_473\Debug\gobeelib.o
 .text.print_joke
                0x00000000       0xc8 .\CortexM3\ARM_GCC_473\Debug\gobeelib.o
 .text          0x00000000        0x0 .\CortexM3\ARM_GCC_473\Debug\ADXRS453.o
 .data          0x00000000        0x0 .\CortexM3\ARM_GCC_473\Debug\ADXRS453.o
 .bss           0x00000000        0x0 .\CortexM3\ARM_GCC_473\Debug\ADXRS453.o
 .text.init_ADXRS453
                0x00000000       0x20 .\CortexM3\ARM_GCC_473\Debug\ADXRS453.o
 .text.SPIM32_Transaction
                0x00000000       0x8c .\CortexM3\ARM_GCC_473\Debug\ADXRS453.o
 .text.SPIM32_ReadSensorData
                0x00000000       0x78 .\CortexM3\ARM_GCC_473\Debug\ADXRS453.o
 .text.dgyro_SPI32toFloat
                0x00000000       0x38 .\CortexM3\ARM_GCC_473\Debug\ADXRS453.o
 .text          0x00000000        0x0 .\CortexM3\ARM_GCC_473\Debug\motor_CTRL.o
 .data          0x00000000        0x0 .\CortexM3\ARM_GCC_473\Debug\motor_CTRL.o
 .bss           0x00000000        0x0 .\CortexM3\ARM_GCC_473\Debug\motor_CTRL.o
 .text          0x00000000        0x0 .\CortexM3\ARM_GCC_473\Debug\sensor_CTRL.o
 .data          0x00000000        0x0 .\CortexM3\ARM_GCC_473\Debug\sensor_CTRL.o
 COMMON         0x00000000        0x4 .\CortexM3\ARM_GCC_473\Debug\sensor_CTRL.o
 .text          0x00000000        0x0 .\CortexM3\ARM_GCC_473\Debug\pid_lib.o
 .data          0x00000000        0x0 .\CortexM3\ARM_GCC_473\Debug\pid_lib.o
 .text.pid_derror_read
                0x00000000       0x18 .\CortexM3\ARM_GCC_473\Debug\pid_lib.o
 .text.pid_ierror_read
                0x00000000       0x18 .\CortexM3\ARM_GCC_473\Debug\pid_lib.o
 .text.fpSpid_k
                0x00000000      0x1ac .\CortexM3\ARM_GCC_473\Debug\pid_lib.o
 .text.fpSpd_k  0x00000000       0xf8 .\CortexM3\ARM_GCC_473\Debug\pid_lib.o
 .text.fpSpd_kdfix
                0x00000000      0x150 .\CortexM3\ARM_GCC_473\Debug\pid_lib.o
 .text.fpSpd_kdlpf
                0x00000000      0x144 .\CortexM3\ARM_GCC_473\Debug\pid_lib.o
 .text.fp2LSpd_kdlpf
                0x00000000      0x144 .\CortexM3\ARM_GCC_473\Debug\pid_lib.o
 .text.convTdKd
                0x00000000       0x2c .\CortexM3\ARM_GCC_473\Debug\pid_lib.o
 .text.convKdTd
                0x00000000       0x2c .\CortexM3\ARM_GCC_473\Debug\pid_lib.o
 .text.convKdfd
                0x00000000       0x80 .\CortexM3\ARM_GCC_473\Debug\pid_lib.o
 .text.convTiKi
                0x00000000       0x2c .\CortexM3\ARM_GCC_473\Debug\pid_lib.o
 .text.convKiTi
                0x00000000       0x2c .\CortexM3\ARM_GCC_473\Debug\pid_lib.o
 .text.PIDs_DataClear
                0x00000000       0x3c .\CortexM3\ARM_GCC_473\Debug\pid_lib.o
 .text          0x00000000        0x0 .\CortexM3\ARM_GCC_473\Debug\estimators.o
 .data          0x00000000        0x0 .\CortexM3\ARM_GCC_473\Debug\estimators.o
 .text.SimplestVelocityEstimator
                0x00000000       0x5c .\CortexM3\ARM_GCC_473\Debug\estimators.o
 COMMON         0x00000000       0xc8 .\CortexM3\ARM_GCC_473\Debug\estimators.o
 .text          0x00000000        0x0 .\CortexM3\ARM_GCC_473\Debug\das.o
 .data          0x00000000        0x0 .\CortexM3\ARM_GCC_473\Debug\das.o
 .bss           0x00000000        0x0 .\CortexM3\ARM_GCC_473\Debug\das.o
 .text.DAS_values_reset
                0x00000000       0x48 .\CortexM3\ARM_GCC_473\Debug\das.o
 .text.DAS_init
                0x00000000       0x28 .\CortexM3\ARM_GCC_473\Debug\das.o
 .rodata        0x00000000       0x8c .\CortexM3\ARM_GCC_473\Debug\das.o
 .text.DAS_printf
                0x00000000      0x338 .\CortexM3\ARM_GCC_473\Debug\das.o
 .text          0x00000000        0x0 .\CortexM3\ARM_GCC_473\Debug\Cm3Start.o
 .data          0x00000000        0x0 .\CortexM3\ARM_GCC_473\Debug\Cm3Start.o
 .bss           0x00000000        0x0 .\CortexM3\ARM_GCC_473\Debug\Cm3Start.o
 .text._exit    0x00000000       0x30 .\CortexM3\ARM_GCC_473\Debug\Cm3Start.o
 .text          0x00000000        0x0 .\CortexM3\ARM_GCC_473\Debug\cymetadata.o
 .data          0x00000000        0x0 .\CortexM3\ARM_GCC_473\Debug\cymetadata.o
 .bss           0x00000000        0x0 .\CortexM3\ARM_GCC_473\Debug\cymetadata.o
 .text          0x00000000        0x0 .\CortexM3\ARM_GCC_473\Debug\cybootloader.o
 .data          0x00000000        0x0 .\CortexM3\ARM_GCC_473\Debug\cybootloader.o
 .bss           0x00000000        0x0 .\CortexM3\ARM_GCC_473\Debug\cybootloader.o
 .text          0x00000000        0x0 .\CortexM3\ARM_GCC_473\Debug\GoBee-00_1.a(cyfitter_cfg_1.o)
 .bss           0x00000000        0x0 .\CortexM3\ARM_GCC_473\Debug\GoBee-00_1.a(cyfitter_cfg_1.o)
 .text.CYCONFIGCPYCODE
                0x00000000       0x20 .\CortexM3\ARM_GCC_473\Debug\GoBee-00_1.a(cyfitter_cfg_1.o)
 .text.SetAnalogRoutingPumps
                0x00000000       0x44 .\CortexM3\ARM_GCC_473\Debug\GoBee-00_1.a(cyfitter_cfg_1.o)
 .text          0x00000000        0x0 .\CortexM3\ARM_GCC_473\Debug\GoBee-00_1.a(ADC.o)
 .text.ADC_Stop
                0x00000000      0x220 .\CortexM3\ARM_GCC_473\Debug\GoBee-00_1.a(ADC.o)
 .text.ADC_SetBufferGain
                0x00000000       0x48 .\CortexM3\ARM_GCC_473\Debug\GoBee-00_1.a(ADC.o)
 .text.ADC_SetCoherency
                0x00000000       0x40 .\CortexM3\ARM_GCC_473\Debug\GoBee-00_1.a(ADC.o)
 .text.ADC_SetGCOR
                0x00000000       0xd0 .\CortexM3\ARM_GCC_473\Debug\GoBee-00_1.a(ADC.o)
 .text.ADC_ReadGCOR
                0x00000000       0x40 .\CortexM3\ARM_GCC_473\Debug\GoBee-00_1.a(ADC.o)
 .text.ADC_IsEndConversion
                0x00000000       0x54 .\CortexM3\ARM_GCC_473\Debug\GoBee-00_1.a(ADC.o)
 .text.ADC_GetResult8
                0x00000000       0x78 .\CortexM3\ARM_GCC_473\Debug\GoBee-00_1.a(ADC.o)
 .text.ADC_GetResult32
                0x00000000       0xd8 .\CortexM3\ARM_GCC_473\Debug\GoBee-00_1.a(ADC.o)
 .text.ADC_SetOffset
                0x00000000       0x20 .\CortexM3\ARM_GCC_473\Debug\GoBee-00_1.a(ADC.o)
 .text.ADC_SetGain
                0x00000000       0x20 .\CortexM3\ARM_GCC_473\Debug\GoBee-00_1.a(ADC.o)
 .text.ADC_CountsTo_mVolts
                0x00000000       0x44 .\CortexM3\ARM_GCC_473\Debug\GoBee-00_1.a(ADC.o)
 .text.ADC_CountsTo_Volts
                0x00000000       0x4c .\CortexM3\ARM_GCC_473\Debug\GoBee-00_1.a(ADC.o)
 .text.ADC_CountsTo_uVolts
                0x00000000       0xdc .\CortexM3\ARM_GCC_473\Debug\GoBee-00_1.a(ADC.o)
 .text.ADC_SelectConfiguration
                0x00000000       0xac .\CortexM3\ARM_GCC_473\Debug\GoBee-00_1.a(ADC.o)
 .text.ADC_Read8
                0x00000000       0x48 .\CortexM3\ARM_GCC_473\Debug\GoBee-00_1.a(ADC.o)
 .text.ADC_Read16
                0x00000000       0x48 .\CortexM3\ARM_GCC_473\Debug\GoBee-00_1.a(ADC.o)
 .text.ADC_Read32
                0x00000000       0x44 .\CortexM3\ARM_GCC_473\Debug\GoBee-00_1.a(ADC.o)
 .text          0x00000000        0x0 .\CortexM3\ARM_GCC_473\Debug\GoBee-00_1.a(ADC_INT.o)
 .data          0x00000000        0x0 .\CortexM3\ARM_GCC_473\Debug\GoBee-00_1.a(ADC_INT.o)
 .text.ADC_ISR2
                0x00000000        0xc .\CortexM3\ARM_GCC_473\Debug\GoBee-00_1.a(ADC_INT.o)
 .text.ADC_ISR3
                0x00000000        0xc .\CortexM3\ARM_GCC_473\Debug\GoBee-00_1.a(ADC_INT.o)
 .text.ADC_ISR4
                0x00000000        0xc .\CortexM3\ARM_GCC_473\Debug\GoBee-00_1.a(ADC_INT.o)
 .text          0x00000000        0x0 .\CortexM3\ARM_GCC_473\Debug\GoBee-00_1.a(UART_USB.o)
 .data          0x00000000        0x0 .\CortexM3\ARM_GCC_473\Debug\GoBee-00_1.a(UART_USB.o)
 .text.UART_USB_Stop
                0x00000000       0x78 .\CortexM3\ARM_GCC_473\Debug\GoBee-00_1.a(UART_USB.o)
 .text.UART_USB_ReadControlRegister
                0x00000000       0x10 .\CortexM3\ARM_GCC_473\Debug\GoBee-00_1.a(UART_USB.o)
 .text.UART_USB_WriteControlRegister
                0x00000000       0x14 .\CortexM3\ARM_GCC_473\Debug\GoBee-00_1.a(UART_USB.o)
 .text.UART_USB_SetRxInterruptMode
                0x00000000       0x20 .\CortexM3\ARM_GCC_473\Debug\GoBee-00_1.a(UART_USB.o)
 .text.UART_USB_ReadRxData
                0x00000000       0x20 .\CortexM3\ARM_GCC_473\Debug\GoBee-00_1.a(UART_USB.o)
 .text.UART_USB_ReadRxStatus
                0x00000000       0x28 .\CortexM3\ARM_GCC_473\Debug\GoBee-00_1.a(UART_USB.o)
 .text.UART_USB_GetByte
                0x00000000       0x24 .\CortexM3\ARM_GCC_473\Debug\GoBee-00_1.a(UART_USB.o)
 .text.UART_USB_GetRxBufferSize
                0x00000000       0x34 .\CortexM3\ARM_GCC_473\Debug\GoBee-00_1.a(UART_USB.o)
 .text.UART_USB_ClearRxBuffer
                0x00000000       0x58 .\CortexM3\ARM_GCC_473\Debug\GoBee-00_1.a(UART_USB.o)
 .text.UART_USB_SetRxAddressMode
                0x00000000       0x14 .\CortexM3\ARM_GCC_473\Debug\GoBee-00_1.a(UART_USB.o)
 .text.UART_USB_SetRxAddress1
                0x00000000       0x20 .\CortexM3\ARM_GCC_473\Debug\GoBee-00_1.a(UART_USB.o)
 .text.UART_USB_SetRxAddress2
                0x00000000       0x20 .\CortexM3\ARM_GCC_473\Debug\GoBee-00_1.a(UART_USB.o)
 .text.UART_USB_SetTxInterruptMode
                0x00000000       0x20 .\CortexM3\ARM_GCC_473\Debug\GoBee-00_1.a(UART_USB.o)
 .text.UART_USB_WriteTxData
                0x00000000       0x30 .\CortexM3\ARM_GCC_473\Debug\GoBee-00_1.a(UART_USB.o)
 .text.UART_USB_ReadTxStatus
                0x00000000       0x18 .\CortexM3\ARM_GCC_473\Debug\GoBee-00_1.a(UART_USB.o)
 .text.UART_USB_PutString
                0x00000000       0x48 .\CortexM3\ARM_GCC_473\Debug\GoBee-00_1.a(UART_USB.o)
 .text.UART_USB_PutArray
                0x00000000       0x48 .\CortexM3\ARM_GCC_473\Debug\GoBee-00_1.a(UART_USB.o)
 .text.UART_USB_PutCRLF
                0x00000000       0x38 .\CortexM3\ARM_GCC_473\Debug\GoBee-00_1.a(UART_USB.o)
 .text.UART_USB_GetTxBufferSize
                0x00000000       0x4c .\CortexM3\ARM_GCC_473\Debug\GoBee-00_1.a(UART_USB.o)
 .text.UART_USB_ClearTxBuffer
                0x00000000       0x58 .\CortexM3\ARM_GCC_473\Debug\GoBee-00_1.a(UART_USB.o)
 .text.UART_USB_SendBreak
                0x00000000       0xc4 .\CortexM3\ARM_GCC_473\Debug\GoBee-00_1.a(UART_USB.o)
 .text.UART_USB_SetTxAddressMode
                0x00000000       0x14 .\CortexM3\ARM_GCC_473\Debug\GoBee-00_1.a(UART_USB.o)
 .text          0x00000000        0x0 .\CortexM3\ARM_GCC_473\Debug\GoBee-00_1.a(Control_Reg_LED.o)
 .data          0x00000000        0x0 .\CortexM3\ARM_GCC_473\Debug\GoBee-00_1.a(Control_Reg_LED.o)
 .bss           0x00000000        0x0 .\CortexM3\ARM_GCC_473\Debug\GoBee-00_1.a(Control_Reg_LED.o)
 .text.Control_Reg_LED_Read
                0x00000000       0x18 .\CortexM3\ARM_GCC_473\Debug\GoBee-00_1.a(Control_Reg_LED.o)
 .text          0x00000000        0x0 .\CortexM3\ARM_GCC_473\Debug\GoBee-00_1.a(EEPROM.o)
 .data          0x00000000        0x0 .\CortexM3\ARM_GCC_473\Debug\GoBee-00_1.a(EEPROM.o)
 .bss           0x00000000        0x0 .\CortexM3\ARM_GCC_473\Debug\GoBee-00_1.a(EEPROM.o)
 .text.EEPROM_Start
                0x00000000        0xc .\CortexM3\ARM_GCC_473\Debug\GoBee-00_1.a(EEPROM.o)
 .text.EEPROM_Stop
                0x00000000        0xc .\CortexM3\ARM_GCC_473\Debug\GoBee-00_1.a(EEPROM.o)
 .text.EEPROM_EraseSector
                0x00000000       0xa4 .\CortexM3\ARM_GCC_473\Debug\GoBee-00_1.a(EEPROM.o)
 .text.EEPROM_StartWrite
                0x00000000       0xdc .\CortexM3\ARM_GCC_473\Debug\GoBee-00_1.a(EEPROM.o)
 .text.EEPROM_QueryWrite
                0x00000000       0x6c .\CortexM3\ARM_GCC_473\Debug\GoBee-00_1.a(EEPROM.o)
 .text.EEPROM_ByteWrite
                0x00000000      0x144 .\CortexM3\ARM_GCC_473\Debug\GoBee-00_1.a(EEPROM.o)
 .text          0x00000000        0x0 .\CortexM3\ARM_GCC_473\Debug\GoBee-00_1.a(AMuxSeq.o)
 .data          0x00000000        0x0 .\CortexM3\ARM_GCC_473\Debug\GoBee-00_1.a(AMuxSeq.o)
 .text.AMuxSeq_Init
                0x00000000        0xc .\CortexM3\ARM_GCC_473\Debug\GoBee-00_1.a(AMuxSeq.o)
 .text.AMuxSeq_Stop
                0x00000000        0xc .\CortexM3\ARM_GCC_473\Debug\GoBee-00_1.a(AMuxSeq.o)
 .text.AMuxSeq_GetChannel
                0x00000000       0x18 .\CortexM3\ARM_GCC_473\Debug\GoBee-00_1.a(AMuxSeq.o)
 .text          0x00000000        0x0 .\CortexM3\ARM_GCC_473\Debug\GoBee-00_1.a(isr_CTRL.o)
 .data          0x00000000        0x0 .\CortexM3\ARM_GCC_473\Debug\GoBee-00_1.a(isr_CTRL.o)
 .bss           0x00000000        0x0 .\CortexM3\ARM_GCC_473\Debug\GoBee-00_1.a(isr_CTRL.o)
 .text.isr_CTRL_StartEx
                0x00000000       0x28 .\CortexM3\ARM_GCC_473\Debug\GoBee-00_1.a(isr_CTRL.o)
 .text.isr_CTRL_Stop
                0x00000000       0x18 .\CortexM3\ARM_GCC_473\Debug\GoBee-00_1.a(isr_CTRL.o)
 .text.isr_CTRL_GetVector
                0x00000000       0x24 .\CortexM3\ARM_GCC_473\Debug\GoBee-00_1.a(isr_CTRL.o)
 .text.isr_CTRL_GetPriority
                0x00000000       0x28 .\CortexM3\ARM_GCC_473\Debug\GoBee-00_1.a(isr_CTRL.o)
 .text.isr_CTRL_GetState
                0x00000000       0x28 .\CortexM3\ARM_GCC_473\Debug\GoBee-00_1.a(isr_CTRL.o)
 .text.isr_CTRL_SetPending
                0x00000000       0x18 .\CortexM3\ARM_GCC_473\Debug\GoBee-00_1.a(isr_CTRL.o)
 .text.isr_CTRL_ClearPending
                0x00000000       0x18 .\CortexM3\ARM_GCC_473\Debug\GoBee-00_1.a(isr_CTRL.o)
 .text          0x00000000        0x0 .\CortexM3\ARM_GCC_473\Debug\GoBee-00_1.a(Status_Reg_BUTTON.o)
 .data          0x00000000        0x0 .\CortexM3\ARM_GCC_473\Debug\GoBee-00_1.a(Status_Reg_BUTTON.o)
 .bss           0x00000000        0x0 .\CortexM3\ARM_GCC_473\Debug\GoBee-00_1.a(Status_Reg_BUTTON.o)
 .text.Status_Reg_BUTTON_InterruptEnable
                0x00000000       0x3c .\CortexM3\ARM_GCC_473\Debug\GoBee-00_1.a(Status_Reg_BUTTON.o)
 .text.Status_Reg_BUTTON_InterruptDisable
                0x00000000       0x3c .\CortexM3\ARM_GCC_473\Debug\GoBee-00_1.a(Status_Reg_BUTTON.o)
 .text.Status_Reg_BUTTON_WriteMask
                0x00000000       0x28 .\CortexM3\ARM_GCC_473\Debug\GoBee-00_1.a(Status_Reg_BUTTON.o)
 .text.Status_Reg_BUTTON_ReadMask
                0x00000000       0x18 .\CortexM3\ARM_GCC_473\Debug\GoBee-00_1.a(Status_Reg_BUTTON.o)
 .text          0x00000000        0x0 .\CortexM3\ARM_GCC_473\Debug\GoBee-00_1.a(Counter_LED.o)
 .data          0x00000000        0x0 .\CortexM3\ARM_GCC_473\Debug\GoBee-00_1.a(Counter_LED.o)
 .text.Counter_LED_Stop
                0x00000000       0x28 .\CortexM3\ARM_GCC_473\Debug\GoBee-00_1.a(Counter_LED.o)
 .text.Counter_LED_ReadControlRegister
                0x00000000       0x18 .\CortexM3\ARM_GCC_473\Debug\GoBee-00_1.a(Counter_LED.o)
 .text.Counter_LED_WriteControlRegister
                0x00000000       0x20 .\CortexM3\ARM_GCC_473\Debug\GoBee-00_1.a(Counter_LED.o)
 .text.Counter_LED_ReadCounter
                0x00000000       0x24 .\CortexM3\ARM_GCC_473\Debug\GoBee-00_1.a(Counter_LED.o)
 .text.Counter_LED_ReadPeriod
                0x00000000       0x18 .\CortexM3\ARM_GCC_473\Debug\GoBee-00_1.a(Counter_LED.o)
 .text.Counter_LED_ReadCompare
                0x00000000       0x18 .\CortexM3\ARM_GCC_473\Debug\GoBee-00_1.a(Counter_LED.o)
 .text          0x00000000        0x0 .\CortexM3\ARM_GCC_473\Debug\GoBee-00_1.a(isr_DGYRO.o)
 .data          0x00000000        0x0 .\CortexM3\ARM_GCC_473\Debug\GoBee-00_1.a(isr_DGYRO.o)
 .bss           0x00000000        0x0 .\CortexM3\ARM_GCC_473\Debug\GoBee-00_1.a(isr_DGYRO.o)
 .text.isr_DGYRO_StartEx
                0x00000000       0x28 .\CortexM3\ARM_GCC_473\Debug\GoBee-00_1.a(isr_DGYRO.o)
 .text.isr_DGYRO_Stop
                0x00000000       0x18 .\CortexM3\ARM_GCC_473\Debug\GoBee-00_1.a(isr_DGYRO.o)
 .text.isr_DGYRO_GetVector
                0x00000000       0x24 .\CortexM3\ARM_GCC_473\Debug\GoBee-00_1.a(isr_DGYRO.o)
 .text.isr_DGYRO_GetPriority
                0x00000000       0x28 .\CortexM3\ARM_GCC_473\Debug\GoBee-00_1.a(isr_DGYRO.o)
 .text.isr_DGYRO_GetState
                0x00000000       0x28 .\CortexM3\ARM_GCC_473\Debug\GoBee-00_1.a(isr_DGYRO.o)
 .text.isr_DGYRO_SetPending
                0x00000000       0x18 .\CortexM3\ARM_GCC_473\Debug\GoBee-00_1.a(isr_DGYRO.o)
 .text.isr_DGYRO_ClearPending
                0x00000000       0x18 .\CortexM3\ARM_GCC_473\Debug\GoBee-00_1.a(isr_DGYRO.o)
 .text          0x00000000        0x0 .\CortexM3\ARM_GCC_473\Debug\GoBee-00_1.a(Clock_DGYRO.o)
 .data          0x00000000        0x0 .\CortexM3\ARM_GCC_473\Debug\GoBee-00_1.a(Clock_DGYRO.o)
 .bss           0x00000000        0x0 .\CortexM3\ARM_GCC_473\Debug\GoBee-00_1.a(Clock_DGYRO.o)
 .text.Clock_DGYRO_Stop
                0x00000000       0x44 .\CortexM3\ARM_GCC_473\Debug\GoBee-00_1.a(Clock_DGYRO.o)
 .text.Clock_DGYRO_StopBlock
                0x00000000       0xf8 .\CortexM3\ARM_GCC_473\Debug\GoBee-00_1.a(Clock_DGYRO.o)
 .text.Clock_DGYRO_StandbyPower
                0x00000000       0x54 .\CortexM3\ARM_GCC_473\Debug\GoBee-00_1.a(Clock_DGYRO.o)
 .text.Clock_DGYRO_SetDividerRegister
                0x00000000      0x1e8 .\CortexM3\ARM_GCC_473\Debug\GoBee-00_1.a(Clock_DGYRO.o)
 .text.Clock_DGYRO_GetDividerRegister
                0x00000000       0x18 .\CortexM3\ARM_GCC_473\Debug\GoBee-00_1.a(Clock_DGYRO.o)
 .text.Clock_DGYRO_SetModeRegister
                0x00000000       0x3c .\CortexM3\ARM_GCC_473\Debug\GoBee-00_1.a(Clock_DGYRO.o)
 .text.Clock_DGYRO_ClearModeRegister
                0x00000000       0x3c .\CortexM3\ARM_GCC_473\Debug\GoBee-00_1.a(Clock_DGYRO.o)
 .text.Clock_DGYRO_GetModeRegister
                0x00000000       0x20 .\CortexM3\ARM_GCC_473\Debug\GoBee-00_1.a(Clock_DGYRO.o)
 .text.Clock_DGYRO_SetSourceRegister
                0x00000000       0xf4 .\CortexM3\ARM_GCC_473\Debug\GoBee-00_1.a(Clock_DGYRO.o)
 .text.Clock_DGYRO_GetSourceRegister
                0x00000000       0x20 .\CortexM3\ARM_GCC_473\Debug\GoBee-00_1.a(Clock_DGYRO.o)
 .text          0x00000000        0x0 .\CortexM3\ARM_GCC_473\Debug\GoBee-00_1.a(ADC_theACLK.o)
 .data          0x00000000        0x0 .\CortexM3\ARM_GCC_473\Debug\GoBee-00_1.a(ADC_theACLK.o)
 .bss           0x00000000        0x0 .\CortexM3\ARM_GCC_473\Debug\GoBee-00_1.a(ADC_theACLK.o)
 .text.ADC_theACLK_Start
                0x00000000       0x44 .\CortexM3\ARM_GCC_473\Debug\GoBee-00_1.a(ADC_theACLK.o)
 .text.ADC_theACLK_Stop
                0x00000000       0x44 .\CortexM3\ARM_GCC_473\Debug\GoBee-00_1.a(ADC_theACLK.o)
 .text.ADC_theACLK_StopBlock
                0x00000000       0xf8 .\CortexM3\ARM_GCC_473\Debug\GoBee-00_1.a(ADC_theACLK.o)
 .text.ADC_theACLK_StandbyPower
                0x00000000       0x54 .\CortexM3\ARM_GCC_473\Debug\GoBee-00_1.a(ADC_theACLK.o)
 .text.ADC_theACLK_ClearModeRegister
                0x00000000       0x3c .\CortexM3\ARM_GCC_473\Debug\GoBee-00_1.a(ADC_theACLK.o)
 .text.ADC_theACLK_GetModeRegister
                0x00000000       0x20 .\CortexM3\ARM_GCC_473\Debug\GoBee-00_1.a(ADC_theACLK.o)
 .text.ADC_theACLK_SetSourceRegister
                0x00000000       0xf4 .\CortexM3\ARM_GCC_473\Debug\GoBee-00_1.a(ADC_theACLK.o)
 .text.ADC_theACLK_SetPhaseRegister
                0x00000000       0x28 .\CortexM3\ARM_GCC_473\Debug\GoBee-00_1.a(ADC_theACLK.o)
 .text.ADC_theACLK_GetPhaseRegister
                0x00000000       0x20 .\CortexM3\ARM_GCC_473\Debug\GoBee-00_1.a(ADC_theACLK.o)
 .text          0x00000000        0x0 .\CortexM3\ARM_GCC_473\Debug\GoBee-00_1.a(ADC_Ext_CP_Clk.o)
 .data          0x00000000        0x0 .\CortexM3\ARM_GCC_473\Debug\GoBee-00_1.a(ADC_Ext_CP_Clk.o)
 .bss           0x00000000        0x0 .\CortexM3\ARM_GCC_473\Debug\GoBee-00_1.a(ADC_Ext_CP_Clk.o)
 .text.ADC_Ext_CP_Clk_Start
                0x00000000       0x44 .\CortexM3\ARM_GCC_473\Debug\GoBee-00_1.a(ADC_Ext_CP_Clk.o)
 .text.ADC_Ext_CP_Clk_Stop
                0x00000000       0x44 .\CortexM3\ARM_GCC_473\Debug\GoBee-00_1.a(ADC_Ext_CP_Clk.o)
 .text.ADC_Ext_CP_Clk_StopBlock
                0x00000000       0xf8 .\CortexM3\ARM_GCC_473\Debug\GoBee-00_1.a(ADC_Ext_CP_Clk.o)
 .text.ADC_Ext_CP_Clk_StandbyPower
                0x00000000       0x54 .\CortexM3\ARM_GCC_473\Debug\GoBee-00_1.a(ADC_Ext_CP_Clk.o)
 .text.ADC_Ext_CP_Clk_ClearModeRegister
                0x00000000       0x3c .\CortexM3\ARM_GCC_473\Debug\GoBee-00_1.a(ADC_Ext_CP_Clk.o)
 .text.ADC_Ext_CP_Clk_GetModeRegister
                0x00000000       0x20 .\CortexM3\ARM_GCC_473\Debug\GoBee-00_1.a(ADC_Ext_CP_Clk.o)
 .text.ADC_Ext_CP_Clk_SetSourceRegister
                0x00000000       0xf4 .\CortexM3\ARM_GCC_473\Debug\GoBee-00_1.a(ADC_Ext_CP_Clk.o)
 .text          0x00000000        0x0 .\CortexM3\ARM_GCC_473\Debug\GoBee-00_1.a(UART_USB_IntClock.o)
 .data          0x00000000        0x0 .\CortexM3\ARM_GCC_473\Debug\GoBee-00_1.a(UART_USB_IntClock.o)
 .bss           0x00000000        0x0 .\CortexM3\ARM_GCC_473\Debug\GoBee-00_1.a(UART_USB_IntClock.o)
 .text.UART_USB_IntClock_Stop
                0x00000000       0x44 .\CortexM3\ARM_GCC_473\Debug\GoBee-00_1.a(UART_USB_IntClock.o)
 .text.UART_USB_IntClock_StopBlock
                0x00000000       0xf8 .\CortexM3\ARM_GCC_473\Debug\GoBee-00_1.a(UART_USB_IntClock.o)
 .text.UART_USB_IntClock_StandbyPower
                0x00000000       0x54 .\CortexM3\ARM_GCC_473\Debug\GoBee-00_1.a(UART_USB_IntClock.o)
 .text.UART_USB_IntClock_SetDividerRegister
                0x00000000      0x1e8 .\CortexM3\ARM_GCC_473\Debug\GoBee-00_1.a(UART_USB_IntClock.o)
 .text.UART_USB_IntClock_GetDividerRegister
                0x00000000       0x18 .\CortexM3\ARM_GCC_473\Debug\GoBee-00_1.a(UART_USB_IntClock.o)
 .text.UART_USB_IntClock_SetModeRegister
                0x00000000       0x3c .\CortexM3\ARM_GCC_473\Debug\GoBee-00_1.a(UART_USB_IntClock.o)
 .text.UART_USB_IntClock_ClearModeRegister
                0x00000000       0x3c .\CortexM3\ARM_GCC_473\Debug\GoBee-00_1.a(UART_USB_IntClock.o)
 .text.UART_USB_IntClock_GetModeRegister
                0x00000000       0x20 .\CortexM3\ARM_GCC_473\Debug\GoBee-00_1.a(UART_USB_IntClock.o)
 .text.UART_USB_IntClock_SetSourceRegister
                0x00000000       0xf4 .\CortexM3\ARM_GCC_473\Debug\GoBee-00_1.a(UART_USB_IntClock.o)
 .text.UART_USB_IntClock_GetSourceRegister
                0x00000000       0x20 .\CortexM3\ARM_GCC_473\Debug\GoBee-00_1.a(UART_USB_IntClock.o)
 .data          0x00000000        0x0 .\CortexM3\ARM_GCC_473\Debug\GoBee-00_1.a(CyBootAsmGnu.o)
 .bss           0x00000000        0x0 .\CortexM3\ARM_GCC_473\Debug\GoBee-00_1.a(CyBootAsmGnu.o)
 .text          0x00000000        0x0 .\CortexM3\ARM_GCC_473\Debug\GoBee-00_1.a(CyDmac.o)
 .bss           0x00000000        0x0 .\CortexM3\ARM_GCC_473\Debug\GoBee-00_1.a(CyDmac.o)
 .text.CyDmacError
                0x00000000       0x20 .\CortexM3\ARM_GCC_473\Debug\GoBee-00_1.a(CyDmac.o)
 .text.CyDmacClearError
                0x00000000       0x24 .\CortexM3\ARM_GCC_473\Debug\GoBee-00_1.a(CyDmac.o)
 .text.CyDmacErrorAddress
                0x00000000       0x18 .\CortexM3\ARM_GCC_473\Debug\GoBee-00_1.a(CyDmac.o)
 .text.CyDmaChAlloc
                0x00000000       0x80 .\CortexM3\ARM_GCC_473\Debug\GoBee-00_1.a(CyDmac.o)
 .text.CyDmaChFree
                0x00000000       0x5c .\CortexM3\ARM_GCC_473\Debug\GoBee-00_1.a(CyDmac.o)
 .text.CyDmaClearPendingDrq
                0x00000000       0x84 .\CortexM3\ARM_GCC_473\Debug\GoBee-00_1.a(CyDmac.o)
 .text.CyDmaChSetRequest
                0x00000000       0x64 .\CortexM3\ARM_GCC_473\Debug\GoBee-00_1.a(CyDmac.o)
 .text.CyDmaChGetRequest
                0x00000000       0x40 .\CortexM3\ARM_GCC_473\Debug\GoBee-00_1.a(CyDmac.o)
 .text.CyDmaChStatus
                0x00000000       0x70 .\CortexM3\ARM_GCC_473\Debug\GoBee-00_1.a(CyDmac.o)
 .text.CyDmaTdFree
                0x00000000       0x6c .\CortexM3\ARM_GCC_473\Debug\GoBee-00_1.a(CyDmac.o)
 .text.CyDmaTdFreeCount
                0x00000000       0x1c .\CortexM3\ARM_GCC_473\Debug\GoBee-00_1.a(CyDmac.o)
 .text.CyDmaTdGetConfiguration
                0x00000000       0x94 .\CortexM3\ARM_GCC_473\Debug\GoBee-00_1.a(CyDmac.o)
 .text.CyDmaTdGetAddress
                0x00000000       0x78 .\CortexM3\ARM_GCC_473\Debug\GoBee-00_1.a(CyDmac.o)
 .text.CyDmaChRoundRobin
                0x00000000       0x90 .\CortexM3\ARM_GCC_473\Debug\GoBee-00_1.a(CyDmac.o)
 .text          0x00000000        0x0 .\CortexM3\ARM_GCC_473\Debug\GoBee-00_1.a(CyFlash.o)
 .data          0x00000000        0x0 .\CortexM3\ARM_GCC_473\Debug\GoBee-00_1.a(CyFlash.o)
 .bss           0x00000000        0x4 .\CortexM3\ARM_GCC_473\Debug\GoBee-00_1.a(CyFlash.o)
 .text.CyFlash_Start
                0x00000000       0x48 .\CortexM3\ARM_GCC_473\Debug\GoBee-00_1.a(CyFlash.o)
 .text.CyFlash_Stop
                0x00000000       0x44 .\CortexM3\ARM_GCC_473\Debug\GoBee-00_1.a(CyFlash.o)
 .text.CySetTempInt
                0x00000000       0x90 .\CortexM3\ARM_GCC_473\Debug\GoBee-00_1.a(CyFlash.o)
 .text.CySetTemp
                0x00000000       0x24 .\CortexM3\ARM_GCC_473\Debug\GoBee-00_1.a(CyFlash.o)
 .text.CySetFlashEEBuffer
                0x00000000       0x78 .\CortexM3\ARM_GCC_473\Debug\GoBee-00_1.a(CyFlash.o)
 .text.CyWriteRowData
                0x00000000       0xbc .\CortexM3\ARM_GCC_473\Debug\GoBee-00_1.a(CyFlash.o)
 .text.CyWriteRowFull
                0x00000000      0x120 .\CortexM3\ARM_GCC_473\Debug\GoBee-00_1.a(CyFlash.o)
 .text.CyFlash_SetWaitCycles
                0x00000000       0xc0 .\CortexM3\ARM_GCC_473\Debug\GoBee-00_1.a(CyFlash.o)
 .text.CyEEPROM_Stop
                0x00000000       0x44 .\CortexM3\ARM_GCC_473\Debug\GoBee-00_1.a(CyFlash.o)
 .text.CyEEPROM_ReadReserve
                0x00000000       0x3c .\CortexM3\ARM_GCC_473\Debug\GoBee-00_1.a(CyFlash.o)
 .text.CyEEPROM_ReadRelease
                0x00000000       0x28 .\CortexM3\ARM_GCC_473\Debug\GoBee-00_1.a(CyFlash.o)
 .text          0x00000000        0x0 .\CortexM3\ARM_GCC_473\Debug\GoBee-00_1.a(CyLib.o)
 .bss           0x00000000        0x0 .\CortexM3\ARM_GCC_473\Debug\GoBee-00_1.a(CyLib.o)
 .text.CyPLL_OUT_Start
                0x00000000       0xe0 .\CortexM3\ARM_GCC_473\Debug\GoBee-00_1.a(CyLib.o)
 .text.CyPLL_OUT_Stop
                0x00000000       0x28 .\CortexM3\ARM_GCC_473\Debug\GoBee-00_1.a(CyLib.o)
 .text.CyPLL_OUT_SetPQ
                0x00000000       0xac .\CortexM3\ARM_GCC_473\Debug\GoBee-00_1.a(CyLib.o)
 .text.CyPLL_OUT_SetSource
                0x00000000       0x60 .\CortexM3\ARM_GCC_473\Debug\GoBee-00_1.a(CyLib.o)
 .text.CyIMO_Start
                0x00000000       0xbc .\CortexM3\ARM_GCC_473\Debug\GoBee-00_1.a(CyLib.o)
 .text.CyIMO_Stop
                0x00000000       0x44 .\CortexM3\ARM_GCC_473\Debug\GoBee-00_1.a(CyLib.o)
 .text.CyUSB_PowerOnCheck
                0x00000000       0x70 .\CortexM3\ARM_GCC_473\Debug\GoBee-00_1.a(CyLib.o)
 .text.CyIMO_SetTrimValue
                0x00000000      0x160 .\CortexM3\ARM_GCC_473\Debug\GoBee-00_1.a(CyLib.o)
 .text.CyIMO_SetFreq
                0x00000000      0x224 .\CortexM3\ARM_GCC_473\Debug\GoBee-00_1.a(CyLib.o)
 .text.CyIMO_SetSource
                0x00000000       0xb0 .\CortexM3\ARM_GCC_473\Debug\GoBee-00_1.a(CyLib.o)
 .text.CyIMO_EnableDoubler
                0x00000000       0x28 .\CortexM3\ARM_GCC_473\Debug\GoBee-00_1.a(CyLib.o)
 .text.CyIMO_DisableDoubler
                0x00000000       0x28 .\CortexM3\ARM_GCC_473\Debug\GoBee-00_1.a(CyLib.o)
 .text.CyMasterClk_SetSource
                0x00000000       0x3c .\CortexM3\ARM_GCC_473\Debug\GoBee-00_1.a(CyLib.o)
 .text.CyMasterClk_SetDivider
                0x00000000       0x20 .\CortexM3\ARM_GCC_473\Debug\GoBee-00_1.a(CyLib.o)
 .text.CyBusClk_Internal_SetDivider
                0x00000000       0x98 .\CortexM3\ARM_GCC_473\Debug\GoBee-00_1.a(CyLib.o)
 .text.CyBusClk_SetDivider
                0x00000000       0xd0 .\CortexM3\ARM_GCC_473\Debug\GoBee-00_1.a(CyLib.o)
 .text.CyUsbClk_SetSource
                0x00000000       0x3c .\CortexM3\ARM_GCC_473\Debug\GoBee-00_1.a(CyLib.o)
 .text.CyILO_Start1K
                0x00000000       0x28 .\CortexM3\ARM_GCC_473\Debug\GoBee-00_1.a(CyLib.o)
 .text.CyILO_Stop1K
                0x00000000       0x28 .\CortexM3\ARM_GCC_473\Debug\GoBee-00_1.a(CyLib.o)
 .text.CyILO_Start100K
                0x00000000       0x28 .\CortexM3\ARM_GCC_473\Debug\GoBee-00_1.a(CyLib.o)
 .text.CyILO_Stop100K
                0x00000000       0x28 .\CortexM3\ARM_GCC_473\Debug\GoBee-00_1.a(CyLib.o)
 .text.CyILO_Enable33K
                0x00000000       0x28 .\CortexM3\ARM_GCC_473\Debug\GoBee-00_1.a(CyLib.o)
 .text.CyILO_Disable33K
                0x00000000       0x28 .\CortexM3\ARM_GCC_473\Debug\GoBee-00_1.a(CyLib.o)
 .text.CyILO_SetSource
                0x00000000       0x3c .\CortexM3\ARM_GCC_473\Debug\GoBee-00_1.a(CyLib.o)
 .text.CyILO_SetPowerMode
                0x00000000       0x5c .\CortexM3\ARM_GCC_473\Debug\GoBee-00_1.a(CyLib.o)
 .text.CyXTAL_32KHZ_Start
                0x00000000       0xa4 .\CortexM3\ARM_GCC_473\Debug\GoBee-00_1.a(CyLib.o)
 .text.CyXTAL_32KHZ_Stop
                0x00000000       0x64 .\CortexM3\ARM_GCC_473\Debug\GoBee-00_1.a(CyLib.o)
 .text.CyXTAL_32KHZ_ReadStatus
                0x00000000       0x20 .\CortexM3\ARM_GCC_473\Debug\GoBee-00_1.a(CyLib.o)
 .text.CyXTAL_32KHZ_SetPowerMode
                0x00000000       0xfc .\CortexM3\ARM_GCC_473\Debug\GoBee-00_1.a(CyLib.o)
 .text.CyXTAL_Start
                0x00000000      0x108 .\CortexM3\ARM_GCC_473\Debug\GoBee-00_1.a(CyLib.o)
 .text.CyXTAL_Stop
                0x00000000       0x28 .\CortexM3\ARM_GCC_473\Debug\GoBee-00_1.a(CyLib.o)
 .text.CyXTAL_EnableErrStatus
                0x00000000       0x28 .\CortexM3\ARM_GCC_473\Debug\GoBee-00_1.a(CyLib.o)
 .text.CyXTAL_DisableErrStatus
                0x00000000       0x28 .\CortexM3\ARM_GCC_473\Debug\GoBee-00_1.a(CyLib.o)
 .text.CyXTAL_ReadStatus
                0x00000000       0x2c .\CortexM3\ARM_GCC_473\Debug\GoBee-00_1.a(CyLib.o)
 .text.CyXTAL_EnableFaultRecovery
                0x00000000       0x28 .\CortexM3\ARM_GCC_473\Debug\GoBee-00_1.a(CyLib.o)
 .text.CyXTAL_DisableFaultRecovery
                0x00000000       0x28 .\CortexM3\ARM_GCC_473\Debug\GoBee-00_1.a(CyLib.o)
 .text.CyXTAL_SetStartup
                0x00000000       0x3c .\CortexM3\ARM_GCC_473\Debug\GoBee-00_1.a(CyLib.o)
 .text.CyXTAL_SetFbVoltage
                0x00000000       0x3c .\CortexM3\ARM_GCC_473\Debug\GoBee-00_1.a(CyLib.o)
 .text.CyXTAL_SetWdVoltage
                0x00000000       0x44 .\CortexM3\ARM_GCC_473\Debug\GoBee-00_1.a(CyLib.o)
 .text.CyDelayFreq
                0x00000000       0xa8 .\CortexM3\ARM_GCC_473\Debug\GoBee-00_1.a(CyLib.o)
 .text.CyWdtStart
                0x00000000       0xc4 .\CortexM3\ARM_GCC_473\Debug\GoBee-00_1.a(CyLib.o)
 .text.CyWdtClear
                0x00000000       0x18 .\CortexM3\ARM_GCC_473\Debug\GoBee-00_1.a(CyLib.o)
 .text.CyVdLvDigitEnable
                0x00000000       0xf4 .\CortexM3\ARM_GCC_473\Debug\GoBee-00_1.a(CyLib.o)
 .text.CyVdLvAnalogEnable
                0x00000000       0xf4 .\CortexM3\ARM_GCC_473\Debug\GoBee-00_1.a(CyLib.o)
 .text.CyVdLvDigitDisable
                0x00000000       0x58 .\CortexM3\ARM_GCC_473\Debug\GoBee-00_1.a(CyLib.o)
 .text.CyVdLvAnalogDisable
                0x00000000       0x58 .\CortexM3\ARM_GCC_473\Debug\GoBee-00_1.a(CyLib.o)
 .text.CyVdHvAnalogEnable
                0x00000000       0x7c .\CortexM3\ARM_GCC_473\Debug\GoBee-00_1.a(CyLib.o)
 .text.CyVdHvAnalogDisable
                0x00000000       0x28 .\CortexM3\ARM_GCC_473\Debug\GoBee-00_1.a(CyLib.o)
 .text.CyVdStickyStatus
                0x00000000       0x48 .\CortexM3\ARM_GCC_473\Debug\GoBee-00_1.a(CyLib.o)
 .text.CyVdRealTimeStatus
                0x00000000       0x30 .\CortexM3\ARM_GCC_473\Debug\GoBee-00_1.a(CyLib.o)
 .text.CyDisableInts
                0x00000000       0x3c .\CortexM3\ARM_GCC_473\Debug\GoBee-00_1.a(CyLib.o)
 .text.CyEnableInts
                0x00000000       0x2c .\CortexM3\ARM_GCC_473\Debug\GoBee-00_1.a(CyLib.o)
 .text.CyFlushCache
                0x00000000       0x7c .\CortexM3\ARM_GCC_473\Debug\GoBee-00_1.a(CyLib.o)
 .text.CyIntSetSysVector
                0x00000000       0x58 .\CortexM3\ARM_GCC_473\Debug\GoBee-00_1.a(CyLib.o)
 .text.CyIntGetSysVector
                0x00000000       0x40 .\CortexM3\ARM_GCC_473\Debug\GoBee-00_1.a(CyLib.o)
 .text.CyIntGetVector
                0x00000000       0x44 .\CortexM3\ARM_GCC_473\Debug\GoBee-00_1.a(CyLib.o)
 .text.CyIntGetPriority
                0x00000000       0x3c .\CortexM3\ARM_GCC_473\Debug\GoBee-00_1.a(CyLib.o)
 .text.CyIntGetState
                0x00000000       0x48 .\CortexM3\ARM_GCC_473\Debug\GoBee-00_1.a(CyLib.o)
 .text          0x00000000        0x0 .\CortexM3\ARM_GCC_473\Debug\GoBee-00_1.a(cyPm.o)
 .data          0x00000000        0x0 .\CortexM3\ARM_GCC_473\Debug\GoBee-00_1.a(cyPm.o)
 .bss           0x00000000       0x44 .\CortexM3\ARM_GCC_473\Debug\GoBee-00_1.a(cyPm.o)
 .rodata        0x00000000       0x10 .\CortexM3\ARM_GCC_473\Debug\GoBee-00_1.a(cyPm.o)
 .text.CyPmSaveClocks
                0x00000000      0x3ac .\CortexM3\ARM_GCC_473\Debug\GoBee-00_1.a(cyPm.o)
 .text.CyPmRestoreClocks
                0x00000000      0x424 .\CortexM3\ARM_GCC_473\Debug\GoBee-00_1.a(cyPm.o)
 .text.CyPmAltAct
                0x00000000      0x118 .\CortexM3\ARM_GCC_473\Debug\GoBee-00_1.a(cyPm.o)
 .text.CyPmSleep
                0x00000000      0x21c .\CortexM3\ARM_GCC_473\Debug\GoBee-00_1.a(cyPm.o)
 .text.CyPmHibernate
                0x00000000      0x1f0 .\CortexM3\ARM_GCC_473\Debug\GoBee-00_1.a(cyPm.o)
 .text.CyPmReadStatus
                0x00000000       0x78 .\CortexM3\ARM_GCC_473\Debug\GoBee-00_1.a(cyPm.o)
 .text.CyPmHibSaveSet
                0x00000000      0x138 .\CortexM3\ARM_GCC_473\Debug\GoBee-00_1.a(cyPm.o)
 .text.CyPmHibRestore
                0x00000000       0x94 .\CortexM3\ARM_GCC_473\Debug\GoBee-00_1.a(cyPm.o)
 .text.CyPmCtwSetInterval
                0x00000000       0xd8 .\CortexM3\ARM_GCC_473\Debug\GoBee-00_1.a(cyPm.o)
 .text.CyPmOppsSet
                0x00000000       0x58 .\CortexM3\ARM_GCC_473\Debug\GoBee-00_1.a(cyPm.o)
 .text.CyPmFtwSetInterval
                0x00000000       0xd8 .\CortexM3\ARM_GCC_473\Debug\GoBee-00_1.a(cyPm.o)
 .text.CyPmHibSlpSaveSet
                0x00000000      0x458 .\CortexM3\ARM_GCC_473\Debug\GoBee-00_1.a(cyPm.o)
 .text.CyPmHibSlpRestore
                0x00000000      0x270 .\CortexM3\ARM_GCC_473\Debug\GoBee-00_1.a(cyPm.o)
 .text.CyPmHviLviSaveDisable
                0x00000000      0x13c .\CortexM3\ARM_GCC_473\Debug\GoBee-00_1.a(cyPm.o)
 .text.CyPmHviLviRestore
                0x00000000       0x7c .\CortexM3\ARM_GCC_473\Debug\GoBee-00_1.a(cyPm.o)
 .text          0x00000000        0x0 .\CortexM3\ARM_GCC_473\Debug\GoBee-00_1.a(CySpc.o)
 .data          0x00000000        0x0 .\CortexM3\ARM_GCC_473\Debug\GoBee-00_1.a(CySpc.o)
 .text.CySpcStop
                0x00000000       0x58 .\CortexM3\ARM_GCC_473\Debug\GoBee-00_1.a(CySpc.o)
 .text.CySpcReadData
                0x00000000       0x64 .\CortexM3\ARM_GCC_473\Debug\GoBee-00_1.a(CySpc.o)
 .text.CySpcLoadMultiByte
                0x00000000      0x11c .\CortexM3\ARM_GCC_473\Debug\GoBee-00_1.a(CySpc.o)
 .text.CySpcEraseSector
                0x00000000       0x9c .\CortexM3\ARM_GCC_473\Debug\GoBee-00_1.a(CySpc.o)
 .text.CySpcGetTemp
                0x00000000       0x8c .\CortexM3\ARM_GCC_473\Debug\GoBee-00_1.a(CySpc.o)
 .text          0x00000000        0x0 .\CortexM3\ARM_GCC_473\Debug\GoBee-00_1.a(Control_Reg_BUZ.o)
 .data          0x00000000        0x0 .\CortexM3\ARM_GCC_473\Debug\GoBee-00_1.a(Control_Reg_BUZ.o)
 .bss           0x00000000        0x0 .\CortexM3\ARM_GCC_473\Debug\GoBee-00_1.a(Control_Reg_BUZ.o)
 .text.Control_Reg_BUZ_Read
                0x00000000       0x18 .\CortexM3\ARM_GCC_473\Debug\GoBee-00_1.a(Control_Reg_BUZ.o)
 .text          0x00000000        0x0 .\CortexM3\ARM_GCC_473\Debug\GoBee-00_1.a(Control_Reg_MOTOR.o)
 .data          0x00000000        0x0 .\CortexM3\ARM_GCC_473\Debug\GoBee-00_1.a(Control_Reg_MOTOR.o)
 .bss           0x00000000        0x0 .\CortexM3\ARM_GCC_473\Debug\GoBee-00_1.a(Control_Reg_MOTOR.o)
 .text.Control_Reg_MOTOR_Read
                0x00000000       0x18 .\CortexM3\ARM_GCC_473\Debug\GoBee-00_1.a(Control_Reg_MOTOR.o)
 .text          0x00000000        0x0 .\CortexM3\ARM_GCC_473\Debug\GoBee-00_1.a(Status_Reg_MOTOR.o)
 .data          0x00000000        0x0 .\CortexM3\ARM_GCC_473\Debug\GoBee-00_1.a(Status_Reg_MOTOR.o)
 .bss           0x00000000        0x0 .\CortexM3\ARM_GCC_473\Debug\GoBee-00_1.a(Status_Reg_MOTOR.o)
 .text.Status_Reg_MOTOR_InterruptEnable
                0x00000000       0x3c .\CortexM3\ARM_GCC_473\Debug\GoBee-00_1.a(Status_Reg_MOTOR.o)
 .text.Status_Reg_MOTOR_InterruptDisable
                0x00000000       0x3c .\CortexM3\ARM_GCC_473\Debug\GoBee-00_1.a(Status_Reg_MOTOR.o)
 .text.Status_Reg_MOTOR_WriteMask
                0x00000000       0x28 .\CortexM3\ARM_GCC_473\Debug\GoBee-00_1.a(Status_Reg_MOTOR.o)
 .text.Status_Reg_MOTOR_ReadMask
                0x00000000       0x18 .\CortexM3\ARM_GCC_473\Debug\GoBee-00_1.a(Status_Reg_MOTOR.o)
 .text          0x00000000        0x0 .\CortexM3\ARM_GCC_473\Debug\GoBee-00_1.a(QuadDec_PAN.o)
 .data          0x00000000        0x0 .\CortexM3\ARM_GCC_473\Debug\GoBee-00_1.a(QuadDec_PAN.o)
 .text.QuadDec_PAN_Stop
                0x00000000       0x4c .\CortexM3\ARM_GCC_473\Debug\GoBee-00_1.a(QuadDec_PAN.o)
 .text.QuadDec_PAN_SetCounter
                0x00000000       0x40 .\CortexM3\ARM_GCC_473\Debug\GoBee-00_1.a(QuadDec_PAN.o)
 .text.QuadDec_PAN_GetInterruptMask
                0x00000000       0x20 .\CortexM3\ARM_GCC_473\Debug\GoBee-00_1.a(QuadDec_PAN.o)
 .text          0x00000000        0x0 .\CortexM3\ARM_GCC_473\Debug\GoBee-00_1.a(QuadDec_PAN_INT.o)
 .data          0x00000000        0x0 .\CortexM3\ARM_GCC_473\Debug\GoBee-00_1.a(QuadDec_PAN_INT.o)
 .text          0x00000000        0x0 .\CortexM3\ARM_GCC_473\Debug\GoBee-00_1.a(QuadDec_PAN_Cnt16.o)
 .data          0x00000000        0x0 .\CortexM3\ARM_GCC_473\Debug\GoBee-00_1.a(QuadDec_PAN_Cnt16.o)
 .text.QuadDec_PAN_Cnt16_Stop
                0x00000000       0x28 .\CortexM3\ARM_GCC_473\Debug\GoBee-00_1.a(QuadDec_PAN_Cnt16.o)
 .text.QuadDec_PAN_Cnt16_ReadControlRegister
                0x00000000       0x18 .\CortexM3\ARM_GCC_473\Debug\GoBee-00_1.a(QuadDec_PAN_Cnt16.o)
 .text.QuadDec_PAN_Cnt16_WriteControlRegister
                0x00000000       0x20 .\CortexM3\ARM_GCC_473\Debug\GoBee-00_1.a(QuadDec_PAN_Cnt16.o)
 .text.QuadDec_PAN_Cnt16_ReadPeriod
                0x00000000       0x18 .\CortexM3\ARM_GCC_473\Debug\GoBee-00_1.a(QuadDec_PAN_Cnt16.o)
 .text.QuadDec_PAN_Cnt16_ReadCompare
                0x00000000       0x18 .\CortexM3\ARM_GCC_473\Debug\GoBee-00_1.a(QuadDec_PAN_Cnt16.o)
 .text          0x00000000        0x0 .\CortexM3\ARM_GCC_473\Debug\GoBee-00_1.a(ADC_IRQ.o)
 .data          0x00000000        0x0 .\CortexM3\ARM_GCC_473\Debug\GoBee-00_1.a(ADC_IRQ.o)
 .bss           0x00000000        0x0 .\CortexM3\ARM_GCC_473\Debug\GoBee-00_1.a(ADC_IRQ.o)
 .text.ADC_IRQ_Start
                0x00000000       0x24 .\CortexM3\ARM_GCC_473\Debug\GoBee-00_1.a(ADC_IRQ.o)
 .text.ADC_IRQ_StartEx
                0x00000000       0x28 .\CortexM3\ARM_GCC_473\Debug\GoBee-00_1.a(ADC_IRQ.o)
 .text.ADC_IRQ_Stop
                0x00000000       0x18 .\CortexM3\ARM_GCC_473\Debug\GoBee-00_1.a(ADC_IRQ.o)
 .text.ADC_IRQ_Interrupt
                0x00000000        0xc .\CortexM3\ARM_GCC_473\Debug\GoBee-00_1.a(ADC_IRQ.o)
 .text.ADC_IRQ_SetVector
                0x00000000       0x28 .\CortexM3\ARM_GCC_473\Debug\GoBee-00_1.a(ADC_IRQ.o)
 .text.ADC_IRQ_GetVector
                0x00000000       0x24 .\CortexM3\ARM_GCC_473\Debug\GoBee-00_1.a(ADC_IRQ.o)
 .text.ADC_IRQ_SetPriority
                0x00000000       0x28 .\CortexM3\ARM_GCC_473\Debug\GoBee-00_1.a(ADC_IRQ.o)
 .text.ADC_IRQ_GetPriority
                0x00000000       0x28 .\CortexM3\ARM_GCC_473\Debug\GoBee-00_1.a(ADC_IRQ.o)
 .text.ADC_IRQ_GetState
                0x00000000       0x28 .\CortexM3\ARM_GCC_473\Debug\GoBee-00_1.a(ADC_IRQ.o)
 .text.ADC_IRQ_Disable
                0x00000000       0x18 .\CortexM3\ARM_GCC_473\Debug\GoBee-00_1.a(ADC_IRQ.o)
 .text.ADC_IRQ_SetPending
                0x00000000       0x18 .\CortexM3\ARM_GCC_473\Debug\GoBee-00_1.a(ADC_IRQ.o)
 .text.ADC_IRQ_ClearPending
                0x00000000       0x18 .\CortexM3\ARM_GCC_473\Debug\GoBee-00_1.a(ADC_IRQ.o)
 .text          0x00000000        0x0 .\CortexM3\ARM_GCC_473\Debug\GoBee-00_1.a(Bootloadable.o)
 .data          0x00000000        0x0 .\CortexM3\ARM_GCC_473\Debug\GoBee-00_1.a(Bootloadable.o)
 .bss           0x00000000        0x0 .\CortexM3\ARM_GCC_473\Debug\GoBee-00_1.a(Bootloadable.o)
 .text.Bootloadable_SetFlashByte
                0x00000000       0xb4 .\CortexM3\ARM_GCC_473\Debug\GoBee-00_1.a(Bootloadable.o)
 .text          0x00000000        0x0 .\CortexM3\ARM_GCC_473\Debug\GoBee-00_1.a(isr_Ticks.o)
 .data          0x00000000        0x0 .\CortexM3\ARM_GCC_473\Debug\GoBee-00_1.a(isr_Ticks.o)
 .text.isr_Ticks_StartEx
                0x00000000       0x28 .\CortexM3\ARM_GCC_473\Debug\GoBee-00_1.a(isr_Ticks.o)
 .text.isr_Ticks_GetVector
                0x00000000       0x24 .\CortexM3\ARM_GCC_473\Debug\GoBee-00_1.a(isr_Ticks.o)
 .text.isr_Ticks_GetPriority
                0x00000000       0x28 .\CortexM3\ARM_GCC_473\Debug\GoBee-00_1.a(isr_Ticks.o)
 .text.isr_Ticks_GetState
                0x00000000       0x28 .\CortexM3\ARM_GCC_473\Debug\GoBee-00_1.a(isr_Ticks.o)
 .text.isr_Ticks_SetPending
                0x00000000       0x18 .\CortexM3\ARM_GCC_473\Debug\GoBee-00_1.a(isr_Ticks.o)
 .text.isr_Ticks_ClearPending
                0x00000000       0x18 .\CortexM3\ARM_GCC_473\Debug\GoBee-00_1.a(isr_Ticks.o)
 .text          0x00000000        0x0 .\CortexM3\ARM_GCC_473\Debug\GoBee-00_1.a(PWM_MOTOR_PAN.o)
 .data          0x00000000        0x0 .\CortexM3\ARM_GCC_473\Debug\GoBee-00_1.a(PWM_MOTOR_PAN.o)
 .text.PWM_MOTOR_PAN_Stop
                0x00000000       0x28 .\CortexM3\ARM_GCC_473\Debug\GoBee-00_1.a(PWM_MOTOR_PAN.o)
 .text.PWM_MOTOR_PAN_ReadCounter
                0x00000000       0x24 .\CortexM3\ARM_GCC_473\Debug\GoBee-00_1.a(PWM_MOTOR_PAN.o)
 .text.PWM_MOTOR_PAN_ReadDeadTime
                0x00000000       0x18 .\CortexM3\ARM_GCC_473\Debug\GoBee-00_1.a(PWM_MOTOR_PAN.o)
 .text.PWM_MOTOR_PAN_ReadControlRegister
                0x00000000       0x20 .\CortexM3\ARM_GCC_473\Debug\GoBee-00_1.a(PWM_MOTOR_PAN.o)
 .text.PWM_MOTOR_PAN_WriteControlRegister
                0x00000000       0x20 .\CortexM3\ARM_GCC_473\Debug\GoBee-00_1.a(PWM_MOTOR_PAN.o)
 .text.PWM_MOTOR_PAN_ReadCompare
                0x00000000       0x18 .\CortexM3\ARM_GCC_473\Debug\GoBee-00_1.a(PWM_MOTOR_PAN.o)
 .text.PWM_MOTOR_PAN_ReadPeriod
                0x00000000       0x18 .\CortexM3\ARM_GCC_473\Debug\GoBee-00_1.a(PWM_MOTOR_PAN.o)
 .text          0x00000000        0x0 .\CortexM3\ARM_GCC_473\Debug\GoBee-00_1.a(isr_BUTTON.o)
 .data          0x00000000        0x0 .\CortexM3\ARM_GCC_473\Debug\GoBee-00_1.a(isr_BUTTON.o)
 .bss           0x00000000        0x0 .\CortexM3\ARM_GCC_473\Debug\GoBee-00_1.a(isr_BUTTON.o)
 .text.isr_BUTTON_StartEx
                0x00000000       0x28 .\CortexM3\ARM_GCC_473\Debug\GoBee-00_1.a(isr_BUTTON.o)
 .text.isr_BUTTON_Stop
                0x00000000       0x18 .\CortexM3\ARM_GCC_473\Debug\GoBee-00_1.a(isr_BUTTON.o)
 .text.isr_BUTTON_GetVector
                0x00000000       0x24 .\CortexM3\ARM_GCC_473\Debug\GoBee-00_1.a(isr_BUTTON.o)
 .text.isr_BUTTON_GetPriority
                0x00000000       0x28 .\CortexM3\ARM_GCC_473\Debug\GoBee-00_1.a(isr_BUTTON.o)
 .text.isr_BUTTON_GetState
                0x00000000       0x28 .\CortexM3\ARM_GCC_473\Debug\GoBee-00_1.a(isr_BUTTON.o)
 .text.isr_BUTTON_SetPending
                0x00000000       0x18 .\CortexM3\ARM_GCC_473\Debug\GoBee-00_1.a(isr_BUTTON.o)
 .text.isr_BUTTON_ClearPending
                0x00000000       0x18 .\CortexM3\ARM_GCC_473\Debug\GoBee-00_1.a(isr_BUTTON.o)
 .text          0x00000000        0x0 .\CortexM3\ARM_GCC_473\Debug\GoBee-00_1.a(WaveDAC8.o)
 .data          0x00000000        0x0 .\CortexM3\ARM_GCC_473\Debug\GoBee-00_1.a(WaveDAC8.o)
 .text.WaveDAC8_StartEx
                0x00000000       0x30 .\CortexM3\ARM_GCC_473\Debug\GoBee-00_1.a(WaveDAC8.o)
 .text          0x00000000        0x0 .\CortexM3\ARM_GCC_473\Debug\GoBee-00_1.a(WaveDAC8_DacClk.o)
 .data          0x00000000        0x0 .\CortexM3\ARM_GCC_473\Debug\GoBee-00_1.a(WaveDAC8_DacClk.o)
 .bss           0x00000000        0x0 .\CortexM3\ARM_GCC_473\Debug\GoBee-00_1.a(WaveDAC8_DacClk.o)
 .text.WaveDAC8_DacClk_StopBlock
                0x00000000       0xf8 .\CortexM3\ARM_GCC_473\Debug\GoBee-00_1.a(WaveDAC8_DacClk.o)
 .text.WaveDAC8_DacClk_StandbyPower
                0x00000000       0x54 .\CortexM3\ARM_GCC_473\Debug\GoBee-00_1.a(WaveDAC8_DacClk.o)
 .text.WaveDAC8_DacClk_SetDividerRegister
                0x00000000      0x1e8 .\CortexM3\ARM_GCC_473\Debug\GoBee-00_1.a(WaveDAC8_DacClk.o)
 .text.WaveDAC8_DacClk_GetDividerRegister
                0x00000000       0x18 .\CortexM3\ARM_GCC_473\Debug\GoBee-00_1.a(WaveDAC8_DacClk.o)
 .text.WaveDAC8_DacClk_SetModeRegister
                0x00000000       0x3c .\CortexM3\ARM_GCC_473\Debug\GoBee-00_1.a(WaveDAC8_DacClk.o)
 .text.WaveDAC8_DacClk_ClearModeRegister
                0x00000000       0x3c .\CortexM3\ARM_GCC_473\Debug\GoBee-00_1.a(WaveDAC8_DacClk.o)
 .text.WaveDAC8_DacClk_GetModeRegister
                0x00000000       0x20 .\CortexM3\ARM_GCC_473\Debug\GoBee-00_1.a(WaveDAC8_DacClk.o)
 .text.WaveDAC8_DacClk_SetSourceRegister
                0x00000000       0xf4 .\CortexM3\ARM_GCC_473\Debug\GoBee-00_1.a(WaveDAC8_DacClk.o)
 .text.WaveDAC8_DacClk_GetSourceRegister
                0x00000000       0x20 .\CortexM3\ARM_GCC_473\Debug\GoBee-00_1.a(WaveDAC8_DacClk.o)
 .text          0x00000000        0x0 .\CortexM3\ARM_GCC_473\Debug\GoBee-00_1.a(WaveDAC8_Wave1_DMA_dma.o)
 .bss           0x00000000        0x0 .\CortexM3\ARM_GCC_473\Debug\GoBee-00_1.a(WaveDAC8_Wave1_DMA_dma.o)
 .text.WaveDAC8_Wave1_DMA_DmaRelease
                0x00000000       0x18 .\CortexM3\ARM_GCC_473\Debug\GoBee-00_1.a(WaveDAC8_Wave1_DMA_dma.o)
 .text          0x00000000        0x0 .\CortexM3\ARM_GCC_473\Debug\GoBee-00_1.a(WaveDAC8_Wave2_DMA_dma.o)
 .bss           0x00000000        0x0 .\CortexM3\ARM_GCC_473\Debug\GoBee-00_1.a(WaveDAC8_Wave2_DMA_dma.o)
 .text.WaveDAC8_Wave2_DMA_DmaRelease
                0x00000000       0x18 .\CortexM3\ARM_GCC_473\Debug\GoBee-00_1.a(WaveDAC8_Wave2_DMA_dma.o)
 .text          0x00000000        0x0 .\CortexM3\ARM_GCC_473\Debug\GoBee-00_1.a(WaveDAC8_VDAC8.o)
 .data          0x00000000        0x0 .\CortexM3\ARM_GCC_473\Debug\GoBee-00_1.a(WaveDAC8_VDAC8.o)
 .bss           0x00000000        0x1 .\CortexM3\ARM_GCC_473\Debug\GoBee-00_1.a(WaveDAC8_VDAC8.o)
 .text.WaveDAC8_VDAC8_Start
                0x00000000       0x34 .\CortexM3\ARM_GCC_473\Debug\GoBee-00_1.a(WaveDAC8_VDAC8.o)
 .text          0x00000000        0x0 .\CortexM3\ARM_GCC_473\Debug\GoBee-00_1.a(WaveDAC8_BuffAmp.o)
 .data          0x00000000        0x0 .\CortexM3\ARM_GCC_473\Debug\GoBee-00_1.a(WaveDAC8_BuffAmp.o)
 .bss           0x00000000        0x1 .\CortexM3\ARM_GCC_473\Debug\GoBee-00_1.a(WaveDAC8_BuffAmp.o)
 .text.WaveDAC8_BuffAmp_Start
                0x00000000       0x2c .\CortexM3\ARM_GCC_473\Debug\GoBee-00_1.a(WaveDAC8_BuffAmp.o)
 .text.WaveDAC8_BuffAmp_Stop
                0x00000000       0x70 .\CortexM3\ARM_GCC_473\Debug\GoBee-00_1.a(WaveDAC8_BuffAmp.o)
 .text          0x00000000        0x0 .\CortexM3\ARM_GCC_473\Debug\GoBee-00_1.a(VDAC8_ANAPOS.o)
 .data          0x00000000        0x0 .\CortexM3\ARM_GCC_473\Debug\GoBee-00_1.a(VDAC8_ANAPOS.o)
 .bss           0x00000000        0x1 .\CortexM3\ARM_GCC_473\Debug\GoBee-00_1.a(VDAC8_ANAPOS.o)
 .text.VDAC8_ANAPOS_Init
                0x00000000       0x34 .\CortexM3\ARM_GCC_473\Debug\GoBee-00_1.a(VDAC8_ANAPOS.o)
 .text.VDAC8_ANAPOS_Enable
                0x00000000       0x44 .\CortexM3\ARM_GCC_473\Debug\GoBee-00_1.a(VDAC8_ANAPOS.o)
 .text.VDAC8_ANAPOS_Start
                0x00000000       0x34 .\CortexM3\ARM_GCC_473\Debug\GoBee-00_1.a(VDAC8_ANAPOS.o)
 .text.VDAC8_ANAPOS_Stop
                0x00000000       0x44 .\CortexM3\ARM_GCC_473\Debug\GoBee-00_1.a(VDAC8_ANAPOS.o)
 .text.VDAC8_ANAPOS_SetSpeed
                0x00000000       0x54 .\CortexM3\ARM_GCC_473\Debug\GoBee-00_1.a(VDAC8_ANAPOS.o)
 .text.VDAC8_ANAPOS_SetRange
                0x00000000       0x54 .\CortexM3\ARM_GCC_473\Debug\GoBee-00_1.a(VDAC8_ANAPOS.o)
 .text.VDAC8_ANAPOS_DacTrim
                0x00000000       0x44 .\CortexM3\ARM_GCC_473\Debug\GoBee-00_1.a(VDAC8_ANAPOS.o)
 .text          0x00000000        0x0 .\CortexM3\ARM_GCC_473\Debug\GoBee-00_1.a(Control_Reg_WaveDAC8.o)
 .data          0x00000000        0x0 .\CortexM3\ARM_GCC_473\Debug\GoBee-00_1.a(Control_Reg_WaveDAC8.o)
 .bss           0x00000000        0x0 .\CortexM3\ARM_GCC_473\Debug\GoBee-00_1.a(Control_Reg_WaveDAC8.o)
 .text.Control_Reg_WaveDAC8_Read
                0x00000000       0x18 .\CortexM3\ARM_GCC_473\Debug\GoBee-00_1.a(Control_Reg_WaveDAC8.o)
 .data          0x00000000        0x0 c:/programmi/cypress/psoc creator/3.0/psoc creator/import/gnu_cs/arm/4.7.3/bin/../lib/gcc/arm-none-eabi/4.7.3/armv7-m\libgcc.a(_arm_addsubdf3.o)
 .bss           0x00000000        0x0 c:/programmi/cypress/psoc creator/3.0/psoc creator/import/gnu_cs/arm/4.7.3/bin/../lib/gcc/arm-none-eabi/4.7.3/armv7-m\libgcc.a(_arm_addsubdf3.o)
 .data          0x00000000        0x0 c:/programmi/cypress/psoc creator/3.0/psoc creator/import/gnu_cs/arm/4.7.3/bin/../lib/gcc/arm-none-eabi/4.7.3/armv7-m\libgcc.a(_arm_muldivdf3.o)
 .bss           0x00000000        0x0 c:/programmi/cypress/psoc creator/3.0/psoc creator/import/gnu_cs/arm/4.7.3/bin/../lib/gcc/arm-none-eabi/4.7.3/armv7-m\libgcc.a(_arm_muldivdf3.o)
 .data          0x00000000        0x0 c:/programmi/cypress/psoc creator/3.0/psoc creator/import/gnu_cs/arm/4.7.3/bin/../lib/gcc/arm-none-eabi/4.7.3/armv7-m\libgcc.a(_arm_cmpdf2.o)
 .bss           0x00000000        0x0 c:/programmi/cypress/psoc creator/3.0/psoc creator/import/gnu_cs/arm/4.7.3/bin/../lib/gcc/arm-none-eabi/4.7.3/armv7-m\libgcc.a(_arm_cmpdf2.o)
 .data          0x00000000        0x0 c:/programmi/cypress/psoc creator/3.0/psoc creator/import/gnu_cs/arm/4.7.3/bin/../lib/gcc/arm-none-eabi/4.7.3/armv7-m\libgcc.a(_arm_truncdfsf2.o)
 .bss           0x00000000        0x0 c:/programmi/cypress/psoc creator/3.0/psoc creator/import/gnu_cs/arm/4.7.3/bin/../lib/gcc/arm-none-eabi/4.7.3/armv7-m\libgcc.a(_arm_truncdfsf2.o)
 .data          0x00000000        0x0 c:/programmi/cypress/psoc creator/3.0/psoc creator/import/gnu_cs/arm/4.7.3/bin/../lib/gcc/arm-none-eabi/4.7.3/armv7-m\libgcc.a(_arm_addsubsf3.o)
 .bss           0x00000000        0x0 c:/programmi/cypress/psoc creator/3.0/psoc creator/import/gnu_cs/arm/4.7.3/bin/../lib/gcc/arm-none-eabi/4.7.3/armv7-m\libgcc.a(_arm_addsubsf3.o)
 .data          0x00000000        0x0 c:/programmi/cypress/psoc creator/3.0/psoc creator/import/gnu_cs/arm/4.7.3/bin/../lib/gcc/arm-none-eabi/4.7.3/armv7-m\libgcc.a(_arm_muldivsf3.o)
 .bss           0x00000000        0x0 c:/programmi/cypress/psoc creator/3.0/psoc creator/import/gnu_cs/arm/4.7.3/bin/../lib/gcc/arm-none-eabi/4.7.3/armv7-m\libgcc.a(_arm_muldivsf3.o)
 .data          0x00000000        0x0 c:/programmi/cypress/psoc creator/3.0/psoc creator/import/gnu_cs/arm/4.7.3/bin/../lib/gcc/arm-none-eabi/4.7.3/armv7-m\libgcc.a(_arm_cmpsf2.o)
 .bss           0x00000000        0x0 c:/programmi/cypress/psoc creator/3.0/psoc creator/import/gnu_cs/arm/4.7.3/bin/../lib/gcc/arm-none-eabi/4.7.3/armv7-m\libgcc.a(_arm_cmpsf2.o)
 .data          0x00000000        0x0 c:/programmi/cypress/psoc creator/3.0/psoc creator/import/gnu_cs/arm/4.7.3/bin/../lib/gcc/arm-none-eabi/4.7.3/armv7-m\libgcc.a(_arm_fixsfsi.o)
 .bss           0x00000000        0x0 c:/programmi/cypress/psoc creator/3.0/psoc creator/import/gnu_cs/arm/4.7.3/bin/../lib/gcc/arm-none-eabi/4.7.3/armv7-m\libgcc.a(_arm_fixsfsi.o)
 .data          0x00000000        0x0 c:/programmi/cypress/psoc creator/3.0/psoc creator/import/gnu_cs/arm/4.7.3/bin/../lib/gcc/arm-none-eabi/4.7.3/armv7-m\libgcc.a(_arm_fixunssfsi.o)
 .bss           0x00000000        0x0 c:/programmi/cypress/psoc creator/3.0/psoc creator/import/gnu_cs/arm/4.7.3/bin/../lib/gcc/arm-none-eabi/4.7.3/armv7-m\libgcc.a(_arm_fixunssfsi.o)
 .text          0x00000000        0x0 c:/programmi/cypress/psoc creator/3.0/psoc creator/import/gnu_cs/arm/4.7.3/bin/../lib/gcc/arm-none-eabi/4.7.3/../../../../arm-none-eabi/lib/armv7-m\libg.a(lib_a-__atexit.o)
 .data          0x00000000        0x0 c:/programmi/cypress/psoc creator/3.0/psoc creator/import/gnu_cs/arm/4.7.3/bin/../lib/gcc/arm-none-eabi/4.7.3/../../../../arm-none-eabi/lib/armv7-m\libg.a(lib_a-__atexit.o)
 .bss           0x00000000        0x0 c:/programmi/cypress/psoc creator/3.0/psoc creator/import/gnu_cs/arm/4.7.3/bin/../lib/gcc/arm-none-eabi/4.7.3/../../../../arm-none-eabi/lib/armv7-m\libg.a(lib_a-__atexit.o)
 .text          0x00000000        0x0 c:/programmi/cypress/psoc creator/3.0/psoc creator/import/gnu_cs/arm/4.7.3/bin/../lib/gcc/arm-none-eabi/4.7.3/../../../../arm-none-eabi/lib/armv7-m\libg.a(lib_a-atof.o)
 .data          0x00000000        0x0 c:/programmi/cypress/psoc creator/3.0/psoc creator/import/gnu_cs/arm/4.7.3/bin/../lib/gcc/arm-none-eabi/4.7.3/../../../../arm-none-eabi/lib/armv7-m\libg.a(lib_a-atof.o)
 .bss           0x00000000        0x0 c:/programmi/cypress/psoc creator/3.0/psoc creator/import/gnu_cs/arm/4.7.3/bin/../lib/gcc/arm-none-eabi/4.7.3/../../../../arm-none-eabi/lib/armv7-m\libg.a(lib_a-atof.o)
 .text          0x00000000        0x0 c:/programmi/cypress/psoc creator/3.0/psoc creator/import/gnu_cs/arm/4.7.3/bin/../lib/gcc/arm-none-eabi/4.7.3/../../../../arm-none-eabi/lib/armv7-m\libg.a(lib_a-atoi.o)
 .data          0x00000000        0x0 c:/programmi/cypress/psoc creator/3.0/psoc creator/import/gnu_cs/arm/4.7.3/bin/../lib/gcc/arm-none-eabi/4.7.3/../../../../arm-none-eabi/lib/armv7-m\libg.a(lib_a-atoi.o)
 .bss           0x00000000        0x0 c:/programmi/cypress/psoc creator/3.0/psoc creator/import/gnu_cs/arm/4.7.3/bin/../lib/gcc/arm-none-eabi/4.7.3/../../../../arm-none-eabi/lib/armv7-m\libg.a(lib_a-atoi.o)
 .text._atoi_r  0x00000000        0x8 c:/programmi/cypress/psoc creator/3.0/psoc creator/import/gnu_cs/arm/4.7.3/bin/../lib/gcc/arm-none-eabi/4.7.3/../../../../arm-none-eabi/lib/armv7-m\libg.a(lib_a-atoi.o)
 .text          0x00000000        0x0 c:/programmi/cypress/psoc creator/3.0/psoc creator/import/gnu_cs/arm/4.7.3/bin/../lib/gcc/arm-none-eabi/4.7.3/../../../../arm-none-eabi/lib/armv7-m\libg.a(lib_a-ctype_.o)
 .data          0x00000000        0x0 c:/programmi/cypress/psoc creator/3.0/psoc creator/import/gnu_cs/arm/4.7.3/bin/../lib/gcc/arm-none-eabi/4.7.3/../../../../arm-none-eabi/lib/armv7-m\libg.a(lib_a-ctype_.o)
 .bss           0x00000000        0x0 c:/programmi/cypress/psoc creator/3.0/psoc creator/import/gnu_cs/arm/4.7.3/bin/../lib/gcc/arm-none-eabi/4.7.3/../../../../arm-none-eabi/lib/armv7-m\libg.a(lib_a-ctype_.o)
 .text          0x00000000        0x0 c:/programmi/cypress/psoc creator/3.0/psoc creator/import/gnu_cs/arm/4.7.3/bin/../lib/gcc/arm-none-eabi/4.7.3/../../../../arm-none-eabi/lib/armv7-m\libg.a(lib_a-exit.o)
 .data          0x00000000        0x0 c:/programmi/cypress/psoc creator/3.0/psoc creator/import/gnu_cs/arm/4.7.3/bin/../lib/gcc/arm-none-eabi/4.7.3/../../../../arm-none-eabi/lib/armv7-m\libg.a(lib_a-exit.o)
 .bss           0x00000000        0x0 c:/programmi/cypress/psoc creator/3.0/psoc creator/import/gnu_cs/arm/4.7.3/bin/../lib/gcc/arm-none-eabi/4.7.3/../../../../arm-none-eabi/lib/armv7-m\libg.a(lib_a-exit.o)
 .text.exit     0x00000000       0x20 c:/programmi/cypress/psoc creator/3.0/psoc creator/import/gnu_cs/arm/4.7.3/bin/../lib/gcc/arm-none-eabi/4.7.3/../../../../arm-none-eabi/lib/armv7-m\libg.a(lib_a-exit.o)
 .text          0x00000000        0x0 c:/programmi/cypress/psoc creator/3.0/psoc creator/import/gnu_cs/arm/4.7.3/bin/../lib/gcc/arm-none-eabi/4.7.3/../../../../arm-none-eabi/lib/armv7-m\libg.a(lib_a-fini.o)
 .data          0x00000000        0x0 c:/programmi/cypress/psoc creator/3.0/psoc creator/import/gnu_cs/arm/4.7.3/bin/../lib/gcc/arm-none-eabi/4.7.3/../../../../arm-none-eabi/lib/armv7-m\libg.a(lib_a-fini.o)
 .bss           0x00000000        0x0 c:/programmi/cypress/psoc creator/3.0/psoc creator/import/gnu_cs/arm/4.7.3/bin/../lib/gcc/arm-none-eabi/4.7.3/../../../../arm-none-eabi/lib/armv7-m\libg.a(lib_a-fini.o)
 .text          0x00000000        0x0 c:/programmi/cypress/psoc creator/3.0/psoc creator/import/gnu_cs/arm/4.7.3/bin/../lib/gcc/arm-none-eabi/4.7.3/../../../../arm-none-eabi/lib/armv7-m\libg.a(lib_a-impure.o)
 .data          0x00000000        0x0 c:/programmi/cypress/psoc creator/3.0/psoc creator/import/gnu_cs/arm/4.7.3/bin/../lib/gcc/arm-none-eabi/4.7.3/../../../../arm-none-eabi/lib/armv7-m\libg.a(lib_a-impure.o)
 .bss           0x00000000        0x0 c:/programmi/cypress/psoc creator/3.0/psoc creator/import/gnu_cs/arm/4.7.3/bin/../lib/gcc/arm-none-eabi/4.7.3/../../../../arm-none-eabi/lib/armv7-m\libg.a(lib_a-impure.o)
 .text          0x00000000        0x0 c:/programmi/cypress/psoc creator/3.0/psoc creator/import/gnu_cs/arm/4.7.3/bin/../lib/gcc/arm-none-eabi/4.7.3/../../../../arm-none-eabi/lib/armv7-m\libg.a(lib_a-init.o)
 .data          0x00000000        0x0 c:/programmi/cypress/psoc creator/3.0/psoc creator/import/gnu_cs/arm/4.7.3/bin/../lib/gcc/arm-none-eabi/4.7.3/../../../../arm-none-eabi/lib/armv7-m\libg.a(lib_a-init.o)
 .bss           0x00000000        0x0 c:/programmi/cypress/psoc creator/3.0/psoc creator/import/gnu_cs/arm/4.7.3/bin/../lib/gcc/arm-none-eabi/4.7.3/../../../../arm-none-eabi/lib/armv7-m\libg.a(lib_a-init.o)
 .text          0x00000000        0x0 c:/programmi/cypress/psoc creator/3.0/psoc creator/import/gnu_cs/arm/4.7.3/bin/../lib/gcc/arm-none-eabi/4.7.3/../../../../arm-none-eabi/lib/armv7-m\libg.a(lib_a-memcpy.o)
 .data          0x00000000        0x0 c:/programmi/cypress/psoc creator/3.0/psoc creator/import/gnu_cs/arm/4.7.3/bin/../lib/gcc/arm-none-eabi/4.7.3/../../../../arm-none-eabi/lib/armv7-m\libg.a(lib_a-memcpy.o)
 .bss           0x00000000        0x0 c:/programmi/cypress/psoc creator/3.0/psoc creator/import/gnu_cs/arm/4.7.3/bin/../lib/gcc/arm-none-eabi/4.7.3/../../../../arm-none-eabi/lib/armv7-m\libg.a(lib_a-memcpy.o)
 .text          0x00000000        0x0 c:/programmi/cypress/psoc creator/3.0/psoc creator/import/gnu_cs/arm/4.7.3/bin/../lib/gcc/arm-none-eabi/4.7.3/../../../../arm-none-eabi/lib/armv7-m\libg.a(lib_a-memset.o)
 .data          0x00000000        0x0 c:/programmi/cypress/psoc creator/3.0/psoc creator/import/gnu_cs/arm/4.7.3/bin/../lib/gcc/arm-none-eabi/4.7.3/../../../../arm-none-eabi/lib/armv7-m\libg.a(lib_a-memset.o)
 .bss           0x00000000        0x0 c:/programmi/cypress/psoc creator/3.0/psoc creator/import/gnu_cs/arm/4.7.3/bin/../lib/gcc/arm-none-eabi/4.7.3/../../../../arm-none-eabi/lib/armv7-m\libg.a(lib_a-memset.o)
 .text          0x00000000        0x0 c:/programmi/cypress/psoc creator/3.0/psoc creator/import/gnu_cs/arm/4.7.3/bin/../lib/gcc/arm-none-eabi/4.7.3/../../../../arm-none-eabi/lib/armv7-m\libg.a(lib_a-printf.o)
 .data          0x00000000        0x0 c:/programmi/cypress/psoc creator/3.0/psoc creator/import/gnu_cs/arm/4.7.3/bin/../lib/gcc/arm-none-eabi/4.7.3/../../../../arm-none-eabi/lib/armv7-m\libg.a(lib_a-printf.o)
 .bss           0x00000000        0x0 c:/programmi/cypress/psoc creator/3.0/psoc creator/import/gnu_cs/arm/4.7.3/bin/../lib/gcc/arm-none-eabi/4.7.3/../../../../arm-none-eabi/lib/armv7-m\libg.a(lib_a-printf.o)
 .text._printf_r
                0x00000000       0x20 c:/programmi/cypress/psoc creator/3.0/psoc creator/import/gnu_cs/arm/4.7.3/bin/../lib/gcc/arm-none-eabi/4.7.3/../../../../arm-none-eabi/lib/armv7-m\libg.a(lib_a-printf.o)
 .text          0x00000000        0x0 c:/programmi/cypress/psoc creator/3.0/psoc creator/import/gnu_cs/arm/4.7.3/bin/../lib/gcc/arm-none-eabi/4.7.3/../../../../arm-none-eabi/lib/armv7-m\libg.a(lib_a-putchar.o)
 .data          0x00000000        0x0 c:/programmi/cypress/psoc creator/3.0/psoc creator/import/gnu_cs/arm/4.7.3/bin/../lib/gcc/arm-none-eabi/4.7.3/../../../../arm-none-eabi/lib/armv7-m\libg.a(lib_a-putchar.o)
 .bss           0x00000000        0x0 c:/programmi/cypress/psoc creator/3.0/psoc creator/import/gnu_cs/arm/4.7.3/bin/../lib/gcc/arm-none-eabi/4.7.3/../../../../arm-none-eabi/lib/armv7-m\libg.a(lib_a-putchar.o)
 .text._putchar_r
                0x00000000        0x8 c:/programmi/cypress/psoc creator/3.0/psoc creator/import/gnu_cs/arm/4.7.3/bin/../lib/gcc/arm-none-eabi/4.7.3/../../../../arm-none-eabi/lib/armv7-m\libg.a(lib_a-putchar.o)
 .text          0x00000000        0x0 c:/programmi/cypress/psoc creator/3.0/psoc creator/import/gnu_cs/arm/4.7.3/bin/../lib/gcc/arm-none-eabi/4.7.3/../../../../arm-none-eabi/lib/armv7-m\libg.a(lib_a-puts.o)
 .data          0x00000000        0x0 c:/programmi/cypress/psoc creator/3.0/psoc creator/import/gnu_cs/arm/4.7.3/bin/../lib/gcc/arm-none-eabi/4.7.3/../../../../arm-none-eabi/lib/armv7-m\libg.a(lib_a-puts.o)
 .bss           0x00000000        0x0 c:/programmi/cypress/psoc creator/3.0/psoc creator/import/gnu_cs/arm/4.7.3/bin/../lib/gcc/arm-none-eabi/4.7.3/../../../../arm-none-eabi/lib/armv7-m\libg.a(lib_a-puts.o)
 .text          0x00000000        0x0 c:/programmi/cypress/psoc creator/3.0/psoc creator/import/gnu_cs/arm/4.7.3/bin/../lib/gcc/arm-none-eabi/4.7.3/../../../../arm-none-eabi/lib/armv7-m\libg.a(lib_a-setvbuf.o)
 .data          0x00000000        0x0 c:/programmi/cypress/psoc creator/3.0/psoc creator/import/gnu_cs/arm/4.7.3/bin/../lib/gcc/arm-none-eabi/4.7.3/../../../../arm-none-eabi/lib/armv7-m\libg.a(lib_a-setvbuf.o)
 .bss           0x00000000        0x0 c:/programmi/cypress/psoc creator/3.0/psoc creator/import/gnu_cs/arm/4.7.3/bin/../lib/gcc/arm-none-eabi/4.7.3/../../../../arm-none-eabi/lib/armv7-m\libg.a(lib_a-setvbuf.o)
 .text          0x00000000        0x0 c:/programmi/cypress/psoc creator/3.0/psoc creator/import/gnu_cs/arm/4.7.3/bin/../lib/gcc/arm-none-eabi/4.7.3/../../../../arm-none-eabi/lib/armv7-m\libg.a(lib_a-strcmp.o)
 .data          0x00000000        0x0 c:/programmi/cypress/psoc creator/3.0/psoc creator/import/gnu_cs/arm/4.7.3/bin/../lib/gcc/arm-none-eabi/4.7.3/../../../../arm-none-eabi/lib/armv7-m\libg.a(lib_a-strcmp.o)
 .bss           0x00000000        0x0 c:/programmi/cypress/psoc creator/3.0/psoc creator/import/gnu_cs/arm/4.7.3/bin/../lib/gcc/arm-none-eabi/4.7.3/../../../../arm-none-eabi/lib/armv7-m\libg.a(lib_a-strcmp.o)
 .text          0x00000000        0x0 c:/programmi/cypress/psoc creator/3.0/psoc creator/import/gnu_cs/arm/4.7.3/bin/../lib/gcc/arm-none-eabi/4.7.3/../../../../arm-none-eabi/lib/armv7-m\libg.a(lib_a-strcpy.o)
 .data          0x00000000        0x0 c:/programmi/cypress/psoc creator/3.0/psoc creator/import/gnu_cs/arm/4.7.3/bin/../lib/gcc/arm-none-eabi/4.7.3/../../../../arm-none-eabi/lib/armv7-m\libg.a(lib_a-strcpy.o)
 .bss           0x00000000        0x0 c:/programmi/cypress/psoc creator/3.0/psoc creator/import/gnu_cs/arm/4.7.3/bin/../lib/gcc/arm-none-eabi/4.7.3/../../../../arm-none-eabi/lib/armv7-m\libg.a(lib_a-strcpy.o)
 .text          0x00000000        0x0 c:/programmi/cypress/psoc creator/3.0/psoc creator/import/gnu_cs/arm/4.7.3/bin/../lib/gcc/arm-none-eabi/4.7.3/../../../../arm-none-eabi/lib/armv7-m\libg.a(lib_a-strlen.o)
 .data          0x00000000        0x0 c:/programmi/cypress/psoc creator/3.0/psoc creator/import/gnu_cs/arm/4.7.3/bin/../lib/gcc/arm-none-eabi/4.7.3/../../../../arm-none-eabi/lib/armv7-m\libg.a(lib_a-strlen.o)
 .bss           0x00000000        0x0 c:/programmi/cypress/psoc creator/3.0/psoc creator/import/gnu_cs/arm/4.7.3/bin/../lib/gcc/arm-none-eabi/4.7.3/../../../../arm-none-eabi/lib/armv7-m\libg.a(lib_a-strlen.o)
 .text          0x00000000        0x0 c:/programmi/cypress/psoc creator/3.0/psoc creator/import/gnu_cs/arm/4.7.3/bin/../lib/gcc/arm-none-eabi/4.7.3/../../../../arm-none-eabi/lib/armv7-m\libg.a(lib_a-strtod.o)
 .data          0x00000000        0x0 c:/programmi/cypress/psoc creator/3.0/psoc creator/import/gnu_cs/arm/4.7.3/bin/../lib/gcc/arm-none-eabi/4.7.3/../../../../arm-none-eabi/lib/armv7-m\libg.a(lib_a-strtod.o)
 .bss           0x00000000        0x0 c:/programmi/cypress/psoc creator/3.0/psoc creator/import/gnu_cs/arm/4.7.3/bin/../lib/gcc/arm-none-eabi/4.7.3/../../../../arm-none-eabi/lib/armv7-m\libg.a(lib_a-strtod.o)
 .text.strtof   0x00000000       0x30 c:/programmi/cypress/psoc creator/3.0/psoc creator/import/gnu_cs/arm/4.7.3/bin/../lib/gcc/arm-none-eabi/4.7.3/../../../../arm-none-eabi/lib/armv7-m\libg.a(lib_a-strtod.o)
 .text          0x00000000        0x0 c:/programmi/cypress/psoc creator/3.0/psoc creator/import/gnu_cs/arm/4.7.3/bin/../lib/gcc/arm-none-eabi/4.7.3/../../../../arm-none-eabi/lib/armv7-m\libg.a(lib_a-strtok.o)
 .data          0x00000000        0x0 c:/programmi/cypress/psoc creator/3.0/psoc creator/import/gnu_cs/arm/4.7.3/bin/../lib/gcc/arm-none-eabi/4.7.3/../../../../arm-none-eabi/lib/armv7-m\libg.a(lib_a-strtok.o)
 .bss           0x00000000        0x0 c:/programmi/cypress/psoc creator/3.0/psoc creator/import/gnu_cs/arm/4.7.3/bin/../lib/gcc/arm-none-eabi/4.7.3/../../../../arm-none-eabi/lib/armv7-m\libg.a(lib_a-strtok.o)
 .text          0x00000000        0x0 c:/programmi/cypress/psoc creator/3.0/psoc creator/import/gnu_cs/arm/4.7.3/bin/../lib/gcc/arm-none-eabi/4.7.3/../../../../arm-none-eabi/lib/armv7-m\libg.a(lib_a-strtok_r.o)
 .data          0x00000000        0x0 c:/programmi/cypress/psoc creator/3.0/psoc creator/import/gnu_cs/arm/4.7.3/bin/../lib/gcc/arm-none-eabi/4.7.3/../../../../arm-none-eabi/lib/armv7-m\libg.a(lib_a-strtok_r.o)
 .bss           0x00000000        0x0 c:/programmi/cypress/psoc creator/3.0/psoc creator/import/gnu_cs/arm/4.7.3/bin/../lib/gcc/arm-none-eabi/4.7.3/../../../../arm-none-eabi/lib/armv7-m\libg.a(lib_a-strtok_r.o)
 .text.strtok_r
                0x00000000        0x8 c:/programmi/cypress/psoc creator/3.0/psoc creator/import/gnu_cs/arm/4.7.3/bin/../lib/gcc/arm-none-eabi/4.7.3/../../../../arm-none-eabi/lib/armv7-m\libg.a(lib_a-strtok_r.o)
 .text          0x00000000        0x0 c:/programmi/cypress/psoc creator/3.0/psoc creator/import/gnu_cs/arm/4.7.3/bin/../lib/gcc/arm-none-eabi/4.7.3/../../../../arm-none-eabi/lib/armv7-m\libg.a(lib_a-strtol.o)
 .data          0x00000000        0x0 c:/programmi/cypress/psoc creator/3.0/psoc creator/import/gnu_cs/arm/4.7.3/bin/../lib/gcc/arm-none-eabi/4.7.3/../../../../arm-none-eabi/lib/armv7-m\libg.a(lib_a-strtol.o)
 .bss           0x00000000        0x0 c:/programmi/cypress/psoc creator/3.0/psoc creator/import/gnu_cs/arm/4.7.3/bin/../lib/gcc/arm-none-eabi/4.7.3/../../../../arm-none-eabi/lib/armv7-m\libg.a(lib_a-strtol.o)
 .text          0x00000000        0x0 c:/programmi/cypress/psoc creator/3.0/psoc creator/import/gnu_cs/arm/4.7.3/bin/../lib/gcc/arm-none-eabi/4.7.3/../../../../arm-none-eabi/lib/armv7-m\libg.a(lib_a-vfprintf.o)
 .data          0x00000000        0x0 c:/programmi/cypress/psoc creator/3.0/psoc creator/import/gnu_cs/arm/4.7.3/bin/../lib/gcc/arm-none-eabi/4.7.3/../../../../arm-none-eabi/lib/armv7-m\libg.a(lib_a-vfprintf.o)
 .bss           0x00000000        0x0 c:/programmi/cypress/psoc creator/3.0/psoc creator/import/gnu_cs/arm/4.7.3/bin/../lib/gcc/arm-none-eabi/4.7.3/../../../../arm-none-eabi/lib/armv7-m\libg.a(lib_a-vfprintf.o)
 .text.vfprintf
                0x00000000       0x1c c:/programmi/cypress/psoc creator/3.0/psoc creator/import/gnu_cs/arm/4.7.3/bin/../lib/gcc/arm-none-eabi/4.7.3/../../../../arm-none-eabi/lib/armv7-m\libg.a(lib_a-vfprintf.o)
 .text          0x00000000        0x0 c:/programmi/cypress/psoc creator/3.0/psoc creator/import/gnu_cs/arm/4.7.3/bin/../lib/gcc/arm-none-eabi/4.7.3/../../../../arm-none-eabi/lib/armv7-m\libg.a(lib_a-wsetup.o)
 .data          0x00000000        0x0 c:/programmi/cypress/psoc creator/3.0/psoc creator/import/gnu_cs/arm/4.7.3/bin/../lib/gcc/arm-none-eabi/4.7.3/../../../../arm-none-eabi/lib/armv7-m\libg.a(lib_a-wsetup.o)
 .bss           0x00000000        0x0 c:/programmi/cypress/psoc creator/3.0/psoc creator/import/gnu_cs/arm/4.7.3/bin/../lib/gcc/arm-none-eabi/4.7.3/../../../../arm-none-eabi/lib/armv7-m\libg.a(lib_a-wsetup.o)
 .text          0x00000000        0x0 c:/programmi/cypress/psoc creator/3.0/psoc creator/import/gnu_cs/arm/4.7.3/bin/../lib/gcc/arm-none-eabi/4.7.3/../../../../arm-none-eabi/lib/armv7-m\libg.a(lib_a-__call_atexit.o)
 .data          0x00000000        0x0 c:/programmi/cypress/psoc creator/3.0/psoc creator/import/gnu_cs/arm/4.7.3/bin/../lib/gcc/arm-none-eabi/4.7.3/../../../../arm-none-eabi/lib/armv7-m\libg.a(lib_a-__call_atexit.o)
 .bss           0x00000000        0x0 c:/programmi/cypress/psoc creator/3.0/psoc creator/import/gnu_cs/arm/4.7.3/bin/../lib/gcc/arm-none-eabi/4.7.3/../../../../arm-none-eabi/lib/armv7-m\libg.a(lib_a-__call_atexit.o)
 .text.__call_exitprocs
                0x00000000      0x288 c:/programmi/cypress/psoc creator/3.0/psoc creator/import/gnu_cs/arm/4.7.3/bin/../lib/gcc/arm-none-eabi/4.7.3/../../../../arm-none-eabi/lib/armv7-m\libg.a(lib_a-__call_atexit.o)
 .text          0x00000000        0x0 c:/programmi/cypress/psoc creator/3.0/psoc creator/import/gnu_cs/arm/4.7.3/bin/../lib/gcc/arm-none-eabi/4.7.3/../../../../arm-none-eabi/lib/armv7-m\libg.a(lib_a-atexit.o)
 .data          0x00000000        0x0 c:/programmi/cypress/psoc creator/3.0/psoc creator/import/gnu_cs/arm/4.7.3/bin/../lib/gcc/arm-none-eabi/4.7.3/../../../../arm-none-eabi/lib/armv7-m\libg.a(lib_a-atexit.o)
 .bss           0x00000000        0x0 c:/programmi/cypress/psoc creator/3.0/psoc creator/import/gnu_cs/arm/4.7.3/bin/../lib/gcc/arm-none-eabi/4.7.3/../../../../arm-none-eabi/lib/armv7-m\libg.a(lib_a-atexit.o)
 .text          0x00000000        0x0 c:/programmi/cypress/psoc creator/3.0/psoc creator/import/gnu_cs/arm/4.7.3/bin/../lib/gcc/arm-none-eabi/4.7.3/../../../../arm-none-eabi/lib/armv7-m\libg.a(lib_a-dtoa.o)
 .data          0x00000000        0x0 c:/programmi/cypress/psoc creator/3.0/psoc creator/import/gnu_cs/arm/4.7.3/bin/../lib/gcc/arm-none-eabi/4.7.3/../../../../arm-none-eabi/lib/armv7-m\libg.a(lib_a-dtoa.o)
 .bss           0x00000000        0x0 c:/programmi/cypress/psoc creator/3.0/psoc creator/import/gnu_cs/arm/4.7.3/bin/../lib/gcc/arm-none-eabi/4.7.3/../../../../arm-none-eabi/lib/armv7-m\libg.a(lib_a-dtoa.o)
 .text          0x00000000        0x0 c:/programmi/cypress/psoc creator/3.0/psoc creator/import/gnu_cs/arm/4.7.3/bin/../lib/gcc/arm-none-eabi/4.7.3/../../../../arm-none-eabi/lib/armv7-m\libg.a(lib_a-fflush.o)
 .data          0x00000000        0x0 c:/programmi/cypress/psoc creator/3.0/psoc creator/import/gnu_cs/arm/4.7.3/bin/../lib/gcc/arm-none-eabi/4.7.3/../../../../arm-none-eabi/lib/armv7-m\libg.a(lib_a-fflush.o)
 .bss           0x00000000        0x0 c:/programmi/cypress/psoc creator/3.0/psoc creator/import/gnu_cs/arm/4.7.3/bin/../lib/gcc/arm-none-eabi/4.7.3/../../../../arm-none-eabi/lib/armv7-m\libg.a(lib_a-fflush.o)
 .text.fflush   0x00000000       0x24 c:/programmi/cypress/psoc creator/3.0/psoc creator/import/gnu_cs/arm/4.7.3/bin/../lib/gcc/arm-none-eabi/4.7.3/../../../../arm-none-eabi/lib/armv7-m\libg.a(lib_a-fflush.o)
 .text          0x00000000        0x0 c:/programmi/cypress/psoc creator/3.0/psoc creator/import/gnu_cs/arm/4.7.3/bin/../lib/gcc/arm-none-eabi/4.7.3/../../../../arm-none-eabi/lib/armv7-m\libg.a(lib_a-findfp.o)
 .data          0x00000000        0x0 c:/programmi/cypress/psoc creator/3.0/psoc creator/import/gnu_cs/arm/4.7.3/bin/../lib/gcc/arm-none-eabi/4.7.3/../../../../arm-none-eabi/lib/armv7-m\libg.a(lib_a-findfp.o)
 .bss           0x00000000        0x0 c:/programmi/cypress/psoc creator/3.0/psoc creator/import/gnu_cs/arm/4.7.3/bin/../lib/gcc/arm-none-eabi/4.7.3/../../../../arm-none-eabi/lib/armv7-m\libg.a(lib_a-findfp.o)
 .text.__fp_lock
                0x00000000        0x4 c:/programmi/cypress/psoc creator/3.0/psoc creator/import/gnu_cs/arm/4.7.3/bin/../lib/gcc/arm-none-eabi/4.7.3/../../../../arm-none-eabi/lib/armv7-m\libg.a(lib_a-findfp.o)
 .text.__fp_unlock
                0x00000000        0x4 c:/programmi/cypress/psoc creator/3.0/psoc creator/import/gnu_cs/arm/4.7.3/bin/../lib/gcc/arm-none-eabi/4.7.3/../../../../arm-none-eabi/lib/armv7-m\libg.a(lib_a-findfp.o)
 .text.__sfmoreglue
                0x00000000       0x2c c:/programmi/cypress/psoc creator/3.0/psoc creator/import/gnu_cs/arm/4.7.3/bin/../lib/gcc/arm-none-eabi/4.7.3/../../../../arm-none-eabi/lib/armv7-m\libg.a(lib_a-findfp.o)
 .text._cleanup
                0x00000000       0x10 c:/programmi/cypress/psoc creator/3.0/psoc creator/import/gnu_cs/arm/4.7.3/bin/../lib/gcc/arm-none-eabi/4.7.3/../../../../arm-none-eabi/lib/armv7-m\libg.a(lib_a-findfp.o)
 .text.__sfp    0x00000000       0xa4 c:/programmi/cypress/psoc creator/3.0/psoc creator/import/gnu_cs/arm/4.7.3/bin/../lib/gcc/arm-none-eabi/4.7.3/../../../../arm-none-eabi/lib/armv7-m\libg.a(lib_a-findfp.o)
 .text.__sinit_lock_acquire
                0x00000000        0x4 c:/programmi/cypress/psoc creator/3.0/psoc creator/import/gnu_cs/arm/4.7.3/bin/../lib/gcc/arm-none-eabi/4.7.3/../../../../arm-none-eabi/lib/armv7-m\libg.a(lib_a-findfp.o)
 .text.__sinit_lock_release
                0x00000000        0x4 c:/programmi/cypress/psoc creator/3.0/psoc creator/import/gnu_cs/arm/4.7.3/bin/../lib/gcc/arm-none-eabi/4.7.3/../../../../arm-none-eabi/lib/armv7-m\libg.a(lib_a-findfp.o)
 .text.__fp_lock_all
                0x00000000       0x18 c:/programmi/cypress/psoc creator/3.0/psoc creator/import/gnu_cs/arm/4.7.3/bin/../lib/gcc/arm-none-eabi/4.7.3/../../../../arm-none-eabi/lib/armv7-m\libg.a(lib_a-findfp.o)
 .text.__fp_unlock_all
                0x00000000       0x18 c:/programmi/cypress/psoc creator/3.0/psoc creator/import/gnu_cs/arm/4.7.3/bin/../lib/gcc/arm-none-eabi/4.7.3/../../../../arm-none-eabi/lib/armv7-m\libg.a(lib_a-findfp.o)
 .text          0x00000000        0x0 c:/programmi/cypress/psoc creator/3.0/psoc creator/import/gnu_cs/arm/4.7.3/bin/../lib/gcc/arm-none-eabi/4.7.3/../../../../arm-none-eabi/lib/armv7-m\libg.a(lib_a-freer.o)
 .data          0x00000000        0x0 c:/programmi/cypress/psoc creator/3.0/psoc creator/import/gnu_cs/arm/4.7.3/bin/../lib/gcc/arm-none-eabi/4.7.3/../../../../arm-none-eabi/lib/armv7-m\libg.a(lib_a-freer.o)
 .bss           0x00000000        0x0 c:/programmi/cypress/psoc creator/3.0/psoc creator/import/gnu_cs/arm/4.7.3/bin/../lib/gcc/arm-none-eabi/4.7.3/../../../../arm-none-eabi/lib/armv7-m\libg.a(lib_a-freer.o)
 .text          0x00000000        0x0 c:/programmi/cypress/psoc creator/3.0/psoc creator/import/gnu_cs/arm/4.7.3/bin/../lib/gcc/arm-none-eabi/4.7.3/../../../../arm-none-eabi/lib/armv7-m\libg.a(lib_a-fvwrite.o)
 .data          0x00000000        0x0 c:/programmi/cypress/psoc creator/3.0/psoc creator/import/gnu_cs/arm/4.7.3/bin/../lib/gcc/arm-none-eabi/4.7.3/../../../../arm-none-eabi/lib/armv7-m\libg.a(lib_a-fvwrite.o)
 .bss           0x00000000        0x0 c:/programmi/cypress/psoc creator/3.0/psoc creator/import/gnu_cs/arm/4.7.3/bin/../lib/gcc/arm-none-eabi/4.7.3/../../../../arm-none-eabi/lib/armv7-m\libg.a(lib_a-fvwrite.o)
 .text          0x00000000        0x0 c:/programmi/cypress/psoc creator/3.0/psoc creator/import/gnu_cs/arm/4.7.3/bin/../lib/gcc/arm-none-eabi/4.7.3/../../../../arm-none-eabi/lib/armv7-m\libg.a(lib_a-fwalk.o)
 .data          0x00000000        0x0 c:/programmi/cypress/psoc creator/3.0/psoc creator/import/gnu_cs/arm/4.7.3/bin/../lib/gcc/arm-none-eabi/4.7.3/../../../../arm-none-eabi/lib/armv7-m\libg.a(lib_a-fwalk.o)
 .bss           0x00000000        0x0 c:/programmi/cypress/psoc creator/3.0/psoc creator/import/gnu_cs/arm/4.7.3/bin/../lib/gcc/arm-none-eabi/4.7.3/../../../../arm-none-eabi/lib/armv7-m\libg.a(lib_a-fwalk.o)
 .text._fwalk_reent
                0x00000000       0xc0 c:/programmi/cypress/psoc creator/3.0/psoc creator/import/gnu_cs/arm/4.7.3/bin/../lib/gcc/arm-none-eabi/4.7.3/../../../../arm-none-eabi/lib/armv7-m\libg.a(lib_a-fwalk.o)
 .text          0x00000000        0x0 c:/programmi/cypress/psoc creator/3.0/psoc creator/import/gnu_cs/arm/4.7.3/bin/../lib/gcc/arm-none-eabi/4.7.3/../../../../arm-none-eabi/lib/armv7-m\libg.a(lib_a-gdtoa-gethex.o)
 .data          0x00000000        0x0 c:/programmi/cypress/psoc creator/3.0/psoc creator/import/gnu_cs/arm/4.7.3/bin/../lib/gcc/arm-none-eabi/4.7.3/../../../../arm-none-eabi/lib/armv7-m\libg.a(lib_a-gdtoa-gethex.o)
 .bss           0x00000000        0x0 c:/programmi/cypress/psoc creator/3.0/psoc creator/import/gnu_cs/arm/4.7.3/bin/../lib/gcc/arm-none-eabi/4.7.3/../../../../arm-none-eabi/lib/armv7-m\libg.a(lib_a-gdtoa-gethex.o)
 .text          0x00000000        0x0 c:/programmi/cypress/psoc creator/3.0/psoc creator/import/gnu_cs/arm/4.7.3/bin/../lib/gcc/arm-none-eabi/4.7.3/../../../../arm-none-eabi/lib/armv7-m\libg.a(lib_a-gdtoa-hexnan.o)
 .data          0x00000000        0x0 c:/programmi/cypress/psoc creator/3.0/psoc creator/import/gnu_cs/arm/4.7.3/bin/../lib/gcc/arm-none-eabi/4.7.3/../../../../arm-none-eabi/lib/armv7-m\libg.a(lib_a-gdtoa-hexnan.o)
 .bss           0x00000000        0x0 c:/programmi/cypress/psoc creator/3.0/psoc creator/import/gnu_cs/arm/4.7.3/bin/../lib/gcc/arm-none-eabi/4.7.3/../../../../arm-none-eabi/lib/armv7-m\libg.a(lib_a-gdtoa-hexnan.o)
 .text          0x00000000        0x0 c:/programmi/cypress/psoc creator/3.0/psoc creator/import/gnu_cs/arm/4.7.3/bin/../lib/gcc/arm-none-eabi/4.7.3/../../../../arm-none-eabi/lib/armv7-m\libg.a(lib_a-locale.o)
 .data          0x00000000        0x0 c:/programmi/cypress/psoc creator/3.0/psoc creator/import/gnu_cs/arm/4.7.3/bin/../lib/gcc/arm-none-eabi/4.7.3/../../../../arm-none-eabi/lib/armv7-m\libg.a(lib_a-locale.o)
 .bss           0x00000000        0x0 c:/programmi/cypress/psoc creator/3.0/psoc creator/import/gnu_cs/arm/4.7.3/bin/../lib/gcc/arm-none-eabi/4.7.3/../../../../arm-none-eabi/lib/armv7-m\libg.a(lib_a-locale.o)
 .text._setlocale_r
                0x00000000       0x40 c:/programmi/cypress/psoc creator/3.0/psoc creator/import/gnu_cs/arm/4.7.3/bin/../lib/gcc/arm-none-eabi/4.7.3/../../../../arm-none-eabi/lib/armv7-m\libg.a(lib_a-locale.o)
 .text.__locale_msgcharset
                0x00000000        0xc c:/programmi/cypress/psoc creator/3.0/psoc creator/import/gnu_cs/arm/4.7.3/bin/../lib/gcc/arm-none-eabi/4.7.3/../../../../arm-none-eabi/lib/armv7-m\libg.a(lib_a-locale.o)
 .text.__locale_cjk_lang
                0x00000000        0x4 c:/programmi/cypress/psoc creator/3.0/psoc creator/import/gnu_cs/arm/4.7.3/bin/../lib/gcc/arm-none-eabi/4.7.3/../../../../arm-none-eabi/lib/armv7-m\libg.a(lib_a-locale.o)
 .text.setlocale
                0x00000000       0x18 c:/programmi/cypress/psoc creator/3.0/psoc creator/import/gnu_cs/arm/4.7.3/bin/../lib/gcc/arm-none-eabi/4.7.3/../../../../arm-none-eabi/lib/armv7-m\libg.a(lib_a-locale.o)
 .text.localeconv
                0x00000000        0xc c:/programmi/cypress/psoc creator/3.0/psoc creator/import/gnu_cs/arm/4.7.3/bin/../lib/gcc/arm-none-eabi/4.7.3/../../../../arm-none-eabi/lib/armv7-m\libg.a(lib_a-locale.o)
 .data.lc_message_charset
                0x00000000       0x20 c:/programmi/cypress/psoc creator/3.0/psoc creator/import/gnu_cs/arm/4.7.3/bin/../lib/gcc/arm-none-eabi/4.7.3/../../../../arm-none-eabi/lib/armv7-m\libg.a(lib_a-locale.o)
 .bss._PathLocale
                0x00000000        0x4 c:/programmi/cypress/psoc creator/3.0/psoc creator/import/gnu_cs/arm/4.7.3/bin/../lib/gcc/arm-none-eabi/4.7.3/../../../../arm-none-eabi/lib/armv7-m\libg.a(lib_a-locale.o)
 .bss.__nlocale_changed
                0x00000000        0x4 c:/programmi/cypress/psoc creator/3.0/psoc creator/import/gnu_cs/arm/4.7.3/bin/../lib/gcc/arm-none-eabi/4.7.3/../../../../arm-none-eabi/lib/armv7-m\libg.a(lib_a-locale.o)
 .bss.__mlocale_changed
                0x00000000        0x4 c:/programmi/cypress/psoc creator/3.0/psoc creator/import/gnu_cs/arm/4.7.3/bin/../lib/gcc/arm-none-eabi/4.7.3/../../../../arm-none-eabi/lib/armv7-m\libg.a(lib_a-locale.o)
 .text          0x00000000        0x0 c:/programmi/cypress/psoc creator/3.0/psoc creator/import/gnu_cs/arm/4.7.3/bin/../lib/gcc/arm-none-eabi/4.7.3/../../../../arm-none-eabi/lib/armv7-m\libg.a(lib_a-makebuf.o)
 .data          0x00000000        0x0 c:/programmi/cypress/psoc creator/3.0/psoc creator/import/gnu_cs/arm/4.7.3/bin/../lib/gcc/arm-none-eabi/4.7.3/../../../../arm-none-eabi/lib/armv7-m\libg.a(lib_a-makebuf.o)
 .bss           0x00000000        0x0 c:/programmi/cypress/psoc creator/3.0/psoc creator/import/gnu_cs/arm/4.7.3/bin/../lib/gcc/arm-none-eabi/4.7.3/../../../../arm-none-eabi/lib/armv7-m\libg.a(lib_a-makebuf.o)
 .text          0x00000000        0x0 c:/programmi/cypress/psoc creator/3.0/psoc creator/import/gnu_cs/arm/4.7.3/bin/../lib/gcc/arm-none-eabi/4.7.3/../../../../arm-none-eabi/lib/armv7-m\libg.a(lib_a-malloc.o)
 .data          0x00000000        0x0 c:/programmi/cypress/psoc creator/3.0/psoc creator/import/gnu_cs/arm/4.7.3/bin/../lib/gcc/arm-none-eabi/4.7.3/../../../../arm-none-eabi/lib/armv7-m\libg.a(lib_a-malloc.o)
 .bss           0x00000000        0x0 c:/programmi/cypress/psoc creator/3.0/psoc creator/import/gnu_cs/arm/4.7.3/bin/../lib/gcc/arm-none-eabi/4.7.3/../../../../arm-none-eabi/lib/armv7-m\libg.a(lib_a-malloc.o)
 .text.free     0x00000000       0x10 c:/programmi/cypress/psoc creator/3.0/psoc creator/import/gnu_cs/arm/4.7.3/bin/../lib/gcc/arm-none-eabi/4.7.3/../../../../arm-none-eabi/lib/armv7-m\libg.a(lib_a-malloc.o)
 .text          0x00000000        0x0 c:/programmi/cypress/psoc creator/3.0/psoc creator/import/gnu_cs/arm/4.7.3/bin/../lib/gcc/arm-none-eabi/4.7.3/../../../../arm-none-eabi/lib/armv7-m\libg.a(lib_a-mallocr.o)
 .data          0x00000000        0x0 c:/programmi/cypress/psoc creator/3.0/psoc creator/import/gnu_cs/arm/4.7.3/bin/../lib/gcc/arm-none-eabi/4.7.3/../../../../arm-none-eabi/lib/armv7-m\libg.a(lib_a-mallocr.o)
 .bss           0x00000000        0x0 c:/programmi/cypress/psoc creator/3.0/psoc creator/import/gnu_cs/arm/4.7.3/bin/../lib/gcc/arm-none-eabi/4.7.3/../../../../arm-none-eabi/lib/armv7-m\libg.a(lib_a-mallocr.o)
 .text          0x00000000        0x0 c:/programmi/cypress/psoc creator/3.0/psoc creator/import/gnu_cs/arm/4.7.3/bin/../lib/gcc/arm-none-eabi/4.7.3/../../../../arm-none-eabi/lib/armv7-m\libg.a(lib_a-memchr.o)
 .data          0x00000000        0x0 c:/programmi/cypress/psoc creator/3.0/psoc creator/import/gnu_cs/arm/4.7.3/bin/../lib/gcc/arm-none-eabi/4.7.3/../../../../arm-none-eabi/lib/armv7-m\libg.a(lib_a-memchr.o)
 .bss           0x00000000        0x0 c:/programmi/cypress/psoc creator/3.0/psoc creator/import/gnu_cs/arm/4.7.3/bin/../lib/gcc/arm-none-eabi/4.7.3/../../../../arm-none-eabi/lib/armv7-m\libg.a(lib_a-memchr.o)
 .text          0x00000000        0x0 c:/programmi/cypress/psoc creator/3.0/psoc creator/import/gnu_cs/arm/4.7.3/bin/../lib/gcc/arm-none-eabi/4.7.3/../../../../arm-none-eabi/lib/armv7-m\libg.a(lib_a-memmove.o)
 .data          0x00000000        0x0 c:/programmi/cypress/psoc creator/3.0/psoc creator/import/gnu_cs/arm/4.7.3/bin/../lib/gcc/arm-none-eabi/4.7.3/../../../../arm-none-eabi/lib/armv7-m\libg.a(lib_a-memmove.o)
 .bss           0x00000000        0x0 c:/programmi/cypress/psoc creator/3.0/psoc creator/import/gnu_cs/arm/4.7.3/bin/../lib/gcc/arm-none-eabi/4.7.3/../../../../arm-none-eabi/lib/armv7-m\libg.a(lib_a-memmove.o)
 .text          0x00000000        0x0 c:/programmi/cypress/psoc creator/3.0/psoc creator/import/gnu_cs/arm/4.7.3/bin/../lib/gcc/arm-none-eabi/4.7.3/../../../../arm-none-eabi/lib/armv7-m\libg.a(lib_a-mlock.o)
 .data          0x00000000        0x0 c:/programmi/cypress/psoc creator/3.0/psoc creator/import/gnu_cs/arm/4.7.3/bin/../lib/gcc/arm-none-eabi/4.7.3/../../../../arm-none-eabi/lib/armv7-m\libg.a(lib_a-mlock.o)
 .bss           0x00000000        0x0 c:/programmi/cypress/psoc creator/3.0/psoc creator/import/gnu_cs/arm/4.7.3/bin/../lib/gcc/arm-none-eabi/4.7.3/../../../../arm-none-eabi/lib/armv7-m\libg.a(lib_a-mlock.o)
 .text          0x00000000        0x0 c:/programmi/cypress/psoc creator/3.0/psoc creator/import/gnu_cs/arm/4.7.3/bin/../lib/gcc/arm-none-eabi/4.7.3/../../../../arm-none-eabi/lib/armv7-m\libg.a(lib_a-mprec.o)
 .data          0x00000000        0x0 c:/programmi/cypress/psoc creator/3.0/psoc creator/import/gnu_cs/arm/4.7.3/bin/../lib/gcc/arm-none-eabi/4.7.3/../../../../arm-none-eabi/lib/armv7-m\libg.a(lib_a-mprec.o)
 .bss           0x00000000        0x0 c:/programmi/cypress/psoc creator/3.0/psoc creator/import/gnu_cs/arm/4.7.3/bin/../lib/gcc/arm-none-eabi/4.7.3/../../../../arm-none-eabi/lib/armv7-m\libg.a(lib_a-mprec.o)
 .text._mprec_log10
                0x00000000       0x68 c:/programmi/cypress/psoc creator/3.0/psoc creator/import/gnu_cs/arm/4.7.3/bin/../lib/gcc/arm-none-eabi/4.7.3/../../../../arm-none-eabi/lib/armv7-m\libg.a(lib_a-mprec.o)
 .rodata.__mprec_tinytens
                0x00000000       0x28 c:/programmi/cypress/psoc creator/3.0/psoc creator/import/gnu_cs/arm/4.7.3/bin/../lib/gcc/arm-none-eabi/4.7.3/../../../../arm-none-eabi/lib/armv7-m\libg.a(lib_a-mprec.o)
 .text          0x00000000        0x0 c:/programmi/cypress/psoc creator/3.0/psoc creator/import/gnu_cs/arm/4.7.3/bin/../lib/gcc/arm-none-eabi/4.7.3/../../../../arm-none-eabi/lib/armv7-m\libg.a(lib_a-putc.o)
 .data          0x00000000        0x0 c:/programmi/cypress/psoc creator/3.0/psoc creator/import/gnu_cs/arm/4.7.3/bin/../lib/gcc/arm-none-eabi/4.7.3/../../../../arm-none-eabi/lib/armv7-m\libg.a(lib_a-putc.o)
 .bss           0x00000000        0x0 c:/programmi/cypress/psoc creator/3.0/psoc creator/import/gnu_cs/arm/4.7.3/bin/../lib/gcc/arm-none-eabi/4.7.3/../../../../arm-none-eabi/lib/armv7-m\libg.a(lib_a-putc.o)
 .text.putc     0x00000000       0x68 c:/programmi/cypress/psoc creator/3.0/psoc creator/import/gnu_cs/arm/4.7.3/bin/../lib/gcc/arm-none-eabi/4.7.3/../../../../arm-none-eabi/lib/armv7-m\libg.a(lib_a-putc.o)
 .text          0x00000000        0x0 c:/programmi/cypress/psoc creator/3.0/psoc creator/import/gnu_cs/arm/4.7.3/bin/../lib/gcc/arm-none-eabi/4.7.3/../../../../arm-none-eabi/lib/armv7-m\libg.a(lib_a-reallocr.o)
 .data          0x00000000        0x0 c:/programmi/cypress/psoc creator/3.0/psoc creator/import/gnu_cs/arm/4.7.3/bin/../lib/gcc/arm-none-eabi/4.7.3/../../../../arm-none-eabi/lib/armv7-m\libg.a(lib_a-reallocr.o)
 .bss           0x00000000        0x0 c:/programmi/cypress/psoc creator/3.0/psoc creator/import/gnu_cs/arm/4.7.3/bin/../lib/gcc/arm-none-eabi/4.7.3/../../../../arm-none-eabi/lib/armv7-m\libg.a(lib_a-reallocr.o)
 .text          0x00000000        0x0 c:/programmi/cypress/psoc creator/3.0/psoc creator/import/gnu_cs/arm/4.7.3/bin/../lib/gcc/arm-none-eabi/4.7.3/../../../../arm-none-eabi/lib/armv7-m\libg.a(lib_a-s_fpclassify.o)
 .data          0x00000000        0x0 c:/programmi/cypress/psoc creator/3.0/psoc creator/import/gnu_cs/arm/4.7.3/bin/../lib/gcc/arm-none-eabi/4.7.3/../../../../arm-none-eabi/lib/armv7-m\libg.a(lib_a-s_fpclassify.o)
 .bss           0x00000000        0x0 c:/programmi/cypress/psoc creator/3.0/psoc creator/import/gnu_cs/arm/4.7.3/bin/../lib/gcc/arm-none-eabi/4.7.3/../../../../arm-none-eabi/lib/armv7-m\libg.a(lib_a-s_fpclassify.o)
 .text          0x00000000        0x0 c:/programmi/cypress/psoc creator/3.0/psoc creator/import/gnu_cs/arm/4.7.3/bin/../lib/gcc/arm-none-eabi/4.7.3/../../../../arm-none-eabi/lib/armv7-m\libg.a(lib_a-sbrkr.o)
 .data          0x00000000        0x0 c:/programmi/cypress/psoc creator/3.0/psoc creator/import/gnu_cs/arm/4.7.3/bin/../lib/gcc/arm-none-eabi/4.7.3/../../../../arm-none-eabi/lib/armv7-m\libg.a(lib_a-sbrkr.o)
 .bss           0x00000000        0x0 c:/programmi/cypress/psoc creator/3.0/psoc creator/import/gnu_cs/arm/4.7.3/bin/../lib/gcc/arm-none-eabi/4.7.3/../../../../arm-none-eabi/lib/armv7-m\libg.a(lib_a-sbrkr.o)
 .text          0x00000000        0x0 c:/programmi/cypress/psoc creator/3.0/psoc creator/import/gnu_cs/arm/4.7.3/bin/../lib/gcc/arm-none-eabi/4.7.3/../../../../arm-none-eabi/lib/armv7-m\libg.a(lib_a-sf_nan.o)
 .data          0x00000000        0x0 c:/programmi/cypress/psoc creator/3.0/psoc creator/import/gnu_cs/arm/4.7.3/bin/../lib/gcc/arm-none-eabi/4.7.3/../../../../arm-none-eabi/lib/armv7-m\libg.a(lib_a-sf_nan.o)
 .bss           0x00000000        0x0 c:/programmi/cypress/psoc creator/3.0/psoc creator/import/gnu_cs/arm/4.7.3/bin/../lib/gcc/arm-none-eabi/4.7.3/../../../../arm-none-eabi/lib/armv7-m\libg.a(lib_a-sf_nan.o)
 .text.nanf     0x00000000        0x8 c:/programmi/cypress/psoc creator/3.0/psoc creator/import/gnu_cs/arm/4.7.3/bin/../lib/gcc/arm-none-eabi/4.7.3/../../../../arm-none-eabi/lib/armv7-m\libg.a(lib_a-sf_nan.o)
 .text          0x00000000        0x0 c:/programmi/cypress/psoc creator/3.0/psoc creator/import/gnu_cs/arm/4.7.3/bin/../lib/gcc/arm-none-eabi/4.7.3/../../../../arm-none-eabi/lib/armv7-m\libg.a(lib_a-stdio.o)
 .data          0x00000000        0x0 c:/programmi/cypress/psoc creator/3.0/psoc creator/import/gnu_cs/arm/4.7.3/bin/../lib/gcc/arm-none-eabi/4.7.3/../../../../arm-none-eabi/lib/armv7-m\libg.a(lib_a-stdio.o)
 .bss           0x00000000        0x0 c:/programmi/cypress/psoc creator/3.0/psoc creator/import/gnu_cs/arm/4.7.3/bin/../lib/gcc/arm-none-eabi/4.7.3/../../../../arm-none-eabi/lib/armv7-m\libg.a(lib_a-stdio.o)
 .text.__seofread
                0x00000000        0x4 c:/programmi/cypress/psoc creator/3.0/psoc creator/import/gnu_cs/arm/4.7.3/bin/../lib/gcc/arm-none-eabi/4.7.3/../../../../arm-none-eabi/lib/armv7-m\libg.a(lib_a-stdio.o)
 .text          0x00000000        0x0 c:/programmi/cypress/psoc creator/3.0/psoc creator/import/gnu_cs/arm/4.7.3/bin/../lib/gcc/arm-none-eabi/4.7.3/../../../../arm-none-eabi/lib/armv7-m\libg.a(lib_a-strncmp.o)
 .data          0x00000000        0x0 c:/programmi/cypress/psoc creator/3.0/psoc creator/import/gnu_cs/arm/4.7.3/bin/../lib/gcc/arm-none-eabi/4.7.3/../../../../arm-none-eabi/lib/armv7-m\libg.a(lib_a-strncmp.o)
 .bss           0x00000000        0x0 c:/programmi/cypress/psoc creator/3.0/psoc creator/import/gnu_cs/arm/4.7.3/bin/../lib/gcc/arm-none-eabi/4.7.3/../../../../arm-none-eabi/lib/armv7-m\libg.a(lib_a-strncmp.o)
 .text          0x00000000        0x0 c:/programmi/cypress/psoc creator/3.0/psoc creator/import/gnu_cs/arm/4.7.3/bin/../lib/gcc/arm-none-eabi/4.7.3/../../../../arm-none-eabi/lib/armv7-m\libg.a(lib_a-vfiprintf.o)
 .data          0x00000000        0x0 c:/programmi/cypress/psoc creator/3.0/psoc creator/import/gnu_cs/arm/4.7.3/bin/../lib/gcc/arm-none-eabi/4.7.3/../../../../arm-none-eabi/lib/armv7-m\libg.a(lib_a-vfiprintf.o)
 .bss           0x00000000        0x0 c:/programmi/cypress/psoc creator/3.0/psoc creator/import/gnu_cs/arm/4.7.3/bin/../lib/gcc/arm-none-eabi/4.7.3/../../../../arm-none-eabi/lib/armv7-m\libg.a(lib_a-vfiprintf.o)
 .text._vfiprintf_r
                0x00000000      0xed4 c:/programmi/cypress/psoc creator/3.0/psoc creator/import/gnu_cs/arm/4.7.3/bin/../lib/gcc/arm-none-eabi/4.7.3/../../../../arm-none-eabi/lib/armv7-m\libg.a(lib_a-vfiprintf.o)
 .text.__sbprintf
                0x00000000       0x80 c:/programmi/cypress/psoc creator/3.0/psoc creator/import/gnu_cs/arm/4.7.3/bin/../lib/gcc/arm-none-eabi/4.7.3/../../../../arm-none-eabi/lib/armv7-m\libg.a(lib_a-vfiprintf.o)
 .text.vfiprintf
                0x00000000       0x1c c:/programmi/cypress/psoc creator/3.0/psoc creator/import/gnu_cs/arm/4.7.3/bin/../lib/gcc/arm-none-eabi/4.7.3/../../../../arm-none-eabi/lib/armv7-m\libg.a(lib_a-vfiprintf.o)
 .rodata.blanks.6678
                0x00000000       0x10 c:/programmi/cypress/psoc creator/3.0/psoc creator/import/gnu_cs/arm/4.7.3/bin/../lib/gcc/arm-none-eabi/4.7.3/../../../../arm-none-eabi/lib/armv7-m\libg.a(lib_a-vfiprintf.o)
 .rodata.str1.4
                0x00000000       0x30 c:/programmi/cypress/psoc creator/3.0/psoc creator/import/gnu_cs/arm/4.7.3/bin/../lib/gcc/arm-none-eabi/4.7.3/../../../../arm-none-eabi/lib/armv7-m\libg.a(lib_a-vfiprintf.o)
 .rodata.zeroes.6679
                0x00000000       0x10 c:/programmi/cypress/psoc creator/3.0/psoc creator/import/gnu_cs/arm/4.7.3/bin/../lib/gcc/arm-none-eabi/4.7.3/../../../../arm-none-eabi/lib/armv7-m\libg.a(lib_a-vfiprintf.o)
 .text          0x00000000        0x0 c:/programmi/cypress/psoc creator/3.0/psoc creator/import/gnu_cs/arm/4.7.3/bin/../lib/gcc/arm-none-eabi/4.7.3/../../../../arm-none-eabi/lib/armv7-m\libg.a(lib_a-wbuf.o)
 .data          0x00000000        0x0 c:/programmi/cypress/psoc creator/3.0/psoc creator/import/gnu_cs/arm/4.7.3/bin/../lib/gcc/arm-none-eabi/4.7.3/../../../../arm-none-eabi/lib/armv7-m\libg.a(lib_a-wbuf.o)
 .bss           0x00000000        0x0 c:/programmi/cypress/psoc creator/3.0/psoc creator/import/gnu_cs/arm/4.7.3/bin/../lib/gcc/arm-none-eabi/4.7.3/../../../../arm-none-eabi/lib/armv7-m\libg.a(lib_a-wbuf.o)
 .text.__swbuf  0x00000000       0x18 c:/programmi/cypress/psoc creator/3.0/psoc creator/import/gnu_cs/arm/4.7.3/bin/../lib/gcc/arm-none-eabi/4.7.3/../../../../arm-none-eabi/lib/armv7-m\libg.a(lib_a-wbuf.o)
 .text          0x00000000        0x0 c:/programmi/cypress/psoc creator/3.0/psoc creator/import/gnu_cs/arm/4.7.3/bin/../lib/gcc/arm-none-eabi/4.7.3/../../../../arm-none-eabi/lib/armv7-m\libg.a(lib_a-writer.o)
 .data          0x00000000        0x0 c:/programmi/cypress/psoc creator/3.0/psoc creator/import/gnu_cs/arm/4.7.3/bin/../lib/gcc/arm-none-eabi/4.7.3/../../../../arm-none-eabi/lib/armv7-m\libg.a(lib_a-writer.o)
 .bss           0x00000000        0x0 c:/programmi/cypress/psoc creator/3.0/psoc creator/import/gnu_cs/arm/4.7.3/bin/../lib/gcc/arm-none-eabi/4.7.3/../../../../arm-none-eabi/lib/armv7-m\libg.a(lib_a-writer.o)
 .text          0x00000000        0x0 c:/programmi/cypress/psoc creator/3.0/psoc creator/import/gnu_cs/arm/4.7.3/bin/../lib/gcc/arm-none-eabi/4.7.3/../../../../arm-none-eabi/lib/armv7-m\libg.a(lib_a-callocr.o)
 .data          0x00000000        0x0 c:/programmi/cypress/psoc creator/3.0/psoc creator/import/gnu_cs/arm/4.7.3/bin/../lib/gcc/arm-none-eabi/4.7.3/../../../../arm-none-eabi/lib/armv7-m\libg.a(lib_a-callocr.o)
 .bss           0x00000000        0x0 c:/programmi/cypress/psoc creator/3.0/psoc creator/import/gnu_cs/arm/4.7.3/bin/../lib/gcc/arm-none-eabi/4.7.3/../../../../arm-none-eabi/lib/armv7-m\libg.a(lib_a-callocr.o)
 .text          0x00000000        0x0 c:/programmi/cypress/psoc creator/3.0/psoc creator/import/gnu_cs/arm/4.7.3/bin/../lib/gcc/arm-none-eabi/4.7.3/../../../../arm-none-eabi/lib/armv7-m\libg.a(lib_a-closer.o)
 .data          0x00000000        0x0 c:/programmi/cypress/psoc creator/3.0/psoc creator/import/gnu_cs/arm/4.7.3/bin/../lib/gcc/arm-none-eabi/4.7.3/../../../../arm-none-eabi/lib/armv7-m\libg.a(lib_a-closer.o)
 .bss           0x00000000        0x0 c:/programmi/cypress/psoc creator/3.0/psoc creator/import/gnu_cs/arm/4.7.3/bin/../lib/gcc/arm-none-eabi/4.7.3/../../../../arm-none-eabi/lib/armv7-m\libg.a(lib_a-closer.o)
 .text          0x00000000        0x0 c:/programmi/cypress/psoc creator/3.0/psoc creator/import/gnu_cs/arm/4.7.3/bin/../lib/gcc/arm-none-eabi/4.7.3/../../../../arm-none-eabi/lib/armv7-m\libg.a(lib_a-fclose.o)
 .data          0x00000000        0x0 c:/programmi/cypress/psoc creator/3.0/psoc creator/import/gnu_cs/arm/4.7.3/bin/../lib/gcc/arm-none-eabi/4.7.3/../../../../arm-none-eabi/lib/armv7-m\libg.a(lib_a-fclose.o)
 .bss           0x00000000        0x0 c:/programmi/cypress/psoc creator/3.0/psoc creator/import/gnu_cs/arm/4.7.3/bin/../lib/gcc/arm-none-eabi/4.7.3/../../../../arm-none-eabi/lib/armv7-m\libg.a(lib_a-fclose.o)
 .text          0x00000000        0x0 c:/programmi/cypress/psoc creator/3.0/psoc creator/import/gnu_cs/arm/4.7.3/bin/../lib/gcc/arm-none-eabi/4.7.3/../../../../arm-none-eabi/lib/armv7-m\libg.a(lib_a-fputwc.o)
 .data          0x00000000        0x0 c:/programmi/cypress/psoc creator/3.0/psoc creator/import/gnu_cs/arm/4.7.3/bin/../lib/gcc/arm-none-eabi/4.7.3/../../../../arm-none-eabi/lib/armv7-m\libg.a(lib_a-fputwc.o)
 .bss           0x00000000        0x0 c:/programmi/cypress/psoc creator/3.0/psoc creator/import/gnu_cs/arm/4.7.3/bin/../lib/gcc/arm-none-eabi/4.7.3/../../../../arm-none-eabi/lib/armv7-m\libg.a(lib_a-fputwc.o)
 .text.fputwc   0x00000000       0x28 c:/programmi/cypress/psoc creator/3.0/psoc creator/import/gnu_cs/arm/4.7.3/bin/../lib/gcc/arm-none-eabi/4.7.3/../../../../arm-none-eabi/lib/armv7-m\libg.a(lib_a-fputwc.o)
 .text          0x00000000        0x0 c:/programmi/cypress/psoc creator/3.0/psoc creator/import/gnu_cs/arm/4.7.3/bin/../lib/gcc/arm-none-eabi/4.7.3/../../../../arm-none-eabi/lib/armv7-m\libg.a(lib_a-fstatr.o)
 .data          0x00000000        0x0 c:/programmi/cypress/psoc creator/3.0/psoc creator/import/gnu_cs/arm/4.7.3/bin/../lib/gcc/arm-none-eabi/4.7.3/../../../../arm-none-eabi/lib/armv7-m\libg.a(lib_a-fstatr.o)
 .bss           0x00000000        0x0 c:/programmi/cypress/psoc creator/3.0/psoc creator/import/gnu_cs/arm/4.7.3/bin/../lib/gcc/arm-none-eabi/4.7.3/../../../../arm-none-eabi/lib/armv7-m\libg.a(lib_a-fstatr.o)
 .text          0x00000000        0x0 c:/programmi/cypress/psoc creator/3.0/psoc creator/import/gnu_cs/arm/4.7.3/bin/../lib/gcc/arm-none-eabi/4.7.3/../../../../arm-none-eabi/lib/armv7-m\libg.a(lib_a-isattyr.o)
 .data          0x00000000        0x0 c:/programmi/cypress/psoc creator/3.0/psoc creator/import/gnu_cs/arm/4.7.3/bin/../lib/gcc/arm-none-eabi/4.7.3/../../../../arm-none-eabi/lib/armv7-m\libg.a(lib_a-isattyr.o)
 .bss           0x00000000        0x0 c:/programmi/cypress/psoc creator/3.0/psoc creator/import/gnu_cs/arm/4.7.3/bin/../lib/gcc/arm-none-eabi/4.7.3/../../../../arm-none-eabi/lib/armv7-m\libg.a(lib_a-isattyr.o)
 .text          0x00000000        0x0 c:/programmi/cypress/psoc creator/3.0/psoc creator/import/gnu_cs/arm/4.7.3/bin/../lib/gcc/arm-none-eabi/4.7.3/../../../../arm-none-eabi/lib/armv7-m\libg.a(lib_a-lseekr.o)
 .data          0x00000000        0x0 c:/programmi/cypress/psoc creator/3.0/psoc creator/import/gnu_cs/arm/4.7.3/bin/../lib/gcc/arm-none-eabi/4.7.3/../../../../arm-none-eabi/lib/armv7-m\libg.a(lib_a-lseekr.o)
 .bss           0x00000000        0x0 c:/programmi/cypress/psoc creator/3.0/psoc creator/import/gnu_cs/arm/4.7.3/bin/../lib/gcc/arm-none-eabi/4.7.3/../../../../arm-none-eabi/lib/armv7-m\libg.a(lib_a-lseekr.o)
 .text          0x00000000        0x0 c:/programmi/cypress/psoc creator/3.0/psoc creator/import/gnu_cs/arm/4.7.3/bin/../lib/gcc/arm-none-eabi/4.7.3/../../../../arm-none-eabi/lib/armv7-m\libg.a(lib_a-readr.o)
 .data          0x00000000        0x0 c:/programmi/cypress/psoc creator/3.0/psoc creator/import/gnu_cs/arm/4.7.3/bin/../lib/gcc/arm-none-eabi/4.7.3/../../../../arm-none-eabi/lib/armv7-m\libg.a(lib_a-readr.o)
 .bss           0x00000000        0x0 c:/programmi/cypress/psoc creator/3.0/psoc creator/import/gnu_cs/arm/4.7.3/bin/../lib/gcc/arm-none-eabi/4.7.3/../../../../arm-none-eabi/lib/armv7-m\libg.a(lib_a-readr.o)
 .text          0x00000000        0x0 c:/programmi/cypress/psoc creator/3.0/psoc creator/import/gnu_cs/arm/4.7.3/bin/../lib/gcc/arm-none-eabi/4.7.3/../../../../arm-none-eabi/lib/armv7-m\libg.a(lib_a-reent.o)
 .data          0x00000000        0x0 c:/programmi/cypress/psoc creator/3.0/psoc creator/import/gnu_cs/arm/4.7.3/bin/../lib/gcc/arm-none-eabi/4.7.3/../../../../arm-none-eabi/lib/armv7-m\libg.a(lib_a-reent.o)
 .bss           0x00000000        0x0 c:/programmi/cypress/psoc creator/3.0/psoc creator/import/gnu_cs/arm/4.7.3/bin/../lib/gcc/arm-none-eabi/4.7.3/../../../../arm-none-eabi/lib/armv7-m\libg.a(lib_a-reent.o)
 .text.cleanup_glue
                0x00000000       0x1c c:/programmi/cypress/psoc creator/3.0/psoc creator/import/gnu_cs/arm/4.7.3/bin/../lib/gcc/arm-none-eabi/4.7.3/../../../../arm-none-eabi/lib/armv7-m\libg.a(lib_a-reent.o)
 .text._reclaim_reent
                0x00000000       0x8c c:/programmi/cypress/psoc creator/3.0/psoc creator/import/gnu_cs/arm/4.7.3/bin/../lib/gcc/arm-none-eabi/4.7.3/../../../../arm-none-eabi/lib/armv7-m\libg.a(lib_a-reent.o)
 .text._wrapup_reent
                0x00000000       0x74 c:/programmi/cypress/psoc creator/3.0/psoc creator/import/gnu_cs/arm/4.7.3/bin/../lib/gcc/arm-none-eabi/4.7.3/../../../../arm-none-eabi/lib/armv7-m\libg.a(lib_a-reent.o)
 .text          0x00000000        0x0 c:/programmi/cypress/psoc creator/3.0/psoc creator/import/gnu_cs/arm/4.7.3/bin/../lib/gcc/arm-none-eabi/4.7.3/../../../../arm-none-eabi/lib/armv7-m\libg.a(lib_a-wcrtomb.o)
 .data          0x00000000        0x0 c:/programmi/cypress/psoc creator/3.0/psoc creator/import/gnu_cs/arm/4.7.3/bin/../lib/gcc/arm-none-eabi/4.7.3/../../../../arm-none-eabi/lib/armv7-m\libg.a(lib_a-wcrtomb.o)
 .bss           0x00000000        0x0 c:/programmi/cypress/psoc creator/3.0/psoc creator/import/gnu_cs/arm/4.7.3/bin/../lib/gcc/arm-none-eabi/4.7.3/../../../../arm-none-eabi/lib/armv7-m\libg.a(lib_a-wcrtomb.o)
 .text.wcrtomb  0x00000000       0x60 c:/programmi/cypress/psoc creator/3.0/psoc creator/import/gnu_cs/arm/4.7.3/bin/../lib/gcc/arm-none-eabi/4.7.3/../../../../arm-none-eabi/lib/armv7-m\libg.a(lib_a-wcrtomb.o)
 .text          0x00000000        0x0 c:/programmi/cypress/psoc creator/3.0/psoc creator/import/gnu_cs/arm/4.7.3/bin/../lib/gcc/arm-none-eabi/4.7.3/../../../../arm-none-eabi/lib/armv7-m\libg.a(lib_a-wctomb_r.o)
 .data          0x00000000        0x0 c:/programmi/cypress/psoc creator/3.0/psoc creator/import/gnu_cs/arm/4.7.3/bin/../lib/gcc/arm-none-eabi/4.7.3/../../../../arm-none-eabi/lib/armv7-m\libg.a(lib_a-wctomb_r.o)
 .bss           0x00000000        0x0 c:/programmi/cypress/psoc creator/3.0/psoc creator/import/gnu_cs/arm/4.7.3/bin/../lib/gcc/arm-none-eabi/4.7.3/../../../../arm-none-eabi/lib/armv7-m\libg.a(lib_a-wctomb_r.o)
 .text._wctomb_r
                0x00000000       0x30 c:/programmi/cypress/psoc creator/3.0/psoc creator/import/gnu_cs/arm/4.7.3/bin/../lib/gcc/arm-none-eabi/4.7.3/../../../../arm-none-eabi/lib/armv7-m\libg.a(lib_a-wctomb_r.o)
 .data          0x00000000        0x0 c:/programmi/cypress/psoc creator/3.0/psoc creator/import/gnu_cs/arm/4.7.3/bin/../lib/gcc/arm-none-eabi/4.7.3/armv7-m\libgcc.a(_arm_fixdfsi.o)
 .bss           0x00000000        0x0 c:/programmi/cypress/psoc creator/3.0/psoc creator/import/gnu_cs/arm/4.7.3/bin/../lib/gcc/arm-none-eabi/4.7.3/armv7-m\libgcc.a(_arm_fixdfsi.o)
 .data          0x00000000        0x0 c:/programmi/cypress/psoc creator/3.0/psoc creator/import/gnu_cs/arm/4.7.3/bin/../lib/gcc/arm-none-eabi/4.7.3/armv7-m\libgcc.a(_arm_fixunsdfsi.o)
 .bss           0x00000000        0x0 c:/programmi/cypress/psoc creator/3.0/psoc creator/import/gnu_cs/arm/4.7.3/bin/../lib/gcc/arm-none-eabi/4.7.3/armv7-m\libgcc.a(_arm_fixunsdfsi.o)
 .data          0x00000000        0x0 c:/programmi/cypress/psoc creator/3.0/psoc creator/import/gnu_cs/arm/4.7.3/bin/../lib/gcc/arm-none-eabi/4.7.3/armv7-m\libgcc.a(_aeabi_uldivmod.o)
 .bss           0x00000000        0x0 c:/programmi/cypress/psoc creator/3.0/psoc creator/import/gnu_cs/arm/4.7.3/bin/../lib/gcc/arm-none-eabi/4.7.3/armv7-m\libgcc.a(_aeabi_uldivmod.o)
 .data          0x00000000        0x0 c:/programmi/cypress/psoc creator/3.0/psoc creator/import/gnu_cs/arm/4.7.3/bin/../lib/gcc/arm-none-eabi/4.7.3/armv7-m\libgcc.a(bpabi.o)
 .bss           0x00000000        0x0 c:/programmi/cypress/psoc creator/3.0/psoc creator/import/gnu_cs/arm/4.7.3/bin/../lib/gcc/arm-none-eabi/4.7.3/armv7-m\libgcc.a(bpabi.o)
 .data          0x00000000        0x0 c:/programmi/cypress/psoc creator/3.0/psoc creator/import/gnu_cs/arm/4.7.3/bin/../lib/gcc/arm-none-eabi/4.7.3/armv7-m\libgcc.a(_dvmd_tls.o)
 .bss           0x00000000        0x0 c:/programmi/cypress/psoc creator/3.0/psoc creator/import/gnu_cs/arm/4.7.3/bin/../lib/gcc/arm-none-eabi/4.7.3/armv7-m\libgcc.a(_dvmd_tls.o)
 .data          0x00000000        0x0 c:/programmi/cypress/psoc creator/3.0/psoc creator/import/gnu_cs/arm/4.7.3/bin/../lib/gcc/arm-none-eabi/4.7.3/armv7-m\libgcc.a(_divdi3.o)
 .bss           0x00000000        0x0 c:/programmi/cypress/psoc creator/3.0/psoc creator/import/gnu_cs/arm/4.7.3/bin/../lib/gcc/arm-none-eabi/4.7.3/armv7-m\libgcc.a(_divdi3.o)
 .ARM.extab     0x00000000        0x0 c:/programmi/cypress/psoc creator/3.0/psoc creator/import/gnu_cs/arm/4.7.3/bin/../lib/gcc/arm-none-eabi/4.7.3/armv7-m\libgcc.a(_divdi3.o)
 .data          0x00000000        0x0 c:/programmi/cypress/psoc creator/3.0/psoc creator/import/gnu_cs/arm/4.7.3/bin/../lib/gcc/arm-none-eabi/4.7.3/armv7-m\libgcc.a(_udivdi3.o)
 .bss           0x00000000        0x0 c:/programmi/cypress/psoc creator/3.0/psoc creator/import/gnu_cs/arm/4.7.3/bin/../lib/gcc/arm-none-eabi/4.7.3/armv7-m\libgcc.a(_udivdi3.o)
 .ARM.extab     0x00000000        0x0 c:/programmi/cypress/psoc creator/3.0/psoc creator/import/gnu_cs/arm/4.7.3/bin/../lib/gcc/arm-none-eabi/4.7.3/armv7-m\libgcc.a(_udivdi3.o)
 .text          0x00000000        0x0 c:/programmi/cypress/psoc creator/3.0/psoc creator/import/gnu_cs/arm/4.7.3/bin/../lib/gcc/arm-none-eabi/4.7.3/armv7-m/crtend.o
 .data          0x00000000        0x0 c:/programmi/cypress/psoc creator/3.0/psoc creator/import/gnu_cs/arm/4.7.3/bin/../lib/gcc/arm-none-eabi/4.7.3/armv7-m/crtend.o
 .bss           0x00000000        0x0 c:/programmi/cypress/psoc creator/3.0/psoc creator/import/gnu_cs/arm/4.7.3/bin/../lib/gcc/arm-none-eabi/4.7.3/armv7-m/crtend.o
 .text          0x00000000        0x0 c:/programmi/cypress/psoc creator/3.0/psoc creator/import/gnu_cs/arm/4.7.3/bin/../lib/gcc/arm-none-eabi/4.7.3/armv7-m/crtn.o
 .data          0x00000000        0x0 c:/programmi/cypress/psoc creator/3.0/psoc creator/import/gnu_cs/arm/4.7.3/bin/../lib/gcc/arm-none-eabi/4.7.3/armv7-m/crtn.o
 .bss           0x00000000        0x0 c:/programmi/cypress/psoc creator/3.0/psoc creator/import/gnu_cs/arm/4.7.3/bin/../lib/gcc/arm-none-eabi/4.7.3/armv7-m/crtn.o
 .text          0x00000000        0x0 c:/programmi/cypress/psoc creator/3.0/psoc creator/import/gnu_cs/arm/4.7.3/bin/../lib/gcc/arm-none-eabi/4.7.3/../../../../arm-none-eabi/lib/armv7-m\libnosys.a(sbrk.o)
 .data          0x00000000        0x0 c:/programmi/cypress/psoc creator/3.0/psoc creator/import/gnu_cs/arm/4.7.3/bin/../lib/gcc/arm-none-eabi/4.7.3/../../../../arm-none-eabi/lib/armv7-m\libnosys.a(sbrk.o)
 .bss           0x00000000        0x0 c:/programmi/cypress/psoc creator/3.0/psoc creator/import/gnu_cs/arm/4.7.3/bin/../lib/gcc/arm-none-eabi/4.7.3/../../../../arm-none-eabi/lib/armv7-m\libnosys.a(sbrk.o)

Memory Configuration

Name             Origin             Length             Attributes
rom              0x00000000         0x00040000         xr
ram              0x1fff8000         0x00010000         xrw
*default*        0x00000000         0xffffffff

Linker script and memory map

LOAD c:/programmi/cypress/psoc creator/3.0/psoc creator/import/gnu_cs/arm/4.7.3/bin/../lib/gcc/arm-none-eabi/4.7.3/armv7-m/crti.o
LOAD c:/programmi/cypress/psoc creator/3.0/psoc creator/import/gnu_cs/arm/4.7.3/bin/../lib/gcc/arm-none-eabi/4.7.3/armv7-m/crtbegin.o
LOAD c:/programmi/cypress/psoc creator/3.0/psoc creator/import/gnu_cs/arm/4.7.3/bin/../lib/gcc/arm-none-eabi/4.7.3/../../../../arm-none-eabi/lib/armv7-m/crt0.o
START GROUP
LOAD .\CortexM3\ARM_GCC_473\Debug\main.o
LOAD .\CortexM3\ARM_GCC_473\Debug\console.o
LOAD .\CortexM3\ARM_GCC_473\Debug\gobeelib.o
LOAD .\CortexM3\ARM_GCC_473\Debug\ADXRS453.o
LOAD .\CortexM3\ARM_GCC_473\Debug\motor_CTRL.o
LOAD .\CortexM3\ARM_GCC_473\Debug\sensor_CTRL.o
LOAD .\CortexM3\ARM_GCC_473\Debug\pid_lib.o
LOAD .\CortexM3\ARM_GCC_473\Debug\estimators.o
LOAD .\CortexM3\ARM_GCC_473\Debug\das.o
LOAD .\CortexM3\ARM_GCC_473\Debug\Cm3Start.o
LOAD .\CortexM3\ARM_GCC_473\Debug\cymetadata.o
LOAD .\CortexM3\ARM_GCC_473\Debug\cybootloader.o
LOAD .\CortexM3\ARM_GCC_473\Debug\GoBee-00_1.a
LOAD C:\Programmi\Cypress\PSoC Creator\3.0\PSoC Creator\psoc\content\cycomponentlibrary\CyComponentLibrary.cylib\CortexM3\ARM_GCC_473\Debug\CyComponentLibrary.a
END GROUP
START GROUP
LOAD c:/programmi/cypress/psoc creator/3.0/psoc creator/import/gnu_cs/arm/4.7.3/bin/../lib/gcc/arm-none-eabi/4.7.3/armv7-m\libgcc.a
LOAD c:/programmi/cypress/psoc creator/3.0/psoc creator/import/gnu_cs/arm/4.7.3/bin/../lib/gcc/arm-none-eabi/4.7.3/../../../../arm-none-eabi/lib/armv7-m\libg.a
LOAD c:/programmi/cypress/psoc creator/3.0/psoc creator/import/gnu_cs/arm/4.7.3/bin/../lib/gcc/arm-none-eabi/4.7.3/../../../../arm-none-eabi/lib/armv7-m\libc.a
END GROUP
LOAD c:/programmi/cypress/psoc creator/3.0/psoc creator/import/gnu_cs/arm/4.7.3/bin/../lib/gcc/arm-none-eabi/4.7.3/armv7-m/crtend.o
LOAD c:/programmi/cypress/psoc creator/3.0/psoc creator/import/gnu_cs/arm/4.7.3/bin/../lib/gcc/arm-none-eabi/4.7.3/armv7-m/crtn.o
START GROUP
LOAD c:/programmi/cypress/psoc creator/3.0/psoc creator/import/gnu_cs/arm/4.7.3/bin/../lib/gcc/arm-none-eabi/4.7.3/armv7-m\libgcc.a
LOAD c:/programmi/cypress/psoc creator/3.0/psoc creator/import/gnu_cs/arm/4.7.3/bin/../lib/gcc/arm-none-eabi/4.7.3/../../../../arm-none-eabi/lib/armv7-m\libc.a
LOAD c:/programmi/cypress/psoc creator/3.0/psoc creator/import/gnu_cs/arm/4.7.3/bin/../lib/gcc/arm-none-eabi/4.7.3/../../../../arm-none-eabi/lib/armv7-m\libnosys.a
END GROUP
                0x00000000                CY_APPL_ORIGIN = 0x0
                0x00000100                CY_FLASH_ROW_SIZE = 0x100
                0x00000020                CY_ECC_ROW_SIZE = 0x20
                0x00000000                CY_EE_IN_BTLDR = 0x0
                0x00000001                CY_APPL_LOADABLE = 0x1
                0x00000800                CY_EE_SIZE = 0x800
                0x00000001                CY_APPL_NUM = 0x1
                0x00000002                CY_APPL_MAX = 0x2
                0x00000040                CY_METADATA_SIZE = 0x40
                0x1fff8e38                PROVIDE (__cy_heap_start, _end)
                0x00000001                PROVIDE (__cy_region_num, ((__cy_regions_end - __cy_regions) / 0x10))
                0x20008000                PROVIDE (__cy_stack, (ORIGIN (ram) + 0x10000))
                0x20004000                PROVIDE (__cy_heap_end, (__cy_stack - 0x4000))

.cybootloader   0x00000000     0x3700
 *(.cybootloader)
 .cybootloader  0x00000000     0x3700 .\CortexM3\ARM_GCC_473\Debug\cybootloader.o
                0x00000000                cy_bootloader
                0x00003700                appl1_start = CY_APPL_ORIGIN?CY_APPL_ORIGIN:ALIGN (CY_FLASH_ROW_SIZE)
                0x00021b00                appl2_start = (appl1_start + ALIGN ((((0x40000 - appl1_start) - (0x2 * CY_FLASH_ROW_SIZE)) / 0x2), CY_FLASH_ROW_SIZE))
                0x00003700                appl_start = (CY_APPL_NUM == 0x1)?appl1_start:appl2_start
                0x000006e0                ecc_offset = ((appl_start / CY_FLASH_ROW_SIZE) * CY_ECC_ROW_SIZE)
                0x00000000                ee_offset = (CY_APPL_LOADABLE && ! (CY_EE_IN_BTLDR))?((CY_EE_SIZE / CY_APPL_MAX) * (CY_APPL_NUM - 0x1)):0x0
                0x00000400                ee_size = (CY_APPL_LOADABLE && ! (CY_EE_IN_BTLDR))?(CY_EE_SIZE / CY_APPL_MAX):CY_EE_SIZE
                0x000006e0                PROVIDE (CY_ECC_OFFSET, ecc_offset)

.text           0x00003700    0x11e08
 CREATE_OBJECT_SYMBOLS
                0x00003700                PROVIDE (__cy_interrupt_vector, RomVectors)
 *(.romvectors)
 .romvectors    0x00003700       0x10 .\CortexM3\ARM_GCC_473\Debug\Cm3Start.o
                0x00003700                RomVectors
                0x00000001                ASSERT ((. != __cy_interrupt_vector), No interrupt vector)
                0x00000001                ASSERT (CY_APPL_ORIGIN?(SIZEOF (.cybootloader) <= CY_APPL_ORIGIN):0x1, Wrong image location)
                0x00003710                PROVIDE (__cy_reset, Reset)
 *(.text.Reset)
 .text.Reset    0x00003710        0x8 .\CortexM3\ARM_GCC_473\Debug\Cm3Start.o
                0x00003710                Reset
                0x00000001                ASSERT ((. != __cy_reset), No reset code)
 *(.dma_init)
                0x00000001                ASSERT ((((appl_start + .) <= 0x10000) || 0x1), DMA Init must be within the first 64k of flash)
 *(.text .text.* .gnu.linkonce.t.*)
 .text          0x00003718       0x54 c:/programmi/cypress/psoc creator/3.0/psoc creator/import/gnu_cs/arm/4.7.3/bin/../lib/gcc/arm-none-eabi/4.7.3/armv7-m/crtbegin.o
 .text.main     0x0000376c      0x1d0 .\CortexM3\ARM_GCC_473\Debug\main.o
                0x0000376c                main
 .text.ReadUSBbuffer
                0x0000393c       0xfc .\CortexM3\ARM_GCC_473\Debug\console.o
                0x0000393c                ReadUSBbuffer
 .text.scanner2
                0x00003a38      0x304 .\CortexM3\ARM_GCC_473\Debug\console.o
                0x00003a38                scanner2
 *fill*         0x00003d3c        0x4 00
 .text.parser   0x00003d40     0x2d30 .\CortexM3\ARM_GCC_473\Debug\console.o
                0x00003d40                parser
 .text.AnyButtonPressed
                0x00006a70       0x1c .\CortexM3\ARM_GCC_473\Debug\console.o
                0x00006a70                AnyButtonPressed
 .text.ButtonYNChoice
                0x00006a8c       0x68 .\CortexM3\ARM_GCC_473\Debug\console.o
                0x00006a8c                ButtonYNChoice
 .text.clear_string
                0x00006af4       0x3c .\CortexM3\ARM_GCC_473\Debug\console.o
                0x00006af4                clear_string
 .text.USB_Check
                0x00006b30       0x10 .\CortexM3\ARM_GCC_473\Debug\console.o
                0x00006b30                USB_Check
 .text.CFtau    0x00006b40       0x5c .\CortexM3\ARM_GCC_473\Debug\gobeelib.o
                0x00006b40                CFtau
 .text.LPFtau   0x00006b9c       0x58 .\CortexM3\ARM_GCC_473\Debug\gobeelib.o
                0x00006b9c                LPFtau
 *fill*         0x00006bf4        0x4 00
 .text.LPFfreq  0x00006bf8       0x60 .\CortexM3\ARM_GCC_473\Debug\gobeelib.o
                0x00006bf8                LPFfreq
 .text.squaref  0x00006c58       0x1c .\CortexM3\ARM_GCC_473\Debug\gobeelib.o
                0x00006c58                squaref
 .text.WriteAllEEparams
                0x00006c74      0x548 .\CortexM3\ARM_GCC_473\Debug\gobeelib.o
                0x00006c74                WriteAllEEparams
 .text.ReadAllEEparams
                0x000071bc      0x550 .\CortexM3\ARM_GCC_473\Debug\gobeelib.o
                0x000071bc                ReadAllEEparams
 .text.EEPROM_ReadByte
                0x0000770c       0x28 .\CortexM3\ARM_GCC_473\Debug\gobeelib.o
                0x0000770c                EEPROM_ReadByte
 .text.printf_spc
                0x00007734       0x30 .\CortexM3\ARM_GCC_473\Debug\gobeelib.o
                0x00007734                printf_spc
 .text.print_abs_linear_hystogram
                0x00007764       0x9c .\CortexM3\ARM_GCC_473\Debug\gobeelib.o
                0x00007764                print_abs_linear_hystogram
 .text.print_hystogram_border
                0x00007800       0x50 .\CortexM3\ARM_GCC_473\Debug\gobeelib.o
                0x00007800                print_hystogram_border
 .text._write   0x00007850       0x44 .\CortexM3\ARM_GCC_473\Debug\gobeelib.o
                0x00007850                _write
 .text._read    0x00007894       0x1c .\CortexM3\ARM_GCC_473\Debug\gobeelib.o
                0x00007894                _read
 .text._fstat   0x000078b0       0x24 .\CortexM3\ARM_GCC_473\Debug\gobeelib.o
                0x000078b0                _fstat
 .text._close   0x000078d4       0x18 .\CortexM3\ARM_GCC_473\Debug\gobeelib.o
                0x000078d4                _close
 .text._isatty  0x000078ec       0x18 .\CortexM3\ARM_GCC_473\Debug\gobeelib.o
                0x000078ec                _isatty
 .text._lseek   0x00007904       0x1c .\CortexM3\ARM_GCC_473\Debug\gobeelib.o
                0x00007904                _lseek
 .text.AnalogShowPan
                0x00007920      0x1e4 .\CortexM3\ARM_GCC_473\Debug\motor_CTRL.o
                0x00007920                AnalogShowPan
 *fill*         0x00007b04        0x4 00
 .text.motor_control
                0x00007b08      0x310 .\CortexM3\ARM_GCC_473\Debug\motor_CTRL.o
                0x00007b08                motor_control
 .text.mototor_energize
                0x00007e18       0x28 .\CortexM3\ARM_GCC_473\Debug\motor_CTRL.o
                0x00007e18                mototor_energize
 .text.mototor_sleep
                0x00007e40       0x28 .\CortexM3\ARM_GCC_473\Debug\motor_CTRL.o
                0x00007e40                mototor_sleep
 .text.sensor_control
                0x00007e68      0x468 .\CortexM3\ARM_GCC_473\Debug\sensor_CTRL.o
                0x00007e68                sensor_control
 .text.fpSpid_k2
                0x000082d0      0x14c .\CortexM3\ARM_GCC_473\Debug\pid_lib.o
                0x000082d0                fpSpid_k2
 .text.VelocityEstimator
                0x0000841c       0xd0 .\CortexM3\ARM_GCC_473\Debug\estimators.o
                0x0000841c                VelocityEstimator
 .text.IntDefaultHandler
                0x000084ec        0x8 .\CortexM3\ARM_GCC_473\Debug\Cm3Start.o
                0x000084ec                IntDefaultHandler
 .text.Start_c  0x000084f4       0xcc .\CortexM3\ARM_GCC_473\Debug\Cm3Start.o
                0x000084f4                Start_c
 .text.initialize_psoc
                0x000085c0       0xb8 .\CortexM3\ARM_GCC_473\Debug\Cm3Start.o
                0x000085c0                initialize_psoc
 .text.CYMEMZERO
                0x00008678       0x20 .\CortexM3\ARM_GCC_473\Debug\GoBee-00_1.a(cyfitter_cfg_1.o)
 .text.CYCONFIGCPY
                0x00008698       0x20 .\CortexM3\ARM_GCC_473\Debug\GoBee-00_1.a(cyfitter_cfg_1.o)
 .text.CyClockStartupError
                0x000086b8        0xc .\CortexM3\ARM_GCC_473\Debug\GoBee-00_1.a(cyfitter_cfg_1.o)
 .text.cfg_write_bytes32
                0x000086c4       0x84 .\CortexM3\ARM_GCC_473\Debug\GoBee-00_1.a(cyfitter_cfg_1.o)
 .text.ClockSetup
                0x00008748      0x2d4 .\CortexM3\ARM_GCC_473\Debug\GoBee-00_1.a(cyfitter_cfg_1.o)
 .text.AnalogSetDefault
                0x00008a1c      0x120 .\CortexM3\ARM_GCC_473\Debug\GoBee-00_1.a(cyfitter_cfg_1.o)
 .text.AMuxSeq_DisconnectAll
                0x00008b3c       0x44 .\CortexM3\ARM_GCC_473\Debug\GoBee-00_1.a(cyfitter_cfg_1.o)
                0x00008b3c                AMuxSeq_DisconnectAll
 .text.AMuxSeq_Next
                0x00008b80      0x114 .\CortexM3\ARM_GCC_473\Debug\GoBee-00_1.a(cyfitter_cfg_1.o)
                0x00008b80                AMuxSeq_Next
 .text.cyfitter_cfg
                0x00008c94      0x300 .\CortexM3\ARM_GCC_473\Debug\GoBee-00_1.a(cyfitter_cfg_1.o)
                0x00008c94                cyfitter_cfg
 .text.ADC_Init
                0x00008f94      0x190 .\CortexM3\ARM_GCC_473\Debug\GoBee-00_1.a(ADC.o)
                0x00008f94                ADC_Init
 .text.ADC_Enable
                0x00009124      0x1e4 .\CortexM3\ARM_GCC_473\Debug\GoBee-00_1.a(ADC.o)
                0x00009124                ADC_Enable
 .text.ADC_Start
                0x00009308       0x3c .\CortexM3\ARM_GCC_473\Debug\GoBee-00_1.a(ADC.o)
                0x00009308                ADC_Start
 .text.ADC_StartConvert
                0x00009344       0x28 .\CortexM3\ARM_GCC_473\Debug\GoBee-00_1.a(ADC.o)
                0x00009344                ADC_StartConvert
 .text.ADC_StopConvert
                0x0000936c       0x28 .\CortexM3\ARM_GCC_473\Debug\GoBee-00_1.a(ADC.o)
                0x0000936c                ADC_StopConvert
 .text.ADC_GetResult16
                0x00009394       0x90 .\CortexM3\ARM_GCC_473\Debug\GoBee-00_1.a(ADC.o)
                0x00009394                ADC_GetResult16
 .text.ADC_InitConfig
                0x00009424      0x1e0 .\CortexM3\ARM_GCC_473\Debug\GoBee-00_1.a(ADC.o)
 .text.ADC_GainCompensation
                0x00009604      0x19c .\CortexM3\ARM_GCC_473\Debug\GoBee-00_1.a(ADC.o)
 .text.ADC_SetDSMRef0Reg
                0x000097a0       0xa8 .\CortexM3\ARM_GCC_473\Debug\GoBee-00_1.a(ADC.o)
 .text.ADC_ISR1
                0x00009848       0x7c .\CortexM3\ARM_GCC_473\Debug\GoBee-00_1.a(ADC_INT.o)
                0x00009848                ADC_ISR1
 .text.UART_USB_Start
                0x000098c4       0x2c .\CortexM3\ARM_GCC_473\Debug\GoBee-00_1.a(UART_USB.o)
                0x000098c4                UART_USB_Start
 .text.UART_USB_Init
                0x000098f0       0x50 .\CortexM3\ARM_GCC_473\Debug\GoBee-00_1.a(UART_USB.o)
                0x000098f0                UART_USB_Init
 .text.UART_USB_Enable
                0x00009940       0x78 .\CortexM3\ARM_GCC_473\Debug\GoBee-00_1.a(UART_USB.o)
                0x00009940                UART_USB_Enable
 .text.UART_USB_GetChar
                0x000099b8       0x4c .\CortexM3\ARM_GCC_473\Debug\GoBee-00_1.a(UART_USB.o)
                0x000099b8                UART_USB_GetChar
 .text.UART_USB_PutChar
                0x00009a04       0x38 .\CortexM3\ARM_GCC_473\Debug\GoBee-00_1.a(UART_USB.o)
                0x00009a04                UART_USB_PutChar
 .text.Control_Reg_LED_Write
                0x00009a3c       0x20 .\CortexM3\ARM_GCC_473\Debug\GoBee-00_1.a(Control_Reg_LED.o)
                0x00009a3c                Control_Reg_LED_Write
 .text.EEPROM_Enable
                0x00009a5c        0xc .\CortexM3\ARM_GCC_473\Debug\GoBee-00_1.a(EEPROM.o)
                0x00009a5c                EEPROM_Enable
 .text.EEPROM_Write
                0x00009a68      0x12c .\CortexM3\ARM_GCC_473\Debug\GoBee-00_1.a(EEPROM.o)
                0x00009a68                EEPROM_Write
 .text.AMuxSeq_Start
                0x00009b94       0x18 .\CortexM3\ARM_GCC_473\Debug\GoBee-00_1.a(AMuxSeq.o)
                0x00009b94                AMuxSeq_Start
 .text.isr_CTRL_Start
                0x00009bac       0x24 .\CortexM3\ARM_GCC_473\Debug\GoBee-00_1.a(isr_CTRL.o)
                0x00009bac                isr_CTRL_Start
 .text.isr_CTRL_Interrupt
                0x00009bd0       0x4c .\CortexM3\ARM_GCC_473\Debug\GoBee-00_1.a(isr_CTRL.o)
                0x00009bd0                isr_CTRL_Interrupt
 .text.isr_CTRL_SetVector
                0x00009c1c       0x28 .\CortexM3\ARM_GCC_473\Debug\GoBee-00_1.a(isr_CTRL.o)
                0x00009c1c                isr_CTRL_SetVector
 .text.isr_CTRL_SetPriority
                0x00009c44       0x28 .\CortexM3\ARM_GCC_473\Debug\GoBee-00_1.a(isr_CTRL.o)
                0x00009c44                isr_CTRL_SetPriority
 .text.isr_CTRL_Enable
                0x00009c6c       0x18 .\CortexM3\ARM_GCC_473\Debug\GoBee-00_1.a(isr_CTRL.o)
                0x00009c6c                isr_CTRL_Enable
 .text.isr_CTRL_Disable
                0x00009c84       0x18 .\CortexM3\ARM_GCC_473\Debug\GoBee-00_1.a(isr_CTRL.o)
                0x00009c84                isr_CTRL_Disable
 .text.Status_Reg_BUTTON_Read
                0x00009c9c       0x18 .\CortexM3\ARM_GCC_473\Debug\GoBee-00_1.a(Status_Reg_BUTTON.o)
                0x00009c9c                Status_Reg_BUTTON_Read
 .text.Counter_LED_Init
                0x00009cb4       0xa4 .\CortexM3\ARM_GCC_473\Debug\GoBee-00_1.a(Counter_LED.o)
                0x00009cb4                Counter_LED_Init
 .text.Counter_LED_Enable
                0x00009d58       0x28 .\CortexM3\ARM_GCC_473\Debug\GoBee-00_1.a(Counter_LED.o)
                0x00009d58                Counter_LED_Enable
 .text.Counter_LED_Start
                0x00009d80       0x2c .\CortexM3\ARM_GCC_473\Debug\GoBee-00_1.a(Counter_LED.o)
                0x00009d80                Counter_LED_Start
 .text.Counter_LED_SetInterruptMode
                0x00009dac       0x20 .\CortexM3\ARM_GCC_473\Debug\GoBee-00_1.a(Counter_LED.o)
                0x00009dac                Counter_LED_SetInterruptMode
 .text.Counter_LED_ReadStatusRegister
                0x00009dcc       0x18 .\CortexM3\ARM_GCC_473\Debug\GoBee-00_1.a(Counter_LED.o)
                0x00009dcc                Counter_LED_ReadStatusRegister
 .text.Counter_LED_WriteCounter
                0x00009de4       0x20 .\CortexM3\ARM_GCC_473\Debug\GoBee-00_1.a(Counter_LED.o)
                0x00009de4                Counter_LED_WriteCounter
 .text.Counter_LED_ReadCapture
                0x00009e04       0x18 .\CortexM3\ARM_GCC_473\Debug\GoBee-00_1.a(Counter_LED.o)
                0x00009e04                Counter_LED_ReadCapture
 .text.Counter_LED_WritePeriod
                0x00009e1c       0x20 .\CortexM3\ARM_GCC_473\Debug\GoBee-00_1.a(Counter_LED.o)
                0x00009e1c                Counter_LED_WritePeriod
 .text.Counter_LED_WriteCompare
                0x00009e3c       0x20 .\CortexM3\ARM_GCC_473\Debug\GoBee-00_1.a(Counter_LED.o)
                0x00009e3c                Counter_LED_WriteCompare
 .text.Counter_LED_ClearFIFO
                0x00009e5c       0x1c .\CortexM3\ARM_GCC_473\Debug\GoBee-00_1.a(Counter_LED.o)
                0x00009e5c                Counter_LED_ClearFIFO
 .text.isr_DGYRO_Start
                0x00009e78       0x24 .\CortexM3\ARM_GCC_473\Debug\GoBee-00_1.a(isr_DGYRO.o)
                0x00009e78                isr_DGYRO_Start
 .text.isr_DGYRO_Interrupt
                0x00009e9c        0xc .\CortexM3\ARM_GCC_473\Debug\GoBee-00_1.a(isr_DGYRO.o)
                0x00009e9c                isr_DGYRO_Interrupt
 .text.isr_DGYRO_SetVector
                0x00009ea8       0x28 .\CortexM3\ARM_GCC_473\Debug\GoBee-00_1.a(isr_DGYRO.o)
                0x00009ea8                isr_DGYRO_SetVector
 .text.isr_DGYRO_SetPriority
                0x00009ed0       0x28 .\CortexM3\ARM_GCC_473\Debug\GoBee-00_1.a(isr_DGYRO.o)
                0x00009ed0                isr_DGYRO_SetPriority
 .text.isr_DGYRO_Enable
                0x00009ef8       0x18 .\CortexM3\ARM_GCC_473\Debug\GoBee-00_1.a(isr_DGYRO.o)
                0x00009ef8                isr_DGYRO_Enable
 .text.isr_DGYRO_Disable
                0x00009f10       0x18 .\CortexM3\ARM_GCC_473\Debug\GoBee-00_1.a(isr_DGYRO.o)
                0x00009f10                isr_DGYRO_Disable
 .text.Clock_DGYRO_Start
                0x00009f28       0x44 .\CortexM3\ARM_GCC_473\Debug\GoBee-00_1.a(Clock_DGYRO.o)
                0x00009f28                Clock_DGYRO_Start
 .text.ADC_theACLK_SetDividerRegister
                0x00009f6c      0x1e8 .\CortexM3\ARM_GCC_473\Debug\GoBee-00_1.a(ADC_theACLK.o)
                0x00009f6c                ADC_theACLK_SetDividerRegister
 .text.ADC_theACLK_GetDividerRegister
                0x0000a154       0x18 .\CortexM3\ARM_GCC_473\Debug\GoBee-00_1.a(ADC_theACLK.o)
                0x0000a154                ADC_theACLK_GetDividerRegister
 .text.ADC_theACLK_SetModeRegister
                0x0000a16c       0x3c .\CortexM3\ARM_GCC_473\Debug\GoBee-00_1.a(ADC_theACLK.o)
                0x0000a16c                ADC_theACLK_SetModeRegister
 .text.ADC_theACLK_GetSourceRegister
                0x0000a1a8       0x20 .\CortexM3\ARM_GCC_473\Debug\GoBee-00_1.a(ADC_theACLK.o)
                0x0000a1a8                ADC_theACLK_GetSourceRegister
 .text.ADC_Ext_CP_Clk_SetDividerRegister
                0x0000a1c8      0x1e8 .\CortexM3\ARM_GCC_473\Debug\GoBee-00_1.a(ADC_Ext_CP_Clk.o)
                0x0000a1c8                ADC_Ext_CP_Clk_SetDividerRegister
 .text.ADC_Ext_CP_Clk_GetDividerRegister
                0x0000a3b0       0x18 .\CortexM3\ARM_GCC_473\Debug\GoBee-00_1.a(ADC_Ext_CP_Clk.o)
                0x0000a3b0                ADC_Ext_CP_Clk_GetDividerRegister
 .text.ADC_Ext_CP_Clk_SetModeRegister
                0x0000a3c8       0x3c .\CortexM3\ARM_GCC_473\Debug\GoBee-00_1.a(ADC_Ext_CP_Clk.o)
                0x0000a3c8                ADC_Ext_CP_Clk_SetModeRegister
 .text.ADC_Ext_CP_Clk_GetSourceRegister
                0x0000a404       0x20 .\CortexM3\ARM_GCC_473\Debug\GoBee-00_1.a(ADC_Ext_CP_Clk.o)
                0x0000a404                ADC_Ext_CP_Clk_GetSourceRegister
 .text.UART_USB_IntClock_Start
                0x0000a424       0x44 .\CortexM3\ARM_GCC_473\Debug\GoBee-00_1.a(UART_USB_IntClock.o)
                0x0000a424                UART_USB_IntClock_Start
 .text          0x0000a468       0x28 .\CortexM3\ARM_GCC_473\Debug\GoBee-00_1.a(CyBootAsmGnu.o)
                0x0000a468                CyDelayCycles
                0x0000a47c                CyEnterCriticalSection
                0x0000a484                CyExitCriticalSection
 .text.CyDmacConfigure
                0x0000a490       0x70 .\CortexM3\ARM_GCC_473\Debug\GoBee-00_1.a(CyDmac.o)
                0x0000a490                CyDmacConfigure
 .text.CyDmaChEnable
                0x0000a500       0xbc .\CortexM3\ARM_GCC_473\Debug\GoBee-00_1.a(CyDmac.o)
                0x0000a500                CyDmaChEnable
 .text.CyDmaChDisable
                0x0000a5bc       0x84 .\CortexM3\ARM_GCC_473\Debug\GoBee-00_1.a(CyDmac.o)
                0x0000a5bc                CyDmaChDisable
 .text.CyDmaChPriority
                0x0000a640       0x70 .\CortexM3\ARM_GCC_473\Debug\GoBee-00_1.a(CyDmac.o)
                0x0000a640                CyDmaChPriority
 .text.CyDmaChSetExtendedAddress
                0x0000a6b0       0x88 .\CortexM3\ARM_GCC_473\Debug\GoBee-00_1.a(CyDmac.o)
                0x0000a6b0                CyDmaChSetExtendedAddress
 .text.CyDmaChSetInitialTd
                0x0000a738       0x44 .\CortexM3\ARM_GCC_473\Debug\GoBee-00_1.a(CyDmac.o)
                0x0000a738                CyDmaChSetInitialTd
 .text.CyDmaChSetConfiguration
                0x0000a77c       0xa4 .\CortexM3\ARM_GCC_473\Debug\GoBee-00_1.a(CyDmac.o)
                0x0000a77c                CyDmaChSetConfiguration
 .text.CyDmaTdAllocate
                0x0000a820       0x78 .\CortexM3\ARM_GCC_473\Debug\GoBee-00_1.a(CyDmac.o)
                0x0000a820                CyDmaTdAllocate
 .text.CyDmaTdSetConfiguration
                0x0000a898       0x7c .\CortexM3\ARM_GCC_473\Debug\GoBee-00_1.a(CyDmac.o)
                0x0000a898                CyDmaTdSetConfiguration
 .text.CyDmaTdSetAddress
                0x0000a914       0x68 .\CortexM3\ARM_GCC_473\Debug\GoBee-00_1.a(CyDmac.o)
                0x0000a914                CyDmaTdSetAddress
 .text.CyEEPROM_Start
                0x0000a97c       0x44 .\CortexM3\ARM_GCC_473\Debug\GoBee-00_1.a(CyFlash.o)
                0x0000a97c                CyEEPROM_Start
 .text.CyHalt   0x0000a9c0       0x18 .\CortexM3\ARM_GCC_473\Debug\GoBee-00_1.a(CyLib.o)
                0x0000a9c0                CyHalt
 .text.CySoftwareReset
                0x0000a9d8       0x28 .\CortexM3\ARM_GCC_473\Debug\GoBee-00_1.a(CyLib.o)
                0x0000a9d8                CySoftwareReset
 .text.CyDelay  0x0000aa00       0x48 .\CortexM3\ARM_GCC_473\Debug\GoBee-00_1.a(CyLib.o)
                0x0000aa00                CyDelay
 .text.CyDelayUs
                0x0000aa48       0x28 .\CortexM3\ARM_GCC_473\Debug\GoBee-00_1.a(CyLib.o)
                0x0000aa48                CyDelayUs
 .text.CyIntSetVector
                0x0000aa70       0x60 .\CortexM3\ARM_GCC_473\Debug\GoBee-00_1.a(CyLib.o)
                0x0000aa70                CyIntSetVector
 .text.CyIntSetPriority
                0x0000aad0       0x4c .\CortexM3\ARM_GCC_473\Debug\GoBee-00_1.a(CyLib.o)
                0x0000aad0                CyIntSetPriority
 .text.CySpcStart
                0x0000ab1c       0x58 .\CortexM3\ARM_GCC_473\Debug\GoBee-00_1.a(CySpc.o)
                0x0000ab1c                CySpcStart
 .text.CySpcLoadRow
                0x0000ab74       0xbc .\CortexM3\ARM_GCC_473\Debug\GoBee-00_1.a(CySpc.o)
                0x0000ab74                CySpcLoadRow
 .text.CySpcWriteRow
                0x0000ac30       0xcc .\CortexM3\ARM_GCC_473\Debug\GoBee-00_1.a(CySpc.o)
                0x0000ac30                CySpcWriteRow
 .text.CySpcLock
                0x0000acfc       0x88 .\CortexM3\ARM_GCC_473\Debug\GoBee-00_1.a(CySpc.o)
                0x0000acfc                CySpcLock
 .text.CySpcUnlock
                0x0000ad84       0x68 .\CortexM3\ARM_GCC_473\Debug\GoBee-00_1.a(CySpc.o)
                0x0000ad84                CySpcUnlock
 .text.Control_Reg_BUZ_Write
                0x0000adec       0x20 .\CortexM3\ARM_GCC_473\Debug\GoBee-00_1.a(Control_Reg_BUZ.o)
                0x0000adec                Control_Reg_BUZ_Write
 .text.Control_Reg_MOTOR_Write
                0x0000ae0c       0x20 .\CortexM3\ARM_GCC_473\Debug\GoBee-00_1.a(Control_Reg_MOTOR.o)
                0x0000ae0c                Control_Reg_MOTOR_Write
 .text.Status_Reg_MOTOR_Read
                0x0000ae2c       0x18 .\CortexM3\ARM_GCC_473\Debug\GoBee-00_1.a(Status_Reg_MOTOR.o)
                0x0000ae2c                Status_Reg_MOTOR_Read
 .text.QuadDec_PAN_Init
                0x0000ae44       0x30 .\CortexM3\ARM_GCC_473\Debug\GoBee-00_1.a(QuadDec_PAN.o)
                0x0000ae44                QuadDec_PAN_Init
 .text.QuadDec_PAN_Enable
                0x0000ae74       0x54 .\CortexM3\ARM_GCC_473\Debug\GoBee-00_1.a(QuadDec_PAN.o)
                0x0000ae74                QuadDec_PAN_Enable
 .text.QuadDec_PAN_Start
                0x0000aec8       0x44 .\CortexM3\ARM_GCC_473\Debug\GoBee-00_1.a(QuadDec_PAN.o)
                0x0000aec8                QuadDec_PAN_Start
 .text.QuadDec_PAN_GetCounter
                0x0000af0c       0x54 .\CortexM3\ARM_GCC_473\Debug\GoBee-00_1.a(QuadDec_PAN.o)
                0x0000af0c                QuadDec_PAN_GetCounter
 .text.QuadDec_PAN_GetEvents
                0x0000af60       0x20 .\CortexM3\ARM_GCC_473\Debug\GoBee-00_1.a(QuadDec_PAN.o)
                0x0000af60                QuadDec_PAN_GetEvents
 .text.QuadDec_PAN_SetInterruptMask
                0x0000af80       0x28 .\CortexM3\ARM_GCC_473\Debug\GoBee-00_1.a(QuadDec_PAN.o)
                0x0000af80                QuadDec_PAN_SetInterruptMask
 .text.QuadDec_PAN_ISR
                0x0000afa8       0x80 .\CortexM3\ARM_GCC_473\Debug\GoBee-00_1.a(QuadDec_PAN_INT.o)
                0x0000afa8                QuadDec_PAN_ISR
 .text.QuadDec_PAN_Cnt16_Init
                0x0000b028       0xa0 .\CortexM3\ARM_GCC_473\Debug\GoBee-00_1.a(QuadDec_PAN_Cnt16.o)
                0x0000b028                QuadDec_PAN_Cnt16_Init
 .text.QuadDec_PAN_Cnt16_Enable
                0x0000b0c8       0x28 .\CortexM3\ARM_GCC_473\Debug\GoBee-00_1.a(QuadDec_PAN_Cnt16.o)
                0x0000b0c8                QuadDec_PAN_Cnt16_Enable
 .text.QuadDec_PAN_Cnt16_Start
                0x0000b0f0       0x2c .\CortexM3\ARM_GCC_473\Debug\GoBee-00_1.a(QuadDec_PAN_Cnt16.o)
                0x0000b0f0                QuadDec_PAN_Cnt16_Start
 .text.QuadDec_PAN_Cnt16_SetInterruptMode
                0x0000b11c       0x20 .\CortexM3\ARM_GCC_473\Debug\GoBee-00_1.a(QuadDec_PAN_Cnt16.o)
                0x0000b11c                QuadDec_PAN_Cnt16_SetInterruptMode
 .text.QuadDec_PAN_Cnt16_ReadStatusRegister
                0x0000b13c       0x18 .\CortexM3\ARM_GCC_473\Debug\GoBee-00_1.a(QuadDec_PAN_Cnt16.o)
                0x0000b13c                QuadDec_PAN_Cnt16_ReadStatusRegister
 .text.QuadDec_PAN_Cnt16_WriteCounter
                0x0000b154       0x20 .\CortexM3\ARM_GCC_473\Debug\GoBee-00_1.a(QuadDec_PAN_Cnt16.o)
                0x0000b154                QuadDec_PAN_Cnt16_WriteCounter
 .text.QuadDec_PAN_Cnt16_ReadCounter
                0x0000b174       0x24 .\CortexM3\ARM_GCC_473\Debug\GoBee-00_1.a(QuadDec_PAN_Cnt16.o)
                0x0000b174                QuadDec_PAN_Cnt16_ReadCounter
 .text.QuadDec_PAN_Cnt16_ReadCapture
                0x0000b198       0x18 .\CortexM3\ARM_GCC_473\Debug\GoBee-00_1.a(QuadDec_PAN_Cnt16.o)
                0x0000b198                QuadDec_PAN_Cnt16_ReadCapture
 .text.QuadDec_PAN_Cnt16_WritePeriod
                0x0000b1b0       0x20 .\CortexM3\ARM_GCC_473\Debug\GoBee-00_1.a(QuadDec_PAN_Cnt16.o)
                0x0000b1b0                QuadDec_PAN_Cnt16_WritePeriod
 .text.QuadDec_PAN_Cnt16_WriteCompare
                0x0000b1d0       0x20 .\CortexM3\ARM_GCC_473\Debug\GoBee-00_1.a(QuadDec_PAN_Cnt16.o)
                0x0000b1d0                QuadDec_PAN_Cnt16_WriteCompare
 .text.QuadDec_PAN_Cnt16_ClearFIFO
                0x0000b1f0       0x1c .\CortexM3\ARM_GCC_473\Debug\GoBee-00_1.a(QuadDec_PAN_Cnt16.o)
                0x0000b1f0                QuadDec_PAN_Cnt16_ClearFIFO
 .text.ADC_IRQ_Enable
                0x0000b20c       0x18 .\CortexM3\ARM_GCC_473\Debug\GoBee-00_1.a(ADC_IRQ.o)
                0x0000b20c                ADC_IRQ_Enable
 .text.Bootloadable_Load
                0x0000b224       0x18 .\CortexM3\ARM_GCC_473\Debug\GoBee-00_1.a(Bootloadable.o)
                0x0000b224                Bootloadable_Load
 .text.isr_Ticks_Start
                0x0000b23c       0x24 .\CortexM3\ARM_GCC_473\Debug\GoBee-00_1.a(isr_Ticks.o)
                0x0000b23c                isr_Ticks_Start
 .text.isr_Ticks_Stop
                0x0000b260       0x18 .\CortexM3\ARM_GCC_473\Debug\GoBee-00_1.a(isr_Ticks.o)
                0x0000b260                isr_Ticks_Stop
 .text.isr_Ticks_Interrupt
                0x0000b278       0xb4 .\CortexM3\ARM_GCC_473\Debug\GoBee-00_1.a(isr_Ticks.o)
                0x0000b278                isr_Ticks_Interrupt
 .text.isr_Ticks_SetVector
                0x0000b32c       0x28 .\CortexM3\ARM_GCC_473\Debug\GoBee-00_1.a(isr_Ticks.o)
                0x0000b32c                isr_Ticks_SetVector
 .text.isr_Ticks_SetPriority
                0x0000b354       0x28 .\CortexM3\ARM_GCC_473\Debug\GoBee-00_1.a(isr_Ticks.o)
                0x0000b354                isr_Ticks_SetPriority
 .text.isr_Ticks_Enable
                0x0000b37c       0x18 .\CortexM3\ARM_GCC_473\Debug\GoBee-00_1.a(isr_Ticks.o)
                0x0000b37c                isr_Ticks_Enable
 .text.isr_Ticks_Disable
                0x0000b394       0x18 .\CortexM3\ARM_GCC_473\Debug\GoBee-00_1.a(isr_Ticks.o)
                0x0000b394                isr_Ticks_Disable
 .text.PWM_MOTOR_PAN_Start
                0x0000b3ac       0x2c .\CortexM3\ARM_GCC_473\Debug\GoBee-00_1.a(PWM_MOTOR_PAN.o)
                0x0000b3ac                PWM_MOTOR_PAN_Start
 .text.PWM_MOTOR_PAN_Init
                0x0000b3d8       0xc4 .\CortexM3\ARM_GCC_473\Debug\GoBee-00_1.a(PWM_MOTOR_PAN.o)
                0x0000b3d8                PWM_MOTOR_PAN_Init
 .text.PWM_MOTOR_PAN_Enable
                0x0000b49c       0x28 .\CortexM3\ARM_GCC_473\Debug\GoBee-00_1.a(PWM_MOTOR_PAN.o)
                0x0000b49c                PWM_MOTOR_PAN_Enable
 .text.PWM_MOTOR_PAN_WriteCounter
                0x0000b4c4       0x20 .\CortexM3\ARM_GCC_473\Debug\GoBee-00_1.a(PWM_MOTOR_PAN.o)
                0x0000b4c4                PWM_MOTOR_PAN_WriteCounter
 .text.PWM_MOTOR_PAN_ClearFIFO
                0x0000b4e4       0x1c .\CortexM3\ARM_GCC_473\Debug\GoBee-00_1.a(PWM_MOTOR_PAN.o)
                0x0000b4e4                PWM_MOTOR_PAN_ClearFIFO
 .text.PWM_MOTOR_PAN_WritePeriod
                0x0000b500       0x20 .\CortexM3\ARM_GCC_473\Debug\GoBee-00_1.a(PWM_MOTOR_PAN.o)
                0x0000b500                PWM_MOTOR_PAN_WritePeriod
 .text.PWM_MOTOR_PAN_WriteCompare
                0x0000b520       0x20 .\CortexM3\ARM_GCC_473\Debug\GoBee-00_1.a(PWM_MOTOR_PAN.o)
                0x0000b520                PWM_MOTOR_PAN_WriteCompare
 .text.PWM_MOTOR_PAN_WriteDeadTime
                0x0000b540       0x20 .\CortexM3\ARM_GCC_473\Debug\GoBee-00_1.a(PWM_MOTOR_PAN.o)
                0x0000b540                PWM_MOTOR_PAN_WriteDeadTime
 .text.PWM_MOTOR_PAN_SetInterruptMode
                0x0000b560       0x20 .\CortexM3\ARM_GCC_473\Debug\GoBee-00_1.a(PWM_MOTOR_PAN.o)
                0x0000b560                PWM_MOTOR_PAN_SetInterruptMode
 .text.PWM_MOTOR_PAN_ReadStatusRegister
                0x0000b580       0x20 .\CortexM3\ARM_GCC_473\Debug\GoBee-00_1.a(PWM_MOTOR_PAN.o)
                0x0000b580                PWM_MOTOR_PAN_ReadStatusRegister
 .text.PWM_MOTOR_PAN_ReadCapture
                0x0000b5a0       0x18 .\CortexM3\ARM_GCC_473\Debug\GoBee-00_1.a(PWM_MOTOR_PAN.o)
                0x0000b5a0                PWM_MOTOR_PAN_ReadCapture
 .text.isr_BUTTON_Start
                0x0000b5b8       0x24 .\CortexM3\ARM_GCC_473\Debug\GoBee-00_1.a(isr_BUTTON.o)
                0x0000b5b8                isr_BUTTON_Start
 .text.isr_BUTTON_Interrupt
                0x0000b5dc       0xc8 .\CortexM3\ARM_GCC_473\Debug\GoBee-00_1.a(isr_BUTTON.o)
                0x0000b5dc                isr_BUTTON_Interrupt
 .text.isr_BUTTON_SetVector
                0x0000b6a4       0x28 .\CortexM3\ARM_GCC_473\Debug\GoBee-00_1.a(isr_BUTTON.o)
                0x0000b6a4                isr_BUTTON_SetVector
 .text.isr_BUTTON_SetPriority
                0x0000b6cc       0x28 .\CortexM3\ARM_GCC_473\Debug\GoBee-00_1.a(isr_BUTTON.o)
                0x0000b6cc                isr_BUTTON_SetPriority
 .text.isr_BUTTON_Enable
                0x0000b6f4       0x18 .\CortexM3\ARM_GCC_473\Debug\GoBee-00_1.a(isr_BUTTON.o)
                0x0000b6f4                isr_BUTTON_Enable
 .text.isr_BUTTON_Disable
                0x0000b70c       0x18 .\CortexM3\ARM_GCC_473\Debug\GoBee-00_1.a(isr_BUTTON.o)
                0x0000b70c                isr_BUTTON_Disable
 .text.WaveDAC8_Init
                0x0000b724       0x64 .\CortexM3\ARM_GCC_473\Debug\GoBee-00_1.a(WaveDAC8.o)
                0x0000b724                WaveDAC8_Init
 .text.WaveDAC8_Enable
                0x0000b788       0x44 .\CortexM3\ARM_GCC_473\Debug\GoBee-00_1.a(WaveDAC8.o)
                0x0000b788                WaveDAC8_Enable
 .text.WaveDAC8_Start
                0x0000b7cc       0x2c .\CortexM3\ARM_GCC_473\Debug\GoBee-00_1.a(WaveDAC8.o)
                0x0000b7cc                WaveDAC8_Start
 .text.WaveDAC8_Stop
                0x0000b7f8       0x30 .\CortexM3\ARM_GCC_473\Debug\GoBee-00_1.a(WaveDAC8.o)
                0x0000b7f8                WaveDAC8_Stop
 .text.WaveDAC8_Wave1Setup
                0x0000b828       0x98 .\CortexM3\ARM_GCC_473\Debug\GoBee-00_1.a(WaveDAC8.o)
                0x0000b828                WaveDAC8_Wave1Setup
 .text.WaveDAC8_Wave2Setup
                0x0000b8c0       0x98 .\CortexM3\ARM_GCC_473\Debug\GoBee-00_1.a(WaveDAC8.o)
                0x0000b8c0                WaveDAC8_Wave2Setup
 .text.WaveDAC8_DacClk_Start
                0x0000b958       0x44 .\CortexM3\ARM_GCC_473\Debug\GoBee-00_1.a(WaveDAC8_DacClk.o)
                0x0000b958                WaveDAC8_DacClk_Start
 .text.WaveDAC8_DacClk_Stop
                0x0000b99c       0x44 .\CortexM3\ARM_GCC_473\Debug\GoBee-00_1.a(WaveDAC8_DacClk.o)
                0x0000b99c                WaveDAC8_DacClk_Stop
 .text.WaveDAC8_Wave1_DMA_DmaInitialize
                0x0000b9e0       0x84 .\CortexM3\ARM_GCC_473\Debug\GoBee-00_1.a(WaveDAC8_Wave1_DMA_dma.o)
                0x0000b9e0                WaveDAC8_Wave1_DMA_DmaInitialize
 .text.WaveDAC8_Wave2_DMA_DmaInitialize
                0x0000ba64       0x84 .\CortexM3\ARM_GCC_473\Debug\GoBee-00_1.a(WaveDAC8_Wave2_DMA_dma.o)
                0x0000ba64                WaveDAC8_Wave2_DMA_DmaInitialize
 .text.WaveDAC8_VDAC8_Init
                0x0000bae8       0x50 .\CortexM3\ARM_GCC_473\Debug\GoBee-00_1.a(WaveDAC8_VDAC8.o)
                0x0000bae8                WaveDAC8_VDAC8_Init
 .text.WaveDAC8_VDAC8_Enable
                0x0000bb38       0x44 .\CortexM3\ARM_GCC_473\Debug\GoBee-00_1.a(WaveDAC8_VDAC8.o)
                0x0000bb38                WaveDAC8_VDAC8_Enable
 .text.WaveDAC8_VDAC8_Stop
                0x0000bb7c       0x44 .\CortexM3\ARM_GCC_473\Debug\GoBee-00_1.a(WaveDAC8_VDAC8.o)
                0x0000bb7c                WaveDAC8_VDAC8_Stop
 .text.WaveDAC8_VDAC8_SetSpeed
                0x0000bbc0       0x54 .\CortexM3\ARM_GCC_473\Debug\GoBee-00_1.a(WaveDAC8_VDAC8.o)
                0x0000bbc0                WaveDAC8_VDAC8_SetSpeed
 .text.WaveDAC8_VDAC8_SetRange
                0x0000bc14       0x54 .\CortexM3\ARM_GCC_473\Debug\GoBee-00_1.a(WaveDAC8_VDAC8.o)
                0x0000bc14                WaveDAC8_VDAC8_SetRange
 .text.WaveDAC8_VDAC8_SetValue
                0x0000bc68       0x20 .\CortexM3\ARM_GCC_473\Debug\GoBee-00_1.a(WaveDAC8_VDAC8.o)
                0x0000bc68                WaveDAC8_VDAC8_SetValue
 .text.WaveDAC8_VDAC8_DacTrim
                0x0000bc88       0x44 .\CortexM3\ARM_GCC_473\Debug\GoBee-00_1.a(WaveDAC8_VDAC8.o)
                0x0000bc88                WaveDAC8_VDAC8_DacTrim
 .text.WaveDAC8_BuffAmp_Init
                0x0000bccc       0x10 .\CortexM3\ARM_GCC_473\Debug\GoBee-00_1.a(WaveDAC8_BuffAmp.o)
                0x0000bccc                WaveDAC8_BuffAmp_Init
 .text.WaveDAC8_BuffAmp_Enable
                0x0000bcdc       0x60 .\CortexM3\ARM_GCC_473\Debug\GoBee-00_1.a(WaveDAC8_BuffAmp.o)
                0x0000bcdc                WaveDAC8_BuffAmp_Enable
 .text.WaveDAC8_BuffAmp_SetPower
                0x0000bd3c       0x54 .\CortexM3\ARM_GCC_473\Debug\GoBee-00_1.a(WaveDAC8_BuffAmp.o)
                0x0000bd3c                WaveDAC8_BuffAmp_SetPower
 .text.VDAC8_ANAPOS_SetValue
                0x0000bd90       0x20 .\CortexM3\ARM_GCC_473\Debug\GoBee-00_1.a(VDAC8_ANAPOS.o)
                0x0000bd90                VDAC8_ANAPOS_SetValue
 .text.Control_Reg_WaveDAC8_Write
                0x0000bdb0       0x20 .\CortexM3\ARM_GCC_473\Debug\GoBee-00_1.a(Control_Reg_WaveDAC8.o)
                0x0000bdb0                Control_Reg_WaveDAC8_Write
 .text          0x0000bdd0      0x370 c:/programmi/cypress/psoc creator/3.0/psoc creator/import/gnu_cs/arm/4.7.3/bin/../lib/gcc/arm-none-eabi/4.7.3/armv7-m\libgcc.a(_arm_addsubdf3.o)
                0x0000bdd0                __aeabi_drsub
                0x0000bdd8                __aeabi_dsub
                0x0000bdd8                __subdf3
                0x0000bddc                __aeabi_dadd
                0x0000bddc                __adddf3
                0x0000c054                __floatunsidf
                0x0000c054                __aeabi_ui2d
                0x0000c074                __floatsidf
                0x0000c074                __aeabi_i2d
                0x0000c098                __aeabi_f2d
                0x0000c098                __extendsfdf2
                0x0000c0d4                __floatundidf
                0x0000c0d4                __aeabi_ul2d
                0x0000c0e4                __floatdidf
                0x0000c0e4                __aeabi_l2d
 .text          0x0000c140      0x424 c:/programmi/cypress/psoc creator/3.0/psoc creator/import/gnu_cs/arm/4.7.3/bin/../lib/gcc/arm-none-eabi/4.7.3/armv7-m\libgcc.a(_arm_muldivdf3.o)
                0x0000c140                __aeabi_dmul
                0x0000c140                __muldf3
                0x0000c394                __divdf3
                0x0000c394                __aeabi_ddiv
 .text          0x0000c564      0x110 c:/programmi/cypress/psoc creator/3.0/psoc creator/import/gnu_cs/arm/4.7.3/bin/../lib/gcc/arm-none-eabi/4.7.3/armv7-m\libgcc.a(_arm_cmpdf2.o)
                0x0000c564                __gtdf2
                0x0000c564                __gedf2
                0x0000c56c                __ltdf2
                0x0000c56c                __ledf2
                0x0000c574                __nedf2
                0x0000c574                __eqdf2
                0x0000c574                __cmpdf2
                0x0000c5f0                __aeabi_cdrcmple
                0x0000c600                __aeabi_cdcmpeq
                0x0000c600                __aeabi_cdcmple
                0x0000c610                __aeabi_dcmpeq
                0x0000c624                __aeabi_dcmplt
                0x0000c638                __aeabi_dcmple
                0x0000c64c                __aeabi_dcmpge
                0x0000c660                __aeabi_dcmpgt
 .text          0x0000c674       0xa0 c:/programmi/cypress/psoc creator/3.0/psoc creator/import/gnu_cs/arm/4.7.3/bin/../lib/gcc/arm-none-eabi/4.7.3/armv7-m\libgcc.a(_arm_truncdfsf2.o)
                0x0000c674                __truncdfsf2
                0x0000c674                __aeabi_d2f
 .text          0x0000c714      0x21c c:/programmi/cypress/psoc creator/3.0/psoc creator/import/gnu_cs/arm/4.7.3/bin/../lib/gcc/arm-none-eabi/4.7.3/armv7-m\libgcc.a(_arm_addsubsf3.o)
                0x0000c714                __aeabi_frsub
                0x0000c71c                __subsf3
                0x0000c71c                __aeabi_fsub
                0x0000c720                __aeabi_fadd
                0x0000c720                __addsf3
                0x0000c880                __aeabi_ui2f
                0x0000c880                __floatunsisf
                0x0000c888                __aeabi_i2f
                0x0000c888                __floatsisf
                0x0000c8a4                __aeabi_ul2f
                0x0000c8a4                __floatundisf
                0x0000c8b4                __aeabi_l2f
                0x0000c8b4                __floatdisf
 .text          0x0000c930      0x2a0 c:/programmi/cypress/psoc creator/3.0/psoc creator/import/gnu_cs/arm/4.7.3/bin/../lib/gcc/arm-none-eabi/4.7.3/armv7-m\libgcc.a(_arm_muldivsf3.o)
                0x0000c930                __mulsf3
                0x0000c930                __aeabi_fmul
                0x0000ca98                __aeabi_fdiv
                0x0000ca98                __divsf3
 .text          0x0000cbd0       0xec c:/programmi/cypress/psoc creator/3.0/psoc creator/import/gnu_cs/arm/4.7.3/bin/../lib/gcc/arm-none-eabi/4.7.3/armv7-m\libgcc.a(_arm_cmpsf2.o)
                0x0000cbd0                __gesf2
                0x0000cbd0                __gtsf2
                0x0000cbd8                __lesf2
                0x0000cbd8                __ltsf2
                0x0000cbe0                __nesf2
                0x0000cbe0                __eqsf2
                0x0000cbe0                __cmpsf2
                0x0000cc40                __aeabi_cfrcmple
                0x0000cc48                __aeabi_cfcmpeq
                0x0000cc48                __aeabi_cfcmple
                0x0000cc58                __aeabi_fcmpeq
                0x0000cc6c                __aeabi_fcmplt
                0x0000cc80                __aeabi_fcmple
                0x0000cc94                __aeabi_fcmpge
                0x0000cca8                __aeabi_fcmpgt
 .text          0x0000ccbc       0x4c c:/programmi/cypress/psoc creator/3.0/psoc creator/import/gnu_cs/arm/4.7.3/bin/../lib/gcc/arm-none-eabi/4.7.3/armv7-m\libgcc.a(_arm_fixsfsi.o)
                0x0000ccbc                __aeabi_f2iz
                0x0000ccbc                __fixsfsi
 .text          0x0000cd08       0x40 c:/programmi/cypress/psoc creator/3.0/psoc creator/import/gnu_cs/arm/4.7.3/bin/../lib/gcc/arm-none-eabi/4.7.3/armv7-m\libgcc.a(_arm_fixunssfsi.o)
                0x0000cd08                __fixunssfsi
                0x0000cd08                __aeabi_f2uiz
 .text.__register_exitproc
                0x0000cd48       0xac c:/programmi/cypress/psoc creator/3.0/psoc creator/import/gnu_cs/arm/4.7.3/bin/../lib/gcc/arm-none-eabi/4.7.3/../../../../arm-none-eabi/lib/armv7-m\libg.a(lib_a-__atexit.o)
                0x0000cd48                __register_exitproc
 .text.atof     0x0000cdf4        0x8 c:/programmi/cypress/psoc creator/3.0/psoc creator/import/gnu_cs/arm/4.7.3/bin/../lib/gcc/arm-none-eabi/4.7.3/../../../../arm-none-eabi/lib/armv7-m\libg.a(lib_a-atof.o)
                0x0000cdf4                atof
 .text.atoi     0x0000cdfc        0x8 c:/programmi/cypress/psoc creator/3.0/psoc creator/import/gnu_cs/arm/4.7.3/bin/../lib/gcc/arm-none-eabi/4.7.3/../../../../arm-none-eabi/lib/armv7-m\libg.a(lib_a-atoi.o)
                0x0000cdfc                atoi
 .text.__libc_fini_array
                0x0000ce04       0x50 c:/programmi/cypress/psoc creator/3.0/psoc creator/import/gnu_cs/arm/4.7.3/bin/../lib/gcc/arm-none-eabi/4.7.3/../../../../arm-none-eabi/lib/armv7-m\libg.a(lib_a-fini.o)
                0x0000ce04                __libc_fini_array
 .text.__libc_init_array
                0x0000ce54       0x94 c:/programmi/cypress/psoc creator/3.0/psoc creator/import/gnu_cs/arm/4.7.3/bin/../lib/gcc/arm-none-eabi/4.7.3/../../../../arm-none-eabi/lib/armv7-m\libg.a(lib_a-init.o)
                0x0000ce54                __libc_init_array
 .text.memcpy   0x0000cee8      0x15c c:/programmi/cypress/psoc creator/3.0/psoc creator/import/gnu_cs/arm/4.7.3/bin/../lib/gcc/arm-none-eabi/4.7.3/../../../../arm-none-eabi/lib/armv7-m\libg.a(lib_a-memcpy.o)
                0x0000cee8                memcpy
 .text.memset   0x0000d044      0x12c c:/programmi/cypress/psoc creator/3.0/psoc creator/import/gnu_cs/arm/4.7.3/bin/../lib/gcc/arm-none-eabi/4.7.3/../../../../arm-none-eabi/lib/armv7-m\libg.a(lib_a-memset.o)
                0x0000d044                memset
 .text.printf   0x0000d170       0x2c c:/programmi/cypress/psoc creator/3.0/psoc creator/import/gnu_cs/arm/4.7.3/bin/../lib/gcc/arm-none-eabi/4.7.3/../../../../arm-none-eabi/lib/armv7-m\libg.a(lib_a-printf.o)
                0x0000d170                printf
 .text.putchar  0x0000d19c       0x14 c:/programmi/cypress/psoc creator/3.0/psoc creator/import/gnu_cs/arm/4.7.3/bin/../lib/gcc/arm-none-eabi/4.7.3/../../../../arm-none-eabi/lib/armv7-m\libg.a(lib_a-putchar.o)
                0x0000d19c                putchar
 .text._puts_r  0x0000d1b0       0x68 c:/programmi/cypress/psoc creator/3.0/psoc creator/import/gnu_cs/arm/4.7.3/bin/../lib/gcc/arm-none-eabi/4.7.3/../../../../arm-none-eabi/lib/armv7-m\libg.a(lib_a-puts.o)
                0x0000d1b0                _puts_r
 .text.puts     0x0000d218       0x10 c:/programmi/cypress/psoc creator/3.0/psoc creator/import/gnu_cs/arm/4.7.3/bin/../lib/gcc/arm-none-eabi/4.7.3/../../../../arm-none-eabi/lib/armv7-m\libg.a(lib_a-puts.o)
                0x0000d218                puts
 .text.setvbuf  0x0000d228      0x10c c:/programmi/cypress/psoc creator/3.0/psoc creator/import/gnu_cs/arm/4.7.3/bin/../lib/gcc/arm-none-eabi/4.7.3/../../../../arm-none-eabi/lib/armv7-m\libg.a(lib_a-setvbuf.o)
                0x0000d228                setvbuf
 .text.strcmp   0x0000d334       0x80 c:/programmi/cypress/psoc creator/3.0/psoc creator/import/gnu_cs/arm/4.7.3/bin/../lib/gcc/arm-none-eabi/4.7.3/../../../../arm-none-eabi/lib/armv7-m\libg.a(lib_a-strcmp.o)
                0x0000d334                strcmp
 .text.strcmp_unaligned
                0x0000d3b4      0x15c c:/programmi/cypress/psoc creator/3.0/psoc creator/import/gnu_cs/arm/4.7.3/bin/../lib/gcc/arm-none-eabi/4.7.3/../../../../arm-none-eabi/lib/armv7-m\libg.a(lib_a-strcmp.o)
 .text.strcpy   0x0000d510       0xbc c:/programmi/cypress/psoc creator/3.0/psoc creator/import/gnu_cs/arm/4.7.3/bin/../lib/gcc/arm-none-eabi/4.7.3/../../../../arm-none-eabi/lib/armv7-m\libg.a(lib_a-strcpy.o)
                0x0000d510                strcpy
 .text.strlen   0x0000d5cc       0x60 c:/programmi/cypress/psoc creator/3.0/psoc creator/import/gnu_cs/arm/4.7.3/bin/../lib/gcc/arm-none-eabi/4.7.3/../../../../arm-none-eabi/lib/armv7-m\libg.a(lib_a-strlen.o)
                0x0000d5cc                strlen
 *fill*         0x0000d62c        0x4 00
 .text._strtod_r
                0x0000d630      0xeb0 c:/programmi/cypress/psoc creator/3.0/psoc creator/import/gnu_cs/arm/4.7.3/bin/../lib/gcc/arm-none-eabi/4.7.3/../../../../arm-none-eabi/lib/armv7-m\libg.a(lib_a-strtod.o)
                0x0000d630                _strtod_r
 .text.strtod   0x0000e4e0       0x18 c:/programmi/cypress/psoc creator/3.0/psoc creator/import/gnu_cs/arm/4.7.3/bin/../lib/gcc/arm-none-eabi/4.7.3/../../../../arm-none-eabi/lib/armv7-m\libg.a(lib_a-strtod.o)
                0x0000e4e0                strtod
 .text.strtok   0x0000e4f8       0x14 c:/programmi/cypress/psoc creator/3.0/psoc creator/import/gnu_cs/arm/4.7.3/bin/../lib/gcc/arm-none-eabi/4.7.3/../../../../arm-none-eabi/lib/armv7-m\libg.a(lib_a-strtok.o)
                0x0000e4f8                strtok
 .text.__strtok_r
                0x0000e50c       0x60 c:/programmi/cypress/psoc creator/3.0/psoc creator/import/gnu_cs/arm/4.7.3/bin/../lib/gcc/arm-none-eabi/4.7.3/../../../../arm-none-eabi/lib/armv7-m\libg.a(lib_a-strtok_r.o)
                0x0000e50c                __strtok_r
 .text._strtol_r
                0x0000e56c      0x130 c:/programmi/cypress/psoc creator/3.0/psoc creator/import/gnu_cs/arm/4.7.3/bin/../lib/gcc/arm-none-eabi/4.7.3/../../../../arm-none-eabi/lib/armv7-m\libg.a(lib_a-strtol.o)
                0x0000e56c                _strtol_r
 .text.strtol   0x0000e69c       0x1c c:/programmi/cypress/psoc creator/3.0/psoc creator/import/gnu_cs/arm/4.7.3/bin/../lib/gcc/arm-none-eabi/4.7.3/../../../../arm-none-eabi/lib/armv7-m\libg.a(lib_a-strtol.o)
                0x0000e69c                strtol
 .text._vfprintf_r
                0x0000e6b8     0x1c48 c:/programmi/cypress/psoc creator/3.0/psoc creator/import/gnu_cs/arm/4.7.3/bin/../lib/gcc/arm-none-eabi/4.7.3/../../../../arm-none-eabi/lib/armv7-m\libg.a(lib_a-vfprintf.o)
                0x0000e6b8                _vfprintf_r
 .text.__sbprintf
                0x00010300       0x80 c:/programmi/cypress/psoc creator/3.0/psoc creator/import/gnu_cs/arm/4.7.3/bin/../lib/gcc/arm-none-eabi/4.7.3/../../../../arm-none-eabi/lib/armv7-m\libg.a(lib_a-vfprintf.o)
 .text.__swsetup_r
                0x00010380       0xc4 c:/programmi/cypress/psoc creator/3.0/psoc creator/import/gnu_cs/arm/4.7.3/bin/../lib/gcc/arm-none-eabi/4.7.3/../../../../arm-none-eabi/lib/armv7-m\libg.a(lib_a-wsetup.o)
                0x00010380                __swsetup_r
 .text.startup.register_fini
                0x00010444       0x14 c:/programmi/cypress/psoc creator/3.0/psoc creator/import/gnu_cs/arm/4.7.3/bin/../lib/gcc/arm-none-eabi/4.7.3/../../../../arm-none-eabi/lib/armv7-m\libg.a(lib_a-__call_atexit.o)
 .text.atexit   0x00010458        0xc c:/programmi/cypress/psoc creator/3.0/psoc creator/import/gnu_cs/arm/4.7.3/bin/../lib/gcc/arm-none-eabi/4.7.3/../../../../arm-none-eabi/lib/armv7-m\libg.a(lib_a-atexit.o)
                0x00010458                atexit
 .text.quorem   0x00010464      0x2ec c:/programmi/cypress/psoc creator/3.0/psoc creator/import/gnu_cs/arm/4.7.3/bin/../lib/gcc/arm-none-eabi/4.7.3/../../../../arm-none-eabi/lib/armv7-m\libg.a(lib_a-dtoa.o)
 .text._dtoa_r  0x00010750     0x11f8 c:/programmi/cypress/psoc creator/3.0/psoc creator/import/gnu_cs/arm/4.7.3/bin/../lib/gcc/arm-none-eabi/4.7.3/../../../../arm-none-eabi/lib/armv7-m\libg.a(lib_a-dtoa.o)
                0x00010750                _dtoa_r
 .text._fflush_r
                0x00011948      0x164 c:/programmi/cypress/psoc creator/3.0/psoc creator/import/gnu_cs/arm/4.7.3/bin/../lib/gcc/arm-none-eabi/4.7.3/../../../../arm-none-eabi/lib/armv7-m\libg.a(lib_a-fflush.o)
                0x00011948                _fflush_r
 .text._cleanup_r
                0x00011aac        0xc c:/programmi/cypress/psoc creator/3.0/psoc creator/import/gnu_cs/arm/4.7.3/bin/../lib/gcc/arm-none-eabi/4.7.3/../../../../arm-none-eabi/lib/armv7-m\libg.a(lib_a-findfp.o)
                0x00011aac                _cleanup_r
 .text.std.isra.0
                0x00011ab8       0x50 c:/programmi/cypress/psoc creator/3.0/psoc creator/import/gnu_cs/arm/4.7.3/bin/../lib/gcc/arm-none-eabi/4.7.3/../../../../arm-none-eabi/lib/armv7-m\libg.a(lib_a-findfp.o)
 .text.__sinit  0x00011b08       0x4c c:/programmi/cypress/psoc creator/3.0/psoc creator/import/gnu_cs/arm/4.7.3/bin/../lib/gcc/arm-none-eabi/4.7.3/../../../../arm-none-eabi/lib/armv7-m\libg.a(lib_a-findfp.o)
                0x00011b08                __sinit
 .text.__sfp_lock_acquire
                0x00011b54        0x4 c:/programmi/cypress/psoc creator/3.0/psoc creator/import/gnu_cs/arm/4.7.3/bin/../lib/gcc/arm-none-eabi/4.7.3/../../../../arm-none-eabi/lib/armv7-m\libg.a(lib_a-findfp.o)
                0x00011b54                __sfp_lock_acquire
 .text.__sfp_lock_release
                0x00011b58        0x4 c:/programmi/cypress/psoc creator/3.0/psoc creator/import/gnu_cs/arm/4.7.3/bin/../lib/gcc/arm-none-eabi/4.7.3/../../../../arm-none-eabi/lib/armv7-m\libg.a(lib_a-findfp.o)
                0x00011b58                __sfp_lock_release
 .text._malloc_trim_r
                0x00011b5c       0x98 c:/programmi/cypress/psoc creator/3.0/psoc creator/import/gnu_cs/arm/4.7.3/bin/../lib/gcc/arm-none-eabi/4.7.3/../../../../arm-none-eabi/lib/armv7-m\libg.a(lib_a-freer.o)
                0x00011b5c                _malloc_trim_r
 .text._free_r  0x00011bf4      0x194 c:/programmi/cypress/psoc creator/3.0/psoc creator/import/gnu_cs/arm/4.7.3/bin/../lib/gcc/arm-none-eabi/4.7.3/../../../../arm-none-eabi/lib/armv7-m\libg.a(lib_a-freer.o)
                0x00011bf4                _free_r
 .text.__sfvwrite_r
                0x00011d88      0x314 c:/programmi/cypress/psoc creator/3.0/psoc creator/import/gnu_cs/arm/4.7.3/bin/../lib/gcc/arm-none-eabi/4.7.3/../../../../arm-none-eabi/lib/armv7-m\libg.a(lib_a-fvwrite.o)
                0x00011d88                __sfvwrite_r
 .text._fwalk   0x0001209c       0xb8 c:/programmi/cypress/psoc creator/3.0/psoc creator/import/gnu_cs/arm/4.7.3/bin/../lib/gcc/arm-none-eabi/4.7.3/../../../../arm-none-eabi/lib/armv7-m\libg.a(lib_a-fwalk.o)
                0x0001209c                _fwalk
 .text.rshift   0x00012154      0x148 c:/programmi/cypress/psoc creator/3.0/psoc creator/import/gnu_cs/arm/4.7.3/bin/../lib/gcc/arm-none-eabi/4.7.3/../../../../arm-none-eabi/lib/armv7-m\libg.a(lib_a-gdtoa-gethex.o)
 .text.__hexdig_init
                0x0001229c       0x50 c:/programmi/cypress/psoc creator/3.0/psoc creator/import/gnu_cs/arm/4.7.3/bin/../lib/gcc/arm-none-eabi/4.7.3/../../../../arm-none-eabi/lib/armv7-m\libg.a(lib_a-gdtoa-gethex.o)
                0x0001229c                __hexdig_init
 .text.__gethex
                0x000122ec      0x588 c:/programmi/cypress/psoc creator/3.0/psoc creator/import/gnu_cs/arm/4.7.3/bin/../lib/gcc/arm-none-eabi/4.7.3/../../../../arm-none-eabi/lib/armv7-m\libg.a(lib_a-gdtoa-gethex.o)
                0x000122ec                __gethex
 .text.__hexnan
                0x00012874      0x2f0 c:/programmi/cypress/psoc creator/3.0/psoc creator/import/gnu_cs/arm/4.7.3/bin/../lib/gcc/arm-none-eabi/4.7.3/../../../../arm-none-eabi/lib/armv7-m\libg.a(lib_a-gdtoa-hexnan.o)
                0x00012874                __hexnan
 .text.__locale_charset
                0x00012b64        0xc c:/programmi/cypress/psoc creator/3.0/psoc creator/import/gnu_cs/arm/4.7.3/bin/../lib/gcc/arm-none-eabi/4.7.3/../../../../arm-none-eabi/lib/armv7-m\libg.a(lib_a-locale.o)
                0x00012b64                __locale_charset
 .text.__locale_mb_cur_max
                0x00012b70        0xc c:/programmi/cypress/psoc creator/3.0/psoc creator/import/gnu_cs/arm/4.7.3/bin/../lib/gcc/arm-none-eabi/4.7.3/../../../../arm-none-eabi/lib/armv7-m\libg.a(lib_a-locale.o)
                0x00012b70                __locale_mb_cur_max
 .text._localeconv_r
                0x00012b7c        0xc c:/programmi/cypress/psoc creator/3.0/psoc creator/import/gnu_cs/arm/4.7.3/bin/../lib/gcc/arm-none-eabi/4.7.3/../../../../arm-none-eabi/lib/armv7-m\libg.a(lib_a-locale.o)
                0x00012b7c                _localeconv_r
 .text.__smakebuf_r
                0x00012b88       0xe8 c:/programmi/cypress/psoc creator/3.0/psoc creator/import/gnu_cs/arm/4.7.3/bin/../lib/gcc/arm-none-eabi/4.7.3/../../../../arm-none-eabi/lib/armv7-m\libg.a(lib_a-makebuf.o)
                0x00012b88                __smakebuf_r
 .text.malloc   0x00012c70       0x10 c:/programmi/cypress/psoc creator/3.0/psoc creator/import/gnu_cs/arm/4.7.3/bin/../lib/gcc/arm-none-eabi/4.7.3/../../../../arm-none-eabi/lib/armv7-m\libg.a(lib_a-malloc.o)
                0x00012c70                malloc
 .text._malloc_r
                0x00012c80      0x530 c:/programmi/cypress/psoc creator/3.0/psoc creator/import/gnu_cs/arm/4.7.3/bin/../lib/gcc/arm-none-eabi/4.7.3/../../../../arm-none-eabi/lib/armv7-m\libg.a(lib_a-mallocr.o)
                0x00012c80                _malloc_r
 .text.memchr   0x000131b0      0x140 c:/programmi/cypress/psoc creator/3.0/psoc creator/import/gnu_cs/arm/4.7.3/bin/../lib/gcc/arm-none-eabi/4.7.3/../../../../arm-none-eabi/lib/armv7-m\libg.a(lib_a-memchr.o)
                0x000131b0                memchr
 .text.memmove  0x000132f0      0x1b0 c:/programmi/cypress/psoc creator/3.0/psoc creator/import/gnu_cs/arm/4.7.3/bin/../lib/gcc/arm-none-eabi/4.7.3/../../../../arm-none-eabi/lib/armv7-m\libg.a(lib_a-memmove.o)
                0x000132f0                memmove
 .text.__malloc_lock
                0x000134a0        0x4 c:/programmi/cypress/psoc creator/3.0/psoc creator/import/gnu_cs/arm/4.7.3/bin/../lib/gcc/arm-none-eabi/4.7.3/../../../../arm-none-eabi/lib/armv7-m\libg.a(lib_a-mlock.o)
                0x000134a0                __malloc_lock
 .text.__malloc_unlock
                0x000134a4        0x4 c:/programmi/cypress/psoc creator/3.0/psoc creator/import/gnu_cs/arm/4.7.3/bin/../lib/gcc/arm-none-eabi/4.7.3/../../../../arm-none-eabi/lib/armv7-m\libg.a(lib_a-mlock.o)
                0x000134a4                __malloc_unlock
 .text._Balloc  0x000134a8       0x4c c:/programmi/cypress/psoc creator/3.0/psoc creator/import/gnu_cs/arm/4.7.3/bin/../lib/gcc/arm-none-eabi/4.7.3/../../../../arm-none-eabi/lib/armv7-m\libg.a(lib_a-mprec.o)
                0x000134a8                _Balloc
 .text._Bfree   0x000134f4       0x14 c:/programmi/cypress/psoc creator/3.0/psoc creator/import/gnu_cs/arm/4.7.3/bin/../lib/gcc/arm-none-eabi/4.7.3/../../../../arm-none-eabi/lib/armv7-m\libg.a(lib_a-mprec.o)
                0x000134f4                _Bfree
 .text.__multadd
                0x00013508       0xfc c:/programmi/cypress/psoc creator/3.0/psoc creator/import/gnu_cs/arm/4.7.3/bin/../lib/gcc/arm-none-eabi/4.7.3/../../../../arm-none-eabi/lib/armv7-m\libg.a(lib_a-mprec.o)
                0x00013508                __multadd
 .text.__s2b    0x00013604      0x140 c:/programmi/cypress/psoc creator/3.0/psoc creator/import/gnu_cs/arm/4.7.3/bin/../lib/gcc/arm-none-eabi/4.7.3/../../../../arm-none-eabi/lib/armv7-m\libg.a(lib_a-mprec.o)
                0x00013604                __s2b
 .text.__hi0bits
                0x00013744       0x3c c:/programmi/cypress/psoc creator/3.0/psoc creator/import/gnu_cs/arm/4.7.3/bin/../lib/gcc/arm-none-eabi/4.7.3/../../../../arm-none-eabi/lib/armv7-m\libg.a(lib_a-mprec.o)
                0x00013744                __hi0bits
 .text.__lo0bits
                0x00013780       0x5c c:/programmi/cypress/psoc creator/3.0/psoc creator/import/gnu_cs/arm/4.7.3/bin/../lib/gcc/arm-none-eabi/4.7.3/../../../../arm-none-eabi/lib/armv7-m\libg.a(lib_a-mprec.o)
                0x00013780                __lo0bits
 .text.__i2b    0x000137dc       0x14 c:/programmi/cypress/psoc creator/3.0/psoc creator/import/gnu_cs/arm/4.7.3/bin/../lib/gcc/arm-none-eabi/4.7.3/../../../../arm-none-eabi/lib/armv7-m\libg.a(lib_a-mprec.o)
                0x000137dc                __i2b
 .text.__multiply
                0x000137f0      0x2d0 c:/programmi/cypress/psoc creator/3.0/psoc creator/import/gnu_cs/arm/4.7.3/bin/../lib/gcc/arm-none-eabi/4.7.3/../../../../arm-none-eabi/lib/armv7-m\libg.a(lib_a-mprec.o)
                0x000137f0                __multiply
 .text.__pow5mult
                0x00013ac0       0x94 c:/programmi/cypress/psoc creator/3.0/psoc creator/import/gnu_cs/arm/4.7.3/bin/../lib/gcc/arm-none-eabi/4.7.3/../../../../arm-none-eabi/lib/armv7-m\libg.a(lib_a-mprec.o)
                0x00013ac0                __pow5mult
 .text.__lshift
                0x00013b54      0x16c c:/programmi/cypress/psoc creator/3.0/psoc creator/import/gnu_cs/arm/4.7.3/bin/../lib/gcc/arm-none-eabi/4.7.3/../../../../arm-none-eabi/lib/armv7-m\libg.a(lib_a-mprec.o)
                0x00013b54                __lshift
 .text.__mcmp   0x00013cc0       0x5c c:/programmi/cypress/psoc creator/3.0/psoc creator/import/gnu_cs/arm/4.7.3/bin/../lib/gcc/arm-none-eabi/4.7.3/../../../../arm-none-eabi/lib/armv7-m\libg.a(lib_a-mprec.o)
                0x00013cc0                __mcmp
 .text.__mdiff  0x00013d1c      0x218 c:/programmi/cypress/psoc creator/3.0/psoc creator/import/gnu_cs/arm/4.7.3/bin/../lib/gcc/arm-none-eabi/4.7.3/../../../../arm-none-eabi/lib/armv7-m\libg.a(lib_a-mprec.o)
                0x00013d1c                __mdiff
 .text.__ulp    0x00013f34       0x44 c:/programmi/cypress/psoc creator/3.0/psoc creator/import/gnu_cs/arm/4.7.3/bin/../lib/gcc/arm-none-eabi/4.7.3/../../../../arm-none-eabi/lib/armv7-m\libg.a(lib_a-mprec.o)
                0x00013f34                __ulp
 .text.__b2d    0x00013f78       0xbc c:/programmi/cypress/psoc creator/3.0/psoc creator/import/gnu_cs/arm/4.7.3/bin/../lib/gcc/arm-none-eabi/4.7.3/../../../../arm-none-eabi/lib/armv7-m\libg.a(lib_a-mprec.o)
                0x00013f78                __b2d
 .text.__d2b    0x00014034       0xc0 c:/programmi/cypress/psoc creator/3.0/psoc creator/import/gnu_cs/arm/4.7.3/bin/../lib/gcc/arm-none-eabi/4.7.3/../../../../arm-none-eabi/lib/armv7-m\libg.a(lib_a-mprec.o)
                0x00014034                __d2b
 .text.__ratio  0x000140f4       0x54 c:/programmi/cypress/psoc creator/3.0/psoc creator/import/gnu_cs/arm/4.7.3/bin/../lib/gcc/arm-none-eabi/4.7.3/../../../../arm-none-eabi/lib/armv7-m\libg.a(lib_a-mprec.o)
                0x000140f4                __ratio
 .text.__copybits
                0x00014148       0xa0 c:/programmi/cypress/psoc creator/3.0/psoc creator/import/gnu_cs/arm/4.7.3/bin/../lib/gcc/arm-none-eabi/4.7.3/../../../../arm-none-eabi/lib/armv7-m\libg.a(lib_a-mprec.o)
                0x00014148                __copybits
 .text.__any_on
                0x000141e8       0x74 c:/programmi/cypress/psoc creator/3.0/psoc creator/import/gnu_cs/arm/4.7.3/bin/../lib/gcc/arm-none-eabi/4.7.3/../../../../arm-none-eabi/lib/armv7-m\libg.a(lib_a-mprec.o)
                0x000141e8                __any_on
 .text._putc_r  0x0001425c       0x60 c:/programmi/cypress/psoc creator/3.0/psoc creator/import/gnu_cs/arm/4.7.3/bin/../lib/gcc/arm-none-eabi/4.7.3/../../../../arm-none-eabi/lib/armv7-m\libg.a(lib_a-putc.o)
                0x0001425c                _putc_r
 .text._realloc_r
                0x000142bc      0x3ec c:/programmi/cypress/psoc creator/3.0/psoc creator/import/gnu_cs/arm/4.7.3/bin/../lib/gcc/arm-none-eabi/4.7.3/../../../../arm-none-eabi/lib/armv7-m\libg.a(lib_a-reallocr.o)
                0x000142bc                _realloc_r
 .text.__fpclassifyd
                0x000146a8       0x68 c:/programmi/cypress/psoc creator/3.0/psoc creator/import/gnu_cs/arm/4.7.3/bin/../lib/gcc/arm-none-eabi/4.7.3/../../../../arm-none-eabi/lib/armv7-m\libg.a(lib_a-s_fpclassify.o)
                0x000146a8                __fpclassifyd
 .text._sbrk_r  0x00014710       0x24 c:/programmi/cypress/psoc creator/3.0/psoc creator/import/gnu_cs/arm/4.7.3/bin/../lib/gcc/arm-none-eabi/4.7.3/../../../../arm-none-eabi/lib/armv7-m\libg.a(lib_a-sbrkr.o)
                0x00014710                _sbrk_r
 .text.__sread  0x00014734       0x24 c:/programmi/cypress/psoc creator/3.0/psoc creator/import/gnu_cs/arm/4.7.3/bin/../lib/gcc/arm-none-eabi/4.7.3/../../../../arm-none-eabi/lib/armv7-m\libg.a(lib_a-stdio.o)
                0x00014734                __sread
 .text.__swrite
                0x00014758       0x44 c:/programmi/cypress/psoc creator/3.0/psoc creator/import/gnu_cs/arm/4.7.3/bin/../lib/gcc/arm-none-eabi/4.7.3/../../../../arm-none-eabi/lib/armv7-m\libg.a(lib_a-stdio.o)
                0x00014758                __swrite
 .text.__sseek  0x0001479c       0x24 c:/programmi/cypress/psoc creator/3.0/psoc creator/import/gnu_cs/arm/4.7.3/bin/../lib/gcc/arm-none-eabi/4.7.3/../../../../arm-none-eabi/lib/armv7-m\libg.a(lib_a-stdio.o)
                0x0001479c                __sseek
 .text.__sclose
                0x000147c0        0x8 c:/programmi/cypress/psoc creator/3.0/psoc creator/import/gnu_cs/arm/4.7.3/bin/../lib/gcc/arm-none-eabi/4.7.3/../../../../arm-none-eabi/lib/armv7-m\libg.a(lib_a-stdio.o)
                0x000147c0                __sclose
 .text.strncmp  0x000147c8      0x120 c:/programmi/cypress/psoc creator/3.0/psoc creator/import/gnu_cs/arm/4.7.3/bin/../lib/gcc/arm-none-eabi/4.7.3/../../../../arm-none-eabi/lib/armv7-m\libg.a(lib_a-strncmp.o)
                0x000147c8                strncmp
 .text.__sprint_r
                0x000148e8       0xc0 c:/programmi/cypress/psoc creator/3.0/psoc creator/import/gnu_cs/arm/4.7.3/bin/../lib/gcc/arm-none-eabi/4.7.3/../../../../arm-none-eabi/lib/armv7-m\libg.a(lib_a-vfiprintf.o)
                0x000148e8                __sprint_r
 .text.__swbuf_r
                0x000149a8       0xbc c:/programmi/cypress/psoc creator/3.0/psoc creator/import/gnu_cs/arm/4.7.3/bin/../lib/gcc/arm-none-eabi/4.7.3/../../../../arm-none-eabi/lib/armv7-m\libg.a(lib_a-wbuf.o)
                0x000149a8                __swbuf_r
 .text._write_r
                0x00014a64       0x28 c:/programmi/cypress/psoc creator/3.0/psoc creator/import/gnu_cs/arm/4.7.3/bin/../lib/gcc/arm-none-eabi/4.7.3/../../../../arm-none-eabi/lib/armv7-m\libg.a(lib_a-writer.o)
                0x00014a64                _write_r
 .text._calloc_r
                0x00014a8c       0x60 c:/programmi/cypress/psoc creator/3.0/psoc creator/import/gnu_cs/arm/4.7.3/bin/../lib/gcc/arm-none-eabi/4.7.3/../../../../arm-none-eabi/lib/armv7-m\libg.a(lib_a-callocr.o)
                0x00014a8c                _calloc_r
 .text._close_r
                0x00014aec       0x24 c:/programmi/cypress/psoc creator/3.0/psoc creator/import/gnu_cs/arm/4.7.3/bin/../lib/gcc/arm-none-eabi/4.7.3/../../../../arm-none-eabi/lib/armv7-m\libg.a(lib_a-closer.o)
                0x00014aec                _close_r
 .text._fclose_r
                0x00014b10       0x94 c:/programmi/cypress/psoc creator/3.0/psoc creator/import/gnu_cs/arm/4.7.3/bin/../lib/gcc/arm-none-eabi/4.7.3/../../../../arm-none-eabi/lib/armv7-m\libg.a(lib_a-fclose.o)
                0x00014b10                _fclose_r
 .text.fclose   0x00014ba4       0x10 c:/programmi/cypress/psoc creator/3.0/psoc creator/import/gnu_cs/arm/4.7.3/bin/../lib/gcc/arm-none-eabi/4.7.3/../../../../arm-none-eabi/lib/armv7-m\libg.a(lib_a-fclose.o)
                0x00014ba4                fclose
 .text._fputwc_r
                0x00014bb4      0x1b0 c:/programmi/cypress/psoc creator/3.0/psoc creator/import/gnu_cs/arm/4.7.3/bin/../lib/gcc/arm-none-eabi/4.7.3/../../../../arm-none-eabi/lib/armv7-m\libg.a(lib_a-fputwc.o)
                0x00014bb4                _fputwc_r
 .text._fstat_r
                0x00014d64       0x28 c:/programmi/cypress/psoc creator/3.0/psoc creator/import/gnu_cs/arm/4.7.3/bin/../lib/gcc/arm-none-eabi/4.7.3/../../../../arm-none-eabi/lib/armv7-m\libg.a(lib_a-fstatr.o)
                0x00014d64                _fstat_r
 .text._isatty_r
                0x00014d8c       0x24 c:/programmi/cypress/psoc creator/3.0/psoc creator/import/gnu_cs/arm/4.7.3/bin/../lib/gcc/arm-none-eabi/4.7.3/../../../../arm-none-eabi/lib/armv7-m\libg.a(lib_a-isattyr.o)
                0x00014d8c                _isatty_r
 .text._lseek_r
                0x00014db0       0x28 c:/programmi/cypress/psoc creator/3.0/psoc creator/import/gnu_cs/arm/4.7.3/bin/../lib/gcc/arm-none-eabi/4.7.3/../../../../arm-none-eabi/lib/armv7-m\libg.a(lib_a-lseekr.o)
                0x00014db0                _lseek_r
 .text._read_r  0x00014dd8       0x28 c:/programmi/cypress/psoc creator/3.0/psoc creator/import/gnu_cs/arm/4.7.3/bin/../lib/gcc/arm-none-eabi/4.7.3/../../../../arm-none-eabi/lib/armv7-m\libg.a(lib_a-readr.o)
                0x00014dd8                _read_r
 .text._wcrtomb_r
                0x00014e00       0x50 c:/programmi/cypress/psoc creator/3.0/psoc creator/import/gnu_cs/arm/4.7.3/bin/../lib/gcc/arm-none-eabi/4.7.3/../../../../arm-none-eabi/lib/armv7-m\libg.a(lib_a-wcrtomb.o)
                0x00014e00                _wcrtomb_r
 .text.__ascii_wctomb
                0x00014e50       0x1c c:/programmi/cypress/psoc creator/3.0/psoc creator/import/gnu_cs/arm/4.7.3/bin/../lib/gcc/arm-none-eabi/4.7.3/../../../../arm-none-eabi/lib/armv7-m\libg.a(lib_a-wctomb_r.o)
                0x00014e50                __ascii_wctomb
 .text          0x00014e6c       0x50 c:/programmi/cypress/psoc creator/3.0/psoc creator/import/gnu_cs/arm/4.7.3/bin/../lib/gcc/arm-none-eabi/4.7.3/armv7-m\libgcc.a(_arm_fixdfsi.o)
                0x00014e6c                __aeabi_d2iz
                0x00014e6c                __fixdfsi
 .text          0x00014ebc       0x40 c:/programmi/cypress/psoc creator/3.0/psoc creator/import/gnu_cs/arm/4.7.3/bin/../lib/gcc/arm-none-eabi/4.7.3/armv7-m\libgcc.a(_arm_fixunsdfsi.o)
                0x00014ebc                __aeabi_d2uiz
                0x00014ebc                __fixunsdfsi
 .text          0x00014efc       0x2c c:/programmi/cypress/psoc creator/3.0/psoc creator/import/gnu_cs/arm/4.7.3/bin/../lib/gcc/arm-none-eabi/4.7.3/armv7-m\libgcc.a(_aeabi_uldivmod.o)
                0x00014efc                __aeabi_uldivmod
 .text          0x00014f28       0x60 c:/programmi/cypress/psoc creator/3.0/psoc creator/import/gnu_cs/arm/4.7.3/bin/../lib/gcc/arm-none-eabi/4.7.3/armv7-m\libgcc.a(bpabi.o)
                0x00014f28                __gnu_ldivmod_helper
                0x00014f58                __gnu_uldivmod_helper
 .text          0x00014f88        0x4 c:/programmi/cypress/psoc creator/3.0/psoc creator/import/gnu_cs/arm/4.7.3/bin/../lib/gcc/arm-none-eabi/4.7.3/armv7-m\libgcc.a(_dvmd_tls.o)
                0x00014f88                __aeabi_idiv0
                0x00014f88                __aeabi_ldiv0
 .text          0x00014f8c      0x2bc c:/programmi/cypress/psoc creator/3.0/psoc creator/import/gnu_cs/arm/4.7.3/bin/../lib/gcc/arm-none-eabi/4.7.3/armv7-m\libgcc.a(_divdi3.o)
                0x00014f8c                __divdi3
 .text          0x00015248      0x28c c:/programmi/cypress/psoc creator/3.0/psoc creator/import/gnu_cs/arm/4.7.3/bin/../lib/gcc/arm-none-eabi/4.7.3/armv7-m\libgcc.a(_udivdi3.o)
                0x00015248                __udivdi3
 .text._sbrk    0x000154d4       0x34 c:/programmi/cypress/psoc creator/3.0/psoc creator/import/gnu_cs/arm/4.7.3/bin/../lib/gcc/arm-none-eabi/4.7.3/../../../../arm-none-eabi/lib/armv7-m\libnosys.a(sbrk.o)
                0x000154d4                _sbrk
 *(.plt)
 *(.gnu.warning)
 *(.glue_7t)
 .glue_7t       0x00000000        0x0 linker stubs
 *(.glue_7)
 .glue_7        0x00000000        0x0 linker stubs
 *(.vfp11_veneer)
 .vfp11_veneer  0x00000000        0x0 linker stubs
 *(.bootloader)
 *(.ARM.extab* .gnu.linkonce.armextab.*)
 *(.gcc_except_table)

.v4_bx          0x00015508        0x0
 .v4_bx         0x00000000        0x0 linker stubs

.iplt           0x00015508        0x0
 .iplt          0x00000000        0x0 c:/programmi/cypress/psoc creator/3.0/psoc creator/import/gnu_cs/arm/4.7.3/bin/../lib/gcc/arm-none-eabi/4.7.3/armv7-m/crtbegin.o

.eh_frame_hdr
 *(.eh_frame_hdr)

.eh_frame       0x00015508        0x4
 *(.eh_frame)
 .eh_frame      0x00015508        0x0 c:/programmi/cypress/psoc creator/3.0/psoc creator/import/gnu_cs/arm/4.7.3/bin/../lib/gcc/arm-none-eabi/4.7.3/armv7-m/crtbegin.o
 .eh_frame      0x00015508        0x4 c:/programmi/cypress/psoc creator/3.0/psoc creator/import/gnu_cs/arm/4.7.3/bin/../lib/gcc/arm-none-eabi/4.7.3/armv7-m/crtend.o
                0x0001550c                PROVIDE (__exidx_start, .)

.ARM.exidx      0x0001550c        0x8
 *(.ARM.exidx* .gnu.linkonce.armexidx.*)
 .ARM.exidx     0x0001550c        0x8 c:/programmi/cypress/psoc creator/3.0/psoc creator/import/gnu_cs/arm/4.7.3/bin/../lib/gcc/arm-none-eabi/4.7.3/armv7-m\libgcc.a(_divdi3.o)
 .ARM.exidx     0x00015514        0x0 c:/programmi/cypress/psoc creator/3.0/psoc creator/import/gnu_cs/arm/4.7.3/bin/../lib/gcc/arm-none-eabi/4.7.3/armv7-m\libgcc.a(_udivdi3.o)
                                  0x8 (size before relaxing)
                0x00015514                __exidx_end = .

.rodata         0x00015518     0x42c8
 *(.rodata .rodata.* .gnu.linkonce.r.*)
 .rodata        0x00015518       0xe0 .\CortexM3\ARM_GCC_473\Debug\main.o
 .rodata        0x000155f8     0x210c .\CortexM3\ARM_GCC_473\Debug\console.o
 .rodata        0x00017704      0x358 .\CortexM3\ARM_GCC_473\Debug\gobeelib.o
 .rodata        0x00017a5c       0x50 .\CortexM3\ARM_GCC_473\Debug\GoBee-00_1.a(cyfitter_cfg_1.o)
 .rodata        0x00017aac        0x8 .\CortexM3\ARM_GCC_473\Debug\GoBee-00_1.a(isr_Ticks.o)
 .rodata        0x00017ab4     0x1a10 .\CortexM3\ARM_GCC_473\Debug\GoBee-00_1.a(WaveDAC8.o)
                0x00017ab4                WaveDAC8_wave1
                0x000187bc                WaveDAC8_wave2
 .rodata._ctype_
                0x000194c4      0x104 c:/programmi/cypress/psoc creator/3.0/psoc creator/import/gnu_cs/arm/4.7.3/bin/../lib/gcc/arm-none-eabi/4.7.3/../../../../arm-none-eabi/lib/armv7-m\libg.a(lib_a-ctype_.o)
                0x000194c4                _ctype_
 .rodata.str1.4
                0x000195c8        0x2 c:/programmi/cypress/psoc creator/3.0/psoc creator/import/gnu_cs/arm/4.7.3/bin/../lib/gcc/arm-none-eabi/4.7.3/../../../../arm-none-eabi/lib/armv7-m\libg.a(lib_a-impure.o)
                                  0x4 (size before relaxing)
 *fill*         0x000195ca        0x2 00
 .rodata._global_impure_ptr
                0x000195cc        0x4 c:/programmi/cypress/psoc creator/3.0/psoc creator/import/gnu_cs/arm/4.7.3/bin/../lib/gcc/arm-none-eabi/4.7.3/../../../../arm-none-eabi/lib/armv7-m\libg.a(lib_a-impure.o)
                0x000195cc                _global_impure_ptr
 .rodata.str1.4
                0x000195d0        0x2 c:/programmi/cypress/psoc creator/3.0/psoc creator/import/gnu_cs/arm/4.7.3/bin/../lib/gcc/arm-none-eabi/4.7.3/../../../../arm-none-eabi/lib/armv7-m\libg.a(lib_a-puts.o)
                                  0x4 (size before relaxing)
 *fill*         0x000195d2        0x2 00
 .rodata.str1.4
                0x000195d4        0xf c:/programmi/cypress/psoc creator/3.0/psoc creator/import/gnu_cs/arm/4.7.3/bin/../lib/gcc/arm-none-eabi/4.7.3/../../../../arm-none-eabi/lib/armv7-m\libg.a(lib_a-strtod.o)
                                 0x10 (size before relaxing)
 *fill*         0x000195e3        0x5 00
 .rodata.tinytens
                0x000195e8       0x28 c:/programmi/cypress/psoc creator/3.0/psoc creator/import/gnu_cs/arm/4.7.3/bin/../lib/gcc/arm-none-eabi/4.7.3/../../../../arm-none-eabi/lib/armv7-m\libg.a(lib_a-strtod.o)
 .rodata.blanks.6735
                0x00019610       0x10 c:/programmi/cypress/psoc creator/3.0/psoc creator/import/gnu_cs/arm/4.7.3/bin/../lib/gcc/arm-none-eabi/4.7.3/../../../../arm-none-eabi/lib/armv7-m\libg.a(lib_a-vfprintf.o)
 .rodata.str1.4
                0x00019620       0x42 c:/programmi/cypress/psoc creator/3.0/psoc creator/import/gnu_cs/arm/4.7.3/bin/../lib/gcc/arm-none-eabi/4.7.3/../../../../arm-none-eabi/lib/armv7-m\libg.a(lib_a-vfprintf.o)
                                 0x44 (size before relaxing)
 *fill*         0x00019662        0x2 00
 .rodata.zeroes.6736
                0x00019664       0x10 c:/programmi/cypress/psoc creator/3.0/psoc creator/import/gnu_cs/arm/4.7.3/bin/../lib/gcc/arm-none-eabi/4.7.3/../../../../arm-none-eabi/lib/armv7-m\libg.a(lib_a-vfprintf.o)
 .rodata.str1.4
                0x00019674       0x10 c:/programmi/cypress/psoc creator/3.0/psoc creator/import/gnu_cs/arm/4.7.3/bin/../lib/gcc/arm-none-eabi/4.7.3/../../../../arm-none-eabi/lib/armv7-m\libg.a(lib_a-dtoa.o)
                                 0x14 (size before relaxing)
 .rodata.str1.4
                0x00019684       0x1b c:/programmi/cypress/psoc creator/3.0/psoc creator/import/gnu_cs/arm/4.7.3/bin/../lib/gcc/arm-none-eabi/4.7.3/../../../../arm-none-eabi/lib/armv7-m\libg.a(lib_a-gdtoa-gethex.o)
                                 0x1c (size before relaxing)
 *fill*         0x0001969f        0x1 00
 .rodata.str1.4
                0x000196a0        0xc c:/programmi/cypress/psoc creator/3.0/psoc creator/import/gnu_cs/arm/4.7.3/bin/../lib/gcc/arm-none-eabi/4.7.3/../../../../arm-none-eabi/lib/armv7-m\libg.a(lib_a-locale.o)
                                 0x14 (size before relaxing)
 .rodata.p05.5242
                0x000196ac        0xc c:/programmi/cypress/psoc creator/3.0/psoc creator/import/gnu_cs/arm/4.7.3/bin/../lib/gcc/arm-none-eabi/4.7.3/../../../../arm-none-eabi/lib/armv7-m\libg.a(lib_a-mprec.o)
 .rodata.__mprec_tens
                0x000196b8       0xc8 c:/programmi/cypress/psoc creator/3.0/psoc creator/import/gnu_cs/arm/4.7.3/bin/../lib/gcc/arm-none-eabi/4.7.3/../../../../arm-none-eabi/lib/armv7-m\libg.a(lib_a-mprec.o)
                0x000196b8                __mprec_tens
 .rodata.__mprec_bigtens
                0x00019780       0x28 c:/programmi/cypress/psoc creator/3.0/psoc creator/import/gnu_cs/arm/4.7.3/bin/../lib/gcc/arm-none-eabi/4.7.3/../../../../arm-none-eabi/lib/armv7-m\libg.a(lib_a-mprec.o)
                0x00019780                __mprec_bigtens
                0x000197a8                . = ALIGN (0x4)
 *(.init)
 .init          0x000197a8        0x4 c:/programmi/cypress/psoc creator/3.0/psoc creator/import/gnu_cs/arm/4.7.3/bin/../lib/gcc/arm-none-eabi/4.7.3/armv7-m/crti.o
                0x000197a8                _init
 .init          0x000197ac        0x8 c:/programmi/cypress/psoc creator/3.0/psoc creator/import/gnu_cs/arm/4.7.3/bin/../lib/gcc/arm-none-eabi/4.7.3/armv7-m/crtn.o
                0x000197b4                . = ALIGN (0x4)
                0x000197b4                __preinit_array_start = .
 *(.preinit_array)
                0x000197b4                __preinit_array_end = .
                0x000197b4                . = ALIGN (0x4)
                0x000197b4                __init_array_start = .
 *(SORT(.init_array.*))
 .init_array.00000
                0x000197b4        0x4 c:/programmi/cypress/psoc creator/3.0/psoc creator/import/gnu_cs/arm/4.7.3/bin/../lib/gcc/arm-none-eabi/4.7.3/../../../../arm-none-eabi/lib/armv7-m\libg.a(lib_a-__call_atexit.o)
 *(.init_array)
 .init_array    0x000197b8        0x4 c:/programmi/cypress/psoc creator/3.0/psoc creator/import/gnu_cs/arm/4.7.3/bin/../lib/gcc/arm-none-eabi/4.7.3/armv7-m/crtbegin.o
 .init_array    0x000197bc        0x4 .\CortexM3\ARM_GCC_473\Debug\Cm3Start.o
                0x000197c0                __init_array_end = .
                0x000197c0                . = ALIGN (0x4)
 *(.fini)
 .fini          0x000197c0        0x4 c:/programmi/cypress/psoc creator/3.0/psoc creator/import/gnu_cs/arm/4.7.3/bin/../lib/gcc/arm-none-eabi/4.7.3/armv7-m/crti.o
                0x000197c0                _fini
 .fini          0x000197c4        0x8 c:/programmi/cypress/psoc creator/3.0/psoc creator/import/gnu_cs/arm/4.7.3/bin/../lib/gcc/arm-none-eabi/4.7.3/armv7-m/crtn.o
                0x000197cc                . = ALIGN (0x4)
                0x000197cc                __fini_array_start = .
 *(.fini_array)
 .fini_array    0x000197cc        0x4 c:/programmi/cypress/psoc creator/3.0/psoc creator/import/gnu_cs/arm/4.7.3/bin/../lib/gcc/arm-none-eabi/4.7.3/armv7-m/crtbegin.o
 *(SORT(.fini_array.*))
                0x000197d0                __fini_array_end = .
                0x000197d0                . = ALIGN (0x4)
 *crtbegin.o(.ctors)
 *(EXCLUDE_FILE(*crtend.o) .ctors)
 *(SORT(.ctors.*))
 *crtend.o(.ctors)
                0x000197d0                . = ALIGN (0x4)
 *crtbegin.o(.dtors)
 *(EXCLUDE_FILE(*crtend.o) .dtors)
 *(SORT(.dtors.*))
 *crtend.o(.dtors)
                0x000197d0                . = ALIGN (0x4)
                0x000197d0                __cy_regions = .
                0x000197d0        0x4 LONG 0x197e0 __cy_region_init_ram
                0x000197d4        0x4 LONG 0x1fff8108 __cy_region_start_data
                0x000197d8        0x4 LONG 0x900 __cy_region_init_size_ram
                0x000197dc        0x4 LONG 0x430 __cy_region_zero_size_ram
                0x000197e0                __cy_regions_end = .
                0x000197e0                . = ALIGN (0x8)
                0x000197e0                _etext = .

.ramvectors     0x1fff8000      0x100
                0x1fff8000                __cy_region_start_ram = .
 *(.ramvectors)
 .ramvectors    0x1fff8000      0x100 .\CortexM3\ARM_GCC_473\Debug\Cm3Start.o
                0x1fff8000                CyRamVectors

.noinit         0x1fff8100        0x5
 *(.noinit)
 .noinit        0x1fff8100        0x4 .\CortexM3\ARM_GCC_473\Debug\Cm3Start.o
 .noinit        0x1fff8104        0x1 .\CortexM3\ARM_GCC_473\Debug\GoBee-00_1.a(CyLib.o)
                0x1fff8104                CyResetStatus

.data           0x1fff8108      0x900 load address 0x000197e0
                0x1fff8108                __cy_region_start_data = .
 *(.jcr)
 .jcr           0x1fff8108        0x0 c:/programmi/cypress/psoc creator/3.0/psoc creator/import/gnu_cs/arm/4.7.3/bin/../lib/gcc/arm-none-eabi/4.7.3/armv7-m/crtbegin.o
 .jcr           0x1fff8108        0x4 c:/programmi/cypress/psoc creator/3.0/psoc creator/import/gnu_cs/arm/4.7.3/bin/../lib/gcc/arm-none-eabi/4.7.3/armv7-m/crtend.o
 *(.got.plt)
 *(.got)
 *(.shdata)
 *(.data .data.* .gnu.linkonce.d.*)
 .data          0x1fff810c       0x10 .\CortexM3\ARM_GCC_473\Debug\main.o
                0x1fff810c                iteration
                0x1fff8110                agyro_messg
                0x1fff8114                dg_iteration
                0x1fff8118                dgyro_messg
 .data          0x1fff811c        0x1 .\CortexM3\ARM_GCC_473\Debug\GoBee-00_1.a(cyfitter_cfg_1.o)
                0x1fff811c                AMuxSeq_curChannel
 .data          0x1fff811d        0x1 .\CortexM3\ARM_GCC_473\Debug\GoBee-00_1.a(ADC.o)
                0x1fff811d                ADC_Config
 *fill*         0x1fff811e        0x2 00
 .data          0x1fff8120        0x8 .\CortexM3\ARM_GCC_473\Debug\GoBee-00_1.a(CyDmac.o)
 .data          0x1fff8128       0x10 .\CortexM3\ARM_GCC_473\Debug\GoBee-00_1.a(CyLib.o)
                0x1fff8128                cydelay_freq_hz
                0x1fff812c                cydelay_freq_khz
                0x1fff8130                cydelay_freq_mhz
                0x1fff8134                cydelay_32k_ms
 .data          0x1fff8138        0x1 .\CortexM3\ARM_GCC_473\Debug\GoBee-00_1.a(WaveDAC8_Wave1_DMA_dma.o)
                0x1fff8138                WaveDAC8_Wave1_DMA_DmaHandle
 .data          0x1fff8139        0x1 .\CortexM3\ARM_GCC_473\Debug\GoBee-00_1.a(WaveDAC8_Wave2_DMA_dma.o)
                0x1fff8139                WaveDAC8_Wave2_DMA_DmaHandle
 *fill*         0x1fff813a        0x2 00
 .data.__ctype_ptr__
                0x1fff813c        0x4 c:/programmi/cypress/psoc creator/3.0/psoc creator/import/gnu_cs/arm/4.7.3/bin/../lib/gcc/arm-none-eabi/4.7.3/../../../../arm-none-eabi/lib/armv7-m\libg.a(lib_a-ctype_.o)
                0x1fff813c                __ctype_ptr__
 .data.impure_data
                0x1fff8140      0x428 c:/programmi/cypress/psoc creator/3.0/psoc creator/import/gnu_cs/arm/4.7.3/bin/../lib/gcc/arm-none-eabi/4.7.3/../../../../arm-none-eabi/lib/armv7-m\libg.a(lib_a-impure.o)
 .data._impure_ptr
                0x1fff8568        0x4 c:/programmi/cypress/psoc creator/3.0/psoc creator/import/gnu_cs/arm/4.7.3/bin/../lib/gcc/arm-none-eabi/4.7.3/../../../../arm-none-eabi/lib/armv7-m\libg.a(lib_a-impure.o)
                0x1fff8568                _impure_ptr
 .data.fpi.5202
                0x1fff856c       0x14 c:/programmi/cypress/psoc creator/3.0/psoc creator/import/gnu_cs/arm/4.7.3/bin/../lib/gcc/arm-none-eabi/4.7.3/../../../../arm-none-eabi/lib/armv7-m\libg.a(lib_a-strtod.o)
 .data.fpinan.5238
                0x1fff8580       0x14 c:/programmi/cypress/psoc creator/3.0/psoc creator/import/gnu_cs/arm/4.7.3/bin/../lib/gcc/arm-none-eabi/4.7.3/../../../../arm-none-eabi/lib/armv7-m\libg.a(lib_a-strtod.o)
 .data.lconv    0x1fff8594       0x38 c:/programmi/cypress/psoc creator/3.0/psoc creator/import/gnu_cs/arm/4.7.3/bin/../lib/gcc/arm-none-eabi/4.7.3/../../../../arm-none-eabi/lib/armv7-m\libg.a(lib_a-locale.o)
 .data.lc_ctype_charset
                0x1fff85cc       0x20 c:/programmi/cypress/psoc creator/3.0/psoc creator/import/gnu_cs/arm/4.7.3/bin/../lib/gcc/arm-none-eabi/4.7.3/../../../../arm-none-eabi/lib/armv7-m\libg.a(lib_a-locale.o)
 .data.__mb_cur_max
                0x1fff85ec        0x4 c:/programmi/cypress/psoc creator/3.0/psoc creator/import/gnu_cs/arm/4.7.3/bin/../lib/gcc/arm-none-eabi/4.7.3/../../../../arm-none-eabi/lib/armv7-m\libg.a(lib_a-locale.o)
                0x1fff85ec                __mb_cur_max
 .data.__malloc_av_
                0x1fff85f0      0x408 c:/programmi/cypress/psoc creator/3.0/psoc creator/import/gnu_cs/arm/4.7.3/bin/../lib/gcc/arm-none-eabi/4.7.3/../../../../arm-none-eabi/lib/armv7-m\libg.a(lib_a-mallocr.o)
                0x1fff85f0                __malloc_av_
 .data.__malloc_trim_threshold
                0x1fff89f8        0x4 c:/programmi/cypress/psoc creator/3.0/psoc creator/import/gnu_cs/arm/4.7.3/bin/../lib/gcc/arm-none-eabi/4.7.3/../../../../arm-none-eabi/lib/armv7-m\libg.a(lib_a-mallocr.o)
                0x1fff89f8                __malloc_trim_threshold
 .data.__malloc_sbrk_base
                0x1fff89fc        0x4 c:/programmi/cypress/psoc creator/3.0/psoc creator/import/gnu_cs/arm/4.7.3/bin/../lib/gcc/arm-none-eabi/4.7.3/../../../../arm-none-eabi/lib/armv7-m\libg.a(lib_a-mallocr.o)
                0x1fff89fc                __malloc_sbrk_base
 .data.__wctomb
                0x1fff8a00        0x4 c:/programmi/cypress/psoc creator/3.0/psoc creator/import/gnu_cs/arm/4.7.3/bin/../lib/gcc/arm-none-eabi/4.7.3/../../../../arm-none-eabi/lib/armv7-m\libg.a(lib_a-wctomb_r.o)
                0x1fff8a00                __wctomb
                0x1fff8a08                . = ALIGN (0x8)
 *fill*         0x1fff8a04        0x4 00
 *(.ram)
                0x1fff8a08                _edata = .

.igot.plt       0x1fff8a08        0x0 load address 0x0001a0e0
 .igot.plt      0x00000000        0x0 c:/programmi/cypress/psoc creator/3.0/psoc creator/import/gnu_cs/arm/4.7.3/bin/../lib/gcc/arm-none-eabi/4.7.3/armv7-m/crtbegin.o

.bss            0x1fff8a08      0x430 load address 0x0001a0e0
                0x1fff8a08                PROVIDE (__bss_start__, .)
 *(.shbss)
 *(.bss .bss.* .gnu.linkonce.b.*)
 .bss           0x1fff8a08       0x1c c:/programmi/cypress/psoc creator/3.0/psoc creator/import/gnu_cs/arm/4.7.3/bin/../lib/gcc/arm-none-eabi/4.7.3/armv7-m/crtbegin.o
 .bss           0x1fff8a24       0x34 .\CortexM3\ARM_GCC_473\Debug\main.o
                0x1fff8a24                machine_state
                0x1fff8a25                ledmask
                0x1fff8a26                signalmask
                0x1fff8a28                angle_estim_acc_lowpass
                0x1fff8a2c                int_gyro
                0x1fff8a30                agyro_mean
                0x1fff8a34                agyro_mean_previous
                0x1fff8a38                dgyro_mean
                0x1fff8a3c                dgyro_mean_previous
                0x1fff8a40                control_var
                0x1fff8a42                steer_var
                0x1fff8a44                VSenseMAX
                0x1fff8a46                DriveVelocity
                0x1fff8a48                anapos
                0x1fff8a4c                anapos_offset
                0x1fff8a50                isr_START_check_counter
                0x1fff8a52                isr_STOP_check_counter
                0x1fff8a54                gobeeFaults
 .bss           0x1fff8a58       0x38 .\CortexM3\ARM_GCC_473\Debug\console.o
                0x1fff8a58                userInputBuffer
                0x1fff8a80                slegenda
 .bss           0x1fff8a90        0x4 .\CortexM3\ARM_GCC_473\Debug\sensor_CTRL.o
                0x1fff8a90                idx
                0x1fff8a91                dummy
                0x1fff8a92                idxMAX
                0x1fff8a93                QuadDecEvent
 .bss           0x1fff8a94       0x3c .\CortexM3\ARM_GCC_473\Debug\pid_lib.o
 .bss           0x1fff8ad0       0x1c .\CortexM3\ARM_GCC_473\Debug\estimators.o
                0x1fff8ad0                index_buf
 .bss           0x1fff8aec        0x8 .\CortexM3\ARM_GCC_473\Debug\GoBee-00_1.a(ADC.o)
                0x1fff8aec                ADC_convDone
                0x1fff8aed                ADC_stopConversion
                0x1fff8aee                ADC_initVar
                0x1fff8aef                ADC_started
 .bss           0x1fff8af4        0x4 .\CortexM3\ARM_GCC_473\Debug\GoBee-00_1.a(ADC_INT.o)
                0x1fff8af4                iIndex
                0x1fff8af6                Conversion
 .bss           0x1fff8af8        0x2 .\CortexM3\ARM_GCC_473\Debug\GoBee-00_1.a(UART_USB.o)
                0x1fff8af8                UART_USB_initVar
 .bss           0x1fff8afa        0x1 .\CortexM3\ARM_GCC_473\Debug\GoBee-00_1.a(AMuxSeq.o)
                0x1fff8afa                AMuxSeq_initVar
 .bss           0x1fff8afb        0x1 .\CortexM3\ARM_GCC_473\Debug\GoBee-00_1.a(Counter_LED.o)
                0x1fff8afb                Counter_LED_initVar
 .bss           0x1fff8afc        0x8 .\CortexM3\ARM_GCC_473\Debug\GoBee-00_1.a(CySpc.o)
                0x1fff8afc                SpcLockState
 .bss           0x1fff8b04        0x1 .\CortexM3\ARM_GCC_473\Debug\GoBee-00_1.a(QuadDec_PAN.o)
                0x1fff8b04                QuadDec_PAN_initVar
 *fill*         0x1fff8b05        0x3 00
 .bss           0x1fff8b08        0x4 .\CortexM3\ARM_GCC_473\Debug\GoBee-00_1.a(QuadDec_PAN_INT.o)
                0x1fff8b08                QuadDec_PAN_count32SoftPart
 .bss           0x1fff8b0c        0x1 .\CortexM3\ARM_GCC_473\Debug\GoBee-00_1.a(QuadDec_PAN_Cnt16.o)
                0x1fff8b0c                QuadDec_PAN_Cnt16_initVar
 .bss           0x1fff8b0d        0x1 .\CortexM3\ARM_GCC_473\Debug\GoBee-00_1.a(isr_Ticks.o)
                0x1fff8b0d                local_dummy
 .bss           0x1fff8b0e        0x1 .\CortexM3\ARM_GCC_473\Debug\GoBee-00_1.a(PWM_MOTOR_PAN.o)
                0x1fff8b0e                PWM_MOTOR_PAN_initVar
 .bss           0x1fff8b0f        0x5 .\CortexM3\ARM_GCC_473\Debug\GoBee-00_1.a(WaveDAC8.o)
                0x1fff8b0f                WaveDAC8_initVar
 .bss.__malloc_max_total_mem
                0x1fff8b14        0x4 c:/programmi/cypress/psoc creator/3.0/psoc creator/import/gnu_cs/arm/4.7.3/bin/../lib/gcc/arm-none-eabi/4.7.3/../../../../arm-none-eabi/lib/armv7-m\libg.a(lib_a-mallocr.o)
                0x1fff8b14                __malloc_max_total_mem
 .bss.__malloc_max_sbrked_mem
                0x1fff8b18        0x4 c:/programmi/cypress/psoc creator/3.0/psoc creator/import/gnu_cs/arm/4.7.3/bin/../lib/gcc/arm-none-eabi/4.7.3/../../../../arm-none-eabi/lib/armv7-m\libg.a(lib_a-mallocr.o)
                0x1fff8b18                __malloc_max_sbrked_mem
 .bss.__malloc_top_pad
                0x1fff8b1c        0x4 c:/programmi/cypress/psoc creator/3.0/psoc creator/import/gnu_cs/arm/4.7.3/bin/../lib/gcc/arm-none-eabi/4.7.3/../../../../arm-none-eabi/lib/armv7-m\libg.a(lib_a-mallocr.o)
                0x1fff8b1c                __malloc_top_pad
 .bss.__malloc_current_mallinfo
                0x1fff8b20       0x28 c:/programmi/cypress/psoc creator/3.0/psoc creator/import/gnu_cs/arm/4.7.3/bin/../lib/gcc/arm-none-eabi/4.7.3/../../../../arm-none-eabi/lib/armv7-m\libg.a(lib_a-mallocr.o)
                0x1fff8b20                __malloc_current_mallinfo
 .bss.heap_end.4231
                0x1fff8b48        0x4 c:/programmi/cypress/psoc creator/3.0/psoc creator/import/gnu_cs/arm/4.7.3/bin/../lib/gcc/arm-none-eabi/4.7.3/../../../../arm-none-eabi/lib/armv7-m\libnosys.a(sbrk.o)
 *(COMMON)
 COMMON         0x1fff8b4c      0x1ac .\CortexM3\ARM_GCC_473\Debug\main.o
                0x1fff8b4c                gyro_lowpass
                0x1fff8b50                EEreadBuffer
                0x1fff8b62                GyroNullPauseTicks
                0x1fff8b64                x_acc_ADC
                0x1fff8b66                y_acc_ADC
                0x1fff8b68                pan_axis
                0x1fff8bb8                gyro_scale
                0x1fff8bbc                angle_estim_analog_gyro
                0x1fff8bc0                y_acc_scale
                0x1fff8bc4                EEwriteBuffer
                0x1fff8bd8                x_acc_scale
                0x1fff8bdc                pan_feedback_encoder
                0x1fff8bf0                x_acc
                0x1fff8bf4                gyro
                0x1fff8bf8                y_acc_ADC_offset
                0x1fff8bfc                das
                0x1fff8c2c                gyro_ADC
                0x1fff8c30                angle_estim_acc
                0x1fff8c34                x_acc_ADC_offset
                0x1fff8c36                VSenseSUM
                0x1fff8c38                angle_var
                0x1fff8c3c                angle
                0x1fff8c40                dgyro_rate_float
                0x1fff8c44                angle_estim_acc_last_good
                0x1fff8c48                angle_estim
                0x1fff8c4c                machine_state_backup
                0x1fff8c50                angle_lowpass
                0x1fff8c54                agyro
                0x1fff8c70                gyro_ADC_offset
                0x1fff8c74                system_dynamic_scalar
                0x1fff8c78                y_acc
                0x1fff8c7c                gobee_param
                0x1fff8cac                dgyro_spi32
                0x1fff8cb0                angle_digi
                0x1fff8cb4                aacc
                0x1fff8cdc                dgyro_mean_previous_of
                0x1fff8ce0                dgyro_mean_of
                0x1fff8ce4                angle_estim_digital_gyro
                0x1fff8ce8                AdcValue
 COMMON         0x1fff8cf8       0x2e .\CortexM3\ARM_GCC_473\Debug\console.o
                0x1fff8cf8                actual_cmd
                0x1fff8d25                USB_Check_prev
 *fill*         0x1fff8d26        0x2 00
 COMMON         0x1fff8d28        0x8 .\CortexM3\ARM_GCC_473\Debug\GoBee-00_1.a(ADC.o)
                0x1fff8d28                ADC_Offset
                0x1fff8d2c                ADC_CountsPerVolt
 COMMON         0x1fff8d30        0x2 .\CortexM3\ARM_GCC_473\Debug\GoBee-00_1.a(CyFlash.o)
                0x1fff8d30                dieTemperature
 *fill*         0x1fff8d32        0x2 00
 COMMON         0x1fff8d34      0x100 c:/programmi/cypress/psoc creator/3.0/psoc creator/import/gnu_cs/arm/4.7.3/bin/../lib/gcc/arm-none-eabi/4.7.3/../../../../arm-none-eabi/lib/armv7-m\libg.a(lib_a-gdtoa-gethex.o)
                0x1fff8d34                __hexdig
 COMMON         0x1fff8e34        0x4 c:/programmi/cypress/psoc creator/3.0/psoc creator/import/gnu_cs/arm/4.7.3/bin/../lib/gcc/arm-none-eabi/4.7.3/../../../../arm-none-eabi/lib/armv7-m\libg.a(lib_a-reent.o)
                0x1fff8e34                errno
                0x1fff8e38                . = ALIGN (0x8)
 *(.ram.b)
                0x1fff8e38                _end = .
                0x1fff8e38                __end = .
                0x1fff8e38                PROVIDE (end, .)
                0x1fff8e38                PROVIDE (__bss_end__, .)
                0x000197e0                __cy_region_init_ram = LOADADDR (.data)
                0x00000900                __cy_region_init_size_ram = (_edata - ADDR (.data))
                0x00000430                __cy_region_zero_size_ram = (_end - _edata)

.heap           0x1fff8e38     0x1000 load address 0x0001a0e0
                0x1fff8e38                . = _end
                0x1fff9e38                . = (. + 0x1000)
 *fill*         0x1fff8e38     0x1000 00
                0x1fff9e38                __cy_heap_limit = .

.stack          0x20004000     0x4000
                0x20004000                __cy_stack_limit = .
                0x20008000                . = (. + 0x4000)
 *fill*         0x20004000     0x4000 00
                0x00000001                ASSERT ((__cy_stack_limit >= __cy_heap_limit), region RAM overflowed with stack)

.cyloadermeta   0xf0000000       0x40
 *(.cyloadermeta)
 .cyloadermeta  0xf0000000       0x40 .\CortexM3\ARM_GCC_473\Debug\cybootloader.o
                0xf0000000                cy_meta_loader

.cyloadablemeta
                0x0003ffc0       0x40
 *(.cyloadablemeta)
 .cyloadablemeta
                0x0003ffc0       0x40 .\CortexM3\ARM_GCC_473\Debug\cymetadata.o
                0x0003ffc0                cy_meta_loadable

.cyconfigecc    0x800006e0     0x111c
 *(.cyconfigecc)
 .cyconfigecc   0x800006e0     0x111c .\CortexM3\ARM_GCC_473\Debug\cymetadata.o
                0x800006e0                cy_meta_configecc

.cycustnvl      0x90000000        0x4
 *(.cycustnvl)
 .cycustnvl     0x90000000        0x4 .\CortexM3\ARM_GCC_473\Debug\cybootloader.o
                0x90000000                cy_meta_custnvl

.cywolatch      0x90100000        0x4
 *(.cywolatch)
 .cywolatch     0x90100000        0x4 .\CortexM3\ARM_GCC_473\Debug\cybootloader.o
                0x90100000                cy_meta_wonvl

.cyeeprom       0x90200000        0x0
 *(.cyeeprom)
                0x00000001                ASSERT ((. <= ((0x90200000 + ee_offset) + ee_size)), .cyeeprom data will not fit in EEPROM)

.cyflashprotect
                0x90400000      0x100
 *(.cyflashprotect)
 .cyflashprotect
                0x90400000      0x100 .\CortexM3\ARM_GCC_473\Debug\cybootloader.o
                0x90400000                cy_meta_flashprotect

.cymeta         0x90500000        0xc
 *(.cymeta)
 .cymeta        0x90500000        0xc .\CortexM3\ARM_GCC_473\Debug\cybootloader.o
                0x90500000                cy_metadata

.rel.dyn        0x00040000        0x0 load address 0x9050000c
 .rel.iplt      0x00000000        0x0 c:/programmi/cypress/psoc creator/3.0/psoc creator/import/gnu_cs/arm/4.7.3/bin/../lib/gcc/arm-none-eabi/4.7.3/armv7-m/crtbegin.o

.stab
 *(.stab)

.stabstr
 *(.stabstr)

.debug
 *(.debug)

.line
 *(.line)

.debug_srcinfo
 *(.debug_srcinfo)

.debug_sfnames
 *(.debug_sfnames)

.debug_aranges  0x00000000     0x1480
 *(.debug_aranges)
 .debug_aranges
                0x00000000       0x20 .\CortexM3\ARM_GCC_473\Debug\main.o
 .debug_aranges
                0x00000020       0x50 .\CortexM3\ARM_GCC_473\Debug\console.o
 .debug_aranges
                0x00000070       0xb0 .\CortexM3\ARM_GCC_473\Debug\gobeelib.o
 .debug_aranges
                0x00000120       0x38 .\CortexM3\ARM_GCC_473\Debug\ADXRS453.o
 .debug_aranges
                0x00000158       0x38 .\CortexM3\ARM_GCC_473\Debug\motor_CTRL.o
 .debug_aranges
                0x00000190       0x20 .\CortexM3\ARM_GCC_473\Debug\sensor_CTRL.o
 .debug_aranges
                0x000001b0       0x88 .\CortexM3\ARM_GCC_473\Debug\pid_lib.o
 .debug_aranges
                0x00000238       0x28 .\CortexM3\ARM_GCC_473\Debug\estimators.o
 .debug_aranges
                0x00000260       0x30 .\CortexM3\ARM_GCC_473\Debug\das.o
 .debug_aranges
                0x00000290       0x40 .\CortexM3\ARM_GCC_473\Debug\Cm3Start.o
 .debug_aranges
                0x000002d0       0x18 .\CortexM3\ARM_GCC_473\Debug\cymetadata.o
 .debug_aranges
                0x000002e8       0x18 .\CortexM3\ARM_GCC_473\Debug\cybootloader.o
 .debug_aranges
                0x00000300       0x70 .\CortexM3\ARM_GCC_473\Debug\GoBee-00_1.a(cyfitter_cfg_1.o)
 .debug_aranges
                0x00000370       0xe8 .\CortexM3\ARM_GCC_473\Debug\GoBee-00_1.a(ADC.o)
 .debug_aranges
                0x00000458       0x38 .\CortexM3\ARM_GCC_473\Debug\GoBee-00_1.a(ADC_INT.o)
 .debug_aranges
                0x00000490       0xf0 .\CortexM3\ARM_GCC_473\Debug\GoBee-00_1.a(UART_USB.o)
 .debug_aranges
                0x00000580       0x28 .\CortexM3\ARM_GCC_473\Debug\GoBee-00_1.a(Control_Reg_LED.o)
 .debug_aranges
                0x000005a8       0x58 .\CortexM3\ARM_GCC_473\Debug\GoBee-00_1.a(EEPROM.o)
 .debug_aranges
                0x00000600       0x38 .\CortexM3\ARM_GCC_473\Debug\GoBee-00_1.a(AMuxSeq.o)
 .debug_aranges
                0x00000638       0x80 .\CortexM3\ARM_GCC_473\Debug\GoBee-00_1.a(isr_CTRL.o)
 .debug_aranges
                0x000006b8       0x40 .\CortexM3\ARM_GCC_473\Debug\GoBee-00_1.a(Status_Reg_BUTTON.o)
 .debug_aranges
                0x000006f8       0x98 .\CortexM3\ARM_GCC_473\Debug\GoBee-00_1.a(Counter_LED.o)
 .debug_aranges
                0x00000790       0x80 .\CortexM3\ARM_GCC_473\Debug\GoBee-00_1.a(isr_DGYRO.o)
 .debug_aranges
                0x00000810       0x70 .\CortexM3\ARM_GCC_473\Debug\GoBee-00_1.a(Clock_DGYRO.o)
 .debug_aranges
                0x00000880       0x80 .\CortexM3\ARM_GCC_473\Debug\GoBee-00_1.a(ADC_theACLK.o)
 .debug_aranges
                0x00000900       0x70 .\CortexM3\ARM_GCC_473\Debug\GoBee-00_1.a(ADC_Ext_CP_Clk.o)
 .debug_aranges
                0x00000970       0x70 .\CortexM3\ARM_GCC_473\Debug\GoBee-00_1.a(UART_USB_IntClock.o)
 .debug_aranges
                0x000009e0       0x20 .\CortexM3\ARM_GCC_473\Debug\GoBee-00_1.a(CyBootAsmGnu.o)
 .debug_aranges
                0x00000a00       0xd8 .\CortexM3\ARM_GCC_473\Debug\GoBee-00_1.a(CyDmac.o)
 .debug_aranges
                0x00000ad8       0x78 .\CortexM3\ARM_GCC_473\Debug\GoBee-00_1.a(CyFlash.o)
 .debug_aranges
                0x00000b50      0x218 .\CortexM3\ARM_GCC_473\Debug\GoBee-00_1.a(CyLib.o)
 .debug_aranges
                0x00000d68       0x90 .\CortexM3\ARM_GCC_473\Debug\GoBee-00_1.a(cyPm.o)
 .debug_aranges
                0x00000df8       0x68 .\CortexM3\ARM_GCC_473\Debug\GoBee-00_1.a(CySpc.o)
 .debug_aranges
                0x00000e60       0x28 .\CortexM3\ARM_GCC_473\Debug\GoBee-00_1.a(Control_Reg_BUZ.o)
 .debug_aranges
                0x00000e88       0x28 .\CortexM3\ARM_GCC_473\Debug\GoBee-00_1.a(Control_Reg_MOTOR.o)
 .debug_aranges
                0x00000eb0       0x40 .\CortexM3\ARM_GCC_473\Debug\GoBee-00_1.a(Status_Reg_MOTOR.o)
 .debug_aranges
                0x00000ef0       0x60 .\CortexM3\ARM_GCC_473\Debug\GoBee-00_1.a(QuadDec_PAN.o)
 .debug_aranges
                0x00000f50       0x20 .\CortexM3\ARM_GCC_473\Debug\GoBee-00_1.a(QuadDec_PAN_INT.o)
 .debug_aranges
                0x00000f70       0x98 .\CortexM3\ARM_GCC_473\Debug\GoBee-00_1.a(QuadDec_PAN_Cnt16.o)
 .debug_aranges
                0x00001008       0x80 .\CortexM3\ARM_GCC_473\Debug\GoBee-00_1.a(ADC_IRQ.o)
 .debug_aranges
                0x00001088       0x28 .\CortexM3\ARM_GCC_473\Debug\GoBee-00_1.a(Bootloadable.o)
 .debug_aranges
                0x000010b0       0x80 .\CortexM3\ARM_GCC_473\Debug\GoBee-00_1.a(isr_Ticks.o)
 .debug_aranges
                0x00001130       0xa8 .\CortexM3\ARM_GCC_473\Debug\GoBee-00_1.a(PWM_MOTOR_PAN.o)
 .debug_aranges
                0x000011d8       0x80 .\CortexM3\ARM_GCC_473\Debug\GoBee-00_1.a(isr_BUTTON.o)
 .debug_aranges
                0x00001258       0x50 .\CortexM3\ARM_GCC_473\Debug\GoBee-00_1.a(WaveDAC8.o)
 .debug_aranges
                0x000012a8       0x70 .\CortexM3\ARM_GCC_473\Debug\GoBee-00_1.a(WaveDAC8_DacClk.o)
 .debug_aranges
                0x00001318       0x28 .\CortexM3\ARM_GCC_473\Debug\GoBee-00_1.a(WaveDAC8_Wave1_DMA_dma.o)
 .debug_aranges
                0x00001340       0x28 .\CortexM3\ARM_GCC_473\Debug\GoBee-00_1.a(WaveDAC8_Wave2_DMA_dma.o)
 .debug_aranges
                0x00001368       0x58 .\CortexM3\ARM_GCC_473\Debug\GoBee-00_1.a(WaveDAC8_VDAC8.o)
 .debug_aranges
                0x000013c0       0x40 .\CortexM3\ARM_GCC_473\Debug\GoBee-00_1.a(WaveDAC8_BuffAmp.o)
 .debug_aranges
                0x00001400       0x58 .\CortexM3\ARM_GCC_473\Debug\GoBee-00_1.a(VDAC8_ANAPOS.o)
 .debug_aranges
                0x00001458       0x28 .\CortexM3\ARM_GCC_473\Debug\GoBee-00_1.a(Control_Reg_WaveDAC8.o)

.debug_pubnames
 *(.debug_pubnames)

.debug_info     0x00000000     0xbf68
 *(.debug_info .gnu.linkonce.wi.*)
 .debug_info    0x00000000     0x13d8 .\CortexM3\ARM_GCC_473\Debug\main.o
 .debug_info    0x000013d8      0xb17 .\CortexM3\ARM_GCC_473\Debug\console.o
 .debug_info    0x00001eef      0xa3b .\CortexM3\ARM_GCC_473\Debug\gobeelib.o
 .debug_info    0x0000292a      0x289 .\CortexM3\ARM_GCC_473\Debug\ADXRS453.o
 .debug_info    0x00002bb3      0x5e3 .\CortexM3\ARM_GCC_473\Debug\motor_CTRL.o
 .debug_info    0x00003196      0x497 .\CortexM3\ARM_GCC_473\Debug\sensor_CTRL.o
 .debug_info    0x0000362d      0x7d4 .\CortexM3\ARM_GCC_473\Debug\pid_lib.o
 .debug_info    0x00003e01      0x1c6 .\CortexM3\ARM_GCC_473\Debug\estimators.o
 .debug_info    0x00003fc7      0x443 .\CortexM3\ARM_GCC_473\Debug\das.o
 .debug_info    0x0000440a      0x2ea .\CortexM3\ARM_GCC_473\Debug\Cm3Start.o
 .debug_info    0x000046f4       0xda .\CortexM3\ARM_GCC_473\Debug\cymetadata.o
 .debug_info    0x000047ce      0x16a .\CortexM3\ARM_GCC_473\Debug\cybootloader.o
 .debug_info    0x00004938      0x4db .\CortexM3\ARM_GCC_473\Debug\GoBee-00_1.a(cyfitter_cfg_1.o)
 .debug_info    0x00004e13      0x7a9 .\CortexM3\ARM_GCC_473\Debug\GoBee-00_1.a(ADC.o)
 .debug_info    0x000055bc      0x146 .\CortexM3\ARM_GCC_473\Debug\GoBee-00_1.a(ADC_INT.o)
 .debug_info    0x00005702      0x58b .\CortexM3\ARM_GCC_473\Debug\GoBee-00_1.a(UART_USB.o)
 .debug_info    0x00005c8d       0xe3 .\CortexM3\ARM_GCC_473\Debug\GoBee-00_1.a(Control_Reg_LED.o)
 .debug_info    0x00005d70      0x283 .\CortexM3\ARM_GCC_473\Debug\GoBee-00_1.a(EEPROM.o)
 .debug_info    0x00005ff3      0x116 .\CortexM3\ARM_GCC_473\Debug\GoBee-00_1.a(AMuxSeq.o)
 .debug_info    0x00006109      0x2b2 .\CortexM3\ARM_GCC_473\Debug\GoBee-00_1.a(isr_CTRL.o)
 .debug_info    0x000063bb      0x156 .\CortexM3\ARM_GCC_473\Debug\GoBee-00_1.a(Status_Reg_BUTTON.o)
 .debug_info    0x00006511      0x2c0 .\CortexM3\ARM_GCC_473\Debug\GoBee-00_1.a(Counter_LED.o)
 .debug_info    0x000067d1      0x278 .\CortexM3\ARM_GCC_473\Debug\GoBee-00_1.a(isr_DGYRO.o)
 .debug_info    0x00006a49      0x294 .\CortexM3\ARM_GCC_473\Debug\GoBee-00_1.a(Clock_DGYRO.o)
 .debug_info    0x00006cdd      0x2da .\CortexM3\ARM_GCC_473\Debug\GoBee-00_1.a(ADC_theACLK.o)
 .debug_info    0x00006fb7      0x294 .\CortexM3\ARM_GCC_473\Debug\GoBee-00_1.a(ADC_Ext_CP_Clk.o)
 .debug_info    0x0000724b      0x294 .\CortexM3\ARM_GCC_473\Debug\GoBee-00_1.a(UART_USB_IntClock.o)
 .debug_info    0x000074df       0xc4 .\CortexM3\ARM_GCC_473\Debug\GoBee-00_1.a(CyBootAsmGnu.o)
 .debug_info    0x000075a3      0x93a .\CortexM3\ARM_GCC_473\Debug\GoBee-00_1.a(CyDmac.o)
 .debug_info    0x00007edd      0x354 .\CortexM3\ARM_GCC_473\Debug\GoBee-00_1.a(CyFlash.o)
 .debug_info    0x00008231      0xcd7 .\CortexM3\ARM_GCC_473\Debug\GoBee-00_1.a(CyLib.o)
 .debug_info    0x00008f08      0x5c3 .\CortexM3\ARM_GCC_473\Debug\GoBee-00_1.a(cyPm.o)
 .debug_info    0x000094cb      0x3d9 .\CortexM3\ARM_GCC_473\Debug\GoBee-00_1.a(CySpc.o)
 .debug_info    0x000098a4       0xe3 .\CortexM3\ARM_GCC_473\Debug\GoBee-00_1.a(Control_Reg_BUZ.o)
 .debug_info    0x00009987       0xe3 .\CortexM3\ARM_GCC_473\Debug\GoBee-00_1.a(Control_Reg_MOTOR.o)
 .debug_info    0x00009a6a      0x156 .\CortexM3\ARM_GCC_473\Debug\GoBee-00_1.a(Status_Reg_MOTOR.o)
 .debug_info    0x00009bc0      0x25a .\CortexM3\ARM_GCC_473\Debug\GoBee-00_1.a(QuadDec_PAN.o)
 .debug_info    0x00009e1a       0xf2 .\CortexM3\ARM_GCC_473\Debug\GoBee-00_1.a(QuadDec_PAN_INT.o)
 .debug_info    0x00009f0c      0x2db .\CortexM3\ARM_GCC_473\Debug\GoBee-00_1.a(QuadDec_PAN_Cnt16.o)
 .debug_info    0x0000a1e7      0x278 .\CortexM3\ARM_GCC_473\Debug\GoBee-00_1.a(ADC_IRQ.o)
 .debug_info    0x0000a45f      0x16d .\CortexM3\ARM_GCC_473\Debug\GoBee-00_1.a(Bootloadable.o)
 .debug_info    0x0000a5cc      0x4e2 .\CortexM3\ARM_GCC_473\Debug\GoBee-00_1.a(isr_Ticks.o)
 .debug_info    0x0000aaae      0x34b .\CortexM3\ARM_GCC_473\Debug\GoBee-00_1.a(PWM_MOTOR_PAN.o)
 .debug_info    0x0000adf9      0x4b3 .\CortexM3\ARM_GCC_473\Debug\GoBee-00_1.a(isr_BUTTON.o)
 .debug_info    0x0000b2ac      0x269 .\CortexM3\ARM_GCC_473\Debug\GoBee-00_1.a(WaveDAC8.o)
 .debug_info    0x0000b515      0x294 .\CortexM3\ARM_GCC_473\Debug\GoBee-00_1.a(WaveDAC8_DacClk.o)
 .debug_info    0x0000b7a9      0x121 .\CortexM3\ARM_GCC_473\Debug\GoBee-00_1.a(WaveDAC8_Wave1_DMA_dma.o)
 .debug_info    0x0000b8ca      0x121 .\CortexM3\ARM_GCC_473\Debug\GoBee-00_1.a(WaveDAC8_Wave2_DMA_dma.o)
 .debug_info    0x0000b9eb      0x1b0 .\CortexM3\ARM_GCC_473\Debug\GoBee-00_1.a(WaveDAC8_VDAC8.o)
 .debug_info    0x0000bb9b      0x13a .\CortexM3\ARM_GCC_473\Debug\GoBee-00_1.a(WaveDAC8_BuffAmp.o)
 .debug_info    0x0000bcd5      0x1b0 .\CortexM3\ARM_GCC_473\Debug\GoBee-00_1.a(VDAC8_ANAPOS.o)
 .debug_info    0x0000be85       0xe3 .\CortexM3\ARM_GCC_473\Debug\GoBee-00_1.a(Control_Reg_WaveDAC8.o)

.debug_abbrev   0x00000000     0x3889
 *(.debug_abbrev)
 .debug_abbrev  0x00000000      0x1c7 .\CortexM3\ARM_GCC_473\Debug\main.o
 .debug_abbrev  0x000001c7      0x219 .\CortexM3\ARM_GCC_473\Debug\console.o
 .debug_abbrev  0x000003e0      0x1fa .\CortexM3\ARM_GCC_473\Debug\gobeelib.o
 .debug_abbrev  0x000005da       0xce .\CortexM3\ARM_GCC_473\Debug\ADXRS453.o
 .debug_abbrev  0x000006a8      0x14a .\CortexM3\ARM_GCC_473\Debug\motor_CTRL.o
 .debug_abbrev  0x000007f2      0x113 .\CortexM3\ARM_GCC_473\Debug\sensor_CTRL.o
 .debug_abbrev  0x00000905      0x179 .\CortexM3\ARM_GCC_473\Debug\pid_lib.o
 .debug_abbrev  0x00000a7e       0xae .\CortexM3\ARM_GCC_473\Debug\estimators.o
 .debug_abbrev  0x00000b2c      0x12b .\CortexM3\ARM_GCC_473\Debug\das.o
 .debug_abbrev  0x00000c57      0x175 .\CortexM3\ARM_GCC_473\Debug\Cm3Start.o
 .debug_abbrev  0x00000dcc       0x66 .\CortexM3\ARM_GCC_473\Debug\cymetadata.o
 .debug_abbrev  0x00000e32       0x77 .\CortexM3\ARM_GCC_473\Debug\cybootloader.o
 .debug_abbrev  0x00000ea9      0x1f5 .\CortexM3\ARM_GCC_473\Debug\GoBee-00_1.a(cyfitter_cfg_1.o)
 .debug_abbrev  0x0000109e      0x192 .\CortexM3\ARM_GCC_473\Debug\GoBee-00_1.a(ADC.o)
 .debug_abbrev  0x00001230       0x9d .\CortexM3\ARM_GCC_473\Debug\GoBee-00_1.a(ADC_INT.o)
 .debug_abbrev  0x000012cd      0x165 .\CortexM3\ARM_GCC_473\Debug\GoBee-00_1.a(UART_USB.o)
 .debug_abbrev  0x00001432       0x83 .\CortexM3\ARM_GCC_473\Debug\GoBee-00_1.a(Control_Reg_LED.o)
 .debug_abbrev  0x000014b5       0xff .\CortexM3\ARM_GCC_473\Debug\GoBee-00_1.a(EEPROM.o)
 .debug_abbrev  0x000015b4       0x8d .\CortexM3\ARM_GCC_473\Debug\GoBee-00_1.a(AMuxSeq.o)
 .debug_abbrev  0x00001641      0x15a .\CortexM3\ARM_GCC_473\Debug\GoBee-00_1.a(isr_CTRL.o)
 .debug_abbrev  0x0000179b       0xac .\CortexM3\ARM_GCC_473\Debug\GoBee-00_1.a(Status_Reg_BUTTON.o)
 .debug_abbrev  0x00001847      0x12e .\CortexM3\ARM_GCC_473\Debug\GoBee-00_1.a(Counter_LED.o)
 .debug_abbrev  0x00001975      0x12d .\CortexM3\ARM_GCC_473\Debug\GoBee-00_1.a(isr_DGYRO.o)
 .debug_abbrev  0x00001aa2      0x11f .\CortexM3\ARM_GCC_473\Debug\GoBee-00_1.a(Clock_DGYRO.o)
 .debug_abbrev  0x00001bc1      0x11f .\CortexM3\ARM_GCC_473\Debug\GoBee-00_1.a(ADC_theACLK.o)
 .debug_abbrev  0x00001ce0      0x11f .\CortexM3\ARM_GCC_473\Debug\GoBee-00_1.a(ADC_Ext_CP_Clk.o)
 .debug_abbrev  0x00001dff      0x11f .\CortexM3\ARM_GCC_473\Debug\GoBee-00_1.a(UART_USB_IntClock.o)
 .debug_abbrev  0x00001f1e       0x14 .\CortexM3\ARM_GCC_473\Debug\GoBee-00_1.a(CyBootAsmGnu.o)
 .debug_abbrev  0x00001f32      0x189 .\CortexM3\ARM_GCC_473\Debug\GoBee-00_1.a(CyDmac.o)
 .debug_abbrev  0x000020bb      0x172 .\CortexM3\ARM_GCC_473\Debug\GoBee-00_1.a(CyFlash.o)
 .debug_abbrev  0x0000222d      0x207 .\CortexM3\ARM_GCC_473\Debug\GoBee-00_1.a(CyLib.o)
 .debug_abbrev  0x00002434      0x170 .\CortexM3\ARM_GCC_473\Debug\GoBee-00_1.a(cyPm.o)
 .debug_abbrev  0x000025a4      0x15f .\CortexM3\ARM_GCC_473\Debug\GoBee-00_1.a(CySpc.o)
 .debug_abbrev  0x00002703       0x83 .\CortexM3\ARM_GCC_473\Debug\GoBee-00_1.a(Control_Reg_BUZ.o)
 .debug_abbrev  0x00002786       0x83 .\CortexM3\ARM_GCC_473\Debug\GoBee-00_1.a(Control_Reg_MOTOR.o)
 .debug_abbrev  0x00002809       0xac .\CortexM3\ARM_GCC_473\Debug\GoBee-00_1.a(Status_Reg_MOTOR.o)
 .debug_abbrev  0x000028b5      0x11c .\CortexM3\ARM_GCC_473\Debug\GoBee-00_1.a(QuadDec_PAN.o)
 .debug_abbrev  0x000029d1       0x7a .\CortexM3\ARM_GCC_473\Debug\GoBee-00_1.a(QuadDec_PAN_INT.o)
 .debug_abbrev  0x00002a4b      0x12e .\CortexM3\ARM_GCC_473\Debug\GoBee-00_1.a(QuadDec_PAN_Cnt16.o)
 .debug_abbrev  0x00002b79      0x12d .\CortexM3\ARM_GCC_473\Debug\GoBee-00_1.a(ADC_IRQ.o)
 .debug_abbrev  0x00002ca6       0xaf .\CortexM3\ARM_GCC_473\Debug\GoBee-00_1.a(Bootloadable.o)
 .debug_abbrev  0x00002d55      0x213 .\CortexM3\ARM_GCC_473\Debug\GoBee-00_1.a(isr_Ticks.o)
 .debug_abbrev  0x00002f68      0x130 .\CortexM3\ARM_GCC_473\Debug\GoBee-00_1.a(PWM_MOTOR_PAN.o)
 .debug_abbrev  0x00003098      0x1cc .\CortexM3\ARM_GCC_473\Debug\GoBee-00_1.a(isr_BUTTON.o)
 .debug_abbrev  0x00003264       0xe5 .\CortexM3\ARM_GCC_473\Debug\GoBee-00_1.a(WaveDAC8.o)
 .debug_abbrev  0x00003349      0x11f .\CortexM3\ARM_GCC_473\Debug\GoBee-00_1.a(WaveDAC8_DacClk.o)
 .debug_abbrev  0x00003468       0x8d .\CortexM3\ARM_GCC_473\Debug\GoBee-00_1.a(WaveDAC8_Wave1_DMA_dma.o)
 .debug_abbrev  0x000034f5       0x8d .\CortexM3\ARM_GCC_473\Debug\GoBee-00_1.a(WaveDAC8_Wave2_DMA_dma.o)
 .debug_abbrev  0x00003582       0xed .\CortexM3\ARM_GCC_473\Debug\GoBee-00_1.a(WaveDAC8_VDAC8.o)
 .debug_abbrev  0x0000366f       0xaa .\CortexM3\ARM_GCC_473\Debug\GoBee-00_1.a(WaveDAC8_BuffAmp.o)
 .debug_abbrev  0x00003719       0xed .\CortexM3\ARM_GCC_473\Debug\GoBee-00_1.a(VDAC8_ANAPOS.o)
 .debug_abbrev  0x00003806       0x83 .\CortexM3\ARM_GCC_473\Debug\GoBee-00_1.a(Control_Reg_WaveDAC8.o)

.debug_line     0x00000000     0x5616
 *(.debug_line)
 .debug_line    0x00000000      0x2a5 .\CortexM3\ARM_GCC_473\Debug\main.o
 .debug_line    0x000002a5      0x6d3 .\CortexM3\ARM_GCC_473\Debug\console.o
 .debug_line    0x00000978      0x419 .\CortexM3\ARM_GCC_473\Debug\gobeelib.o
 .debug_line    0x00000d91      0x166 .\CortexM3\ARM_GCC_473\Debug\ADXRS453.o
 .debug_line    0x00000ef7      0x1bb .\CortexM3\ARM_GCC_473\Debug\motor_CTRL.o
 .debug_line    0x000010b2      0x152 .\CortexM3\ARM_GCC_473\Debug\sensor_CTRL.o
 .debug_line    0x00001204      0x268 .\CortexM3\ARM_GCC_473\Debug\pid_lib.o
 .debug_line    0x0000146c      0x12d .\CortexM3\ARM_GCC_473\Debug\estimators.o
 .debug_line    0x00001599      0x173 .\CortexM3\ARM_GCC_473\Debug\das.o
 .debug_line    0x0000170c      0x1a4 .\CortexM3\ARM_GCC_473\Debug\Cm3Start.o
 .debug_line    0x000018b0       0x53 .\CortexM3\ARM_GCC_473\Debug\cymetadata.o
 .debug_line    0x00001903       0x55 .\CortexM3\ARM_GCC_473\Debug\cybootloader.o
 .debug_line    0x00001958      0x29d .\CortexM3\ARM_GCC_473\Debug\GoBee-00_1.a(cyfitter_cfg_1.o)
 .debug_line    0x00001bf5      0x359 .\CortexM3\ARM_GCC_473\Debug\GoBee-00_1.a(ADC.o)
 .debug_line    0x00001f4e       0xa3 .\CortexM3\ARM_GCC_473\Debug\GoBee-00_1.a(ADC_INT.o)
 .debug_line    0x00001ff1      0x2f3 .\CortexM3\ARM_GCC_473\Debug\GoBee-00_1.a(UART_USB.o)
 .debug_line    0x000022e4       0x7a .\CortexM3\ARM_GCC_473\Debug\GoBee-00_1.a(Control_Reg_LED.o)
 .debug_line    0x0000235e      0x1a3 .\CortexM3\ARM_GCC_473\Debug\GoBee-00_1.a(EEPROM.o)
 .debug_line    0x00002501       0xa9 .\CortexM3\ARM_GCC_473\Debug\GoBee-00_1.a(AMuxSeq.o)
 .debug_line    0x000025aa      0x15a .\CortexM3\ARM_GCC_473\Debug\GoBee-00_1.a(isr_CTRL.o)
 .debug_line    0x00002704       0xb7 .\CortexM3\ARM_GCC_473\Debug\GoBee-00_1.a(Status_Reg_BUTTON.o)
 .debug_line    0x000027bb      0x18f .\CortexM3\ARM_GCC_473\Debug\GoBee-00_1.a(Counter_LED.o)
 .debug_line    0x0000294a      0x154 .\CortexM3\ARM_GCC_473\Debug\GoBee-00_1.a(isr_DGYRO.o)
 .debug_line    0x00002a9e      0x1a2 .\CortexM3\ARM_GCC_473\Debug\GoBee-00_1.a(Clock_DGYRO.o)
 .debug_line    0x00002c40      0x1c6 .\CortexM3\ARM_GCC_473\Debug\GoBee-00_1.a(ADC_theACLK.o)
 .debug_line    0x00002e06      0x1a5 .\CortexM3\ARM_GCC_473\Debug\GoBee-00_1.a(ADC_Ext_CP_Clk.o)
 .debug_line    0x00002fab      0x1a8 .\CortexM3\ARM_GCC_473\Debug\GoBee-00_1.a(UART_USB_IntClock.o)
 .debug_line    0x00003153       0x68 .\CortexM3\ARM_GCC_473\Debug\GoBee-00_1.a(CyBootAsmGnu.o)
 .debug_line    0x000031bb      0x2bc .\CortexM3\ARM_GCC_473\Debug\GoBee-00_1.a(CyDmac.o)
 .debug_line    0x00003477      0x1a9 .\CortexM3\ARM_GCC_473\Debug\GoBee-00_1.a(CyFlash.o)
 .debug_line    0x00003620      0x73b .\CortexM3\ARM_GCC_473\Debug\GoBee-00_1.a(CyLib.o)
 .debug_line    0x00003d5b      0x370 .\CortexM3\ARM_GCC_473\Debug\GoBee-00_1.a(cyPm.o)
 .debug_line    0x000040cb      0x1a7 .\CortexM3\ARM_GCC_473\Debug\GoBee-00_1.a(CySpc.o)
 .debug_line    0x00004272       0x7a .\CortexM3\ARM_GCC_473\Debug\GoBee-00_1.a(Control_Reg_BUZ.o)
 .debug_line    0x000042ec       0x7c .\CortexM3\ARM_GCC_473\Debug\GoBee-00_1.a(Control_Reg_MOTOR.o)
 .debug_line    0x00004368       0xb6 .\CortexM3\ARM_GCC_473\Debug\GoBee-00_1.a(Status_Reg_MOTOR.o)
 .debug_line    0x0000441e      0x12a .\CortexM3\ARM_GCC_473\Debug\GoBee-00_1.a(QuadDec_PAN.o)
 .debug_line    0x00004548       0x6f .\CortexM3\ARM_GCC_473\Debug\GoBee-00_1.a(QuadDec_PAN_INT.o)
 .debug_line    0x000045b7      0x195 .\CortexM3\ARM_GCC_473\Debug\GoBee-00_1.a(QuadDec_PAN_Cnt16.o)
 .debug_line    0x0000474c      0x152 .\CortexM3\ARM_GCC_473\Debug\GoBee-00_1.a(ADC_IRQ.o)
 .debug_line    0x0000489e       0x8f .\CortexM3\ARM_GCC_473\Debug\GoBee-00_1.a(Bootloadable.o)
 .debug_line    0x0000492d      0x218 .\CortexM3\ARM_GCC_473\Debug\GoBee-00_1.a(isr_Ticks.o)
 .debug_line    0x00004b45      0x1c1 .\CortexM3\ARM_GCC_473\Debug\GoBee-00_1.a(PWM_MOTOR_PAN.o)
 .debug_line    0x00004d06      0x237 .\CortexM3\ARM_GCC_473\Debug\GoBee-00_1.a(isr_BUTTON.o)
 .debug_line    0x00004f3d       0xf6 .\CortexM3\ARM_GCC_473\Debug\GoBee-00_1.a(WaveDAC8.o)
 .debug_line    0x00005033      0x1a6 .\CortexM3\ARM_GCC_473\Debug\GoBee-00_1.a(WaveDAC8_DacClk.o)
 .debug_line    0x000051d9       0x88 .\CortexM3\ARM_GCC_473\Debug\GoBee-00_1.a(WaveDAC8_Wave1_DMA_dma.o)
 .debug_line    0x00005261       0x88 .\CortexM3\ARM_GCC_473\Debug\GoBee-00_1.a(WaveDAC8_Wave2_DMA_dma.o)
 .debug_line    0x000052e9       0xfa .\CortexM3\ARM_GCC_473\Debug\GoBee-00_1.a(WaveDAC8_VDAC8.o)
 .debug_line    0x000053e3       0xbb .\CortexM3\ARM_GCC_473\Debug\GoBee-00_1.a(WaveDAC8_BuffAmp.o)
 .debug_line    0x0000549e       0xf9 .\CortexM3\ARM_GCC_473\Debug\GoBee-00_1.a(VDAC8_ANAPOS.o)
 .debug_line    0x00005597       0x7f .\CortexM3\ARM_GCC_473\Debug\GoBee-00_1.a(Control_Reg_WaveDAC8.o)

.debug_frame    0x00000000     0x4ea8
 *(.debug_frame)
 .debug_frame   0x00000000       0x30 .\CortexM3\ARM_GCC_473\Debug\main.o
 .debug_frame   0x00000030       0xec .\CortexM3\ARM_GCC_473\Debug\console.o
 .debug_frame   0x0000011c      0x25c .\CortexM3\ARM_GCC_473\Debug\gobeelib.o
 .debug_frame   0x00000378       0x8c .\CortexM3\ARM_GCC_473\Debug\ADXRS453.o
 .debug_frame   0x00000404       0x94 .\CortexM3\ARM_GCC_473\Debug\motor_CTRL.o
 .debug_frame   0x00000498       0x34 .\CortexM3\ARM_GCC_473\Debug\sensor_CTRL.o
 .debug_frame   0x000004cc      0x1d8 .\CortexM3\ARM_GCC_473\Debug\pid_lib.o
 .debug_frame   0x000006a4       0x50 .\CortexM3\ARM_GCC_473\Debug\estimators.o
 .debug_frame   0x000006f4       0x64 .\CortexM3\ARM_GCC_473\Debug\das.o
 .debug_frame   0x00000758       0xa4 .\CortexM3\ARM_GCC_473\Debug\Cm3Start.o
 .debug_frame   0x000007fc      0x158 .\CortexM3\ARM_GCC_473\Debug\GoBee-00_1.a(cyfitter_cfg_1.o)
 .debug_frame   0x00000954      0x31c .\CortexM3\ARM_GCC_473\Debug\GoBee-00_1.a(ADC.o)
 .debug_frame   0x00000c70       0x80 .\CortexM3\ARM_GCC_473\Debug\GoBee-00_1.a(ADC_INT.o)
 .debug_frame   0x00000cf0      0x328 .\CortexM3\ARM_GCC_473\Debug\GoBee-00_1.a(UART_USB.o)
 .debug_frame   0x00001018       0x48 .\CortexM3\ARM_GCC_473\Debug\GoBee-00_1.a(Control_Reg_LED.o)
 .debug_frame   0x00001060      0x104 .\CortexM3\ARM_GCC_473\Debug\GoBee-00_1.a(EEPROM.o)
 .debug_frame   0x00001164       0x80 .\CortexM3\ARM_GCC_473\Debug\GoBee-00_1.a(AMuxSeq.o)
 .debug_frame   0x000011e4      0x180 .\CortexM3\ARM_GCC_473\Debug\GoBee-00_1.a(isr_CTRL.o)
 .debug_frame   0x00001364       0xa4 .\CortexM3\ARM_GCC_473\Debug\GoBee-00_1.a(Status_Reg_BUTTON.o)
 .debug_frame   0x00001408      0x1d4 .\CortexM3\ARM_GCC_473\Debug\GoBee-00_1.a(Counter_LED.o)
 .debug_frame   0x000015dc      0x180 .\CortexM3\ARM_GCC_473\Debug\GoBee-00_1.a(isr_DGYRO.o)
 .debug_frame   0x0000175c      0x14c .\CortexM3\ARM_GCC_473\Debug\GoBee-00_1.a(Clock_DGYRO.o)
 .debug_frame   0x000018a8      0x184 .\CortexM3\ARM_GCC_473\Debug\GoBee-00_1.a(ADC_theACLK.o)
 .debug_frame   0x00001a2c      0x14c .\CortexM3\ARM_GCC_473\Debug\GoBee-00_1.a(ADC_Ext_CP_Clk.o)
 .debug_frame   0x00001b78      0x14c .\CortexM3\ARM_GCC_473\Debug\GoBee-00_1.a(UART_USB_IntClock.o)
 .debug_frame   0x00001cc4      0x2c0 .\CortexM3\ARM_GCC_473\Debug\GoBee-00_1.a(CyDmac.o)
 .debug_frame   0x00001f84      0x178 .\CortexM3\ARM_GCC_473\Debug\GoBee-00_1.a(CyFlash.o)
 .debug_frame   0x000020fc      0x778 .\CortexM3\ARM_GCC_473\Debug\GoBee-00_1.a(CyLib.o)
 .debug_frame   0x00002874      0x1d0 .\CortexM3\ARM_GCC_473\Debug\GoBee-00_1.a(cyPm.o)
 .debug_frame   0x00002a44      0x13c .\CortexM3\ARM_GCC_473\Debug\GoBee-00_1.a(CySpc.o)
 .debug_frame   0x00002b80       0x48 .\CortexM3\ARM_GCC_473\Debug\GoBee-00_1.a(Control_Reg_BUZ.o)
 .debug_frame   0x00002bc8       0x48 .\CortexM3\ARM_GCC_473\Debug\GoBee-00_1.a(Control_Reg_MOTOR.o)
 .debug_frame   0x00002c10       0xa4 .\CortexM3\ARM_GCC_473\Debug\GoBee-00_1.a(Status_Reg_MOTOR.o)
 .debug_frame   0x00002cb4      0x11c .\CortexM3\ARM_GCC_473\Debug\GoBee-00_1.a(QuadDec_PAN.o)
 .debug_frame   0x00002dd0       0x2c .\CortexM3\ARM_GCC_473\Debug\GoBee-00_1.a(QuadDec_PAN_INT.o)
 .debug_frame   0x00002dfc      0x1d4 .\CortexM3\ARM_GCC_473\Debug\GoBee-00_1.a(QuadDec_PAN_Cnt16.o)
 .debug_frame   0x00002fd0      0x180 .\CortexM3\ARM_GCC_473\Debug\GoBee-00_1.a(ADC_IRQ.o)
 .debug_frame   0x00003150       0x4c .\CortexM3\ARM_GCC_473\Debug\GoBee-00_1.a(Bootloadable.o)
 .debug_frame   0x0000319c      0x180 .\CortexM3\ARM_GCC_473\Debug\GoBee-00_1.a(isr_Ticks.o)
 .debug_frame   0x0000331c      0x20c .\CortexM3\ARM_GCC_473\Debug\GoBee-00_1.a(PWM_MOTOR_PAN.o)
 .debug_frame   0x00003528      0x180 .\CortexM3\ARM_GCC_473\Debug\GoBee-00_1.a(isr_BUTTON.o)
 .debug_frame   0x000036a8       0xe0 .\CortexM3\ARM_GCC_473\Debug\GoBee-00_1.a(WaveDAC8.o)
 .debug_frame   0x00003788      0x14c .\CortexM3\ARM_GCC_473\Debug\GoBee-00_1.a(WaveDAC8_DacClk.o)
 .debug_frame   0x000038d4       0x4c .\CortexM3\ARM_GCC_473\Debug\GoBee-00_1.a(WaveDAC8_Wave1_DMA_dma.o)
 .debug_frame   0x00003920       0x4c .\CortexM3\ARM_GCC_473\Debug\GoBee-00_1.a(WaveDAC8_Wave2_DMA_dma.o)
 .debug_frame   0x0000396c       0xf4 .\CortexM3\ARM_GCC_473\Debug\GoBee-00_1.a(WaveDAC8_VDAC8.o)
 .debug_frame   0x00003a60       0x9c .\CortexM3\ARM_GCC_473\Debug\GoBee-00_1.a(WaveDAC8_BuffAmp.o)
 .debug_frame   0x00003afc       0xf4 .\CortexM3\ARM_GCC_473\Debug\GoBee-00_1.a(VDAC8_ANAPOS.o)
 .debug_frame   0x00003bf0       0x48 .\CortexM3\ARM_GCC_473\Debug\GoBee-00_1.a(Control_Reg_WaveDAC8.o)
 .debug_frame   0x00003c38       0x34 c:/programmi/cypress/psoc creator/3.0/psoc creator/import/gnu_cs/arm/4.7.3/bin/../lib/gcc/arm-none-eabi/4.7.3/../../../../arm-none-eabi/lib/armv7-m\libg.a(lib_a-__atexit.o)
 .debug_frame   0x00003c6c       0x20 c:/programmi/cypress/psoc creator/3.0/psoc creator/import/gnu_cs/arm/4.7.3/bin/../lib/gcc/arm-none-eabi/4.7.3/../../../../arm-none-eabi/lib/armv7-m\libg.a(lib_a-atof.o)
 .debug_frame   0x00003c8c       0x30 c:/programmi/cypress/psoc creator/3.0/psoc creator/import/gnu_cs/arm/4.7.3/bin/../lib/gcc/arm-none-eabi/4.7.3/../../../../arm-none-eabi/lib/armv7-m\libg.a(lib_a-atoi.o)
 .debug_frame   0x00003cbc       0x28 c:/programmi/cypress/psoc creator/3.0/psoc creator/import/gnu_cs/arm/4.7.3/bin/../lib/gcc/arm-none-eabi/4.7.3/../../../../arm-none-eabi/lib/armv7-m\libg.a(lib_a-exit.o)
 .debug_frame   0x00003ce4       0x2c c:/programmi/cypress/psoc creator/3.0/psoc creator/import/gnu_cs/arm/4.7.3/bin/../lib/gcc/arm-none-eabi/4.7.3/../../../../arm-none-eabi/lib/armv7-m\libg.a(lib_a-fini.o)
 .debug_frame   0x00003d10       0x30 c:/programmi/cypress/psoc creator/3.0/psoc creator/import/gnu_cs/arm/4.7.3/bin/../lib/gcc/arm-none-eabi/4.7.3/../../../../arm-none-eabi/lib/armv7-m\libg.a(lib_a-init.o)
 .debug_frame   0x00003d40       0x30 c:/programmi/cypress/psoc creator/3.0/psoc creator/import/gnu_cs/arm/4.7.3/bin/../lib/gcc/arm-none-eabi/4.7.3/../../../../arm-none-eabi/lib/armv7-m\libg.a(lib_a-memcpy.o)
 .debug_frame   0x00003d70       0x2c c:/programmi/cypress/psoc creator/3.0/psoc creator/import/gnu_cs/arm/4.7.3/bin/../lib/gcc/arm-none-eabi/4.7.3/../../../../arm-none-eabi/lib/armv7-m\libg.a(lib_a-memset.o)
 .debug_frame   0x00003d9c       0x5c c:/programmi/cypress/psoc creator/3.0/psoc creator/import/gnu_cs/arm/4.7.3/bin/../lib/gcc/arm-none-eabi/4.7.3/../../../../arm-none-eabi/lib/armv7-m\libg.a(lib_a-printf.o)
 .debug_frame   0x00003df8       0x30 c:/programmi/cypress/psoc creator/3.0/psoc creator/import/gnu_cs/arm/4.7.3/bin/../lib/gcc/arm-none-eabi/4.7.3/../../../../arm-none-eabi/lib/armv7-m\libg.a(lib_a-putchar.o)
 .debug_frame   0x00003e28       0x40 c:/programmi/cypress/psoc creator/3.0/psoc creator/import/gnu_cs/arm/4.7.3/bin/../lib/gcc/arm-none-eabi/4.7.3/../../../../arm-none-eabi/lib/armv7-m\libg.a(lib_a-puts.o)
 .debug_frame   0x00003e68       0x34 c:/programmi/cypress/psoc creator/3.0/psoc creator/import/gnu_cs/arm/4.7.3/bin/../lib/gcc/arm-none-eabi/4.7.3/../../../../arm-none-eabi/lib/armv7-m\libg.a(lib_a-setvbuf.o)
 .debug_frame   0x00003e9c       0x30 c:/programmi/cypress/psoc creator/3.0/psoc creator/import/gnu_cs/arm/4.7.3/bin/../lib/gcc/arm-none-eabi/4.7.3/../../../../arm-none-eabi/lib/armv7-m\libg.a(lib_a-strcmp.o)
 .debug_frame   0x00003ecc       0x20 c:/programmi/cypress/psoc creator/3.0/psoc creator/import/gnu_cs/arm/4.7.3/bin/../lib/gcc/arm-none-eabi/4.7.3/../../../../arm-none-eabi/lib/armv7-m\libg.a(lib_a-strcpy.o)
 .debug_frame   0x00003eec       0x20 c:/programmi/cypress/psoc creator/3.0/psoc creator/import/gnu_cs/arm/4.7.3/bin/../lib/gcc/arm-none-eabi/4.7.3/../../../../arm-none-eabi/lib/armv7-m\libg.a(lib_a-strlen.o)
 .debug_frame   0x00003f0c       0x70 c:/programmi/cypress/psoc creator/3.0/psoc creator/import/gnu_cs/arm/4.7.3/bin/../lib/gcc/arm-none-eabi/4.7.3/../../../../arm-none-eabi/lib/armv7-m\libg.a(lib_a-strtod.o)
 .debug_frame   0x00003f7c       0x20 c:/programmi/cypress/psoc creator/3.0/psoc creator/import/gnu_cs/arm/4.7.3/bin/../lib/gcc/arm-none-eabi/4.7.3/../../../../arm-none-eabi/lib/armv7-m\libg.a(lib_a-strtok.o)
 .debug_frame   0x00003f9c       0x3c c:/programmi/cypress/psoc creator/3.0/psoc creator/import/gnu_cs/arm/4.7.3/bin/../lib/gcc/arm-none-eabi/4.7.3/../../../../arm-none-eabi/lib/armv7-m\libg.a(lib_a-strtok_r.o)
 .debug_frame   0x00003fd8       0x54 c:/programmi/cypress/psoc creator/3.0/psoc creator/import/gnu_cs/arm/4.7.3/bin/../lib/gcc/arm-none-eabi/4.7.3/../../../../arm-none-eabi/lib/armv7-m\libg.a(lib_a-strtol.o)
 .debug_frame   0x0000402c       0x80 c:/programmi/cypress/psoc creator/3.0/psoc creator/import/gnu_cs/arm/4.7.3/bin/../lib/gcc/arm-none-eabi/4.7.3/../../../../arm-none-eabi/lib/armv7-m\libg.a(lib_a-vfprintf.o)
 .debug_frame   0x000040ac       0x2c c:/programmi/cypress/psoc creator/3.0/psoc creator/import/gnu_cs/arm/4.7.3/bin/../lib/gcc/arm-none-eabi/4.7.3/../../../../arm-none-eabi/lib/armv7-m\libg.a(lib_a-wsetup.o)
 .debug_frame   0x000040d8       0x48 c:/programmi/cypress/psoc creator/3.0/psoc creator/import/gnu_cs/arm/4.7.3/bin/../lib/gcc/arm-none-eabi/4.7.3/../../../../arm-none-eabi/lib/armv7-m\libg.a(lib_a-__call_atexit.o)
 .debug_frame   0x00004120       0x20 c:/programmi/cypress/psoc creator/3.0/psoc creator/import/gnu_cs/arm/4.7.3/bin/../lib/gcc/arm-none-eabi/4.7.3/../../../../arm-none-eabi/lib/armv7-m\libg.a(lib_a-atexit.o)
 .debug_frame   0x00004140       0x64 c:/programmi/cypress/psoc creator/3.0/psoc creator/import/gnu_cs/arm/4.7.3/bin/../lib/gcc/arm-none-eabi/4.7.3/../../../../arm-none-eabi/lib/armv7-m\libg.a(lib_a-dtoa.o)
 .debug_frame   0x000041a4       0x40 c:/programmi/cypress/psoc creator/3.0/psoc creator/import/gnu_cs/arm/4.7.3/bin/../lib/gcc/arm-none-eabi/4.7.3/../../../../arm-none-eabi/lib/armv7-m\libg.a(lib_a-fflush.o)
 .debug_frame   0x000041e4      0x120 c:/programmi/cypress/psoc creator/3.0/psoc creator/import/gnu_cs/arm/4.7.3/bin/../lib/gcc/arm-none-eabi/4.7.3/../../../../arm-none-eabi/lib/armv7-m\libg.a(lib_a-findfp.o)
 .debug_frame   0x00004304       0x50 c:/programmi/cypress/psoc creator/3.0/psoc creator/import/gnu_cs/arm/4.7.3/bin/../lib/gcc/arm-none-eabi/4.7.3/../../../../arm-none-eabi/lib/armv7-m\libg.a(lib_a-freer.o)
 .debug_frame   0x00004354       0x38 c:/programmi/cypress/psoc creator/3.0/psoc creator/import/gnu_cs/arm/4.7.3/bin/../lib/gcc/arm-none-eabi/4.7.3/../../../../arm-none-eabi/lib/armv7-m\libg.a(lib_a-fvwrite.o)
 .debug_frame   0x0000438c       0x5c c:/programmi/cypress/psoc creator/3.0/psoc creator/import/gnu_cs/arm/4.7.3/bin/../lib/gcc/arm-none-eabi/4.7.3/../../../../arm-none-eabi/lib/armv7-m\libg.a(lib_a-fwalk.o)
 .debug_frame   0x000043e8       0x68 c:/programmi/cypress/psoc creator/3.0/psoc creator/import/gnu_cs/arm/4.7.3/bin/../lib/gcc/arm-none-eabi/4.7.3/../../../../arm-none-eabi/lib/armv7-m\libg.a(lib_a-gdtoa-gethex.o)
 .debug_frame   0x00004450       0x38 c:/programmi/cypress/psoc creator/3.0/psoc creator/import/gnu_cs/arm/4.7.3/bin/../lib/gcc/arm-none-eabi/4.7.3/../../../../arm-none-eabi/lib/armv7-m\libg.a(lib_a-gdtoa-hexnan.o)
 .debug_frame   0x00004488       0xa0 c:/programmi/cypress/psoc creator/3.0/psoc creator/import/gnu_cs/arm/4.7.3/bin/../lib/gcc/arm-none-eabi/4.7.3/../../../../arm-none-eabi/lib/armv7-m\libg.a(lib_a-locale.o)
 .debug_frame   0x00004528       0x30 c:/programmi/cypress/psoc creator/3.0/psoc creator/import/gnu_cs/arm/4.7.3/bin/../lib/gcc/arm-none-eabi/4.7.3/../../../../arm-none-eabi/lib/armv7-m\libg.a(lib_a-makebuf.o)
 .debug_frame   0x00004558       0x30 c:/programmi/cypress/psoc creator/3.0/psoc creator/import/gnu_cs/arm/4.7.3/bin/../lib/gcc/arm-none-eabi/4.7.3/../../../../arm-none-eabi/lib/armv7-m\libg.a(lib_a-malloc.o)
 .debug_frame   0x00004588       0x38 c:/programmi/cypress/psoc creator/3.0/psoc creator/import/gnu_cs/arm/4.7.3/bin/../lib/gcc/arm-none-eabi/4.7.3/../../../../arm-none-eabi/lib/armv7-m\libg.a(lib_a-mallocr.o)
 .debug_frame   0x000045c0       0x2c c:/programmi/cypress/psoc creator/3.0/psoc creator/import/gnu_cs/arm/4.7.3/bin/../lib/gcc/arm-none-eabi/4.7.3/../../../../arm-none-eabi/lib/armv7-m\libg.a(lib_a-memchr.o)
 .debug_frame   0x000045ec       0x30 c:/programmi/cypress/psoc creator/3.0/psoc creator/import/gnu_cs/arm/4.7.3/bin/../lib/gcc/arm-none-eabi/4.7.3/../../../../arm-none-eabi/lib/armv7-m\libg.a(lib_a-memmove.o)
 .debug_frame   0x0000461c       0x30 c:/programmi/cypress/psoc creator/3.0/psoc creator/import/gnu_cs/arm/4.7.3/bin/../lib/gcc/arm-none-eabi/4.7.3/../../../../arm-none-eabi/lib/armv7-m\libg.a(lib_a-mlock.o)
 .debug_frame   0x0000464c      0x238 c:/programmi/cypress/psoc creator/3.0/psoc creator/import/gnu_cs/arm/4.7.3/bin/../lib/gcc/arm-none-eabi/4.7.3/../../../../arm-none-eabi/lib/armv7-m\libg.a(lib_a-mprec.o)
 .debug_frame   0x00004884       0x48 c:/programmi/cypress/psoc creator/3.0/psoc creator/import/gnu_cs/arm/4.7.3/bin/../lib/gcc/arm-none-eabi/4.7.3/../../../../arm-none-eabi/lib/armv7-m\libg.a(lib_a-putc.o)
 .debug_frame   0x000048cc       0x38 c:/programmi/cypress/psoc creator/3.0/psoc creator/import/gnu_cs/arm/4.7.3/bin/../lib/gcc/arm-none-eabi/4.7.3/../../../../arm-none-eabi/lib/armv7-m\libg.a(lib_a-reallocr.o)
 .debug_frame   0x00004904       0x20 c:/programmi/cypress/psoc creator/3.0/psoc creator/import/gnu_cs/arm/4.7.3/bin/../lib/gcc/arm-none-eabi/4.7.3/../../../../arm-none-eabi/lib/armv7-m\libg.a(lib_a-s_fpclassify.o)
 .debug_frame   0x00004924       0x2c c:/programmi/cypress/psoc creator/3.0/psoc creator/import/gnu_cs/arm/4.7.3/bin/../lib/gcc/arm-none-eabi/4.7.3/../../../../arm-none-eabi/lib/armv7-m\libg.a(lib_a-sbrkr.o)
 .debug_frame   0x00004950       0x20 c:/programmi/cypress/psoc creator/3.0/psoc creator/import/gnu_cs/arm/4.7.3/bin/../lib/gcc/arm-none-eabi/4.7.3/../../../../arm-none-eabi/lib/armv7-m\libg.a(lib_a-sf_nan.o)
 .debug_frame   0x00004970       0x80 c:/programmi/cypress/psoc creator/3.0/psoc creator/import/gnu_cs/arm/4.7.3/bin/../lib/gcc/arm-none-eabi/4.7.3/../../../../arm-none-eabi/lib/armv7-m\libg.a(lib_a-stdio.o)
 .debug_frame   0x000049f0       0x2c c:/programmi/cypress/psoc creator/3.0/psoc creator/import/gnu_cs/arm/4.7.3/bin/../lib/gcc/arm-none-eabi/4.7.3/../../../../arm-none-eabi/lib/armv7-m\libg.a(lib_a-strncmp.o)
 .debug_frame   0x00004a1c       0xa8 c:/programmi/cypress/psoc creator/3.0/psoc creator/import/gnu_cs/arm/4.7.3/bin/../lib/gcc/arm-none-eabi/4.7.3/../../../../arm-none-eabi/lib/armv7-m\libg.a(lib_a-vfiprintf.o)
 .debug_frame   0x00004ac4       0x44 c:/programmi/cypress/psoc creator/3.0/psoc creator/import/gnu_cs/arm/4.7.3/bin/../lib/gcc/arm-none-eabi/4.7.3/../../../../arm-none-eabi/lib/armv7-m\libg.a(lib_a-wbuf.o)
 .debug_frame   0x00004b08       0x2c c:/programmi/cypress/psoc creator/3.0/psoc creator/import/gnu_cs/arm/4.7.3/bin/../lib/gcc/arm-none-eabi/4.7.3/../../../../arm-none-eabi/lib/armv7-m\libg.a(lib_a-writer.o)
 .debug_frame   0x00004b34       0x28 c:/programmi/cypress/psoc creator/3.0/psoc creator/import/gnu_cs/arm/4.7.3/bin/../lib/gcc/arm-none-eabi/4.7.3/../../../../arm-none-eabi/lib/armv7-m\libg.a(lib_a-callocr.o)
 .debug_frame   0x00004b5c       0x2c c:/programmi/cypress/psoc creator/3.0/psoc creator/import/gnu_cs/arm/4.7.3/bin/../lib/gcc/arm-none-eabi/4.7.3/../../../../arm-none-eabi/lib/armv7-m\libg.a(lib_a-closer.o)
 .debug_frame   0x00004b88       0x3c c:/programmi/cypress/psoc creator/3.0/psoc creator/import/gnu_cs/arm/4.7.3/bin/../lib/gcc/arm-none-eabi/4.7.3/../../../../arm-none-eabi/lib/armv7-m\libg.a(lib_a-fclose.o)
 .debug_frame   0x00004bc4       0x54 c:/programmi/cypress/psoc creator/3.0/psoc creator/import/gnu_cs/arm/4.7.3/bin/../lib/gcc/arm-none-eabi/4.7.3/../../../../arm-none-eabi/lib/armv7-m\libg.a(lib_a-fputwc.o)
 .debug_frame   0x00004c18       0x2c c:/programmi/cypress/psoc creator/3.0/psoc creator/import/gnu_cs/arm/4.7.3/bin/../lib/gcc/arm-none-eabi/4.7.3/../../../../arm-none-eabi/lib/armv7-m\libg.a(lib_a-fstatr.o)
 .debug_frame   0x00004c44       0x2c c:/programmi/cypress/psoc creator/3.0/psoc creator/import/gnu_cs/arm/4.7.3/bin/../lib/gcc/arm-none-eabi/4.7.3/../../../../arm-none-eabi/lib/armv7-m\libg.a(lib_a-isattyr.o)
 .debug_frame   0x00004c70       0x2c c:/programmi/cypress/psoc creator/3.0/psoc creator/import/gnu_cs/arm/4.7.3/bin/../lib/gcc/arm-none-eabi/4.7.3/../../../../arm-none-eabi/lib/armv7-m\libg.a(lib_a-lseekr.o)
 .debug_frame   0x00004c9c       0x2c c:/programmi/cypress/psoc creator/3.0/psoc creator/import/gnu_cs/arm/4.7.3/bin/../lib/gcc/arm-none-eabi/4.7.3/../../../../arm-none-eabi/lib/armv7-m\libg.a(lib_a-readr.o)
 .debug_frame   0x00004cc8       0x6c c:/programmi/cypress/psoc creator/3.0/psoc creator/import/gnu_cs/arm/4.7.3/bin/../lib/gcc/arm-none-eabi/4.7.3/../../../../arm-none-eabi/lib/armv7-m\libg.a(lib_a-reent.o)
 .debug_frame   0x00004d34       0x58 c:/programmi/cypress/psoc creator/3.0/psoc creator/import/gnu_cs/arm/4.7.3/bin/../lib/gcc/arm-none-eabi/4.7.3/../../../../arm-none-eabi/lib/armv7-m\libg.a(lib_a-wcrtomb.o)
 .debug_frame   0x00004d8c       0x44 c:/programmi/cypress/psoc creator/3.0/psoc creator/import/gnu_cs/arm/4.7.3/bin/../lib/gcc/arm-none-eabi/4.7.3/../../../../arm-none-eabi/lib/armv7-m\libg.a(lib_a-wctomb_r.o)
 .debug_frame   0x00004dd0       0x50 c:/programmi/cypress/psoc creator/3.0/psoc creator/import/gnu_cs/arm/4.7.3/bin/../lib/gcc/arm-none-eabi/4.7.3/armv7-m\libgcc.a(bpabi.o)
 .debug_frame   0x00004e20       0x34 c:/programmi/cypress/psoc creator/3.0/psoc creator/import/gnu_cs/arm/4.7.3/bin/../lib/gcc/arm-none-eabi/4.7.3/armv7-m\libgcc.a(_divdi3.o)
 .debug_frame   0x00004e54       0x34 c:/programmi/cypress/psoc creator/3.0/psoc creator/import/gnu_cs/arm/4.7.3/bin/../lib/gcc/arm-none-eabi/4.7.3/armv7-m\libgcc.a(_udivdi3.o)
 .debug_frame   0x00004e88       0x20 c:/programmi/cypress/psoc creator/3.0/psoc creator/import/gnu_cs/arm/4.7.3/bin/../lib/gcc/arm-none-eabi/4.7.3/../../../../arm-none-eabi/lib/armv7-m\libnosys.a(sbrk.o)

.debug_str      0x00000000     0x49b2
 *(.debug_str)
 .debug_str     0x00000000      0xadc .\CortexM3\ARM_GCC_473\Debug\main.o
                                0xbd3 (size before relaxing)
 .debug_str     0x00000adc      0x16d .\CortexM3\ARM_GCC_473\Debug\console.o
                                0x74e (size before relaxing)
 .debug_str     0x00000c49      0x21d .\CortexM3\ARM_GCC_473\Debug\gobeelib.o
                                0x636 (size before relaxing)
 .debug_str     0x00000e66      0x1bd .\CortexM3\ARM_GCC_473\Debug\ADXRS453.o
                                0x2c7 (size before relaxing)
 .debug_str     0x00001023       0x50 .\CortexM3\ARM_GCC_473\Debug\motor_CTRL.o
                                0x4ed (size before relaxing)
 .debug_str     0x00001073       0x33 .\CortexM3\ARM_GCC_473\Debug\sensor_CTRL.o
                                0x3ed (size before relaxing)
 .debug_str     0x000010a6       0xe1 .\CortexM3\ARM_GCC_473\Debug\pid_lib.o
                                0x381 (size before relaxing)
 .debug_str     0x00001187       0x6c .\CortexM3\ARM_GCC_473\Debug\estimators.o
                                0x21e (size before relaxing)
 .debug_str     0x000011f3       0x2d .\CortexM3\ARM_GCC_473\Debug\das.o
                                0x36d (size before relaxing)
 .debug_str     0x00001220      0x102 .\CortexM3\ARM_GCC_473\Debug\Cm3Start.o
                                0x295 (size before relaxing)
 .debug_str     0x00001322       0x49 .\CortexM3\ARM_GCC_473\Debug\cymetadata.o
                                0x1ab (size before relaxing)
 .debug_str     0x0000136b       0x84 .\CortexM3\ARM_GCC_473\Debug\cybootloader.o
                                0x1e6 (size before relaxing)
 .debug_str     0x000013ef      0x231 .\CortexM3\ARM_GCC_473\Debug\GoBee-00_1.a(cyfitter_cfg_1.o)
                                0x366 (size before relaxing)
 .debug_str     0x00001620      0x2e5 .\CortexM3\ARM_GCC_473\Debug\GoBee-00_1.a(ADC.o)
                                0x4c2 (size before relaxing)
 .debug_str     0x00001905       0x4e .\CortexM3\ARM_GCC_473\Debug\GoBee-00_1.a(ADC_INT.o)
                                0x1d1 (size before relaxing)
 .debug_str     0x00001953      0x2ca .\CortexM3\ARM_GCC_473\Debug\GoBee-00_1.a(UART_USB.o)
                                0x47a (size before relaxing)
 .debug_str     0x00001c1d       0x56 .\CortexM3\ARM_GCC_473\Debug\GoBee-00_1.a(Control_Reg_LED.o)
                                0x1bc (size before relaxing)
 .debug_str     0x00001c73       0xd0 .\CortexM3\ARM_GCC_473\Debug\GoBee-00_1.a(EEPROM.o)
                                0x25e (size before relaxing)
 .debug_str     0x00001d43       0x6e .\CortexM3\ARM_GCC_473\Debug\GoBee-00_1.a(AMuxSeq.o)
                                0x1df (size before relaxing)
 .debug_str     0x00001db1      0x12a .\CortexM3\ARM_GCC_473\Debug\GoBee-00_1.a(isr_CTRL.o)
                                0x2fd (size before relaxing)
 .debug_str     0x00001edb       0xc0 .\CortexM3\ARM_GCC_473\Debug\GoBee-00_1.a(Status_Reg_BUTTON.o)
                                0x23b (size before relaxing)
 .debug_str     0x00001f9b      0x1f5 .\CortexM3\ARM_GCC_473\Debug\GoBee-00_1.a(Counter_LED.o)
                                0x373 (size before relaxing)
 .debug_str     0x00002190      0x120 .\CortexM3\ARM_GCC_473\Debug\GoBee-00_1.a(isr_DGYRO.o)
                                0x2c1 (size before relaxing)
 .debug_str     0x000022b0      0x18c .\CortexM3\ARM_GCC_473\Debug\GoBee-00_1.a(Clock_DGYRO.o)
                                0x30d (size before relaxing)
 .debug_str     0x0000243c      0x18c .\CortexM3\ARM_GCC_473\Debug\GoBee-00_1.a(ADC_theACLK.o)
                                0x350 (size before relaxing)
 .debug_str     0x000025c8      0x16d .\CortexM3\ARM_GCC_473\Debug\GoBee-00_1.a(ADC_Ext_CP_Clk.o)
                                0x331 (size before relaxing)
 .debug_str     0x00002735      0x191 .\CortexM3\ARM_GCC_473\Debug\GoBee-00_1.a(UART_USB_IntClock.o)
                                0x355 (size before relaxing)
 .debug_str     0x000028c6      0x343 .\CortexM3\ARM_GCC_473\Debug\GoBee-00_1.a(CyDmac.o)
                                0x500 (size before relaxing)
 .debug_str     0x00002c09      0x108 .\CortexM3\ARM_GCC_473\Debug\GoBee-00_1.a(CyFlash.o)
                                0x2d0 (size before relaxing)
 .debug_str     0x00002d11      0x5d8 .\CortexM3\ARM_GCC_473\Debug\GoBee-00_1.a(CyLib.o)
                                0x7fb (size before relaxing)
 .debug_str     0x000032e9      0x371 .\CortexM3\ARM_GCC_473\Debug\GoBee-00_1.a(cyPm.o)
                                0x50a (size before relaxing)
 .debug_str     0x0000365a       0xf1 .\CortexM3\ARM_GCC_473\Debug\GoBee-00_1.a(CySpc.o)
                                0x2ac (size before relaxing)
 .debug_str     0x0000374b       0x56 .\CortexM3\ARM_GCC_473\Debug\GoBee-00_1.a(Control_Reg_BUZ.o)
                                0x1bc (size before relaxing)
 .debug_str     0x000037a1       0x5c .\CortexM3\ARM_GCC_473\Debug\GoBee-00_1.a(Control_Reg_MOTOR.o)
                                0x1c2 (size before relaxing)
 .debug_str     0x000037fd       0xba .\CortexM3\ARM_GCC_473\Debug\GoBee-00_1.a(Status_Reg_MOTOR.o)
                                0x235 (size before relaxing)
 .debug_str     0x000038b7      0x12b .\CortexM3\ARM_GCC_473\Debug\GoBee-00_1.a(QuadDec_PAN.o)
                                0x2d4 (size before relaxing)
 .debug_str     0x000039e2       0x50 .\CortexM3\ARM_GCC_473\Debug\GoBee-00_1.a(QuadDec_PAN_INT.o)
                                0x1d9 (size before relaxing)
 .debug_str     0x00003a32      0x24b .\CortexM3\ARM_GCC_473\Debug\GoBee-00_1.a(QuadDec_PAN_Cnt16.o)
                                0x3f2 (size before relaxing)
 .debug_str     0x00003c7d      0x104 .\CortexM3\ARM_GCC_473\Debug\GoBee-00_1.a(ADC_IRQ.o)
                                0x2a5 (size before relaxing)
 .debug_str     0x00003d81       0x6b .\CortexM3\ARM_GCC_473\Debug\GoBee-00_1.a(Bootloadable.o)
                                0x201 (size before relaxing)
 .debug_str     0x00003dec      0x12c .\CortexM3\ARM_GCC_473\Debug\GoBee-00_1.a(isr_Ticks.o)
                                0x4b0 (size before relaxing)
 .debug_str     0x00003f18      0x24d .\CortexM3\ARM_GCC_473\Debug\GoBee-00_1.a(PWM_MOTOR_PAN.o)
                                0x3ec (size before relaxing)
 .debug_str     0x00004165      0x12e .\CortexM3\ARM_GCC_473\Debug\GoBee-00_1.a(isr_BUTTON.o)
                                0x3f9 (size before relaxing)
 .debug_str     0x00004293      0x14c .\CortexM3\ARM_GCC_473\Debug\GoBee-00_1.a(WaveDAC8.o)
                                0x2bc (size before relaxing)
 .debug_str     0x000043df      0x179 .\CortexM3\ARM_GCC_473\Debug\GoBee-00_1.a(WaveDAC8_DacClk.o)
                                0x33d (size before relaxing)
 .debug_str     0x00004558       0xc9 .\CortexM3\ARM_GCC_473\Debug\GoBee-00_1.a(WaveDAC8_Wave1_DMA_dma.o)
                                0x232 (size before relaxing)
 .debug_str     0x00004621       0x8e .\CortexM3\ARM_GCC_473\Debug\GoBee-00_1.a(WaveDAC8_Wave2_DMA_dma.o)
                                0x232 (size before relaxing)
 .debug_str     0x000046af       0xff .\CortexM3\ARM_GCC_473\Debug\GoBee-00_1.a(WaveDAC8_VDAC8.o)
                                0x268 (size before relaxing)
 .debug_str     0x000047ae       0xc0 .\CortexM3\ARM_GCC_473\Debug\GoBee-00_1.a(WaveDAC8_BuffAmp.o)
                                0x227 (size before relaxing)
 .debug_str     0x0000486e       0xdf .\CortexM3\ARM_GCC_473\Debug\GoBee-00_1.a(VDAC8_ANAPOS.o)
                                0x254 (size before relaxing)
 .debug_str     0x0000494d       0x65 .\CortexM3\ARM_GCC_473\Debug\GoBee-00_1.a(Control_Reg_WaveDAC8.o)
                                0x1cb (size before relaxing)

.debug_loc      0x00000000     0x63c2
 *(.debug_loc)
 .debug_loc     0x00000000       0x38 .\CortexM3\ARM_GCC_473\Debug\main.o
 .debug_loc     0x00000038      0x174 .\CortexM3\ARM_GCC_473\Debug\console.o
 .debug_loc     0x000001ac      0x410 .\CortexM3\ARM_GCC_473\Debug\gobeelib.o
 .debug_loc     0x000005bc       0xd4 .\CortexM3\ARM_GCC_473\Debug\ADXRS453.o
 .debug_loc     0x00000690       0xd4 .\CortexM3\ARM_GCC_473\Debug\motor_CTRL.o
 .debug_loc     0x00000764       0x2c .\CortexM3\ARM_GCC_473\Debug\sensor_CTRL.o
 .debug_loc     0x00000790      0x2f8 .\CortexM3\ARM_GCC_473\Debug\pid_lib.o
 .debug_loc     0x00000a88       0x70 .\CortexM3\ARM_GCC_473\Debug\estimators.o
 .debug_loc     0x00000af8       0x90 .\CortexM3\ARM_GCC_473\Debug\das.o
 .debug_loc     0x00000b88      0x100 .\CortexM3\ARM_GCC_473\Debug\Cm3Start.o
 .debug_loc     0x00000c88      0x250 .\CortexM3\ARM_GCC_473\Debug\GoBee-00_1.a(cyfitter_cfg_1.o)
 .debug_loc     0x00000ed8      0x58c .\CortexM3\ARM_GCC_473\Debug\GoBee-00_1.a(ADC.o)
 .debug_loc     0x00001464       0xb0 .\CortexM3\ARM_GCC_473\Debug\GoBee-00_1.a(ADC_INT.o)
 .debug_loc     0x00001514      0x5ac .\CortexM3\ARM_GCC_473\Debug\GoBee-00_1.a(UART_USB.o)
 .debug_loc     0x00001ac0       0x64 .\CortexM3\ARM_GCC_473\Debug\GoBee-00_1.a(Control_Reg_LED.o)
 .debug_loc     0x00001b24      0x19c .\CortexM3\ARM_GCC_473\Debug\GoBee-00_1.a(EEPROM.o)
 .debug_loc     0x00001cc0       0xb0 .\CortexM3\ARM_GCC_473\Debug\GoBee-00_1.a(AMuxSeq.o)
 .debug_loc     0x00001d70      0x278 .\CortexM3\ARM_GCC_473\Debug\GoBee-00_1.a(isr_CTRL.o)
 .debug_loc     0x00001fe8      0x100 .\CortexM3\ARM_GCC_473\Debug\GoBee-00_1.a(Status_Reg_BUTTON.o)
 .debug_loc     0x000020e8      0x308 .\CortexM3\ARM_GCC_473\Debug\GoBee-00_1.a(Counter_LED.o)
 .debug_loc     0x000023f0      0x278 .\CortexM3\ARM_GCC_473\Debug\GoBee-00_1.a(isr_DGYRO.o)
 .debug_loc     0x00002668      0x22c .\CortexM3\ARM_GCC_473\Debug\GoBee-00_1.a(Clock_DGYRO.o)
 .debug_loc     0x00002894      0x290 .\CortexM3\ARM_GCC_473\Debug\GoBee-00_1.a(ADC_theACLK.o)
 .debug_loc     0x00002b24      0x22c .\CortexM3\ARM_GCC_473\Debug\GoBee-00_1.a(ADC_Ext_CP_Clk.o)
 .debug_loc     0x00002d50      0x22c .\CortexM3\ARM_GCC_473\Debug\GoBee-00_1.a(UART_USB_IntClock.o)
 .debug_loc     0x00002f7c      0x51c .\CortexM3\ARM_GCC_473\Debug\GoBee-00_1.a(CyDmac.o)
 .debug_loc     0x00003498      0x258 .\CortexM3\ARM_GCC_473\Debug\GoBee-00_1.a(CyFlash.o)
 .debug_loc     0x000036f0      0xce0 .\CortexM3\ARM_GCC_473\Debug\GoBee-00_1.a(CyLib.o)
 .debug_loc     0x000043d0      0x2e8 .\CortexM3\ARM_GCC_473\Debug\GoBee-00_1.a(cyPm.o)
 .debug_loc     0x000046b8      0x230 .\CortexM3\ARM_GCC_473\Debug\GoBee-00_1.a(CySpc.o)
 .debug_loc     0x000048e8       0x64 .\CortexM3\ARM_GCC_473\Debug\GoBee-00_1.a(Control_Reg_BUZ.o)
 .debug_loc     0x0000494c       0x64 .\CortexM3\ARM_GCC_473\Debug\GoBee-00_1.a(Control_Reg_MOTOR.o)
 .debug_loc     0x000049b0      0x100 .\CortexM3\ARM_GCC_473\Debug\GoBee-00_1.a(Status_Reg_MOTOR.o)
 .debug_loc     0x00004ab0      0x1c8 .\CortexM3\ARM_GCC_473\Debug\GoBee-00_1.a(QuadDec_PAN.o)
 .debug_loc     0x00004c78       0x38 .\CortexM3\ARM_GCC_473\Debug\GoBee-00_1.a(QuadDec_PAN_INT.o)
 .debug_loc     0x00004cb0      0x308 .\CortexM3\ARM_GCC_473\Debug\GoBee-00_1.a(QuadDec_PAN_Cnt16.o)
 .debug_loc     0x00004fb8      0x278 .\CortexM3\ARM_GCC_473\Debug\GoBee-00_1.a(ADC_IRQ.o)
 .debug_loc     0x00005230       0x66 .\CortexM3\ARM_GCC_473\Debug\GoBee-00_1.a(Bootloadable.o)
 .debug_loc     0x00005296      0x278 .\CortexM3\ARM_GCC_473\Debug\GoBee-00_1.a(isr_Ticks.o)
 .debug_loc     0x0000550e      0x384 .\CortexM3\ARM_GCC_473\Debug\GoBee-00_1.a(PWM_MOTOR_PAN.o)
 .debug_loc     0x00005892      0x278 .\CortexM3\ARM_GCC_473\Debug\GoBee-00_1.a(isr_BUTTON.o)
 .debug_loc     0x00005b0a      0x158 .\CortexM3\ARM_GCC_473\Debug\GoBee-00_1.a(WaveDAC8.o)
 .debug_loc     0x00005c62      0x22c .\CortexM3\ARM_GCC_473\Debug\GoBee-00_1.a(WaveDAC8_DacClk.o)
 .debug_loc     0x00005e8e       0x64 .\CortexM3\ARM_GCC_473\Debug\GoBee-00_1.a(WaveDAC8_Wave1_DMA_dma.o)
 .debug_loc     0x00005ef2       0x64 .\CortexM3\ARM_GCC_473\Debug\GoBee-00_1.a(WaveDAC8_Wave2_DMA_dma.o)
 .debug_loc     0x00005f56      0x190 .\CortexM3\ARM_GCC_473\Debug\GoBee-00_1.a(WaveDAC8_VDAC8.o)
 .debug_loc     0x000060e6       0xe8 .\CortexM3\ARM_GCC_473\Debug\GoBee-00_1.a(WaveDAC8_BuffAmp.o)
 .debug_loc     0x000061ce      0x190 .\CortexM3\ARM_GCC_473\Debug\GoBee-00_1.a(VDAC8_ANAPOS.o)
 .debug_loc     0x0000635e       0x64 .\CortexM3\ARM_GCC_473\Debug\GoBee-00_1.a(Control_Reg_WaveDAC8.o)

.debug_macinfo
 *(.debug_macinfo)

.debug_ranges   0x00000000     0x1120
 *(.debug_ranges)
 .debug_ranges  0x00000000       0x10 .\CortexM3\ARM_GCC_473\Debug\main.o
 .debug_ranges  0x00000010       0x40 .\CortexM3\ARM_GCC_473\Debug\console.o
 .debug_ranges  0x00000050       0xa0 .\CortexM3\ARM_GCC_473\Debug\gobeelib.o
 .debug_ranges  0x000000f0       0x28 .\CortexM3\ARM_GCC_473\Debug\ADXRS453.o
 .debug_ranges  0x00000118       0x28 .\CortexM3\ARM_GCC_473\Debug\motor_CTRL.o
 .debug_ranges  0x00000140       0x10 .\CortexM3\ARM_GCC_473\Debug\sensor_CTRL.o
 .debug_ranges  0x00000150       0x78 .\CortexM3\ARM_GCC_473\Debug\pid_lib.o
 .debug_ranges  0x000001c8       0x18 .\CortexM3\ARM_GCC_473\Debug\estimators.o
 .debug_ranges  0x000001e0       0x20 .\CortexM3\ARM_GCC_473\Debug\das.o
 .debug_ranges  0x00000200       0x30 .\CortexM3\ARM_GCC_473\Debug\Cm3Start.o
 .debug_ranges  0x00000230       0x60 .\CortexM3\ARM_GCC_473\Debug\GoBee-00_1.a(cyfitter_cfg_1.o)
 .debug_ranges  0x00000290       0xd8 .\CortexM3\ARM_GCC_473\Debug\GoBee-00_1.a(ADC.o)
 .debug_ranges  0x00000368       0x28 .\CortexM3\ARM_GCC_473\Debug\GoBee-00_1.a(ADC_INT.o)
 .debug_ranges  0x00000390       0xe0 .\CortexM3\ARM_GCC_473\Debug\GoBee-00_1.a(UART_USB.o)
 .debug_ranges  0x00000470       0x18 .\CortexM3\ARM_GCC_473\Debug\GoBee-00_1.a(Control_Reg_LED.o)
 .debug_ranges  0x00000488       0x48 .\CortexM3\ARM_GCC_473\Debug\GoBee-00_1.a(EEPROM.o)
 .debug_ranges  0x000004d0       0x28 .\CortexM3\ARM_GCC_473\Debug\GoBee-00_1.a(AMuxSeq.o)
 .debug_ranges  0x000004f8       0x70 .\CortexM3\ARM_GCC_473\Debug\GoBee-00_1.a(isr_CTRL.o)
 .debug_ranges  0x00000568       0x30 .\CortexM3\ARM_GCC_473\Debug\GoBee-00_1.a(Status_Reg_BUTTON.o)
 .debug_ranges  0x00000598       0x88 .\CortexM3\ARM_GCC_473\Debug\GoBee-00_1.a(Counter_LED.o)
 .debug_ranges  0x00000620       0x70 .\CortexM3\ARM_GCC_473\Debug\GoBee-00_1.a(isr_DGYRO.o)
 .debug_ranges  0x00000690       0x60 .\CortexM3\ARM_GCC_473\Debug\GoBee-00_1.a(Clock_DGYRO.o)
 .debug_ranges  0x000006f0       0x70 .\CortexM3\ARM_GCC_473\Debug\GoBee-00_1.a(ADC_theACLK.o)
 .debug_ranges  0x00000760       0x60 .\CortexM3\ARM_GCC_473\Debug\GoBee-00_1.a(ADC_Ext_CP_Clk.o)
 .debug_ranges  0x000007c0       0x60 .\CortexM3\ARM_GCC_473\Debug\GoBee-00_1.a(UART_USB_IntClock.o)
 .debug_ranges  0x00000820       0xc8 .\CortexM3\ARM_GCC_473\Debug\GoBee-00_1.a(CyDmac.o)
 .debug_ranges  0x000008e8       0x68 .\CortexM3\ARM_GCC_473\Debug\GoBee-00_1.a(CyFlash.o)
 .debug_ranges  0x00000950      0x208 .\CortexM3\ARM_GCC_473\Debug\GoBee-00_1.a(CyLib.o)
 .debug_ranges  0x00000b58       0x80 .\CortexM3\ARM_GCC_473\Debug\GoBee-00_1.a(cyPm.o)
 .debug_ranges  0x00000bd8       0x58 .\CortexM3\ARM_GCC_473\Debug\GoBee-00_1.a(CySpc.o)
 .debug_ranges  0x00000c30       0x18 .\CortexM3\ARM_GCC_473\Debug\GoBee-00_1.a(Control_Reg_BUZ.o)
 .debug_ranges  0x00000c48       0x18 .\CortexM3\ARM_GCC_473\Debug\GoBee-00_1.a(Control_Reg_MOTOR.o)
 .debug_ranges  0x00000c60       0x30 .\CortexM3\ARM_GCC_473\Debug\GoBee-00_1.a(Status_Reg_MOTOR.o)
 .debug_ranges  0x00000c90       0x50 .\CortexM3\ARM_GCC_473\Debug\GoBee-00_1.a(QuadDec_PAN.o)
 .debug_ranges  0x00000ce0       0x10 .\CortexM3\ARM_GCC_473\Debug\GoBee-00_1.a(QuadDec_PAN_INT.o)
 .debug_ranges  0x00000cf0       0x88 .\CortexM3\ARM_GCC_473\Debug\GoBee-00_1.a(QuadDec_PAN_Cnt16.o)
 .debug_ranges  0x00000d78       0x70 .\CortexM3\ARM_GCC_473\Debug\GoBee-00_1.a(ADC_IRQ.o)
 .debug_ranges  0x00000de8       0x18 .\CortexM3\ARM_GCC_473\Debug\GoBee-00_1.a(Bootloadable.o)
 .debug_ranges  0x00000e00       0x70 .\CortexM3\ARM_GCC_473\Debug\GoBee-00_1.a(isr_Ticks.o)
 .debug_ranges  0x00000e70       0x98 .\CortexM3\ARM_GCC_473\Debug\GoBee-00_1.a(PWM_MOTOR_PAN.o)
 .debug_ranges  0x00000f08       0x70 .\CortexM3\ARM_GCC_473\Debug\GoBee-00_1.a(isr_BUTTON.o)
 .debug_ranges  0x00000f78       0x40 .\CortexM3\ARM_GCC_473\Debug\GoBee-00_1.a(WaveDAC8.o)
 .debug_ranges  0x00000fb8       0x60 .\CortexM3\ARM_GCC_473\Debug\GoBee-00_1.a(WaveDAC8_DacClk.o)
 .debug_ranges  0x00001018       0x18 .\CortexM3\ARM_GCC_473\Debug\GoBee-00_1.a(WaveDAC8_Wave1_DMA_dma.o)
 .debug_ranges  0x00001030       0x18 .\CortexM3\ARM_GCC_473\Debug\GoBee-00_1.a(WaveDAC8_Wave2_DMA_dma.o)
 .debug_ranges  0x00001048       0x48 .\CortexM3\ARM_GCC_473\Debug\GoBee-00_1.a(WaveDAC8_VDAC8.o)
 .debug_ranges  0x00001090       0x30 .\CortexM3\ARM_GCC_473\Debug\GoBee-00_1.a(WaveDAC8_BuffAmp.o)
 .debug_ranges  0x000010c0       0x48 .\CortexM3\ARM_GCC_473\Debug\GoBee-00_1.a(VDAC8_ANAPOS.o)
 .debug_ranges  0x00001108       0x18 .\CortexM3\ARM_GCC_473\Debug\GoBee-00_1.a(Control_Reg_WaveDAC8.o)

.comment        0x00000000       0x70
 .comment       0x00000000       0x70 .\CortexM3\ARM_GCC_473\Debug\main.o
                                 0x71 (size before relaxing)
 .comment       0x00000000       0x71 .\CortexM3\ARM_GCC_473\Debug\console.o
 .comment       0x00000000       0x71 .\CortexM3\ARM_GCC_473\Debug\gobeelib.o
 .comment       0x00000000       0x71 .\CortexM3\ARM_GCC_473\Debug\ADXRS453.o
 .comment       0x00000000       0x71 .\CortexM3\ARM_GCC_473\Debug\motor_CTRL.o
 .comment       0x00000000       0x71 .\CortexM3\ARM_GCC_473\Debug\sensor_CTRL.o
 .comment       0x00000000       0x71 .\CortexM3\ARM_GCC_473\Debug\pid_lib.o
 .comment       0x00000000       0x71 .\CortexM3\ARM_GCC_473\Debug\estimators.o
 .comment       0x00000000       0x71 .\CortexM3\ARM_GCC_473\Debug\das.o
 .comment       0x00000000       0x71 .\CortexM3\ARM_GCC_473\Debug\Cm3Start.o
 .comment       0x00000000       0x71 .\CortexM3\ARM_GCC_473\Debug\cymetadata.o
 .comment       0x00000000       0x71 .\CortexM3\ARM_GCC_473\Debug\cybootloader.o
 .comment       0x00000000       0x71 .\CortexM3\ARM_GCC_473\Debug\GoBee-00_1.a(cyfitter_cfg_1.o)
 .comment       0x00000000       0x71 .\CortexM3\ARM_GCC_473\Debug\GoBee-00_1.a(ADC.o)
 .comment       0x00000000       0x71 .\CortexM3\ARM_GCC_473\Debug\GoBee-00_1.a(ADC_INT.o)
 .comment       0x00000000       0x71 .\CortexM3\ARM_GCC_473\Debug\GoBee-00_1.a(UART_USB.o)
 .comment       0x00000000       0x71 .\CortexM3\ARM_GCC_473\Debug\GoBee-00_1.a(Control_Reg_LED.o)
 .comment       0x00000000       0x71 .\CortexM3\ARM_GCC_473\Debug\GoBee-00_1.a(EEPROM.o)
 .comment       0x00000000       0x71 .\CortexM3\ARM_GCC_473\Debug\GoBee-00_1.a(AMuxSeq.o)
 .comment       0x00000000       0x71 .\CortexM3\ARM_GCC_473\Debug\GoBee-00_1.a(isr_CTRL.o)
 .comment       0x00000000       0x71 .\CortexM3\ARM_GCC_473\Debug\GoBee-00_1.a(Status_Reg_BUTTON.o)
 .comment       0x00000000       0x71 .\CortexM3\ARM_GCC_473\Debug\GoBee-00_1.a(Counter_LED.o)
 .comment       0x00000000       0x71 .\CortexM3\ARM_GCC_473\Debug\GoBee-00_1.a(isr_DGYRO.o)
 .comment       0x00000000       0x71 .\CortexM3\ARM_GCC_473\Debug\GoBee-00_1.a(Clock_DGYRO.o)
 .comment       0x00000000       0x71 .\CortexM3\ARM_GCC_473\Debug\GoBee-00_1.a(ADC_theACLK.o)
 .comment       0x00000000       0x71 .\CortexM3\ARM_GCC_473\Debug\GoBee-00_1.a(ADC_Ext_CP_Clk.o)
 .comment       0x00000000       0x71 .\CortexM3\ARM_GCC_473\Debug\GoBee-00_1.a(UART_USB_IntClock.o)
 .comment       0x00000000       0x71 .\CortexM3\ARM_GCC_473\Debug\GoBee-00_1.a(CyDmac.o)
 .comment       0x00000000       0x71 .\CortexM3\ARM_GCC_473\Debug\GoBee-00_1.a(CyFlash.o)
 .comment       0x00000000       0x71 .\CortexM3\ARM_GCC_473\Debug\GoBee-00_1.a(CyLib.o)
 .comment       0x00000000       0x71 .\CortexM3\ARM_GCC_473\Debug\GoBee-00_1.a(cyPm.o)
 .comment       0x00000000       0x71 .\CortexM3\ARM_GCC_473\Debug\GoBee-00_1.a(CySpc.o)
 .comment       0x00000000       0x71 .\CortexM3\ARM_GCC_473\Debug\GoBee-00_1.a(Control_Reg_BUZ.o)
 .comment       0x00000000       0x71 .\CortexM3\ARM_GCC_473\Debug\GoBee-00_1.a(Control_Reg_MOTOR.o)
 .comment       0x00000000       0x71 .\CortexM3\ARM_GCC_473\Debug\GoBee-00_1.a(Status_Reg_MOTOR.o)
 .comment       0x00000000       0x71 .\CortexM3\ARM_GCC_473\Debug\GoBee-00_1.a(QuadDec_PAN.o)
 .comment       0x00000000       0x71 .\CortexM3\ARM_GCC_473\Debug\GoBee-00_1.a(QuadDec_PAN_INT.o)
 .comment       0x00000000       0x71 .\CortexM3\ARM_GCC_473\Debug\GoBee-00_1.a(QuadDec_PAN_Cnt16.o)
 .comment       0x00000000       0x71 .\CortexM3\ARM_GCC_473\Debug\GoBee-00_1.a(ADC_IRQ.o)
 .comment       0x00000000       0x71 .\CortexM3\ARM_GCC_473\Debug\GoBee-00_1.a(Bootloadable.o)
 .comment       0x00000000       0x71 .\CortexM3\ARM_GCC_473\Debug\GoBee-00_1.a(isr_Ticks.o)
 .comment       0x00000000       0x71 .\CortexM3\ARM_GCC_473\Debug\GoBee-00_1.a(PWM_MOTOR_PAN.o)
 .comment       0x00000000       0x71 .\CortexM3\ARM_GCC_473\Debug\GoBee-00_1.a(isr_BUTTON.o)
 .comment       0x00000000       0x71 .\CortexM3\ARM_GCC_473\Debug\GoBee-00_1.a(WaveDAC8.o)
 .comment       0x00000000       0x71 .\CortexM3\ARM_GCC_473\Debug\GoBee-00_1.a(WaveDAC8_DacClk.o)
 .comment       0x00000000       0x71 .\CortexM3\ARM_GCC_473\Debug\GoBee-00_1.a(WaveDAC8_Wave1_DMA_dma.o)
 .comment       0x00000000       0x71 .\CortexM3\ARM_GCC_473\Debug\GoBee-00_1.a(WaveDAC8_Wave2_DMA_dma.o)
 .comment       0x00000000       0x71 .\CortexM3\ARM_GCC_473\Debug\GoBee-00_1.a(WaveDAC8_VDAC8.o)
 .comment       0x00000000       0x71 .\CortexM3\ARM_GCC_473\Debug\GoBee-00_1.a(WaveDAC8_BuffAmp.o)
 .comment       0x00000000       0x71 .\CortexM3\ARM_GCC_473\Debug\GoBee-00_1.a(VDAC8_ANAPOS.o)
 .comment       0x00000000       0x71 .\CortexM3\ARM_GCC_473\Debug\GoBee-00_1.a(Control_Reg_WaveDAC8.o)

.debug_weaknames
 *(.debug_weaknames)

.debug_funcnames
 *(.debug_funcnames)

.debug_typenames
 *(.debug_typenames)

.debug_varnames
 *(.debug_varnames)

.note.gnu.arm.ident
 *(.note.gnu.arm.ident)

.ARM.attributes
                0x00000000       0x29
 *(.ARM.attributes)
 .ARM.attributes
                0x00000000       0x1d c:/programmi/cypress/psoc creator/3.0/psoc creator/import/gnu_cs/arm/4.7.3/bin/../lib/gcc/arm-none-eabi/4.7.3/armv7-m/crti.o
 .ARM.attributes
                0x0000001d       0x2d c:/programmi/cypress/psoc creator/3.0/psoc creator/import/gnu_cs/arm/4.7.3/bin/../lib/gcc/arm-none-eabi/4.7.3/armv7-m/crtbegin.o
 .ARM.attributes
                0x0000004a       0x1b c:/programmi/cypress/psoc creator/3.0/psoc creator/import/gnu_cs/arm/4.7.3/bin/../lib/gcc/arm-none-eabi/4.7.3/../../../../arm-none-eabi/lib/armv7-m/crt0.o
 .ARM.attributes
                0x00000065       0x33 .\CortexM3\ARM_GCC_473\Debug\main.o
 .ARM.attributes
                0x00000098       0x33 .\CortexM3\ARM_GCC_473\Debug\console.o
 .ARM.attributes
                0x000000cb       0x33 .\CortexM3\ARM_GCC_473\Debug\gobeelib.o
 .ARM.attributes
                0x000000fe       0x33 .\CortexM3\ARM_GCC_473\Debug\ADXRS453.o
 .ARM.attributes
                0x00000131       0x33 .\CortexM3\ARM_GCC_473\Debug\motor_CTRL.o
 .ARM.attributes
                0x00000164       0x33 .\CortexM3\ARM_GCC_473\Debug\sensor_CTRL.o
 .ARM.attributes
                0x00000197       0x33 .\CortexM3\ARM_GCC_473\Debug\pid_lib.o
 .ARM.attributes
                0x000001ca       0x33 .\CortexM3\ARM_GCC_473\Debug\estimators.o
 .ARM.attributes
                0x000001fd       0x33 .\CortexM3\ARM_GCC_473\Debug\das.o
 .ARM.attributes
                0x00000230       0x33 .\CortexM3\ARM_GCC_473\Debug\Cm3Start.o
 .ARM.attributes
                0x00000263       0x33 .\CortexM3\ARM_GCC_473\Debug\cymetadata.o
 .ARM.attributes
                0x00000296       0x33 .\CortexM3\ARM_GCC_473\Debug\cybootloader.o
 .ARM.attributes
                0x000002c9       0x33 .\CortexM3\ARM_GCC_473\Debug\GoBee-00_1.a(cyfitter_cfg_1.o)
 .ARM.attributes
                0x000002fc       0x33 .\CortexM3\ARM_GCC_473\Debug\GoBee-00_1.a(ADC.o)
 .ARM.attributes
                0x0000032f       0x33 .\CortexM3\ARM_GCC_473\Debug\GoBee-00_1.a(ADC_INT.o)
 .ARM.attributes
                0x00000362       0x33 .\CortexM3\ARM_GCC_473\Debug\GoBee-00_1.a(UART_USB.o)
 .ARM.attributes
                0x00000395       0x33 .\CortexM3\ARM_GCC_473\Debug\GoBee-00_1.a(Control_Reg_LED.o)
 .ARM.attributes
                0x000003c8       0x33 .\CortexM3\ARM_GCC_473\Debug\GoBee-00_1.a(EEPROM.o)
 .ARM.attributes
                0x000003fb       0x33 .\CortexM3\ARM_GCC_473\Debug\GoBee-00_1.a(AMuxSeq.o)
 .ARM.attributes
                0x0000042e       0x33 .\CortexM3\ARM_GCC_473\Debug\GoBee-00_1.a(isr_CTRL.o)
 .ARM.attributes
                0x00000461       0x33 .\CortexM3\ARM_GCC_473\Debug\GoBee-00_1.a(Status_Reg_BUTTON.o)
 .ARM.attributes
                0x00000494       0x33 .\CortexM3\ARM_GCC_473\Debug\GoBee-00_1.a(Counter_LED.o)
 .ARM.attributes
                0x000004c7       0x33 .\CortexM3\ARM_GCC_473\Debug\GoBee-00_1.a(isr_DGYRO.o)
 .ARM.attributes
                0x000004fa       0x33 .\CortexM3\ARM_GCC_473\Debug\GoBee-00_1.a(Clock_DGYRO.o)
 .ARM.attributes
                0x0000052d       0x33 .\CortexM3\ARM_GCC_473\Debug\GoBee-00_1.a(ADC_theACLK.o)
 .ARM.attributes
                0x00000560       0x33 .\CortexM3\ARM_GCC_473\Debug\GoBee-00_1.a(ADC_Ext_CP_Clk.o)
 .ARM.attributes
                0x00000593       0x33 .\CortexM3\ARM_GCC_473\Debug\GoBee-00_1.a(UART_USB_IntClock.o)
 .ARM.attributes
                0x000005c6       0x21 .\CortexM3\ARM_GCC_473\Debug\GoBee-00_1.a(CyBootAsmGnu.o)
 .ARM.attributes
                0x000005e7       0x33 .\CortexM3\ARM_GCC_473\Debug\GoBee-00_1.a(CyDmac.o)
 .ARM.attributes
                0x0000061a       0x33 .\CortexM3\ARM_GCC_473\Debug\GoBee-00_1.a(CyFlash.o)
 .ARM.attributes
                0x0000064d       0x33 .\CortexM3\ARM_GCC_473\Debug\GoBee-00_1.a(CyLib.o)
 .ARM.attributes
                0x00000680       0x33 .\CortexM3\ARM_GCC_473\Debug\GoBee-00_1.a(cyPm.o)
 .ARM.attributes
                0x000006b3       0x33 .\CortexM3\ARM_GCC_473\Debug\GoBee-00_1.a(CySpc.o)
 .ARM.attributes
                0x000006e6       0x33 .\CortexM3\ARM_GCC_473\Debug\GoBee-00_1.a(Control_Reg_BUZ.o)
 .ARM.attributes
                0x00000719       0x33 .\CortexM3\ARM_GCC_473\Debug\GoBee-00_1.a(Control_Reg_MOTOR.o)
 .ARM.attributes
                0x0000074c       0x33 .\CortexM3\ARM_GCC_473\Debug\GoBee-00_1.a(Status_Reg_MOTOR.o)
 .ARM.attributes
                0x0000077f       0x33 .\CortexM3\ARM_GCC_473\Debug\GoBee-00_1.a(QuadDec_PAN.o)
 .ARM.attributes
                0x000007b2       0x33 .\CortexM3\ARM_GCC_473\Debug\GoBee-00_1.a(QuadDec_PAN_INT.o)
 .ARM.attributes
                0x000007e5       0x33 .\CortexM3\ARM_GCC_473\Debug\GoBee-00_1.a(QuadDec_PAN_Cnt16.o)
 .ARM.attributes
                0x00000818       0x33 .\CortexM3\ARM_GCC_473\Debug\GoBee-00_1.a(ADC_IRQ.o)
 .ARM.attributes
                0x0000084b       0x33 .\CortexM3\ARM_GCC_473\Debug\GoBee-00_1.a(Bootloadable.o)
 .ARM.attributes
                0x0000087e       0x33 .\CortexM3\ARM_GCC_473\Debug\GoBee-00_1.a(isr_Ticks.o)
 .ARM.attributes
                0x000008b1       0x33 .\CortexM3\ARM_GCC_473\Debug\GoBee-00_1.a(PWM_MOTOR_PAN.o)
 .ARM.attributes
                0x000008e4       0x33 .\CortexM3\ARM_GCC_473\Debug\GoBee-00_1.a(isr_BUTTON.o)
 .ARM.attributes
                0x00000917       0x33 .\CortexM3\ARM_GCC_473\Debug\GoBee-00_1.a(WaveDAC8.o)
 .ARM.attributes
                0x0000094a       0x33 .\CortexM3\ARM_GCC_473\Debug\GoBee-00_1.a(WaveDAC8_DacClk.o)
 .ARM.attributes
                0x0000097d       0x33 .\CortexM3\ARM_GCC_473\Debug\GoBee-00_1.a(WaveDAC8_Wave1_DMA_dma.o)
 .ARM.attributes
                0x000009b0       0x33 .\CortexM3\ARM_GCC_473\Debug\GoBee-00_1.a(WaveDAC8_Wave2_DMA_dma.o)
 .ARM.attributes
                0x000009e3       0x33 .\CortexM3\ARM_GCC_473\Debug\GoBee-00_1.a(WaveDAC8_VDAC8.o)
 .ARM.attributes
                0x00000a16       0x33 .\CortexM3\ARM_GCC_473\Debug\GoBee-00_1.a(WaveDAC8_BuffAmp.o)
 .ARM.attributes
                0x00000a49       0x33 .\CortexM3\ARM_GCC_473\Debug\GoBee-00_1.a(VDAC8_ANAPOS.o)
 .ARM.attributes
                0x00000a7c       0x33 .\CortexM3\ARM_GCC_473\Debug\GoBee-00_1.a(Control_Reg_WaveDAC8.o)
 .ARM.attributes
                0x00000aaf       0x1d c:/programmi/cypress/psoc creator/3.0/psoc creator/import/gnu_cs/arm/4.7.3/bin/../lib/gcc/arm-none-eabi/4.7.3/armv7-m\libgcc.a(_arm_addsubdf3.o)
 .ARM.attributes
                0x00000acc       0x1d c:/programmi/cypress/psoc creator/3.0/psoc creator/import/gnu_cs/arm/4.7.3/bin/../lib/gcc/arm-none-eabi/4.7.3/armv7-m\libgcc.a(_arm_muldivdf3.o)
 .ARM.attributes
                0x00000ae9       0x1d c:/programmi/cypress/psoc creator/3.0/psoc creator/import/gnu_cs/arm/4.7.3/bin/../lib/gcc/arm-none-eabi/4.7.3/armv7-m\libgcc.a(_arm_cmpdf2.o)
 .ARM.attributes
                0x00000b06       0x1d c:/programmi/cypress/psoc creator/3.0/psoc creator/import/gnu_cs/arm/4.7.3/bin/../lib/gcc/arm-none-eabi/4.7.3/armv7-m\libgcc.a(_arm_truncdfsf2.o)
 .ARM.attributes
                0x00000b23       0x1d c:/programmi/cypress/psoc creator/3.0/psoc creator/import/gnu_cs/arm/4.7.3/bin/../lib/gcc/arm-none-eabi/4.7.3/armv7-m\libgcc.a(_arm_addsubsf3.o)
 .ARM.attributes
                0x00000b40       0x1d c:/programmi/cypress/psoc creator/3.0/psoc creator/import/gnu_cs/arm/4.7.3/bin/../lib/gcc/arm-none-eabi/4.7.3/armv7-m\libgcc.a(_arm_muldivsf3.o)
 .ARM.attributes
                0x00000b5d       0x1d c:/programmi/cypress/psoc creator/3.0/psoc creator/import/gnu_cs/arm/4.7.3/bin/../lib/gcc/arm-none-eabi/4.7.3/armv7-m\libgcc.a(_arm_cmpsf2.o)
 .ARM.attributes
                0x00000b7a       0x1d c:/programmi/cypress/psoc creator/3.0/psoc creator/import/gnu_cs/arm/4.7.3/bin/../lib/gcc/arm-none-eabi/4.7.3/armv7-m\libgcc.a(_arm_fixsfsi.o)
 .ARM.attributes
                0x00000b97       0x1d c:/programmi/cypress/psoc creator/3.0/psoc creator/import/gnu_cs/arm/4.7.3/bin/../lib/gcc/arm-none-eabi/4.7.3/armv7-m\libgcc.a(_arm_fixunssfsi.o)
 .ARM.attributes
                0x00000bb4       0x2d c:/programmi/cypress/psoc creator/3.0/psoc creator/import/gnu_cs/arm/4.7.3/bin/../lib/gcc/arm-none-eabi/4.7.3/../../../../arm-none-eabi/lib/armv7-m\libg.a(lib_a-__atexit.o)
 .ARM.attributes
                0x00000be1       0x2d c:/programmi/cypress/psoc creator/3.0/psoc creator/import/gnu_cs/arm/4.7.3/bin/../lib/gcc/arm-none-eabi/4.7.3/../../../../arm-none-eabi/lib/armv7-m\libg.a(lib_a-atof.o)
 .ARM.attributes
                0x00000c0e       0x2d c:/programmi/cypress/psoc creator/3.0/psoc creator/import/gnu_cs/arm/4.7.3/bin/../lib/gcc/arm-none-eabi/4.7.3/../../../../arm-none-eabi/lib/armv7-m\libg.a(lib_a-atoi.o)
 .ARM.attributes
                0x00000c3b       0x2d c:/programmi/cypress/psoc creator/3.0/psoc creator/import/gnu_cs/arm/4.7.3/bin/../lib/gcc/arm-none-eabi/4.7.3/../../../../arm-none-eabi/lib/armv7-m\libg.a(lib_a-ctype_.o)
 .ARM.attributes
                0x00000c68       0x2d c:/programmi/cypress/psoc creator/3.0/psoc creator/import/gnu_cs/arm/4.7.3/bin/../lib/gcc/arm-none-eabi/4.7.3/../../../../arm-none-eabi/lib/armv7-m\libg.a(lib_a-exit.o)
 .ARM.attributes
                0x00000c95       0x2d c:/programmi/cypress/psoc creator/3.0/psoc creator/import/gnu_cs/arm/4.7.3/bin/../lib/gcc/arm-none-eabi/4.7.3/../../../../arm-none-eabi/lib/armv7-m\libg.a(lib_a-fini.o)
 .ARM.attributes
                0x00000cc2       0x2d c:/programmi/cypress/psoc creator/3.0/psoc creator/import/gnu_cs/arm/4.7.3/bin/../lib/gcc/arm-none-eabi/4.7.3/../../../../arm-none-eabi/lib/armv7-m\libg.a(lib_a-impure.o)
 .ARM.attributes
                0x00000cef       0x2d c:/programmi/cypress/psoc creator/3.0/psoc creator/import/gnu_cs/arm/4.7.3/bin/../lib/gcc/arm-none-eabi/4.7.3/../../../../arm-none-eabi/lib/armv7-m\libg.a(lib_a-init.o)
 .ARM.attributes
                0x00000d1c       0x2d c:/programmi/cypress/psoc creator/3.0/psoc creator/import/gnu_cs/arm/4.7.3/bin/../lib/gcc/arm-none-eabi/4.7.3/../../../../arm-none-eabi/lib/armv7-m\libg.a(lib_a-memcpy.o)
 .ARM.attributes
                0x00000d49       0x2d c:/programmi/cypress/psoc creator/3.0/psoc creator/import/gnu_cs/arm/4.7.3/bin/../lib/gcc/arm-none-eabi/4.7.3/../../../../arm-none-eabi/lib/armv7-m\libg.a(lib_a-memset.o)
 .ARM.attributes
                0x00000d76       0x2d c:/programmi/cypress/psoc creator/3.0/psoc creator/import/gnu_cs/arm/4.7.3/bin/../lib/gcc/arm-none-eabi/4.7.3/../../../../arm-none-eabi/lib/armv7-m\libg.a(lib_a-printf.o)
 .ARM.attributes
                0x00000da3       0x2d c:/programmi/cypress/psoc creator/3.0/psoc creator/import/gnu_cs/arm/4.7.3/bin/../lib/gcc/arm-none-eabi/4.7.3/../../../../arm-none-eabi/lib/armv7-m\libg.a(lib_a-putchar.o)
 .ARM.attributes
                0x00000dd0       0x2d c:/programmi/cypress/psoc creator/3.0/psoc creator/import/gnu_cs/arm/4.7.3/bin/../lib/gcc/arm-none-eabi/4.7.3/../../../../arm-none-eabi/lib/armv7-m\libg.a(lib_a-puts.o)
 .ARM.attributes
                0x00000dfd       0x2d c:/programmi/cypress/psoc creator/3.0/psoc creator/import/gnu_cs/arm/4.7.3/bin/../lib/gcc/arm-none-eabi/4.7.3/../../../../arm-none-eabi/lib/armv7-m\libg.a(lib_a-setvbuf.o)
 .ARM.attributes
                0x00000e2a       0x2d c:/programmi/cypress/psoc creator/3.0/psoc creator/import/gnu_cs/arm/4.7.3/bin/../lib/gcc/arm-none-eabi/4.7.3/../../../../arm-none-eabi/lib/armv7-m\libg.a(lib_a-strcmp.o)
 .ARM.attributes
                0x00000e57       0x2d c:/programmi/cypress/psoc creator/3.0/psoc creator/import/gnu_cs/arm/4.7.3/bin/../lib/gcc/arm-none-eabi/4.7.3/../../../../arm-none-eabi/lib/armv7-m\libg.a(lib_a-strcpy.o)
 .ARM.attributes
                0x00000e84       0x2d c:/programmi/cypress/psoc creator/3.0/psoc creator/import/gnu_cs/arm/4.7.3/bin/../lib/gcc/arm-none-eabi/4.7.3/../../../../arm-none-eabi/lib/armv7-m\libg.a(lib_a-strlen.o)
 .ARM.attributes
                0x00000eb1       0x2d c:/programmi/cypress/psoc creator/3.0/psoc creator/import/gnu_cs/arm/4.7.3/bin/../lib/gcc/arm-none-eabi/4.7.3/../../../../arm-none-eabi/lib/armv7-m\libg.a(lib_a-strtod.o)
 .ARM.attributes
                0x00000ede       0x2d c:/programmi/cypress/psoc creator/3.0/psoc creator/import/gnu_cs/arm/4.7.3/bin/../lib/gcc/arm-none-eabi/4.7.3/../../../../arm-none-eabi/lib/armv7-m\libg.a(lib_a-strtok.o)
 .ARM.attributes
                0x00000f0b       0x2d c:/programmi/cypress/psoc creator/3.0/psoc creator/import/gnu_cs/arm/4.7.3/bin/../lib/gcc/arm-none-eabi/4.7.3/../../../../arm-none-eabi/lib/armv7-m\libg.a(lib_a-strtok_r.o)
 .ARM.attributes
                0x00000f38       0x2d c:/programmi/cypress/psoc creator/3.0/psoc creator/import/gnu_cs/arm/4.7.3/bin/../lib/gcc/arm-none-eabi/4.7.3/../../../../arm-none-eabi/lib/armv7-m\libg.a(lib_a-strtol.o)
 .ARM.attributes
                0x00000f65       0x2d c:/programmi/cypress/psoc creator/3.0/psoc creator/import/gnu_cs/arm/4.7.3/bin/../lib/gcc/arm-none-eabi/4.7.3/../../../../arm-none-eabi/lib/armv7-m\libg.a(lib_a-vfprintf.o)
 .ARM.attributes
                0x00000f92       0x2d c:/programmi/cypress/psoc creator/3.0/psoc creator/import/gnu_cs/arm/4.7.3/bin/../lib/gcc/arm-none-eabi/4.7.3/../../../../arm-none-eabi/lib/armv7-m\libg.a(lib_a-wsetup.o)
 .ARM.attributes
                0x00000fbf       0x2d c:/programmi/cypress/psoc creator/3.0/psoc creator/import/gnu_cs/arm/4.7.3/bin/../lib/gcc/arm-none-eabi/4.7.3/../../../../arm-none-eabi/lib/armv7-m\libg.a(lib_a-__call_atexit.o)
 .ARM.attributes
                0x00000fec       0x2d c:/programmi/cypress/psoc creator/3.0/psoc creator/import/gnu_cs/arm/4.7.3/bin/../lib/gcc/arm-none-eabi/4.7.3/../../../../arm-none-eabi/lib/armv7-m\libg.a(lib_a-atexit.o)
 .ARM.attributes
                0x00001019       0x2d c:/programmi/cypress/psoc creator/3.0/psoc creator/import/gnu_cs/arm/4.7.3/bin/../lib/gcc/arm-none-eabi/4.7.3/../../../../arm-none-eabi/lib/armv7-m\libg.a(lib_a-dtoa.o)
 .ARM.attributes
                0x00001046       0x2d c:/programmi/cypress/psoc creator/3.0/psoc creator/import/gnu_cs/arm/4.7.3/bin/../lib/gcc/arm-none-eabi/4.7.3/../../../../arm-none-eabi/lib/armv7-m\libg.a(lib_a-fflush.o)
 .ARM.attributes
                0x00001073       0x2d c:/programmi/cypress/psoc creator/3.0/psoc creator/import/gnu_cs/arm/4.7.3/bin/../lib/gcc/arm-none-eabi/4.7.3/../../../../arm-none-eabi/lib/armv7-m\libg.a(lib_a-findfp.o)
 .ARM.attributes
                0x000010a0       0x2d c:/programmi/cypress/psoc creator/3.0/psoc creator/import/gnu_cs/arm/4.7.3/bin/../lib/gcc/arm-none-eabi/4.7.3/../../../../arm-none-eabi/lib/armv7-m\libg.a(lib_a-freer.o)
 .ARM.attributes
                0x000010cd       0x2d c:/programmi/cypress/psoc creator/3.0/psoc creator/import/gnu_cs/arm/4.7.3/bin/../lib/gcc/arm-none-eabi/4.7.3/../../../../arm-none-eabi/lib/armv7-m\libg.a(lib_a-fvwrite.o)
 .ARM.attributes
                0x000010fa       0x2d c:/programmi/cypress/psoc creator/3.0/psoc creator/import/gnu_cs/arm/4.7.3/bin/../lib/gcc/arm-none-eabi/4.7.3/../../../../arm-none-eabi/lib/armv7-m\libg.a(lib_a-fwalk.o)
 .ARM.attributes
                0x00001127       0x2d c:/programmi/cypress/psoc creator/3.0/psoc creator/import/gnu_cs/arm/4.7.3/bin/../lib/gcc/arm-none-eabi/4.7.3/../../../../arm-none-eabi/lib/armv7-m\libg.a(lib_a-gdtoa-gethex.o)
 .ARM.attributes
                0x00001154       0x2d c:/programmi/cypress/psoc creator/3.0/psoc creator/import/gnu_cs/arm/4.7.3/bin/../lib/gcc/arm-none-eabi/4.7.3/../../../../arm-none-eabi/lib/armv7-m\libg.a(lib_a-gdtoa-hexnan.o)
 .ARM.attributes
                0x00001181       0x2d c:/programmi/cypress/psoc creator/3.0/psoc creator/import/gnu_cs/arm/4.7.3/bin/../lib/gcc/arm-none-eabi/4.7.3/../../../../arm-none-eabi/lib/armv7-m\libg.a(lib_a-locale.o)
 .ARM.attributes
                0x000011ae       0x2d c:/programmi/cypress/psoc creator/3.0/psoc creator/import/gnu_cs/arm/4.7.3/bin/../lib/gcc/arm-none-eabi/4.7.3/../../../../arm-none-eabi/lib/armv7-m\libg.a(lib_a-makebuf.o)
 .ARM.attributes
                0x000011db       0x2d c:/programmi/cypress/psoc creator/3.0/psoc creator/import/gnu_cs/arm/4.7.3/bin/../lib/gcc/arm-none-eabi/4.7.3/../../../../arm-none-eabi/lib/armv7-m\libg.a(lib_a-malloc.o)
 .ARM.attributes
                0x00001208       0x2d c:/programmi/cypress/psoc creator/3.0/psoc creator/import/gnu_cs/arm/4.7.3/bin/../lib/gcc/arm-none-eabi/4.7.3/../../../../arm-none-eabi/lib/armv7-m\libg.a(lib_a-mallocr.o)
 .ARM.attributes
                0x00001235       0x2d c:/programmi/cypress/psoc creator/3.0/psoc creator/import/gnu_cs/arm/4.7.3/bin/../lib/gcc/arm-none-eabi/4.7.3/../../../../arm-none-eabi/lib/armv7-m\libg.a(lib_a-memchr.o)
 .ARM.attributes
                0x00001262       0x2d c:/programmi/cypress/psoc creator/3.0/psoc creator/import/gnu_cs/arm/4.7.3/bin/../lib/gcc/arm-none-eabi/4.7.3/../../../../arm-none-eabi/lib/armv7-m\libg.a(lib_a-memmove.o)
 .ARM.attributes
                0x0000128f       0x2d c:/programmi/cypress/psoc creator/3.0/psoc creator/import/gnu_cs/arm/4.7.3/bin/../lib/gcc/arm-none-eabi/4.7.3/../../../../arm-none-eabi/lib/armv7-m\libg.a(lib_a-mlock.o)
 .ARM.attributes
                0x000012bc       0x2d c:/programmi/cypress/psoc creator/3.0/psoc creator/import/gnu_cs/arm/4.7.3/bin/../lib/gcc/arm-none-eabi/4.7.3/../../../../arm-none-eabi/lib/armv7-m\libg.a(lib_a-mprec.o)
 .ARM.attributes
                0x000012e9       0x2d c:/programmi/cypress/psoc creator/3.0/psoc creator/import/gnu_cs/arm/4.7.3/bin/../lib/gcc/arm-none-eabi/4.7.3/../../../../arm-none-eabi/lib/armv7-m\libg.a(lib_a-putc.o)
 .ARM.attributes
                0x00001316       0x2d c:/programmi/cypress/psoc creator/3.0/psoc creator/import/gnu_cs/arm/4.7.3/bin/../lib/gcc/arm-none-eabi/4.7.3/../../../../arm-none-eabi/lib/armv7-m\libg.a(lib_a-reallocr.o)
 .ARM.attributes
                0x00001343       0x2d c:/programmi/cypress/psoc creator/3.0/psoc creator/import/gnu_cs/arm/4.7.3/bin/../lib/gcc/arm-none-eabi/4.7.3/../../../../arm-none-eabi/lib/armv7-m\libg.a(lib_a-s_fpclassify.o)
 .ARM.attributes
                0x00001370       0x2d c:/programmi/cypress/psoc creator/3.0/psoc creator/import/gnu_cs/arm/4.7.3/bin/../lib/gcc/arm-none-eabi/4.7.3/../../../../arm-none-eabi/lib/armv7-m\libg.a(lib_a-sbrkr.o)
 .ARM.attributes
                0x0000139d       0x2d c:/programmi/cypress/psoc creator/3.0/psoc creator/import/gnu_cs/arm/4.7.3/bin/../lib/gcc/arm-none-eabi/4.7.3/../../../../arm-none-eabi/lib/armv7-m\libg.a(lib_a-sf_nan.o)
 .ARM.attributes
                0x000013ca       0x2d c:/programmi/cypress/psoc creator/3.0/psoc creator/import/gnu_cs/arm/4.7.3/bin/../lib/gcc/arm-none-eabi/4.7.3/../../../../arm-none-eabi/lib/armv7-m\libg.a(lib_a-stdio.o)
 .ARM.attributes
                0x000013f7       0x2d c:/programmi/cypress/psoc creator/3.0/psoc creator/import/gnu_cs/arm/4.7.3/bin/../lib/gcc/arm-none-eabi/4.7.3/../../../../arm-none-eabi/lib/armv7-m\libg.a(lib_a-strncmp.o)
 .ARM.attributes
                0x00001424       0x2d c:/programmi/cypress/psoc creator/3.0/psoc creator/import/gnu_cs/arm/4.7.3/bin/../lib/gcc/arm-none-eabi/4.7.3/../../../../arm-none-eabi/lib/armv7-m\libg.a(lib_a-vfiprintf.o)
 .ARM.attributes
                0x00001451       0x2d c:/programmi/cypress/psoc creator/3.0/psoc creator/import/gnu_cs/arm/4.7.3/bin/../lib/gcc/arm-none-eabi/4.7.3/../../../../arm-none-eabi/lib/armv7-m\libg.a(lib_a-wbuf.o)
 .ARM.attributes
                0x0000147e       0x2d c:/programmi/cypress/psoc creator/3.0/psoc creator/import/gnu_cs/arm/4.7.3/bin/../lib/gcc/arm-none-eabi/4.7.3/../../../../arm-none-eabi/lib/armv7-m\libg.a(lib_a-writer.o)
 .ARM.attributes
                0x000014ab       0x2d c:/programmi/cypress/psoc creator/3.0/psoc creator/import/gnu_cs/arm/4.7.3/bin/../lib/gcc/arm-none-eabi/4.7.3/../../../../arm-none-eabi/lib/armv7-m\libg.a(lib_a-callocr.o)
 .ARM.attributes
                0x000014d8       0x2d c:/programmi/cypress/psoc creator/3.0/psoc creator/import/gnu_cs/arm/4.7.3/bin/../lib/gcc/arm-none-eabi/4.7.3/../../../../arm-none-eabi/lib/armv7-m\libg.a(lib_a-closer.o)
 .ARM.attributes
                0x00001505       0x2d c:/programmi/cypress/psoc creator/3.0/psoc creator/import/gnu_cs/arm/4.7.3/bin/../lib/gcc/arm-none-eabi/4.7.3/../../../../arm-none-eabi/lib/armv7-m\libg.a(lib_a-fclose.o)
 .ARM.attributes
                0x00001532       0x2d c:/programmi/cypress/psoc creator/3.0/psoc creator/import/gnu_cs/arm/4.7.3/bin/../lib/gcc/arm-none-eabi/4.7.3/../../../../arm-none-eabi/lib/armv7-m\libg.a(lib_a-fputwc.o)
 .ARM.attributes
                0x0000155f       0x2d c:/programmi/cypress/psoc creator/3.0/psoc creator/import/gnu_cs/arm/4.7.3/bin/../lib/gcc/arm-none-eabi/4.7.3/../../../../arm-none-eabi/lib/armv7-m\libg.a(lib_a-fstatr.o)
 .ARM.attributes
                0x0000158c       0x2d c:/programmi/cypress/psoc creator/3.0/psoc creator/import/gnu_cs/arm/4.7.3/bin/../lib/gcc/arm-none-eabi/4.7.3/../../../../arm-none-eabi/lib/armv7-m\libg.a(lib_a-isattyr.o)
 .ARM.attributes
                0x000015b9       0x2d c:/programmi/cypress/psoc creator/3.0/psoc creator/import/gnu_cs/arm/4.7.3/bin/../lib/gcc/arm-none-eabi/4.7.3/../../../../arm-none-eabi/lib/armv7-m\libg.a(lib_a-lseekr.o)
 .ARM.attributes
                0x000015e6       0x2d c:/programmi/cypress/psoc creator/3.0/psoc creator/import/gnu_cs/arm/4.7.3/bin/../lib/gcc/arm-none-eabi/4.7.3/../../../../arm-none-eabi/lib/armv7-m\libg.a(lib_a-readr.o)
 .ARM.attributes
                0x00001613       0x2d c:/programmi/cypress/psoc creator/3.0/psoc creator/import/gnu_cs/arm/4.7.3/bin/../lib/gcc/arm-none-eabi/4.7.3/../../../../arm-none-eabi/lib/armv7-m\libg.a(lib_a-reent.o)
 .ARM.attributes
                0x00001640       0x2d c:/programmi/cypress/psoc creator/3.0/psoc creator/import/gnu_cs/arm/4.7.3/bin/../lib/gcc/arm-none-eabi/4.7.3/../../../../arm-none-eabi/lib/armv7-m\libg.a(lib_a-wcrtomb.o)
 .ARM.attributes
                0x0000166d       0x2d c:/programmi/cypress/psoc creator/3.0/psoc creator/import/gnu_cs/arm/4.7.3/bin/../lib/gcc/arm-none-eabi/4.7.3/../../../../arm-none-eabi/lib/armv7-m\libg.a(lib_a-wctomb_r.o)
 .ARM.attributes
                0x0000169a       0x1d c:/programmi/cypress/psoc creator/3.0/psoc creator/import/gnu_cs/arm/4.7.3/bin/../lib/gcc/arm-none-eabi/4.7.3/armv7-m\libgcc.a(_arm_fixdfsi.o)
 .ARM.attributes
                0x000016b7       0x1d c:/programmi/cypress/psoc creator/3.0/psoc creator/import/gnu_cs/arm/4.7.3/bin/../lib/gcc/arm-none-eabi/4.7.3/armv7-m\libgcc.a(_arm_fixunsdfsi.o)
 .ARM.attributes
                0x000016d4       0x1d c:/programmi/cypress/psoc creator/3.0/psoc creator/import/gnu_cs/arm/4.7.3/bin/../lib/gcc/arm-none-eabi/4.7.3/armv7-m\libgcc.a(_aeabi_uldivmod.o)
 .ARM.attributes
                0x000016f1       0x2d c:/programmi/cypress/psoc creator/3.0/psoc creator/import/gnu_cs/arm/4.7.3/bin/../lib/gcc/arm-none-eabi/4.7.3/armv7-m\libgcc.a(bpabi.o)
 .ARM.attributes
                0x0000171e       0x1d c:/programmi/cypress/psoc creator/3.0/psoc creator/import/gnu_cs/arm/4.7.3/bin/../lib/gcc/arm-none-eabi/4.7.3/armv7-m\libgcc.a(_dvmd_tls.o)
 .ARM.attributes
                0x0000173b       0x2d c:/programmi/cypress/psoc creator/3.0/psoc creator/import/gnu_cs/arm/4.7.3/bin/../lib/gcc/arm-none-eabi/4.7.3/armv7-m\libgcc.a(_divdi3.o)
 .ARM.attributes
                0x00001768       0x2d c:/programmi/cypress/psoc creator/3.0/psoc creator/import/gnu_cs/arm/4.7.3/bin/../lib/gcc/arm-none-eabi/4.7.3/armv7-m\libgcc.a(_udivdi3.o)
 .ARM.attributes
                0x00001795       0x2d c:/programmi/cypress/psoc creator/3.0/psoc creator/import/gnu_cs/arm/4.7.3/bin/../lib/gcc/arm-none-eabi/4.7.3/armv7-m/crtend.o
 .ARM.attributes
                0x000017c2       0x1d c:/programmi/cypress/psoc creator/3.0/psoc creator/import/gnu_cs/arm/4.7.3/bin/../lib/gcc/arm-none-eabi/4.7.3/armv7-m/crtn.o
 .ARM.attributes
                0x000017df       0x2d c:/programmi/cypress/psoc creator/3.0/psoc creator/import/gnu_cs/arm/4.7.3/bin/../lib/gcc/arm-none-eabi/4.7.3/../../../../arm-none-eabi/lib/armv7-m\libnosys.a(sbrk.o)

/DISCARD/
 *(.note.GNU-stack)
OUTPUT(.\CortexM3\ARM_GCC_473\Debug\GoBee-00_1.elf elf32-littlearm)
