ARM GAS  C:\DOCUME~1\user\IMPOST~1\Temp\ccWxg2ma.s 			page 1


   1              		.syntax unified
   2              		.cpu cortex-m3
   3              		.fpu softvfp
   4              		.eabi_attribute 20, 1
   5              		.eabi_attribute 21, 1
   6              		.eabi_attribute 23, 3
   7              		.eabi_attribute 24, 1
   8              		.eabi_attribute 25, 1
   9              		.eabi_attribute 26, 1
  10              		.eabi_attribute 30, 6
  11              		.eabi_attribute 34, 1
  12              		.eabi_attribute 18, 4
  13              		.thumb
  14              		.file	"isr_BUTTON_BUF.c"
  15              		.text
  16              	.Ltext0:
  17              		.cfi_sections	.debug_frame
  18              		.comm	gobee_vparam,0,4
  19              		.global	idxxx
  20              		.bss
  21              		.type	idxxx, %object
  22              		.size	idxxx, 1
  23              	idxxx:
  24 0000 00       		.space	1
  25              		.section	.text.isr_BUTTON_BUF_Start,"ax",%progbits
  26              		.align	2
  27              		.global	isr_BUTTON_BUF_Start
  28              		.thumb
  29              		.thumb_func
  30              		.type	isr_BUTTON_BUF_Start, %function
  31              	isr_BUTTON_BUF_Start:
  32              	.LFB56:
  33              		.file 1 ".\\Generated_Source\\PSoC5\\isr_BUTTON_BUF.c"
   1:.\Generated_Source\PSoC5/isr_BUTTON_BUF.c **** /*******************************************************************************
   2:.\Generated_Source\PSoC5/isr_BUTTON_BUF.c **** * File Name: isr_BUTTON_BUF.c  
   3:.\Generated_Source\PSoC5/isr_BUTTON_BUF.c **** * Version 1.70
   4:.\Generated_Source\PSoC5/isr_BUTTON_BUF.c **** *
   5:.\Generated_Source\PSoC5/isr_BUTTON_BUF.c **** *  Description:
   6:.\Generated_Source\PSoC5/isr_BUTTON_BUF.c **** *   API for controlling the state of an interrupt.
   7:.\Generated_Source\PSoC5/isr_BUTTON_BUF.c **** *
   8:.\Generated_Source\PSoC5/isr_BUTTON_BUF.c **** *
   9:.\Generated_Source\PSoC5/isr_BUTTON_BUF.c **** *  Note:
  10:.\Generated_Source\PSoC5/isr_BUTTON_BUF.c **** *
  11:.\Generated_Source\PSoC5/isr_BUTTON_BUF.c **** ********************************************************************************
  12:.\Generated_Source\PSoC5/isr_BUTTON_BUF.c **** * Copyright 2008-2012, Cypress Semiconductor Corporation.  All rights reserved.
  13:.\Generated_Source\PSoC5/isr_BUTTON_BUF.c **** * You may use this file only in accordance with the license, terms, conditions, 
  14:.\Generated_Source\PSoC5/isr_BUTTON_BUF.c **** * disclaimers, and limitations in the end user license agreement accompanying 
  15:.\Generated_Source\PSoC5/isr_BUTTON_BUF.c **** * the software package with which this file was provided.
  16:.\Generated_Source\PSoC5/isr_BUTTON_BUF.c **** *******************************************************************************/
  17:.\Generated_Source\PSoC5/isr_BUTTON_BUF.c **** 
  18:.\Generated_Source\PSoC5/isr_BUTTON_BUF.c **** 
  19:.\Generated_Source\PSoC5/isr_BUTTON_BUF.c **** #include <cydevice_trm.h>
  20:.\Generated_Source\PSoC5/isr_BUTTON_BUF.c **** #include <CyLib.h>
  21:.\Generated_Source\PSoC5/isr_BUTTON_BUF.c **** #include <isr_BUTTON_BUF.h>
  22:.\Generated_Source\PSoC5/isr_BUTTON_BUF.c **** 
  23:.\Generated_Source\PSoC5/isr_BUTTON_BUF.c **** #if !defined(isr_BUTTON_BUF__REMOVED) /* Check for removal by optimization */
  24:.\Generated_Source\PSoC5/isr_BUTTON_BUF.c **** 
ARM GAS  C:\DOCUME~1\user\IMPOST~1\Temp\ccWxg2ma.s 			page 2


  25:.\Generated_Source\PSoC5/isr_BUTTON_BUF.c **** /*******************************************************************************
  26:.\Generated_Source\PSoC5/isr_BUTTON_BUF.c **** *  Place your includes, defines and code here 
  27:.\Generated_Source\PSoC5/isr_BUTTON_BUF.c **** ********************************************************************************/
  28:.\Generated_Source\PSoC5/isr_BUTTON_BUF.c **** /* `#START isr_BUTTON_BUF_intc` */
  29:.\Generated_Source\PSoC5/isr_BUTTON_BUF.c **** 	
  30:.\Generated_Source\PSoC5/isr_BUTTON_BUF.c **** 	#include <device.h>
  31:.\Generated_Source\PSoC5/isr_BUTTON_BUF.c **** 	#include <gobee.h>
  32:.\Generated_Source\PSoC5/isr_BUTTON_BUF.c **** 	#include <gobeelib.h>
  33:.\Generated_Source\PSoC5/isr_BUTTON_BUF.c **** 	#include <das.h>
  34:.\Generated_Source\PSoC5/isr_BUTTON_BUF.c **** 	#include <stdio.h>
  35:.\Generated_Source\PSoC5/isr_BUTTON_BUF.c **** 	
  36:.\Generated_Source\PSoC5/isr_BUTTON_BUF.c **** 	/* external global wars */
  37:.\Generated_Source\PSoC5/isr_BUTTON_BUF.c **** 	extern struct DAS_VALUES das;				/* DAS- Digital Acquisition System struct 	 */	
  38:.\Generated_Source\PSoC5/isr_BUTTON_BUF.c **** 	
  39:.\Generated_Source\PSoC5/isr_BUTTON_BUF.c **** 	uint8 idxxx=0;
  40:.\Generated_Source\PSoC5/isr_BUTTON_BUF.c **** 
  41:.\Generated_Source\PSoC5/isr_BUTTON_BUF.c **** /* `#END` */
  42:.\Generated_Source\PSoC5/isr_BUTTON_BUF.c **** 
  43:.\Generated_Source\PSoC5/isr_BUTTON_BUF.c **** #ifndef CYINT_IRQ_BASE
  44:.\Generated_Source\PSoC5/isr_BUTTON_BUF.c **** #define CYINT_IRQ_BASE      16
  45:.\Generated_Source\PSoC5/isr_BUTTON_BUF.c **** #endif /* CYINT_IRQ_BASE */
  46:.\Generated_Source\PSoC5/isr_BUTTON_BUF.c **** #ifndef CYINT_VECT_TABLE
  47:.\Generated_Source\PSoC5/isr_BUTTON_BUF.c **** #define CYINT_VECT_TABLE    ((cyisraddress **) CYREG_NVIC_VECT_OFFSET)
  48:.\Generated_Source\PSoC5/isr_BUTTON_BUF.c **** #endif /* CYINT_VECT_TABLE */
  49:.\Generated_Source\PSoC5/isr_BUTTON_BUF.c **** 
  50:.\Generated_Source\PSoC5/isr_BUTTON_BUF.c **** /* Declared in startup, used to set unused interrupts to. */
  51:.\Generated_Source\PSoC5/isr_BUTTON_BUF.c **** CY_ISR_PROTO(IntDefaultHandler);
  52:.\Generated_Source\PSoC5/isr_BUTTON_BUF.c **** 
  53:.\Generated_Source\PSoC5/isr_BUTTON_BUF.c **** 
  54:.\Generated_Source\PSoC5/isr_BUTTON_BUF.c **** /*******************************************************************************
  55:.\Generated_Source\PSoC5/isr_BUTTON_BUF.c **** * Function Name: isr_BUTTON_BUF_Start
  56:.\Generated_Source\PSoC5/isr_BUTTON_BUF.c **** ********************************************************************************
  57:.\Generated_Source\PSoC5/isr_BUTTON_BUF.c **** *
  58:.\Generated_Source\PSoC5/isr_BUTTON_BUF.c **** * Summary:
  59:.\Generated_Source\PSoC5/isr_BUTTON_BUF.c **** *  Set up the interrupt and enable it.
  60:.\Generated_Source\PSoC5/isr_BUTTON_BUF.c **** *
  61:.\Generated_Source\PSoC5/isr_BUTTON_BUF.c **** * Parameters:  
  62:.\Generated_Source\PSoC5/isr_BUTTON_BUF.c **** *   None
  63:.\Generated_Source\PSoC5/isr_BUTTON_BUF.c **** *
  64:.\Generated_Source\PSoC5/isr_BUTTON_BUF.c **** * Return:
  65:.\Generated_Source\PSoC5/isr_BUTTON_BUF.c **** *   None
  66:.\Generated_Source\PSoC5/isr_BUTTON_BUF.c **** *
  67:.\Generated_Source\PSoC5/isr_BUTTON_BUF.c **** *******************************************************************************/
  68:.\Generated_Source\PSoC5/isr_BUTTON_BUF.c **** void isr_BUTTON_BUF_Start(void)
  69:.\Generated_Source\PSoC5/isr_BUTTON_BUF.c **** {
  34              		.loc 1 69 0
  35              		.cfi_startproc
  36              		@ args = 0, pretend = 0, frame = 0
  37              		@ frame_needed = 1, uses_anonymous_args = 0
  38 0000 80B5     		push	{r7, lr}
  39              	.LCFI0:
  40              		.cfi_def_cfa_offset 8
  41              		.cfi_offset 7, -8
  42              		.cfi_offset 14, -4
  43 0002 00AF     		add	r7, sp, #0
  44              	.LCFI1:
  45              		.cfi_def_cfa_register 7
ARM GAS  C:\DOCUME~1\user\IMPOST~1\Temp\ccWxg2ma.s 			page 3


  70:.\Generated_Source\PSoC5/isr_BUTTON_BUF.c ****     /* For all we know the interrupt is active. */
  71:.\Generated_Source\PSoC5/isr_BUTTON_BUF.c ****     isr_BUTTON_BUF_Disable();
  46              		.loc 1 71 0
  47 0004 FFF7FEFF 		bl	isr_BUTTON_BUF_Disable
  72:.\Generated_Source\PSoC5/isr_BUTTON_BUF.c **** 
  73:.\Generated_Source\PSoC5/isr_BUTTON_BUF.c ****     /* Set the ISR to point to the isr_BUTTON_BUF Interrupt. */
  74:.\Generated_Source\PSoC5/isr_BUTTON_BUF.c ****     isr_BUTTON_BUF_SetVector(&isr_BUTTON_BUF_Interrupt);
  48              		.loc 1 74 0
  49 0008 40F20000 		movw	r0, #:lower16:isr_BUTTON_BUF_Interrupt
  50 000c C0F20000 		movt	r0, #:upper16:isr_BUTTON_BUF_Interrupt
  51 0010 FFF7FEFF 		bl	isr_BUTTON_BUF_SetVector
  75:.\Generated_Source\PSoC5/isr_BUTTON_BUF.c **** 
  76:.\Generated_Source\PSoC5/isr_BUTTON_BUF.c ****     /* Set the priority. */
  77:.\Generated_Source\PSoC5/isr_BUTTON_BUF.c ****     isr_BUTTON_BUF_SetPriority((uint8)isr_BUTTON_BUF_INTC_PRIOR_NUMBER);
  52              		.loc 1 77 0
  53 0014 4FF00700 		mov	r0, #7
  54 0018 FFF7FEFF 		bl	isr_BUTTON_BUF_SetPriority
  78:.\Generated_Source\PSoC5/isr_BUTTON_BUF.c **** 
  79:.\Generated_Source\PSoC5/isr_BUTTON_BUF.c ****     /* Enable it. */
  80:.\Generated_Source\PSoC5/isr_BUTTON_BUF.c ****     isr_BUTTON_BUF_Enable();
  55              		.loc 1 80 0
  56 001c FFF7FEFF 		bl	isr_BUTTON_BUF_Enable
  81:.\Generated_Source\PSoC5/isr_BUTTON_BUF.c **** }
  57              		.loc 1 81 0
  58 0020 80BD     		pop	{r7, pc}
  59              		.cfi_endproc
  60              	.LFE56:
  61              		.size	isr_BUTTON_BUF_Start, .-isr_BUTTON_BUF_Start
  62 0022 00BF     		.section	.text.isr_BUTTON_BUF_StartEx,"ax",%progbits
  63              		.align	2
  64              		.global	isr_BUTTON_BUF_StartEx
  65              		.thumb
  66              		.thumb_func
  67              		.type	isr_BUTTON_BUF_StartEx, %function
  68              	isr_BUTTON_BUF_StartEx:
  69              	.LFB57:
  82:.\Generated_Source\PSoC5/isr_BUTTON_BUF.c **** 
  83:.\Generated_Source\PSoC5/isr_BUTTON_BUF.c **** 
  84:.\Generated_Source\PSoC5/isr_BUTTON_BUF.c **** /*******************************************************************************
  85:.\Generated_Source\PSoC5/isr_BUTTON_BUF.c **** * Function Name: isr_BUTTON_BUF_StartEx
  86:.\Generated_Source\PSoC5/isr_BUTTON_BUF.c **** ********************************************************************************
  87:.\Generated_Source\PSoC5/isr_BUTTON_BUF.c **** *
  88:.\Generated_Source\PSoC5/isr_BUTTON_BUF.c **** * Summary:
  89:.\Generated_Source\PSoC5/isr_BUTTON_BUF.c **** *  Set up the interrupt and enable it.
  90:.\Generated_Source\PSoC5/isr_BUTTON_BUF.c **** *
  91:.\Generated_Source\PSoC5/isr_BUTTON_BUF.c **** * Parameters:  
  92:.\Generated_Source\PSoC5/isr_BUTTON_BUF.c **** *   address: Address of the ISR to set in the interrupt vector table.
  93:.\Generated_Source\PSoC5/isr_BUTTON_BUF.c **** *
  94:.\Generated_Source\PSoC5/isr_BUTTON_BUF.c **** * Return:
  95:.\Generated_Source\PSoC5/isr_BUTTON_BUF.c **** *   None
  96:.\Generated_Source\PSoC5/isr_BUTTON_BUF.c **** *
  97:.\Generated_Source\PSoC5/isr_BUTTON_BUF.c **** *******************************************************************************/
  98:.\Generated_Source\PSoC5/isr_BUTTON_BUF.c **** void isr_BUTTON_BUF_StartEx(cyisraddress address)
  99:.\Generated_Source\PSoC5/isr_BUTTON_BUF.c **** {
  70              		.loc 1 99 0
  71              		.cfi_startproc
  72              		@ args = 0, pretend = 0, frame = 8
ARM GAS  C:\DOCUME~1\user\IMPOST~1\Temp\ccWxg2ma.s 			page 4


  73              		@ frame_needed = 1, uses_anonymous_args = 0
  74 0000 80B5     		push	{r7, lr}
  75              	.LCFI2:
  76              		.cfi_def_cfa_offset 8
  77              		.cfi_offset 7, -8
  78              		.cfi_offset 14, -4
  79 0002 82B0     		sub	sp, sp, #8
  80              	.LCFI3:
  81              		.cfi_def_cfa_offset 16
  82 0004 00AF     		add	r7, sp, #0
  83              	.LCFI4:
  84              		.cfi_def_cfa_register 7
  85 0006 7860     		str	r0, [r7, #4]
 100:.\Generated_Source\PSoC5/isr_BUTTON_BUF.c ****     /* For all we know the interrupt is active. */
 101:.\Generated_Source\PSoC5/isr_BUTTON_BUF.c ****     isr_BUTTON_BUF_Disable();
  86              		.loc 1 101 0
  87 0008 FFF7FEFF 		bl	isr_BUTTON_BUF_Disable
 102:.\Generated_Source\PSoC5/isr_BUTTON_BUF.c **** 
 103:.\Generated_Source\PSoC5/isr_BUTTON_BUF.c ****     /* Set the ISR to point to the isr_BUTTON_BUF Interrupt. */
 104:.\Generated_Source\PSoC5/isr_BUTTON_BUF.c ****     isr_BUTTON_BUF_SetVector(address);
  88              		.loc 1 104 0
  89 000c 7868     		ldr	r0, [r7, #4]
  90 000e FFF7FEFF 		bl	isr_BUTTON_BUF_SetVector
 105:.\Generated_Source\PSoC5/isr_BUTTON_BUF.c **** 
 106:.\Generated_Source\PSoC5/isr_BUTTON_BUF.c ****     /* Set the priority. */
 107:.\Generated_Source\PSoC5/isr_BUTTON_BUF.c ****     isr_BUTTON_BUF_SetPriority((uint8)isr_BUTTON_BUF_INTC_PRIOR_NUMBER);
  91              		.loc 1 107 0
  92 0012 4FF00700 		mov	r0, #7
  93 0016 FFF7FEFF 		bl	isr_BUTTON_BUF_SetPriority
 108:.\Generated_Source\PSoC5/isr_BUTTON_BUF.c **** 
 109:.\Generated_Source\PSoC5/isr_BUTTON_BUF.c ****     /* Enable it. */
 110:.\Generated_Source\PSoC5/isr_BUTTON_BUF.c ****     isr_BUTTON_BUF_Enable();
  94              		.loc 1 110 0
  95 001a FFF7FEFF 		bl	isr_BUTTON_BUF_Enable
 111:.\Generated_Source\PSoC5/isr_BUTTON_BUF.c **** }
  96              		.loc 1 111 0
  97 001e 07F10807 		add	r7, r7, #8
  98 0022 BD46     		mov	sp, r7
  99 0024 80BD     		pop	{r7, pc}
 100              		.cfi_endproc
 101              	.LFE57:
 102              		.size	isr_BUTTON_BUF_StartEx, .-isr_BUTTON_BUF_StartEx
 103 0026 00BF     		.section	.text.isr_BUTTON_BUF_Stop,"ax",%progbits
 104              		.align	2
 105              		.global	isr_BUTTON_BUF_Stop
 106              		.thumb
 107              		.thumb_func
 108              		.type	isr_BUTTON_BUF_Stop, %function
 109              	isr_BUTTON_BUF_Stop:
 110              	.LFB58:
 112:.\Generated_Source\PSoC5/isr_BUTTON_BUF.c **** 
 113:.\Generated_Source\PSoC5/isr_BUTTON_BUF.c **** 
 114:.\Generated_Source\PSoC5/isr_BUTTON_BUF.c **** /*******************************************************************************
 115:.\Generated_Source\PSoC5/isr_BUTTON_BUF.c **** * Function Name: isr_BUTTON_BUF_Stop
 116:.\Generated_Source\PSoC5/isr_BUTTON_BUF.c **** ********************************************************************************
 117:.\Generated_Source\PSoC5/isr_BUTTON_BUF.c **** *
 118:.\Generated_Source\PSoC5/isr_BUTTON_BUF.c **** * Summary:
ARM GAS  C:\DOCUME~1\user\IMPOST~1\Temp\ccWxg2ma.s 			page 5


 119:.\Generated_Source\PSoC5/isr_BUTTON_BUF.c **** *   Disables and removes the interrupt.
 120:.\Generated_Source\PSoC5/isr_BUTTON_BUF.c **** *
 121:.\Generated_Source\PSoC5/isr_BUTTON_BUF.c **** * Parameters:  
 122:.\Generated_Source\PSoC5/isr_BUTTON_BUF.c **** *
 123:.\Generated_Source\PSoC5/isr_BUTTON_BUF.c **** * Return:
 124:.\Generated_Source\PSoC5/isr_BUTTON_BUF.c **** *   None
 125:.\Generated_Source\PSoC5/isr_BUTTON_BUF.c **** *
 126:.\Generated_Source\PSoC5/isr_BUTTON_BUF.c **** *******************************************************************************/
 127:.\Generated_Source\PSoC5/isr_BUTTON_BUF.c **** void isr_BUTTON_BUF_Stop(void)
 128:.\Generated_Source\PSoC5/isr_BUTTON_BUF.c **** {
 111              		.loc 1 128 0
 112              		.cfi_startproc
 113              		@ args = 0, pretend = 0, frame = 0
 114              		@ frame_needed = 1, uses_anonymous_args = 0
 115 0000 80B5     		push	{r7, lr}
 116              	.LCFI5:
 117              		.cfi_def_cfa_offset 8
 118              		.cfi_offset 7, -8
 119              		.cfi_offset 14, -4
 120 0002 00AF     		add	r7, sp, #0
 121              	.LCFI6:
 122              		.cfi_def_cfa_register 7
 129:.\Generated_Source\PSoC5/isr_BUTTON_BUF.c ****     /* Disable this interrupt. */
 130:.\Generated_Source\PSoC5/isr_BUTTON_BUF.c ****     isr_BUTTON_BUF_Disable();
 123              		.loc 1 130 0
 124 0004 FFF7FEFF 		bl	isr_BUTTON_BUF_Disable
 131:.\Generated_Source\PSoC5/isr_BUTTON_BUF.c **** 
 132:.\Generated_Source\PSoC5/isr_BUTTON_BUF.c ****     /* Set the ISR to point to the passive one. */
 133:.\Generated_Source\PSoC5/isr_BUTTON_BUF.c ****     isr_BUTTON_BUF_SetVector(&IntDefaultHandler);
 125              		.loc 1 133 0
 126 0008 40F20000 		movw	r0, #:lower16:IntDefaultHandler
 127 000c C0F20000 		movt	r0, #:upper16:IntDefaultHandler
 128 0010 FFF7FEFF 		bl	isr_BUTTON_BUF_SetVector
 134:.\Generated_Source\PSoC5/isr_BUTTON_BUF.c **** }
 129              		.loc 1 134 0
 130 0014 80BD     		pop	{r7, pc}
 131              		.cfi_endproc
 132              	.LFE58:
 133              		.size	isr_BUTTON_BUF_Stop, .-isr_BUTTON_BUF_Stop
 134 0016 00BF     		.section	.rodata
 135              		.align	2
 136              	.LC0:
 137 0000 2A425554 		.ascii	"*BUT --> Inertial Vars Buffering!\015\000"
 137      202D2D3E 
 137      20496E65 
 137      72746961 
 137      6C205661 
 138 0023 00       		.section	.text.isr_BUTTON_BUF_Interrupt,"ax",%progbits
 139              		.align	2
 140              		.global	isr_BUTTON_BUF_Interrupt
 141              		.thumb
 142              		.thumb_func
 143              		.type	isr_BUTTON_BUF_Interrupt, %function
 144              	isr_BUTTON_BUF_Interrupt:
 145              	.LFB59:
 135:.\Generated_Source\PSoC5/isr_BUTTON_BUF.c **** 
 136:.\Generated_Source\PSoC5/isr_BUTTON_BUF.c **** 
ARM GAS  C:\DOCUME~1\user\IMPOST~1\Temp\ccWxg2ma.s 			page 6


 137:.\Generated_Source\PSoC5/isr_BUTTON_BUF.c **** /*******************************************************************************
 138:.\Generated_Source\PSoC5/isr_BUTTON_BUF.c **** * Function Name: isr_BUTTON_BUF_Interrupt
 139:.\Generated_Source\PSoC5/isr_BUTTON_BUF.c **** ********************************************************************************
 140:.\Generated_Source\PSoC5/isr_BUTTON_BUF.c **** *
 141:.\Generated_Source\PSoC5/isr_BUTTON_BUF.c **** * Summary:
 142:.\Generated_Source\PSoC5/isr_BUTTON_BUF.c **** *   The default Interrupt Service Routine for isr_BUTTON_BUF.
 143:.\Generated_Source\PSoC5/isr_BUTTON_BUF.c **** *
 144:.\Generated_Source\PSoC5/isr_BUTTON_BUF.c **** *   Add custom code between the coments to keep the next version of this file
 145:.\Generated_Source\PSoC5/isr_BUTTON_BUF.c **** *   from over writting your code.
 146:.\Generated_Source\PSoC5/isr_BUTTON_BUF.c **** *
 147:.\Generated_Source\PSoC5/isr_BUTTON_BUF.c **** * Parameters:  
 148:.\Generated_Source\PSoC5/isr_BUTTON_BUF.c **** *
 149:.\Generated_Source\PSoC5/isr_BUTTON_BUF.c **** * Return:
 150:.\Generated_Source\PSoC5/isr_BUTTON_BUF.c **** *   None
 151:.\Generated_Source\PSoC5/isr_BUTTON_BUF.c **** *
 152:.\Generated_Source\PSoC5/isr_BUTTON_BUF.c **** *******************************************************************************/
 153:.\Generated_Source\PSoC5/isr_BUTTON_BUF.c **** CY_ISR(isr_BUTTON_BUF_Interrupt)
 154:.\Generated_Source\PSoC5/isr_BUTTON_BUF.c **** {
 146              		.loc 1 154 0
 147              		.cfi_startproc
 148              		@ args = 0, pretend = 0, frame = 0
 149              		@ frame_needed = 1, uses_anonymous_args = 0
 150 0000 80B5     		push	{r7, lr}
 151              	.LCFI7:
 152              		.cfi_def_cfa_offset 8
 153              		.cfi_offset 7, -8
 154              		.cfi_offset 14, -4
 155 0002 00AF     		add	r7, sp, #0
 156              	.LCFI8:
 157              		.cfi_def_cfa_register 7
 155:.\Generated_Source\PSoC5/isr_BUTTON_BUF.c ****     /*  Place your Interrupt code here. */
 156:.\Generated_Source\PSoC5/isr_BUTTON_BUF.c ****     /* `#START isr_BUTTON_BUF_Interrupt` */
 157:.\Generated_Source\PSoC5/isr_BUTTON_BUF.c **** 	printf("*BUT --> Inertial Vars Buffering!\r\n");
 158              		.loc 1 157 0
 159 0004 40F20000 		movw	r0, #:lower16:.LC0
 160 0008 C0F20000 		movt	r0, #:upper16:.LC0
 161 000c FFF7FEFF 		bl	puts
 158:.\Generated_Source\PSoC5/isr_BUTTON_BUF.c **** 	
 159:.\Generated_Source\PSoC5/isr_BUTTON_BUF.c **** 	for (idxxx = 0; idxxx < 8; idxxx++)
 162              		.loc 1 159 0
 163 0010 40F20003 		movw	r3, #:lower16:idxxx
 164 0014 C0F20003 		movt	r3, #:upper16:idxxx
 165 0018 4FF00002 		mov	r2, #0
 166 001c 1A70     		strb	r2, [r3, #0]
 167 001e 1CE0     		b	.L5
 168              	.L6:
 160:.\Generated_Source\PSoC5/isr_BUTTON_BUF.c **** 	{			
 161:.\Generated_Source\PSoC5/isr_BUTTON_BUF.c **** 		Control_Reg_BUZ_Write(BUZZER_ON);	/* buzzer on			*/
 169              		.loc 1 161 0 discriminator 2
 170 0020 4FF00100 		mov	r0, #1
 171 0024 FFF7FEFF 		bl	Control_Reg_BUZ_Write
 162:.\Generated_Source\PSoC5/isr_BUTTON_BUF.c **** 		CyDelay(25);						/* 40msec sec delay	*/
 172              		.loc 1 162 0 discriminator 2
 173 0028 4FF01900 		mov	r0, #25
 174 002c FFF7FEFF 		bl	CyDelay
 163:.\Generated_Source\PSoC5/isr_BUTTON_BUF.c **** 		Control_Reg_BUZ_Write(BUZZER_OFF);	/* buzzer off			*/
 175              		.loc 1 163 0 discriminator 2
ARM GAS  C:\DOCUME~1\user\IMPOST~1\Temp\ccWxg2ma.s 			page 7


 176 0030 4FF00000 		mov	r0, #0
 177 0034 FFF7FEFF 		bl	Control_Reg_BUZ_Write
 164:.\Generated_Source\PSoC5/isr_BUTTON_BUF.c **** 		CyDelay(25);						/* 40msec sec delay	*/			
 178              		.loc 1 164 0 discriminator 2
 179 0038 4FF01900 		mov	r0, #25
 180 003c FFF7FEFF 		bl	CyDelay
 159:.\Generated_Source\PSoC5/isr_BUTTON_BUF.c **** 	for (idxxx = 0; idxxx < 8; idxxx++)
 181              		.loc 1 159 0 discriminator 2
 182 0040 40F20003 		movw	r3, #:lower16:idxxx
 183 0044 C0F20003 		movt	r3, #:upper16:idxxx
 184 0048 1B78     		ldrb	r3, [r3, #0]	@ zero_extendqisi2
 185 004a 03F10103 		add	r3, r3, #1
 186 004e DAB2     		uxtb	r2, r3
 187 0050 40F20003 		movw	r3, #:lower16:idxxx
 188 0054 C0F20003 		movt	r3, #:upper16:idxxx
 189 0058 1A70     		strb	r2, [r3, #0]
 190              	.L5:
 159:.\Generated_Source\PSoC5/isr_BUTTON_BUF.c **** 	for (idxxx = 0; idxxx < 8; idxxx++)
 191              		.loc 1 159 0 is_stmt 0 discriminator 1
 192 005a 40F20003 		movw	r3, #:lower16:idxxx
 193 005e C0F20003 		movt	r3, #:upper16:idxxx
 194 0062 1B78     		ldrb	r3, [r3, #0]	@ zero_extendqisi2
 195 0064 072B     		cmp	r3, #7
 196 0066 DBD9     		bls	.L6
 165:.\Generated_Source\PSoC5/isr_BUTTON_BUF.c **** 	}	
 166:.\Generated_Source\PSoC5/isr_BUTTON_BUF.c **** 	
 167:.\Generated_Source\PSoC5/isr_BUTTON_BUF.c **** 	DASbufferingInit();			/* DAS Buffering Init  */
 197              		.loc 1 167 0 is_stmt 1
 198 0068 FFF7FEFF 		bl	DASbufferingInit
 168:.\Generated_Source\PSoC5/isr_BUTTON_BUF.c **** 	DASbufferingStart();		/* DAS Buffering Start */
 199              		.loc 1 168 0
 200 006c FFF7FEFF 		bl	DASbufferingStart
 169:.\Generated_Source\PSoC5/isr_BUTTON_BUF.c **** 			
 170:.\Generated_Source\PSoC5/isr_BUTTON_BUF.c **** 	das.control = DAS_BUFFERING_GOBEE_IVs_ENABLED;	
 201              		.loc 1 170 0
 202 0070 40F20003 		movw	r3, #:lower16:das
 203 0074 C0F20003 		movt	r3, #:upper16:das
 204 0078 4FF00B02 		mov	r2, #11
 205 007c 1A71     		strb	r2, [r3, #4]
 171:.\Generated_Source\PSoC5/isr_BUTTON_BUF.c **** 	
 172:.\Generated_Source\PSoC5/isr_BUTTON_BUF.c **** 	isr_DAS_Start();				/* Start DAS ISR	*/
 206              		.loc 1 172 0
 207 007e FFF7FEFF 		bl	isr_DAS_Start
 173:.\Generated_Source\PSoC5/isr_BUTTON_BUF.c ****     /* `#END` */
 174:.\Generated_Source\PSoC5/isr_BUTTON_BUF.c **** }
 208              		.loc 1 174 0
 209 0082 80BD     		pop	{r7, pc}
 210              		.cfi_endproc
 211              	.LFE59:
 212              		.size	isr_BUTTON_BUF_Interrupt, .-isr_BUTTON_BUF_Interrupt
 213              		.section	.text.isr_BUTTON_BUF_SetVector,"ax",%progbits
 214              		.align	2
 215              		.global	isr_BUTTON_BUF_SetVector
 216              		.thumb
 217              		.thumb_func
 218              		.type	isr_BUTTON_BUF_SetVector, %function
 219              	isr_BUTTON_BUF_SetVector:
ARM GAS  C:\DOCUME~1\user\IMPOST~1\Temp\ccWxg2ma.s 			page 8


 220              	.LFB60:
 175:.\Generated_Source\PSoC5/isr_BUTTON_BUF.c **** 
 176:.\Generated_Source\PSoC5/isr_BUTTON_BUF.c **** 
 177:.\Generated_Source\PSoC5/isr_BUTTON_BUF.c **** /*******************************************************************************
 178:.\Generated_Source\PSoC5/isr_BUTTON_BUF.c **** * Function Name: isr_BUTTON_BUF_SetVector
 179:.\Generated_Source\PSoC5/isr_BUTTON_BUF.c **** ********************************************************************************
 180:.\Generated_Source\PSoC5/isr_BUTTON_BUF.c **** *
 181:.\Generated_Source\PSoC5/isr_BUTTON_BUF.c **** * Summary:
 182:.\Generated_Source\PSoC5/isr_BUTTON_BUF.c **** *   Change the ISR vector for the Interrupt. Note calling isr_BUTTON_BUF_Start
 183:.\Generated_Source\PSoC5/isr_BUTTON_BUF.c **** *   will override any effect this method would have had. To set the vector 
 184:.\Generated_Source\PSoC5/isr_BUTTON_BUF.c **** *   before the component has been started use isr_BUTTON_BUF_StartEx instead.
 185:.\Generated_Source\PSoC5/isr_BUTTON_BUF.c **** *
 186:.\Generated_Source\PSoC5/isr_BUTTON_BUF.c **** * Parameters:
 187:.\Generated_Source\PSoC5/isr_BUTTON_BUF.c **** *   address: Address of the ISR to set in the interrupt vector table.
 188:.\Generated_Source\PSoC5/isr_BUTTON_BUF.c **** *
 189:.\Generated_Source\PSoC5/isr_BUTTON_BUF.c **** * Return:
 190:.\Generated_Source\PSoC5/isr_BUTTON_BUF.c **** *   None
 191:.\Generated_Source\PSoC5/isr_BUTTON_BUF.c **** *
 192:.\Generated_Source\PSoC5/isr_BUTTON_BUF.c **** *******************************************************************************/
 193:.\Generated_Source\PSoC5/isr_BUTTON_BUF.c **** void isr_BUTTON_BUF_SetVector(cyisraddress address)
 194:.\Generated_Source\PSoC5/isr_BUTTON_BUF.c **** {
 221              		.loc 1 194 0
 222              		.cfi_startproc
 223              		@ args = 0, pretend = 0, frame = 16
 224              		@ frame_needed = 1, uses_anonymous_args = 0
 225              		@ link register save eliminated.
 226 0000 80B4     		push	{r7}
 227              	.LCFI9:
 228              		.cfi_def_cfa_offset 4
 229              		.cfi_offset 7, -4
 230 0002 85B0     		sub	sp, sp, #20
 231              	.LCFI10:
 232              		.cfi_def_cfa_offset 24
 233 0004 00AF     		add	r7, sp, #0
 234              	.LCFI11:
 235              		.cfi_def_cfa_register 7
 236 0006 7860     		str	r0, [r7, #4]
 195:.\Generated_Source\PSoC5/isr_BUTTON_BUF.c ****     cyisraddress * ramVectorTable;
 196:.\Generated_Source\PSoC5/isr_BUTTON_BUF.c **** 
 197:.\Generated_Source\PSoC5/isr_BUTTON_BUF.c ****     ramVectorTable = (cyisraddress *) *CYINT_VECT_TABLE;
 237              		.loc 1 197 0
 238 0008 4EF60853 		movw	r3, #60680
 239 000c CEF20003 		movt	r3, 57344
 240 0010 1B68     		ldr	r3, [r3, #0]
 241 0012 FB60     		str	r3, [r7, #12]
 198:.\Generated_Source\PSoC5/isr_BUTTON_BUF.c **** 
 199:.\Generated_Source\PSoC5/isr_BUTTON_BUF.c ****     ramVectorTable[CYINT_IRQ_BASE + (uint32)isr_BUTTON_BUF__INTC_NUMBER] = address;
 242              		.loc 1 199 0
 243 0014 FB68     		ldr	r3, [r7, #12]
 244 0016 03F15003 		add	r3, r3, #80
 245 001a 7A68     		ldr	r2, [r7, #4]
 246 001c 1A60     		str	r2, [r3, #0]
 200:.\Generated_Source\PSoC5/isr_BUTTON_BUF.c **** }
 247              		.loc 1 200 0
 248 001e 07F11407 		add	r7, r7, #20
 249 0022 BD46     		mov	sp, r7
 250 0024 80BC     		pop	{r7}
ARM GAS  C:\DOCUME~1\user\IMPOST~1\Temp\ccWxg2ma.s 			page 9


 251 0026 7047     		bx	lr
 252              		.cfi_endproc
 253              	.LFE60:
 254              		.size	isr_BUTTON_BUF_SetVector, .-isr_BUTTON_BUF_SetVector
 255              		.section	.text.isr_BUTTON_BUF_GetVector,"ax",%progbits
 256              		.align	2
 257              		.global	isr_BUTTON_BUF_GetVector
 258              		.thumb
 259              		.thumb_func
 260              		.type	isr_BUTTON_BUF_GetVector, %function
 261              	isr_BUTTON_BUF_GetVector:
 262              	.LFB61:
 201:.\Generated_Source\PSoC5/isr_BUTTON_BUF.c **** 
 202:.\Generated_Source\PSoC5/isr_BUTTON_BUF.c **** 
 203:.\Generated_Source\PSoC5/isr_BUTTON_BUF.c **** /*******************************************************************************
 204:.\Generated_Source\PSoC5/isr_BUTTON_BUF.c **** * Function Name: isr_BUTTON_BUF_GetVector
 205:.\Generated_Source\PSoC5/isr_BUTTON_BUF.c **** ********************************************************************************
 206:.\Generated_Source\PSoC5/isr_BUTTON_BUF.c **** *
 207:.\Generated_Source\PSoC5/isr_BUTTON_BUF.c **** * Summary:
 208:.\Generated_Source\PSoC5/isr_BUTTON_BUF.c **** *   Gets the "address" of the current ISR vector for the Interrupt.
 209:.\Generated_Source\PSoC5/isr_BUTTON_BUF.c **** *
 210:.\Generated_Source\PSoC5/isr_BUTTON_BUF.c **** * Parameters:
 211:.\Generated_Source\PSoC5/isr_BUTTON_BUF.c **** *   None
 212:.\Generated_Source\PSoC5/isr_BUTTON_BUF.c **** *
 213:.\Generated_Source\PSoC5/isr_BUTTON_BUF.c **** * Return:
 214:.\Generated_Source\PSoC5/isr_BUTTON_BUF.c **** *   Address of the ISR in the interrupt vector table.
 215:.\Generated_Source\PSoC5/isr_BUTTON_BUF.c **** *
 216:.\Generated_Source\PSoC5/isr_BUTTON_BUF.c **** *******************************************************************************/
 217:.\Generated_Source\PSoC5/isr_BUTTON_BUF.c **** cyisraddress isr_BUTTON_BUF_GetVector(void)
 218:.\Generated_Source\PSoC5/isr_BUTTON_BUF.c **** {
 263              		.loc 1 218 0
 264              		.cfi_startproc
 265              		@ args = 0, pretend = 0, frame = 8
 266              		@ frame_needed = 1, uses_anonymous_args = 0
 267              		@ link register save eliminated.
 268 0000 80B4     		push	{r7}
 269              	.LCFI12:
 270              		.cfi_def_cfa_offset 4
 271              		.cfi_offset 7, -4
 272 0002 83B0     		sub	sp, sp, #12
 273              	.LCFI13:
 274              		.cfi_def_cfa_offset 16
 275 0004 00AF     		add	r7, sp, #0
 276              	.LCFI14:
 277              		.cfi_def_cfa_register 7
 219:.\Generated_Source\PSoC5/isr_BUTTON_BUF.c ****     cyisraddress * ramVectorTable;
 220:.\Generated_Source\PSoC5/isr_BUTTON_BUF.c **** 
 221:.\Generated_Source\PSoC5/isr_BUTTON_BUF.c ****     ramVectorTable = (cyisraddress *) *CYINT_VECT_TABLE;
 278              		.loc 1 221 0
 279 0006 4EF60853 		movw	r3, #60680
 280 000a CEF20003 		movt	r3, 57344
 281 000e 1B68     		ldr	r3, [r3, #0]
 282 0010 7B60     		str	r3, [r7, #4]
 222:.\Generated_Source\PSoC5/isr_BUTTON_BUF.c **** 
 223:.\Generated_Source\PSoC5/isr_BUTTON_BUF.c ****     return ramVectorTable[CYINT_IRQ_BASE + (uint32)isr_BUTTON_BUF__INTC_NUMBER];
 283              		.loc 1 223 0
 284 0012 7B68     		ldr	r3, [r7, #4]
ARM GAS  C:\DOCUME~1\user\IMPOST~1\Temp\ccWxg2ma.s 			page 10


 285 0014 1B6D     		ldr	r3, [r3, #80]
 224:.\Generated_Source\PSoC5/isr_BUTTON_BUF.c **** }
 286              		.loc 1 224 0
 287 0016 1846     		mov	r0, r3
 288 0018 07F10C07 		add	r7, r7, #12
 289 001c BD46     		mov	sp, r7
 290 001e 80BC     		pop	{r7}
 291 0020 7047     		bx	lr
 292              		.cfi_endproc
 293              	.LFE61:
 294              		.size	isr_BUTTON_BUF_GetVector, .-isr_BUTTON_BUF_GetVector
 295 0022 00BF     		.section	.text.isr_BUTTON_BUF_SetPriority,"ax",%progbits
 296              		.align	2
 297              		.global	isr_BUTTON_BUF_SetPriority
 298              		.thumb
 299              		.thumb_func
 300              		.type	isr_BUTTON_BUF_SetPriority, %function
 301              	isr_BUTTON_BUF_SetPriority:
 302              	.LFB62:
 225:.\Generated_Source\PSoC5/isr_BUTTON_BUF.c **** 
 226:.\Generated_Source\PSoC5/isr_BUTTON_BUF.c **** 
 227:.\Generated_Source\PSoC5/isr_BUTTON_BUF.c **** /*******************************************************************************
 228:.\Generated_Source\PSoC5/isr_BUTTON_BUF.c **** * Function Name: isr_BUTTON_BUF_SetPriority
 229:.\Generated_Source\PSoC5/isr_BUTTON_BUF.c **** ********************************************************************************
 230:.\Generated_Source\PSoC5/isr_BUTTON_BUF.c **** *
 231:.\Generated_Source\PSoC5/isr_BUTTON_BUF.c **** * Summary:
 232:.\Generated_Source\PSoC5/isr_BUTTON_BUF.c **** *   Sets the Priority of the Interrupt. Note calling isr_BUTTON_BUF_Start
 233:.\Generated_Source\PSoC5/isr_BUTTON_BUF.c **** *   or isr_BUTTON_BUF_StartEx will override any effect this method 
 234:.\Generated_Source\PSoC5/isr_BUTTON_BUF.c **** *   would have had. This method should only be called after 
 235:.\Generated_Source\PSoC5/isr_BUTTON_BUF.c **** *   isr_BUTTON_BUF_Start or isr_BUTTON_BUF_StartEx has been called. To set 
 236:.\Generated_Source\PSoC5/isr_BUTTON_BUF.c **** *   the initial priority for the component use the cydwr file in the tool.
 237:.\Generated_Source\PSoC5/isr_BUTTON_BUF.c **** *
 238:.\Generated_Source\PSoC5/isr_BUTTON_BUF.c **** * Parameters:
 239:.\Generated_Source\PSoC5/isr_BUTTON_BUF.c **** *   priority: Priority of the interrupt. 0 - 7, 0 being the highest.
 240:.\Generated_Source\PSoC5/isr_BUTTON_BUF.c **** *
 241:.\Generated_Source\PSoC5/isr_BUTTON_BUF.c **** * Return:
 242:.\Generated_Source\PSoC5/isr_BUTTON_BUF.c **** *   None
 243:.\Generated_Source\PSoC5/isr_BUTTON_BUF.c **** *
 244:.\Generated_Source\PSoC5/isr_BUTTON_BUF.c **** *******************************************************************************/
 245:.\Generated_Source\PSoC5/isr_BUTTON_BUF.c **** void isr_BUTTON_BUF_SetPriority(uint8 priority)
 246:.\Generated_Source\PSoC5/isr_BUTTON_BUF.c **** {
 303              		.loc 1 246 0
 304              		.cfi_startproc
 305              		@ args = 0, pretend = 0, frame = 8
 306              		@ frame_needed = 1, uses_anonymous_args = 0
 307              		@ link register save eliminated.
 308 0000 80B4     		push	{r7}
 309              	.LCFI15:
 310              		.cfi_def_cfa_offset 4
 311              		.cfi_offset 7, -4
 312 0002 83B0     		sub	sp, sp, #12
 313              	.LCFI16:
 314              		.cfi_def_cfa_offset 16
 315 0004 00AF     		add	r7, sp, #0
 316              	.LCFI17:
 317              		.cfi_def_cfa_register 7
 318 0006 0346     		mov	r3, r0
ARM GAS  C:\DOCUME~1\user\IMPOST~1\Temp\ccWxg2ma.s 			page 11


 319 0008 FB71     		strb	r3, [r7, #7]
 247:.\Generated_Source\PSoC5/isr_BUTTON_BUF.c ****     *isr_BUTTON_BUF_INTC_PRIOR = priority << 5;
 320              		.loc 1 247 0
 321 000a 4EF20443 		movw	r3, #58372
 322 000e CEF20003 		movt	r3, 57344
 323 0012 FA79     		ldrb	r2, [r7, #7]
 324 0014 4FEA4212 		lsl	r2, r2, #5
 325 0018 D2B2     		uxtb	r2, r2
 326 001a 1A70     		strb	r2, [r3, #0]
 248:.\Generated_Source\PSoC5/isr_BUTTON_BUF.c **** }
 327              		.loc 1 248 0
 328 001c 07F10C07 		add	r7, r7, #12
 329 0020 BD46     		mov	sp, r7
 330 0022 80BC     		pop	{r7}
 331 0024 7047     		bx	lr
 332              		.cfi_endproc
 333              	.LFE62:
 334              		.size	isr_BUTTON_BUF_SetPriority, .-isr_BUTTON_BUF_SetPriority
 335 0026 00BF     		.section	.text.isr_BUTTON_BUF_GetPriority,"ax",%progbits
 336              		.align	2
 337              		.global	isr_BUTTON_BUF_GetPriority
 338              		.thumb
 339              		.thumb_func
 340              		.type	isr_BUTTON_BUF_GetPriority, %function
 341              	isr_BUTTON_BUF_GetPriority:
 342              	.LFB63:
 249:.\Generated_Source\PSoC5/isr_BUTTON_BUF.c **** 
 250:.\Generated_Source\PSoC5/isr_BUTTON_BUF.c **** 
 251:.\Generated_Source\PSoC5/isr_BUTTON_BUF.c **** /*******************************************************************************
 252:.\Generated_Source\PSoC5/isr_BUTTON_BUF.c **** * Function Name: isr_BUTTON_BUF_GetPriority
 253:.\Generated_Source\PSoC5/isr_BUTTON_BUF.c **** ********************************************************************************
 254:.\Generated_Source\PSoC5/isr_BUTTON_BUF.c **** *
 255:.\Generated_Source\PSoC5/isr_BUTTON_BUF.c **** * Summary:
 256:.\Generated_Source\PSoC5/isr_BUTTON_BUF.c **** *   Gets the Priority of the Interrupt.
 257:.\Generated_Source\PSoC5/isr_BUTTON_BUF.c **** *
 258:.\Generated_Source\PSoC5/isr_BUTTON_BUF.c **** * Parameters:
 259:.\Generated_Source\PSoC5/isr_BUTTON_BUF.c **** *   None
 260:.\Generated_Source\PSoC5/isr_BUTTON_BUF.c **** *
 261:.\Generated_Source\PSoC5/isr_BUTTON_BUF.c **** * Return:
 262:.\Generated_Source\PSoC5/isr_BUTTON_BUF.c **** *   Priority of the interrupt. 0 - 7, 0 being the highest.
 263:.\Generated_Source\PSoC5/isr_BUTTON_BUF.c **** *
 264:.\Generated_Source\PSoC5/isr_BUTTON_BUF.c **** *******************************************************************************/
 265:.\Generated_Source\PSoC5/isr_BUTTON_BUF.c **** uint8 isr_BUTTON_BUF_GetPriority(void)
 266:.\Generated_Source\PSoC5/isr_BUTTON_BUF.c **** {
 343              		.loc 1 266 0
 344              		.cfi_startproc
 345              		@ args = 0, pretend = 0, frame = 8
 346              		@ frame_needed = 1, uses_anonymous_args = 0
 347              		@ link register save eliminated.
 348 0000 80B4     		push	{r7}
 349              	.LCFI18:
 350              		.cfi_def_cfa_offset 4
 351              		.cfi_offset 7, -4
 352 0002 83B0     		sub	sp, sp, #12
 353              	.LCFI19:
 354              		.cfi_def_cfa_offset 16
 355 0004 00AF     		add	r7, sp, #0
ARM GAS  C:\DOCUME~1\user\IMPOST~1\Temp\ccWxg2ma.s 			page 12


 356              	.LCFI20:
 357              		.cfi_def_cfa_register 7
 267:.\Generated_Source\PSoC5/isr_BUTTON_BUF.c ****     uint8 priority;
 268:.\Generated_Source\PSoC5/isr_BUTTON_BUF.c **** 
 269:.\Generated_Source\PSoC5/isr_BUTTON_BUF.c **** 
 270:.\Generated_Source\PSoC5/isr_BUTTON_BUF.c ****     priority = *isr_BUTTON_BUF_INTC_PRIOR >> 5;
 358              		.loc 1 270 0
 359 0006 4EF20443 		movw	r3, #58372
 360 000a CEF20003 		movt	r3, 57344
 361 000e 1B78     		ldrb	r3, [r3, #0]
 362 0010 DBB2     		uxtb	r3, r3
 363 0012 4FEA5313 		lsr	r3, r3, #5
 364 0016 FB71     		strb	r3, [r7, #7]
 271:.\Generated_Source\PSoC5/isr_BUTTON_BUF.c **** 
 272:.\Generated_Source\PSoC5/isr_BUTTON_BUF.c ****     return priority;
 365              		.loc 1 272 0
 366 0018 FB79     		ldrb	r3, [r7, #7]	@ zero_extendqisi2
 273:.\Generated_Source\PSoC5/isr_BUTTON_BUF.c **** }
 367              		.loc 1 273 0
 368 001a 1846     		mov	r0, r3
 369 001c 07F10C07 		add	r7, r7, #12
 370 0020 BD46     		mov	sp, r7
 371 0022 80BC     		pop	{r7}
 372 0024 7047     		bx	lr
 373              		.cfi_endproc
 374              	.LFE63:
 375              		.size	isr_BUTTON_BUF_GetPriority, .-isr_BUTTON_BUF_GetPriority
 376 0026 00BF     		.section	.text.isr_BUTTON_BUF_Enable,"ax",%progbits
 377              		.align	2
 378              		.global	isr_BUTTON_BUF_Enable
 379              		.thumb
 380              		.thumb_func
 381              		.type	isr_BUTTON_BUF_Enable, %function
 382              	isr_BUTTON_BUF_Enable:
 383              	.LFB64:
 274:.\Generated_Source\PSoC5/isr_BUTTON_BUF.c **** 
 275:.\Generated_Source\PSoC5/isr_BUTTON_BUF.c **** 
 276:.\Generated_Source\PSoC5/isr_BUTTON_BUF.c **** /*******************************************************************************
 277:.\Generated_Source\PSoC5/isr_BUTTON_BUF.c **** * Function Name: isr_BUTTON_BUF_Enable
 278:.\Generated_Source\PSoC5/isr_BUTTON_BUF.c **** ********************************************************************************
 279:.\Generated_Source\PSoC5/isr_BUTTON_BUF.c **** *
 280:.\Generated_Source\PSoC5/isr_BUTTON_BUF.c **** * Summary:
 281:.\Generated_Source\PSoC5/isr_BUTTON_BUF.c **** *   Enables the interrupt.
 282:.\Generated_Source\PSoC5/isr_BUTTON_BUF.c **** *
 283:.\Generated_Source\PSoC5/isr_BUTTON_BUF.c **** * Parameters:
 284:.\Generated_Source\PSoC5/isr_BUTTON_BUF.c **** *   None
 285:.\Generated_Source\PSoC5/isr_BUTTON_BUF.c **** *
 286:.\Generated_Source\PSoC5/isr_BUTTON_BUF.c **** * Return:
 287:.\Generated_Source\PSoC5/isr_BUTTON_BUF.c **** *   None
 288:.\Generated_Source\PSoC5/isr_BUTTON_BUF.c **** *
 289:.\Generated_Source\PSoC5/isr_BUTTON_BUF.c **** *******************************************************************************/
 290:.\Generated_Source\PSoC5/isr_BUTTON_BUF.c **** void isr_BUTTON_BUF_Enable(void)
 291:.\Generated_Source\PSoC5/isr_BUTTON_BUF.c **** {
 384              		.loc 1 291 0
 385              		.cfi_startproc
 386              		@ args = 0, pretend = 0, frame = 0
 387              		@ frame_needed = 1, uses_anonymous_args = 0
ARM GAS  C:\DOCUME~1\user\IMPOST~1\Temp\ccWxg2ma.s 			page 13


 388              		@ link register save eliminated.
 389 0000 80B4     		push	{r7}
 390              	.LCFI21:
 391              		.cfi_def_cfa_offset 4
 392              		.cfi_offset 7, -4
 393 0002 00AF     		add	r7, sp, #0
 394              	.LCFI22:
 395              		.cfi_def_cfa_register 7
 292:.\Generated_Source\PSoC5/isr_BUTTON_BUF.c ****     /* Enable the general interrupt. */
 293:.\Generated_Source\PSoC5/isr_BUTTON_BUF.c ****     *isr_BUTTON_BUF_INTC_SET_EN = isr_BUTTON_BUF__INTC_MASK;
 396              		.loc 1 293 0
 397 0004 4FF46143 		mov	r3, #57600
 398 0008 CEF20003 		movt	r3, 57344
 399 000c 4FF01002 		mov	r2, #16
 400 0010 1A60     		str	r2, [r3, #0]
 294:.\Generated_Source\PSoC5/isr_BUTTON_BUF.c **** }
 401              		.loc 1 294 0
 402 0012 BD46     		mov	sp, r7
 403 0014 80BC     		pop	{r7}
 404 0016 7047     		bx	lr
 405              		.cfi_endproc
 406              	.LFE64:
 407              		.size	isr_BUTTON_BUF_Enable, .-isr_BUTTON_BUF_Enable
 408              		.section	.text.isr_BUTTON_BUF_GetState,"ax",%progbits
 409              		.align	2
 410              		.global	isr_BUTTON_BUF_GetState
 411              		.thumb
 412              		.thumb_func
 413              		.type	isr_BUTTON_BUF_GetState, %function
 414              	isr_BUTTON_BUF_GetState:
 415              	.LFB65:
 295:.\Generated_Source\PSoC5/isr_BUTTON_BUF.c **** 
 296:.\Generated_Source\PSoC5/isr_BUTTON_BUF.c **** 
 297:.\Generated_Source\PSoC5/isr_BUTTON_BUF.c **** /*******************************************************************************
 298:.\Generated_Source\PSoC5/isr_BUTTON_BUF.c **** * Function Name: isr_BUTTON_BUF_GetState
 299:.\Generated_Source\PSoC5/isr_BUTTON_BUF.c **** ********************************************************************************
 300:.\Generated_Source\PSoC5/isr_BUTTON_BUF.c **** *
 301:.\Generated_Source\PSoC5/isr_BUTTON_BUF.c **** * Summary:
 302:.\Generated_Source\PSoC5/isr_BUTTON_BUF.c **** *   Gets the state (enabled, disabled) of the Interrupt.
 303:.\Generated_Source\PSoC5/isr_BUTTON_BUF.c **** *
 304:.\Generated_Source\PSoC5/isr_BUTTON_BUF.c **** * Parameters:
 305:.\Generated_Source\PSoC5/isr_BUTTON_BUF.c **** *   None
 306:.\Generated_Source\PSoC5/isr_BUTTON_BUF.c **** *
 307:.\Generated_Source\PSoC5/isr_BUTTON_BUF.c **** * Return:
 308:.\Generated_Source\PSoC5/isr_BUTTON_BUF.c **** *   1 if enabled, 0 if disabled.
 309:.\Generated_Source\PSoC5/isr_BUTTON_BUF.c **** *
 310:.\Generated_Source\PSoC5/isr_BUTTON_BUF.c **** *******************************************************************************/
 311:.\Generated_Source\PSoC5/isr_BUTTON_BUF.c **** uint8 isr_BUTTON_BUF_GetState(void)
 312:.\Generated_Source\PSoC5/isr_BUTTON_BUF.c **** {
 416              		.loc 1 312 0
 417              		.cfi_startproc
 418              		@ args = 0, pretend = 0, frame = 0
 419              		@ frame_needed = 1, uses_anonymous_args = 0
 420              		@ link register save eliminated.
 421 0000 80B4     		push	{r7}
 422              	.LCFI23:
 423              		.cfi_def_cfa_offset 4
ARM GAS  C:\DOCUME~1\user\IMPOST~1\Temp\ccWxg2ma.s 			page 14


 424              		.cfi_offset 7, -4
 425 0002 00AF     		add	r7, sp, #0
 426              	.LCFI24:
 427              		.cfi_def_cfa_register 7
 313:.\Generated_Source\PSoC5/isr_BUTTON_BUF.c ****     /* Get the state of the general interrupt. */
 314:.\Generated_Source\PSoC5/isr_BUTTON_BUF.c ****     return ((*isr_BUTTON_BUF_INTC_SET_EN & (uint32)isr_BUTTON_BUF__INTC_MASK) != 0u) ? 1u:0u;
 428              		.loc 1 314 0
 429 0004 4FF46143 		mov	r3, #57600
 430 0008 CEF20003 		movt	r3, 57344
 431 000c 1B68     		ldr	r3, [r3, #0]
 432 000e 03F01003 		and	r3, r3, #16
 433 0012 002B     		cmp	r3, #0
 434 0014 02D0     		beq	.L15
 435              		.loc 1 314 0 is_stmt 0 discriminator 1
 436 0016 4FF00103 		mov	r3, #1
 437 001a 01E0     		b	.L16
 438              	.L15:
 439              		.loc 1 314 0 discriminator 2
 440 001c 4FF00003 		mov	r3, #0
 441              	.L16:
 315:.\Generated_Source\PSoC5/isr_BUTTON_BUF.c **** }
 442              		.loc 1 315 0 is_stmt 1 discriminator 3
 443 0020 1846     		mov	r0, r3
 444 0022 BD46     		mov	sp, r7
 445 0024 80BC     		pop	{r7}
 446 0026 7047     		bx	lr
 447              		.cfi_endproc
 448              	.LFE65:
 449              		.size	isr_BUTTON_BUF_GetState, .-isr_BUTTON_BUF_GetState
 450              		.section	.text.isr_BUTTON_BUF_Disable,"ax",%progbits
 451              		.align	2
 452              		.global	isr_BUTTON_BUF_Disable
 453              		.thumb
 454              		.thumb_func
 455              		.type	isr_BUTTON_BUF_Disable, %function
 456              	isr_BUTTON_BUF_Disable:
 457              	.LFB66:
 316:.\Generated_Source\PSoC5/isr_BUTTON_BUF.c **** 
 317:.\Generated_Source\PSoC5/isr_BUTTON_BUF.c **** 
 318:.\Generated_Source\PSoC5/isr_BUTTON_BUF.c **** /*******************************************************************************
 319:.\Generated_Source\PSoC5/isr_BUTTON_BUF.c **** * Function Name: isr_BUTTON_BUF_Disable
 320:.\Generated_Source\PSoC5/isr_BUTTON_BUF.c **** ********************************************************************************
 321:.\Generated_Source\PSoC5/isr_BUTTON_BUF.c **** *
 322:.\Generated_Source\PSoC5/isr_BUTTON_BUF.c **** * Summary:
 323:.\Generated_Source\PSoC5/isr_BUTTON_BUF.c **** *   Disables the Interrupt.
 324:.\Generated_Source\PSoC5/isr_BUTTON_BUF.c **** *
 325:.\Generated_Source\PSoC5/isr_BUTTON_BUF.c **** * Parameters:
 326:.\Generated_Source\PSoC5/isr_BUTTON_BUF.c **** *   None
 327:.\Generated_Source\PSoC5/isr_BUTTON_BUF.c **** *
 328:.\Generated_Source\PSoC5/isr_BUTTON_BUF.c **** * Return:
 329:.\Generated_Source\PSoC5/isr_BUTTON_BUF.c **** *   None
 330:.\Generated_Source\PSoC5/isr_BUTTON_BUF.c **** *
 331:.\Generated_Source\PSoC5/isr_BUTTON_BUF.c **** *******************************************************************************/
 332:.\Generated_Source\PSoC5/isr_BUTTON_BUF.c **** void isr_BUTTON_BUF_Disable(void)
 333:.\Generated_Source\PSoC5/isr_BUTTON_BUF.c **** {
 458              		.loc 1 333 0
 459              		.cfi_startproc
ARM GAS  C:\DOCUME~1\user\IMPOST~1\Temp\ccWxg2ma.s 			page 15


 460              		@ args = 0, pretend = 0, frame = 0
 461              		@ frame_needed = 1, uses_anonymous_args = 0
 462              		@ link register save eliminated.
 463 0000 80B4     		push	{r7}
 464              	.LCFI25:
 465              		.cfi_def_cfa_offset 4
 466              		.cfi_offset 7, -4
 467 0002 00AF     		add	r7, sp, #0
 468              	.LCFI26:
 469              		.cfi_def_cfa_register 7
 334:.\Generated_Source\PSoC5/isr_BUTTON_BUF.c ****     /* Disable the general interrupt. */
 335:.\Generated_Source\PSoC5/isr_BUTTON_BUF.c ****     *isr_BUTTON_BUF_INTC_CLR_EN = isr_BUTTON_BUF__INTC_MASK;
 470              		.loc 1 335 0
 471 0004 4EF28013 		movw	r3, #57728
 472 0008 CEF20003 		movt	r3, 57344
 473 000c 4FF01002 		mov	r2, #16
 474 0010 1A60     		str	r2, [r3, #0]
 336:.\Generated_Source\PSoC5/isr_BUTTON_BUF.c **** }
 475              		.loc 1 336 0
 476 0012 BD46     		mov	sp, r7
 477 0014 80BC     		pop	{r7}
 478 0016 7047     		bx	lr
 479              		.cfi_endproc
 480              	.LFE66:
 481              		.size	isr_BUTTON_BUF_Disable, .-isr_BUTTON_BUF_Disable
 482              		.section	.text.isr_BUTTON_BUF_SetPending,"ax",%progbits
 483              		.align	2
 484              		.global	isr_BUTTON_BUF_SetPending
 485              		.thumb
 486              		.thumb_func
 487              		.type	isr_BUTTON_BUF_SetPending, %function
 488              	isr_BUTTON_BUF_SetPending:
 489              	.LFB67:
 337:.\Generated_Source\PSoC5/isr_BUTTON_BUF.c **** 
 338:.\Generated_Source\PSoC5/isr_BUTTON_BUF.c **** 
 339:.\Generated_Source\PSoC5/isr_BUTTON_BUF.c **** /*******************************************************************************
 340:.\Generated_Source\PSoC5/isr_BUTTON_BUF.c **** * Function Name: isr_BUTTON_BUF_SetPending
 341:.\Generated_Source\PSoC5/isr_BUTTON_BUF.c **** ********************************************************************************
 342:.\Generated_Source\PSoC5/isr_BUTTON_BUF.c **** *
 343:.\Generated_Source\PSoC5/isr_BUTTON_BUF.c **** * Summary:
 344:.\Generated_Source\PSoC5/isr_BUTTON_BUF.c **** *   Causes the Interrupt to enter the pending state, a software method of
 345:.\Generated_Source\PSoC5/isr_BUTTON_BUF.c **** *   generating the interrupt.
 346:.\Generated_Source\PSoC5/isr_BUTTON_BUF.c **** *
 347:.\Generated_Source\PSoC5/isr_BUTTON_BUF.c **** * Parameters:
 348:.\Generated_Source\PSoC5/isr_BUTTON_BUF.c **** *   None
 349:.\Generated_Source\PSoC5/isr_BUTTON_BUF.c **** *
 350:.\Generated_Source\PSoC5/isr_BUTTON_BUF.c **** * Return:
 351:.\Generated_Source\PSoC5/isr_BUTTON_BUF.c **** *   None
 352:.\Generated_Source\PSoC5/isr_BUTTON_BUF.c **** *
 353:.\Generated_Source\PSoC5/isr_BUTTON_BUF.c **** *******************************************************************************/
 354:.\Generated_Source\PSoC5/isr_BUTTON_BUF.c **** void isr_BUTTON_BUF_SetPending(void)
 355:.\Generated_Source\PSoC5/isr_BUTTON_BUF.c **** {
 490              		.loc 1 355 0
 491              		.cfi_startproc
 492              		@ args = 0, pretend = 0, frame = 0
 493              		@ frame_needed = 1, uses_anonymous_args = 0
 494              		@ link register save eliminated.
ARM GAS  C:\DOCUME~1\user\IMPOST~1\Temp\ccWxg2ma.s 			page 16


 495 0000 80B4     		push	{r7}
 496              	.LCFI27:
 497              		.cfi_def_cfa_offset 4
 498              		.cfi_offset 7, -4
 499 0002 00AF     		add	r7, sp, #0
 500              	.LCFI28:
 501              		.cfi_def_cfa_register 7
 356:.\Generated_Source\PSoC5/isr_BUTTON_BUF.c ****     *isr_BUTTON_BUF_INTC_SET_PD = isr_BUTTON_BUF__INTC_MASK;
 502              		.loc 1 356 0
 503 0004 4FF46243 		mov	r3, #57856
 504 0008 CEF20003 		movt	r3, 57344
 505 000c 4FF01002 		mov	r2, #16
 506 0010 1A60     		str	r2, [r3, #0]
 357:.\Generated_Source\PSoC5/isr_BUTTON_BUF.c **** }
 507              		.loc 1 357 0
 508 0012 BD46     		mov	sp, r7
 509 0014 80BC     		pop	{r7}
 510 0016 7047     		bx	lr
 511              		.cfi_endproc
 512              	.LFE67:
 513              		.size	isr_BUTTON_BUF_SetPending, .-isr_BUTTON_BUF_SetPending
 514              		.section	.text.isr_BUTTON_BUF_ClearPending,"ax",%progbits
 515              		.align	2
 516              		.global	isr_BUTTON_BUF_ClearPending
 517              		.thumb
 518              		.thumb_func
 519              		.type	isr_BUTTON_BUF_ClearPending, %function
 520              	isr_BUTTON_BUF_ClearPending:
 521              	.LFB68:
 358:.\Generated_Source\PSoC5/isr_BUTTON_BUF.c **** 
 359:.\Generated_Source\PSoC5/isr_BUTTON_BUF.c **** 
 360:.\Generated_Source\PSoC5/isr_BUTTON_BUF.c **** /*******************************************************************************
 361:.\Generated_Source\PSoC5/isr_BUTTON_BUF.c **** * Function Name: isr_BUTTON_BUF_ClearPending
 362:.\Generated_Source\PSoC5/isr_BUTTON_BUF.c **** ********************************************************************************
 363:.\Generated_Source\PSoC5/isr_BUTTON_BUF.c **** *
 364:.\Generated_Source\PSoC5/isr_BUTTON_BUF.c **** * Summary:
 365:.\Generated_Source\PSoC5/isr_BUTTON_BUF.c **** *   Clears a pending interrupt.
 366:.\Generated_Source\PSoC5/isr_BUTTON_BUF.c **** *
 367:.\Generated_Source\PSoC5/isr_BUTTON_BUF.c **** * Parameters:
 368:.\Generated_Source\PSoC5/isr_BUTTON_BUF.c **** *   None
 369:.\Generated_Source\PSoC5/isr_BUTTON_BUF.c **** *
 370:.\Generated_Source\PSoC5/isr_BUTTON_BUF.c **** * Return:
 371:.\Generated_Source\PSoC5/isr_BUTTON_BUF.c **** *   None
 372:.\Generated_Source\PSoC5/isr_BUTTON_BUF.c **** *
 373:.\Generated_Source\PSoC5/isr_BUTTON_BUF.c **** *******************************************************************************/
 374:.\Generated_Source\PSoC5/isr_BUTTON_BUF.c **** void isr_BUTTON_BUF_ClearPending(void)
 375:.\Generated_Source\PSoC5/isr_BUTTON_BUF.c **** {
 522              		.loc 1 375 0
 523              		.cfi_startproc
 524              		@ args = 0, pretend = 0, frame = 0
 525              		@ frame_needed = 1, uses_anonymous_args = 0
 526              		@ link register save eliminated.
 527 0000 80B4     		push	{r7}
 528              	.LCFI29:
 529              		.cfi_def_cfa_offset 4
 530              		.cfi_offset 7, -4
 531 0002 00AF     		add	r7, sp, #0
ARM GAS  C:\DOCUME~1\user\IMPOST~1\Temp\ccWxg2ma.s 			page 17


 532              	.LCFI30:
 533              		.cfi_def_cfa_register 7
 376:.\Generated_Source\PSoC5/isr_BUTTON_BUF.c ****     *isr_BUTTON_BUF_INTC_CLR_PD = isr_BUTTON_BUF__INTC_MASK;
 534              		.loc 1 376 0
 535 0004 4EF28023 		movw	r3, #57984
 536 0008 CEF20003 		movt	r3, 57344
 537 000c 4FF01002 		mov	r2, #16
 538 0010 1A60     		str	r2, [r3, #0]
 377:.\Generated_Source\PSoC5/isr_BUTTON_BUF.c **** }
 539              		.loc 1 377 0
 540 0012 BD46     		mov	sp, r7
 541 0014 80BC     		pop	{r7}
 542 0016 7047     		bx	lr
 543              		.cfi_endproc
 544              	.LFE68:
 545              		.size	isr_BUTTON_BUF_ClearPending, .-isr_BUTTON_BUF_ClearPending
 546              		.text
 547              	.Letext0:
 548              		.file 2 "c:\\programmi\\cypress\\psoc creator\\3.0\\psoc creator\\import\\gnu_cs\\arm\\4.7.3\\bin\
 549              		.file 3 "./Generated_Source/PSoC5/cytypes.h"
 550              		.file 4 "./das.h"
 551              		.file 5 "./Generated_Source/PSoC5/core_cm3.h"
 552              		.file 6 "./gobee.h"