ARM GAS  C:\Users\gravi\AppData\Local\Temp\cctldI0i.s 			page 1


   1              		.syntax unified
   2              		.cpu cortex-m3
   3              		.fpu softvfp
   4              		.eabi_attribute 20, 1
   5              		.eabi_attribute 21, 1
   6              		.eabi_attribute 23, 3
   7              		.eabi_attribute 24, 1
   8              		.eabi_attribute 25, 1
   9              		.eabi_attribute 26, 1
  10              		.eabi_attribute 30, 6
  11              		.eabi_attribute 34, 1
  12              		.eabi_attribute 18, 4
  13              		.thumb
  14              		.file	"isr_BUTTON.c"
  15              		.text
  16              	.Ltext0:
  17              		.cfi_sections	.debug_frame
  18              		.comm	idx,1,1
  19              		.section	.text.isr_BUTTON_Start,"ax",%progbits
  20              		.align	2
  21              		.global	isr_BUTTON_Start
  22              		.thumb
  23              		.thumb_func
  24              		.type	isr_BUTTON_Start, %function
  25              	isr_BUTTON_Start:
  26              	.LFB56:
  27              		.file 1 ".\\Generated_Source\\PSoC5\\isr_BUTTON.c"
   1:.\Generated_Source\PSoC5/isr_BUTTON.c **** /*******************************************************************************
   2:.\Generated_Source\PSoC5/isr_BUTTON.c **** * File Name: isr_BUTTON.c  
   3:.\Generated_Source\PSoC5/isr_BUTTON.c **** * Version 1.70
   4:.\Generated_Source\PSoC5/isr_BUTTON.c **** *
   5:.\Generated_Source\PSoC5/isr_BUTTON.c **** *  Description:
   6:.\Generated_Source\PSoC5/isr_BUTTON.c **** *   API for controlling the state of an interrupt.
   7:.\Generated_Source\PSoC5/isr_BUTTON.c **** *
   8:.\Generated_Source\PSoC5/isr_BUTTON.c **** *
   9:.\Generated_Source\PSoC5/isr_BUTTON.c **** *  Note:
  10:.\Generated_Source\PSoC5/isr_BUTTON.c **** *
  11:.\Generated_Source\PSoC5/isr_BUTTON.c **** ********************************************************************************
  12:.\Generated_Source\PSoC5/isr_BUTTON.c **** * Copyright 2008-2012, Cypress Semiconductor Corporation.  All rights reserved.
  13:.\Generated_Source\PSoC5/isr_BUTTON.c **** * You may use this file only in accordance with the license, terms, conditions, 
  14:.\Generated_Source\PSoC5/isr_BUTTON.c **** * disclaimers, and limitations in the end user license agreement accompanying 
  15:.\Generated_Source\PSoC5/isr_BUTTON.c **** * the software package with which this file was provided.
  16:.\Generated_Source\PSoC5/isr_BUTTON.c **** *******************************************************************************/
  17:.\Generated_Source\PSoC5/isr_BUTTON.c **** 
  18:.\Generated_Source\PSoC5/isr_BUTTON.c **** 
  19:.\Generated_Source\PSoC5/isr_BUTTON.c **** #include <cydevice_trm.h>
  20:.\Generated_Source\PSoC5/isr_BUTTON.c **** #include <CyLib.h>
  21:.\Generated_Source\PSoC5/isr_BUTTON.c **** #include <isr_BUTTON.h>
  22:.\Generated_Source\PSoC5/isr_BUTTON.c **** 
  23:.\Generated_Source\PSoC5/isr_BUTTON.c **** #if !defined(isr_BUTTON__REMOVED) /* Check for removal by optimization */
  24:.\Generated_Source\PSoC5/isr_BUTTON.c **** 
  25:.\Generated_Source\PSoC5/isr_BUTTON.c **** /*******************************************************************************
  26:.\Generated_Source\PSoC5/isr_BUTTON.c **** *  Place your includes, defines and code here 
  27:.\Generated_Source\PSoC5/isr_BUTTON.c **** ********************************************************************************/
  28:.\Generated_Source\PSoC5/isr_BUTTON.c **** /* `#START isr_BUTTON_intc` */
  29:.\Generated_Source\PSoC5/isr_BUTTON.c **** 
  30:.\Generated_Source\PSoC5/isr_BUTTON.c **** 	#include <device.h>
ARM GAS  C:\Users\gravi\AppData\Local\Temp\cctldI0i.s 			page 2


  31:.\Generated_Source\PSoC5/isr_BUTTON.c **** 	#include <gobee.h>
  32:.\Generated_Source\PSoC5/isr_BUTTON.c **** 	#include <gobeelib.h>
  33:.\Generated_Source\PSoC5/isr_BUTTON.c **** 	#include <mover.h>
  34:.\Generated_Source\PSoC5/isr_BUTTON.c **** 	#include <motor_CTRL.h>	
  35:.\Generated_Source\PSoC5/isr_BUTTON.c **** 	#include <estimators.h>
  36:.\Generated_Source\PSoC5/isr_BUTTON.c **** 	#include <gml.h>
  37:.\Generated_Source\PSoC5/isr_BUTTON.c **** 	
  38:.\Generated_Source\PSoC5/isr_BUTTON.c **** 	extern uint8 machine_state;		/*  Gobee Machine State */
  39:.\Generated_Source\PSoC5/isr_BUTTON.c **** 
  40:.\Generated_Source\PSoC5/isr_BUTTON.c **** 	/* GLOBAL MOTOR AXIS STRUCTURES */
  41:.\Generated_Source\PSoC5/isr_BUTTON.c **** 	extern struct MOTOR_AXIS pan_axis;			/* PAN Motor Axis Parameters & R TDatas		*/	
  42:.\Generated_Source\PSoC5/isr_BUTTON.c **** 	extern struct MOTOR_AXIS tilt_axis;			/* TILT Motor Axis Parameters & R TDatas	*/		
  43:.\Generated_Source\PSoC5/isr_BUTTON.c **** 	
  44:.\Generated_Source\PSoC5/isr_BUTTON.c **** 	uint8 idx;
  45:.\Generated_Source\PSoC5/isr_BUTTON.c **** 	
  46:.\Generated_Source\PSoC5/isr_BUTTON.c **** /* `#END` */
  47:.\Generated_Source\PSoC5/isr_BUTTON.c **** 
  48:.\Generated_Source\PSoC5/isr_BUTTON.c **** #ifndef CYINT_IRQ_BASE
  49:.\Generated_Source\PSoC5/isr_BUTTON.c **** #define CYINT_IRQ_BASE      16
  50:.\Generated_Source\PSoC5/isr_BUTTON.c **** #endif /* CYINT_IRQ_BASE */
  51:.\Generated_Source\PSoC5/isr_BUTTON.c **** #ifndef CYINT_VECT_TABLE
  52:.\Generated_Source\PSoC5/isr_BUTTON.c **** #define CYINT_VECT_TABLE    ((cyisraddress **) CYREG_NVIC_VECT_OFFSET)
  53:.\Generated_Source\PSoC5/isr_BUTTON.c **** #endif /* CYINT_VECT_TABLE */
  54:.\Generated_Source\PSoC5/isr_BUTTON.c **** 
  55:.\Generated_Source\PSoC5/isr_BUTTON.c **** /* Declared in startup, used to set unused interrupts to. */
  56:.\Generated_Source\PSoC5/isr_BUTTON.c **** CY_ISR_PROTO(IntDefaultHandler);
  57:.\Generated_Source\PSoC5/isr_BUTTON.c **** 
  58:.\Generated_Source\PSoC5/isr_BUTTON.c **** 
  59:.\Generated_Source\PSoC5/isr_BUTTON.c **** /*******************************************************************************
  60:.\Generated_Source\PSoC5/isr_BUTTON.c **** * Function Name: isr_BUTTON_Start
  61:.\Generated_Source\PSoC5/isr_BUTTON.c **** ********************************************************************************
  62:.\Generated_Source\PSoC5/isr_BUTTON.c **** *
  63:.\Generated_Source\PSoC5/isr_BUTTON.c **** * Summary:
  64:.\Generated_Source\PSoC5/isr_BUTTON.c **** *  Set up the interrupt and enable it.
  65:.\Generated_Source\PSoC5/isr_BUTTON.c **** *
  66:.\Generated_Source\PSoC5/isr_BUTTON.c **** * Parameters:  
  67:.\Generated_Source\PSoC5/isr_BUTTON.c **** *   None
  68:.\Generated_Source\PSoC5/isr_BUTTON.c **** *
  69:.\Generated_Source\PSoC5/isr_BUTTON.c **** * Return:
  70:.\Generated_Source\PSoC5/isr_BUTTON.c **** *   None
  71:.\Generated_Source\PSoC5/isr_BUTTON.c **** *
  72:.\Generated_Source\PSoC5/isr_BUTTON.c **** *******************************************************************************/
  73:.\Generated_Source\PSoC5/isr_BUTTON.c **** void isr_BUTTON_Start(void)
  74:.\Generated_Source\PSoC5/isr_BUTTON.c **** {
  28              		.loc 1 74 0
  29              		.cfi_startproc
  30              		@ args = 0, pretend = 0, frame = 0
  31              		@ frame_needed = 1, uses_anonymous_args = 0
  32 0000 80B5     		push	{r7, lr}
  33              	.LCFI0:
  34              		.cfi_def_cfa_offset 8
  35              		.cfi_offset 7, -8
  36              		.cfi_offset 14, -4
  37 0002 00AF     		add	r7, sp, #0
  38              	.LCFI1:
  39              		.cfi_def_cfa_register 7
  75:.\Generated_Source\PSoC5/isr_BUTTON.c ****     /* For all we know the interrupt is active. */
ARM GAS  C:\Users\gravi\AppData\Local\Temp\cctldI0i.s 			page 3


  76:.\Generated_Source\PSoC5/isr_BUTTON.c ****     isr_BUTTON_Disable();
  40              		.loc 1 76 0
  41 0004 FFF7FEFF 		bl	isr_BUTTON_Disable
  77:.\Generated_Source\PSoC5/isr_BUTTON.c **** 
  78:.\Generated_Source\PSoC5/isr_BUTTON.c ****     /* Set the ISR to point to the isr_BUTTON Interrupt. */
  79:.\Generated_Source\PSoC5/isr_BUTTON.c ****     isr_BUTTON_SetVector(&isr_BUTTON_Interrupt);
  42              		.loc 1 79 0
  43 0008 40F20000 		movw	r0, #:lower16:isr_BUTTON_Interrupt
  44 000c C0F20000 		movt	r0, #:upper16:isr_BUTTON_Interrupt
  45 0010 FFF7FEFF 		bl	isr_BUTTON_SetVector
  80:.\Generated_Source\PSoC5/isr_BUTTON.c **** 
  81:.\Generated_Source\PSoC5/isr_BUTTON.c ****     /* Set the priority. */
  82:.\Generated_Source\PSoC5/isr_BUTTON.c ****     isr_BUTTON_SetPriority((uint8)isr_BUTTON_INTC_PRIOR_NUMBER);
  46              		.loc 1 82 0
  47 0014 4FF00700 		mov	r0, #7
  48 0018 FFF7FEFF 		bl	isr_BUTTON_SetPriority
  83:.\Generated_Source\PSoC5/isr_BUTTON.c **** 
  84:.\Generated_Source\PSoC5/isr_BUTTON.c ****     /* Enable it. */
  85:.\Generated_Source\PSoC5/isr_BUTTON.c ****     isr_BUTTON_Enable();
  49              		.loc 1 85 0
  50 001c FFF7FEFF 		bl	isr_BUTTON_Enable
  86:.\Generated_Source\PSoC5/isr_BUTTON.c **** }
  51              		.loc 1 86 0
  52 0020 80BD     		pop	{r7, pc}
  53              		.cfi_endproc
  54              	.LFE56:
  55              		.size	isr_BUTTON_Start, .-isr_BUTTON_Start
  56 0022 00BF     		.section	.text.isr_BUTTON_StartEx,"ax",%progbits
  57              		.align	2
  58              		.global	isr_BUTTON_StartEx
  59              		.thumb
  60              		.thumb_func
  61              		.type	isr_BUTTON_StartEx, %function
  62              	isr_BUTTON_StartEx:
  63              	.LFB57:
  87:.\Generated_Source\PSoC5/isr_BUTTON.c **** 
  88:.\Generated_Source\PSoC5/isr_BUTTON.c **** 
  89:.\Generated_Source\PSoC5/isr_BUTTON.c **** /*******************************************************************************
  90:.\Generated_Source\PSoC5/isr_BUTTON.c **** * Function Name: isr_BUTTON_StartEx
  91:.\Generated_Source\PSoC5/isr_BUTTON.c **** ********************************************************************************
  92:.\Generated_Source\PSoC5/isr_BUTTON.c **** *
  93:.\Generated_Source\PSoC5/isr_BUTTON.c **** * Summary:
  94:.\Generated_Source\PSoC5/isr_BUTTON.c **** *  Set up the interrupt and enable it.
  95:.\Generated_Source\PSoC5/isr_BUTTON.c **** *
  96:.\Generated_Source\PSoC5/isr_BUTTON.c **** * Parameters:  
  97:.\Generated_Source\PSoC5/isr_BUTTON.c **** *   address: Address of the ISR to set in the interrupt vector table.
  98:.\Generated_Source\PSoC5/isr_BUTTON.c **** *
  99:.\Generated_Source\PSoC5/isr_BUTTON.c **** * Return:
 100:.\Generated_Source\PSoC5/isr_BUTTON.c **** *   None
 101:.\Generated_Source\PSoC5/isr_BUTTON.c **** *
 102:.\Generated_Source\PSoC5/isr_BUTTON.c **** *******************************************************************************/
 103:.\Generated_Source\PSoC5/isr_BUTTON.c **** void isr_BUTTON_StartEx(cyisraddress address)
 104:.\Generated_Source\PSoC5/isr_BUTTON.c **** {
  64              		.loc 1 104 0
  65              		.cfi_startproc
  66              		@ args = 0, pretend = 0, frame = 8
  67              		@ frame_needed = 1, uses_anonymous_args = 0
ARM GAS  C:\Users\gravi\AppData\Local\Temp\cctldI0i.s 			page 4


  68 0000 80B5     		push	{r7, lr}
  69              	.LCFI2:
  70              		.cfi_def_cfa_offset 8
  71              		.cfi_offset 7, -8
  72              		.cfi_offset 14, -4
  73 0002 82B0     		sub	sp, sp, #8
  74              	.LCFI3:
  75              		.cfi_def_cfa_offset 16
  76 0004 00AF     		add	r7, sp, #0
  77              	.LCFI4:
  78              		.cfi_def_cfa_register 7
  79 0006 7860     		str	r0, [r7, #4]
 105:.\Generated_Source\PSoC5/isr_BUTTON.c ****     /* For all we know the interrupt is active. */
 106:.\Generated_Source\PSoC5/isr_BUTTON.c ****     isr_BUTTON_Disable();
  80              		.loc 1 106 0
  81 0008 FFF7FEFF 		bl	isr_BUTTON_Disable
 107:.\Generated_Source\PSoC5/isr_BUTTON.c **** 
 108:.\Generated_Source\PSoC5/isr_BUTTON.c ****     /* Set the ISR to point to the isr_BUTTON Interrupt. */
 109:.\Generated_Source\PSoC5/isr_BUTTON.c ****     isr_BUTTON_SetVector(address);
  82              		.loc 1 109 0
  83 000c 7868     		ldr	r0, [r7, #4]
  84 000e FFF7FEFF 		bl	isr_BUTTON_SetVector
 110:.\Generated_Source\PSoC5/isr_BUTTON.c **** 
 111:.\Generated_Source\PSoC5/isr_BUTTON.c ****     /* Set the priority. */
 112:.\Generated_Source\PSoC5/isr_BUTTON.c ****     isr_BUTTON_SetPriority((uint8)isr_BUTTON_INTC_PRIOR_NUMBER);
  85              		.loc 1 112 0
  86 0012 4FF00700 		mov	r0, #7
  87 0016 FFF7FEFF 		bl	isr_BUTTON_SetPriority
 113:.\Generated_Source\PSoC5/isr_BUTTON.c **** 
 114:.\Generated_Source\PSoC5/isr_BUTTON.c ****     /* Enable it. */
 115:.\Generated_Source\PSoC5/isr_BUTTON.c ****     isr_BUTTON_Enable();
  88              		.loc 1 115 0
  89 001a FFF7FEFF 		bl	isr_BUTTON_Enable
 116:.\Generated_Source\PSoC5/isr_BUTTON.c **** }
  90              		.loc 1 116 0
  91 001e 07F10807 		add	r7, r7, #8
  92 0022 BD46     		mov	sp, r7
  93 0024 80BD     		pop	{r7, pc}
  94              		.cfi_endproc
  95              	.LFE57:
  96              		.size	isr_BUTTON_StartEx, .-isr_BUTTON_StartEx
  97 0026 00BF     		.section	.text.isr_BUTTON_Stop,"ax",%progbits
  98              		.align	2
  99              		.global	isr_BUTTON_Stop
 100              		.thumb
 101              		.thumb_func
 102              		.type	isr_BUTTON_Stop, %function
 103              	isr_BUTTON_Stop:
 104              	.LFB58:
 117:.\Generated_Source\PSoC5/isr_BUTTON.c **** 
 118:.\Generated_Source\PSoC5/isr_BUTTON.c **** 
 119:.\Generated_Source\PSoC5/isr_BUTTON.c **** /*******************************************************************************
 120:.\Generated_Source\PSoC5/isr_BUTTON.c **** * Function Name: isr_BUTTON_Stop
 121:.\Generated_Source\PSoC5/isr_BUTTON.c **** ********************************************************************************
 122:.\Generated_Source\PSoC5/isr_BUTTON.c **** *
 123:.\Generated_Source\PSoC5/isr_BUTTON.c **** * Summary:
 124:.\Generated_Source\PSoC5/isr_BUTTON.c **** *   Disables and removes the interrupt.
ARM GAS  C:\Users\gravi\AppData\Local\Temp\cctldI0i.s 			page 5


 125:.\Generated_Source\PSoC5/isr_BUTTON.c **** *
 126:.\Generated_Source\PSoC5/isr_BUTTON.c **** * Parameters:  
 127:.\Generated_Source\PSoC5/isr_BUTTON.c **** *
 128:.\Generated_Source\PSoC5/isr_BUTTON.c **** * Return:
 129:.\Generated_Source\PSoC5/isr_BUTTON.c **** *   None
 130:.\Generated_Source\PSoC5/isr_BUTTON.c **** *
 131:.\Generated_Source\PSoC5/isr_BUTTON.c **** *******************************************************************************/
 132:.\Generated_Source\PSoC5/isr_BUTTON.c **** void isr_BUTTON_Stop(void)
 133:.\Generated_Source\PSoC5/isr_BUTTON.c **** {
 105              		.loc 1 133 0
 106              		.cfi_startproc
 107              		@ args = 0, pretend = 0, frame = 0
 108              		@ frame_needed = 1, uses_anonymous_args = 0
 109 0000 80B5     		push	{r7, lr}
 110              	.LCFI5:
 111              		.cfi_def_cfa_offset 8
 112              		.cfi_offset 7, -8
 113              		.cfi_offset 14, -4
 114 0002 00AF     		add	r7, sp, #0
 115              	.LCFI6:
 116              		.cfi_def_cfa_register 7
 134:.\Generated_Source\PSoC5/isr_BUTTON.c ****     /* Disable this interrupt. */
 135:.\Generated_Source\PSoC5/isr_BUTTON.c ****     isr_BUTTON_Disable();
 117              		.loc 1 135 0
 118 0004 FFF7FEFF 		bl	isr_BUTTON_Disable
 136:.\Generated_Source\PSoC5/isr_BUTTON.c **** 
 137:.\Generated_Source\PSoC5/isr_BUTTON.c ****     /* Set the ISR to point to the passive one. */
 138:.\Generated_Source\PSoC5/isr_BUTTON.c ****     isr_BUTTON_SetVector(&IntDefaultHandler);
 119              		.loc 1 138 0
 120 0008 40F20000 		movw	r0, #:lower16:IntDefaultHandler
 121 000c C0F20000 		movt	r0, #:upper16:IntDefaultHandler
 122 0010 FFF7FEFF 		bl	isr_BUTTON_SetVector
 139:.\Generated_Source\PSoC5/isr_BUTTON.c **** }
 123              		.loc 1 139 0
 124 0014 80BD     		pop	{r7, pc}
 125              		.cfi_endproc
 126              	.LFE58:
 127              		.size	isr_BUTTON_Stop, .-isr_BUTTON_Stop
 128 0016 00BF     		.section	.text.isr_BUTTON_Interrupt,"ax",%progbits
 129              		.align	2
 130              		.global	isr_BUTTON_Interrupt
 131              		.thumb
 132              		.thumb_func
 133              		.type	isr_BUTTON_Interrupt, %function
 134              	isr_BUTTON_Interrupt:
 135              	.LFB59:
 140:.\Generated_Source\PSoC5/isr_BUTTON.c **** 
 141:.\Generated_Source\PSoC5/isr_BUTTON.c **** 
 142:.\Generated_Source\PSoC5/isr_BUTTON.c **** /*******************************************************************************
 143:.\Generated_Source\PSoC5/isr_BUTTON.c **** * Function Name: isr_BUTTON_Interrupt
 144:.\Generated_Source\PSoC5/isr_BUTTON.c **** ********************************************************************************
 145:.\Generated_Source\PSoC5/isr_BUTTON.c **** *
 146:.\Generated_Source\PSoC5/isr_BUTTON.c **** * Summary:
 147:.\Generated_Source\PSoC5/isr_BUTTON.c **** *   The default Interrupt Service Routine for isr_BUTTON.
 148:.\Generated_Source\PSoC5/isr_BUTTON.c **** *
 149:.\Generated_Source\PSoC5/isr_BUTTON.c **** *   Add custom code between the coments to keep the next version of this file
 150:.\Generated_Source\PSoC5/isr_BUTTON.c **** *   from over writting your code.
ARM GAS  C:\Users\gravi\AppData\Local\Temp\cctldI0i.s 			page 6


 151:.\Generated_Source\PSoC5/isr_BUTTON.c **** *
 152:.\Generated_Source\PSoC5/isr_BUTTON.c **** * Parameters:  
 153:.\Generated_Source\PSoC5/isr_BUTTON.c **** *
 154:.\Generated_Source\PSoC5/isr_BUTTON.c **** * Return:
 155:.\Generated_Source\PSoC5/isr_BUTTON.c **** *   None
 156:.\Generated_Source\PSoC5/isr_BUTTON.c **** *
 157:.\Generated_Source\PSoC5/isr_BUTTON.c **** *******************************************************************************/
 158:.\Generated_Source\PSoC5/isr_BUTTON.c **** CY_ISR(isr_BUTTON_Interrupt)
 159:.\Generated_Source\PSoC5/isr_BUTTON.c **** {
 136              		.loc 1 159 0
 137              		.cfi_startproc
 138              		@ args = 0, pretend = 0, frame = 0
 139              		@ frame_needed = 1, uses_anonymous_args = 0
 140 0000 80B5     		push	{r7, lr}
 141              	.LCFI7:
 142              		.cfi_def_cfa_offset 8
 143              		.cfi_offset 7, -8
 144              		.cfi_offset 14, -4
 145 0002 00AF     		add	r7, sp, #0
 146              	.LCFI8:
 147              		.cfi_def_cfa_register 7
 160:.\Generated_Source\PSoC5/isr_BUTTON.c ****     /*  Place your Interrupt code here. */
 161:.\Generated_Source\PSoC5/isr_BUTTON.c ****     /* `#START isr_BUTTON_Interrupt` */
 162:.\Generated_Source\PSoC5/isr_BUTTON.c **** 	
 163:.\Generated_Source\PSoC5/isr_BUTTON.c **** 	if (machine_state == GOBEE_ENERGIZED)
 148              		.loc 1 163 0
 149 0004 40F20003 		movw	r3, #:lower16:machine_state
 150 0008 C0F20003 		movt	r3, #:upper16:machine_state
 151 000c 1B78     		ldrb	r3, [r3, #0]	@ zero_extendqisi2
 152 000e 052B     		cmp	r3, #5
 153 0010 21D1     		bne	.L5
 164:.\Generated_Source\PSoC5/isr_BUTTON.c **** 	{
 165:.\Generated_Source\PSoC5/isr_BUTTON.c **** 		Control_Reg_BUZ_Write(BUZZER_ON);	/* buzzer on			*/
 154              		.loc 1 165 0
 155 0012 4FF00100 		mov	r0, #1
 156 0016 FFF7FEFF 		bl	Control_Reg_BUZ_Write
 166:.\Generated_Source\PSoC5/isr_BUTTON.c **** 		CyDelay(250);						/* 250msec sec delay	*/
 157              		.loc 1 166 0
 158 001a 4FF0FA00 		mov	r0, #250
 159 001e FFF7FEFF 		bl	CyDelay
 167:.\Generated_Source\PSoC5/isr_BUTTON.c **** 		Control_Reg_BUZ_Write(BUZZER_OFF);	/* buzzer off			*/
 160              		.loc 1 167 0
 161 0022 4FF00000 		mov	r0, #0
 162 0026 FFF7FEFF 		bl	Control_Reg_BUZ_Write
 168:.\Generated_Source\PSoC5/isr_BUTTON.c **** 
 169:.\Generated_Source\PSoC5/isr_BUTTON.c **** 		/* Mapping State Machine Initialization & STOP */
 170:.\Generated_Source\PSoC5/isr_BUTTON.c **** 		MappingStateMachineInit();
 163              		.loc 1 170 0
 164 002a FFF7FEFF 		bl	MappingStateMachineInit
 171:.\Generated_Source\PSoC5/isr_BUTTON.c **** 			
 172:.\Generated_Source\PSoC5/isr_BUTTON.c **** 		machine_state = GOBEE_DEENERGIZED;
 165              		.loc 1 172 0
 166 002e 40F20003 		movw	r3, #:lower16:machine_state
 167 0032 C0F20003 		movt	r3, #:upper16:machine_state
 168 0036 4FF00602 		mov	r2, #6
 169 003a 1A70     		strb	r2, [r3, #0]
 173:.\Generated_Source\PSoC5/isr_BUTTON.c **** 		motor_sleep(&pan_axis);
ARM GAS  C:\Users\gravi\AppData\Local\Temp\cctldI0i.s 			page 7


 170              		.loc 1 173 0
 171 003c 40F20000 		movw	r0, #:lower16:pan_axis
 172 0040 C0F20000 		movt	r0, #:upper16:pan_axis
 173 0044 FFF7FEFF 		bl	motor_sleep
 174:.\Generated_Source\PSoC5/isr_BUTTON.c **** 		motor_sleep(&tilt_axis);		
 174              		.loc 1 174 0
 175 0048 40F20000 		movw	r0, #:lower16:tilt_axis
 176 004c C0F20000 		movt	r0, #:upper16:tilt_axis
 177 0050 FFF7FEFF 		bl	motor_sleep
 178 0054 59E0     		b	.L4
 179              	.L5:
 175:.\Generated_Source\PSoC5/isr_BUTTON.c **** 	}
 176:.\Generated_Source\PSoC5/isr_BUTTON.c **** 	else if (machine_state == GOBEE_DEENERGIZED)
 180              		.loc 1 176 0
 181 0056 40F20003 		movw	r3, #:lower16:machine_state
 182 005a C0F20003 		movt	r3, #:upper16:machine_state
 183 005e 1B78     		ldrb	r3, [r3, #0]	@ zero_extendqisi2
 184 0060 062B     		cmp	r3, #6
 185 0062 52D1     		bne	.L4
 177:.\Generated_Source\PSoC5/isr_BUTTON.c **** 	{
 178:.\Generated_Source\PSoC5/isr_BUTTON.c ****  		for (idx = 0; idx < 3; idx++)
 186              		.loc 1 178 0
 187 0064 40F20003 		movw	r3, #:lower16:idx
 188 0068 C0F20003 		movt	r3, #:upper16:idx
 189 006c 4FF00002 		mov	r2, #0
 190 0070 1A70     		strb	r2, [r3, #0]
 191 0072 1CE0     		b	.L7
 192              	.L8:
 179:.\Generated_Source\PSoC5/isr_BUTTON.c ****  		{			
 180:.\Generated_Source\PSoC5/isr_BUTTON.c **** 			Control_Reg_BUZ_Write(BUZZER_ON);	/* buzzer on			*/
 193              		.loc 1 180 0 discriminator 2
 194 0074 4FF00100 		mov	r0, #1
 195 0078 FFF7FEFF 		bl	Control_Reg_BUZ_Write
 181:.\Generated_Source\PSoC5/isr_BUTTON.c **** 			CyDelay(80);						/* 250msec sec delay	*/
 196              		.loc 1 181 0 discriminator 2
 197 007c 4FF05000 		mov	r0, #80
 198 0080 FFF7FEFF 		bl	CyDelay
 182:.\Generated_Source\PSoC5/isr_BUTTON.c **** 			Control_Reg_BUZ_Write(BUZZER_OFF);	/* buzzer off			*/
 199              		.loc 1 182 0 discriminator 2
 200 0084 4FF00000 		mov	r0, #0
 201 0088 FFF7FEFF 		bl	Control_Reg_BUZ_Write
 183:.\Generated_Source\PSoC5/isr_BUTTON.c **** 			CyDelay(30);						/* 125msec sec delay	*/			
 202              		.loc 1 183 0 discriminator 2
 203 008c 4FF01E00 		mov	r0, #30
 204 0090 FFF7FEFF 		bl	CyDelay
 178:.\Generated_Source\PSoC5/isr_BUTTON.c ****  		for (idx = 0; idx < 3; idx++)
 205              		.loc 1 178 0 discriminator 2
 206 0094 40F20003 		movw	r3, #:lower16:idx
 207 0098 C0F20003 		movt	r3, #:upper16:idx
 208 009c 1B78     		ldrb	r3, [r3, #0]	@ zero_extendqisi2
 209 009e 03F10103 		add	r3, r3, #1
 210 00a2 DAB2     		uxtb	r2, r3
 211 00a4 40F20003 		movw	r3, #:lower16:idx
 212 00a8 C0F20003 		movt	r3, #:upper16:idx
 213 00ac 1A70     		strb	r2, [r3, #0]
 214              	.L7:
 178:.\Generated_Source\PSoC5/isr_BUTTON.c ****  		for (idx = 0; idx < 3; idx++)
ARM GAS  C:\Users\gravi\AppData\Local\Temp\cctldI0i.s 			page 8


 215              		.loc 1 178 0 is_stmt 0 discriminator 1
 216 00ae 40F20003 		movw	r3, #:lower16:idx
 217 00b2 C0F20003 		movt	r3, #:upper16:idx
 218 00b6 1B78     		ldrb	r3, [r3, #0]	@ zero_extendqisi2
 219 00b8 022B     		cmp	r3, #2
 220 00ba DBD9     		bls	.L8
 184:.\Generated_Source\PSoC5/isr_BUTTON.c **** 		}	
 185:.\Generated_Source\PSoC5/isr_BUTTON.c **** 
 186:.\Generated_Source\PSoC5/isr_BUTTON.c **** 		motor_init(&pan_axis);						/* Initialize Pan Axis  */
 221              		.loc 1 186 0 is_stmt 1
 222 00bc 40F20000 		movw	r0, #:lower16:pan_axis
 223 00c0 C0F20000 		movt	r0, #:upper16:pan_axis
 224 00c4 FFF7FEFF 		bl	motor_init
 187:.\Generated_Source\PSoC5/isr_BUTTON.c **** 		motor_init(&tilt_axis);						/* Initialize Tilt Axis */			
 225              		.loc 1 187 0
 226 00c8 40F20000 		movw	r0, #:lower16:tilt_axis
 227 00cc C0F20000 		movt	r0, #:upper16:tilt_axis
 228 00d0 FFF7FEFF 		bl	motor_init
 188:.\Generated_Source\PSoC5/isr_BUTTON.c **** 		QuadDec_PAN_Start();						/* Reset PAN Feedback Encoder Counter	*/
 229              		.loc 1 188 0
 230 00d4 FFF7FEFF 		bl	QuadDec_PAN_Start
 189:.\Generated_Source\PSoC5/isr_BUTTON.c **** 		QuadDec_TILT_Start();						/* Reset TILT Feedback Encoder Counter	*/
 231              		.loc 1 189 0
 232 00d8 FFF7FEFF 		bl	QuadDec_TILT_Start
 190:.\Generated_Source\PSoC5/isr_BUTTON.c **** 			
 191:.\Generated_Source\PSoC5/isr_BUTTON.c **** 		/* CLU state machine Init */
 192:.\Generated_Source\PSoC5/isr_BUTTON.c **** 		clu_sm_init();
 233              		.loc 1 192 0
 234 00dc FFF7FEFF 		bl	clu_sm_init
 193:.\Generated_Source\PSoC5/isr_BUTTON.c **** 		
 194:.\Generated_Source\PSoC5/isr_BUTTON.c **** 		/* Mapping State Machine START */
 195:.\Generated_Source\PSoC5/isr_BUTTON.c **** 		MappingStateMachineStart();
 235              		.loc 1 195 0
 236 00e0 FFF7FEFF 		bl	MappingStateMachineStart
 196:.\Generated_Source\PSoC5/isr_BUTTON.c **** 
 197:.\Generated_Source\PSoC5/isr_BUTTON.c **** 		machine_state = GOBEE_ENERGIZED;			
 237              		.loc 1 197 0
 238 00e4 40F20003 		movw	r3, #:lower16:machine_state
 239 00e8 C0F20003 		movt	r3, #:upper16:machine_state
 240 00ec 4FF00502 		mov	r2, #5
 241 00f0 1A70     		strb	r2, [r3, #0]
 198:.\Generated_Source\PSoC5/isr_BUTTON.c **** 		motor_energize(&pan_axis);
 242              		.loc 1 198 0
 243 00f2 40F20000 		movw	r0, #:lower16:pan_axis
 244 00f6 C0F20000 		movt	r0, #:upper16:pan_axis
 245 00fa FFF7FEFF 		bl	motor_energize
 199:.\Generated_Source\PSoC5/isr_BUTTON.c **** 		motor_energize(&tilt_axis);		
 246              		.loc 1 199 0
 247 00fe 40F20000 		movw	r0, #:lower16:tilt_axis
 248 0102 C0F20000 		movt	r0, #:upper16:tilt_axis
 249 0106 FFF7FEFF 		bl	motor_energize
 250              	.L4:
 200:.\Generated_Source\PSoC5/isr_BUTTON.c **** 	}	
 201:.\Generated_Source\PSoC5/isr_BUTTON.c **** 	
 202:.\Generated_Source\PSoC5/isr_BUTTON.c ****     /* `#END` */
 203:.\Generated_Source\PSoC5/isr_BUTTON.c **** }
 251              		.loc 1 203 0
ARM GAS  C:\Users\gravi\AppData\Local\Temp\cctldI0i.s 			page 9


 252 010a 80BD     		pop	{r7, pc}
 253              		.cfi_endproc
 254              	.LFE59:
 255              		.size	isr_BUTTON_Interrupt, .-isr_BUTTON_Interrupt
 256              		.section	.text.isr_BUTTON_SetVector,"ax",%progbits
 257              		.align	2
 258              		.global	isr_BUTTON_SetVector
 259              		.thumb
 260              		.thumb_func
 261              		.type	isr_BUTTON_SetVector, %function
 262              	isr_BUTTON_SetVector:
 263              	.LFB60:
 204:.\Generated_Source\PSoC5/isr_BUTTON.c **** 
 205:.\Generated_Source\PSoC5/isr_BUTTON.c **** 
 206:.\Generated_Source\PSoC5/isr_BUTTON.c **** /*******************************************************************************
 207:.\Generated_Source\PSoC5/isr_BUTTON.c **** * Function Name: isr_BUTTON_SetVector
 208:.\Generated_Source\PSoC5/isr_BUTTON.c **** ********************************************************************************
 209:.\Generated_Source\PSoC5/isr_BUTTON.c **** *
 210:.\Generated_Source\PSoC5/isr_BUTTON.c **** * Summary:
 211:.\Generated_Source\PSoC5/isr_BUTTON.c **** *   Change the ISR vector for the Interrupt. Note calling isr_BUTTON_Start
 212:.\Generated_Source\PSoC5/isr_BUTTON.c **** *   will override any effect this method would have had. To set the vector 
 213:.\Generated_Source\PSoC5/isr_BUTTON.c **** *   before the component has been started use isr_BUTTON_StartEx instead.
 214:.\Generated_Source\PSoC5/isr_BUTTON.c **** *
 215:.\Generated_Source\PSoC5/isr_BUTTON.c **** * Parameters:
 216:.\Generated_Source\PSoC5/isr_BUTTON.c **** *   address: Address of the ISR to set in the interrupt vector table.
 217:.\Generated_Source\PSoC5/isr_BUTTON.c **** *
 218:.\Generated_Source\PSoC5/isr_BUTTON.c **** * Return:
 219:.\Generated_Source\PSoC5/isr_BUTTON.c **** *   None
 220:.\Generated_Source\PSoC5/isr_BUTTON.c **** *
 221:.\Generated_Source\PSoC5/isr_BUTTON.c **** *******************************************************************************/
 222:.\Generated_Source\PSoC5/isr_BUTTON.c **** void isr_BUTTON_SetVector(cyisraddress address)
 223:.\Generated_Source\PSoC5/isr_BUTTON.c **** {
 264              		.loc 1 223 0
 265              		.cfi_startproc
 266              		@ args = 0, pretend = 0, frame = 16
 267              		@ frame_needed = 1, uses_anonymous_args = 0
 268              		@ link register save eliminated.
 269 0000 80B4     		push	{r7}
 270              	.LCFI9:
 271              		.cfi_def_cfa_offset 4
 272              		.cfi_offset 7, -4
 273 0002 85B0     		sub	sp, sp, #20
 274              	.LCFI10:
 275              		.cfi_def_cfa_offset 24
 276 0004 00AF     		add	r7, sp, #0
 277              	.LCFI11:
 278              		.cfi_def_cfa_register 7
 279 0006 7860     		str	r0, [r7, #4]
 224:.\Generated_Source\PSoC5/isr_BUTTON.c ****     cyisraddress * ramVectorTable;
 225:.\Generated_Source\PSoC5/isr_BUTTON.c **** 
 226:.\Generated_Source\PSoC5/isr_BUTTON.c ****     ramVectorTable = (cyisraddress *) *CYINT_VECT_TABLE;
 280              		.loc 1 226 0
 281 0008 4EF60853 		movw	r3, #60680
 282 000c CEF20003 		movt	r3, 57344
 283 0010 1B68     		ldr	r3, [r3, #0]
 284 0012 FB60     		str	r3, [r7, #12]
 227:.\Generated_Source\PSoC5/isr_BUTTON.c **** 
ARM GAS  C:\Users\gravi\AppData\Local\Temp\cctldI0i.s 			page 10


 228:.\Generated_Source\PSoC5/isr_BUTTON.c ****     ramVectorTable[CYINT_IRQ_BASE + (uint32)isr_BUTTON__INTC_NUMBER] = address;
 285              		.loc 1 228 0
 286 0014 FB68     		ldr	r3, [r7, #12]
 287 0016 03F14803 		add	r3, r3, #72
 288 001a 7A68     		ldr	r2, [r7, #4]
 289 001c 1A60     		str	r2, [r3, #0]
 229:.\Generated_Source\PSoC5/isr_BUTTON.c **** }
 290              		.loc 1 229 0
 291 001e 07F11407 		add	r7, r7, #20
 292 0022 BD46     		mov	sp, r7
 293 0024 80BC     		pop	{r7}
 294 0026 7047     		bx	lr
 295              		.cfi_endproc
 296              	.LFE60:
 297              		.size	isr_BUTTON_SetVector, .-isr_BUTTON_SetVector
 298              		.section	.text.isr_BUTTON_GetVector,"ax",%progbits
 299              		.align	2
 300              		.global	isr_BUTTON_GetVector
 301              		.thumb
 302              		.thumb_func
 303              		.type	isr_BUTTON_GetVector, %function
 304              	isr_BUTTON_GetVector:
 305              	.LFB61:
 230:.\Generated_Source\PSoC5/isr_BUTTON.c **** 
 231:.\Generated_Source\PSoC5/isr_BUTTON.c **** 
 232:.\Generated_Source\PSoC5/isr_BUTTON.c **** /*******************************************************************************
 233:.\Generated_Source\PSoC5/isr_BUTTON.c **** * Function Name: isr_BUTTON_GetVector
 234:.\Generated_Source\PSoC5/isr_BUTTON.c **** ********************************************************************************
 235:.\Generated_Source\PSoC5/isr_BUTTON.c **** *
 236:.\Generated_Source\PSoC5/isr_BUTTON.c **** * Summary:
 237:.\Generated_Source\PSoC5/isr_BUTTON.c **** *   Gets the "address" of the current ISR vector for the Interrupt.
 238:.\Generated_Source\PSoC5/isr_BUTTON.c **** *
 239:.\Generated_Source\PSoC5/isr_BUTTON.c **** * Parameters:
 240:.\Generated_Source\PSoC5/isr_BUTTON.c **** *   None
 241:.\Generated_Source\PSoC5/isr_BUTTON.c **** *
 242:.\Generated_Source\PSoC5/isr_BUTTON.c **** * Return:
 243:.\Generated_Source\PSoC5/isr_BUTTON.c **** *   Address of the ISR in the interrupt vector table.
 244:.\Generated_Source\PSoC5/isr_BUTTON.c **** *
 245:.\Generated_Source\PSoC5/isr_BUTTON.c **** *******************************************************************************/
 246:.\Generated_Source\PSoC5/isr_BUTTON.c **** cyisraddress isr_BUTTON_GetVector(void)
 247:.\Generated_Source\PSoC5/isr_BUTTON.c **** {
 306              		.loc 1 247 0
 307              		.cfi_startproc
 308              		@ args = 0, pretend = 0, frame = 8
 309              		@ frame_needed = 1, uses_anonymous_args = 0
 310              		@ link register save eliminated.
 311 0000 80B4     		push	{r7}
 312              	.LCFI12:
 313              		.cfi_def_cfa_offset 4
 314              		.cfi_offset 7, -4
 315 0002 83B0     		sub	sp, sp, #12
 316              	.LCFI13:
 317              		.cfi_def_cfa_offset 16
 318 0004 00AF     		add	r7, sp, #0
 319              	.LCFI14:
 320              		.cfi_def_cfa_register 7
 248:.\Generated_Source\PSoC5/isr_BUTTON.c ****     cyisraddress * ramVectorTable;
ARM GAS  C:\Users\gravi\AppData\Local\Temp\cctldI0i.s 			page 11


 249:.\Generated_Source\PSoC5/isr_BUTTON.c **** 
 250:.\Generated_Source\PSoC5/isr_BUTTON.c ****     ramVectorTable = (cyisraddress *) *CYINT_VECT_TABLE;
 321              		.loc 1 250 0
 322 0006 4EF60853 		movw	r3, #60680
 323 000a CEF20003 		movt	r3, 57344
 324 000e 1B68     		ldr	r3, [r3, #0]
 325 0010 7B60     		str	r3, [r7, #4]
 251:.\Generated_Source\PSoC5/isr_BUTTON.c **** 
 252:.\Generated_Source\PSoC5/isr_BUTTON.c ****     return ramVectorTable[CYINT_IRQ_BASE + (uint32)isr_BUTTON__INTC_NUMBER];
 326              		.loc 1 252 0
 327 0012 7B68     		ldr	r3, [r7, #4]
 328 0014 9B6C     		ldr	r3, [r3, #72]
 253:.\Generated_Source\PSoC5/isr_BUTTON.c **** }
 329              		.loc 1 253 0
 330 0016 1846     		mov	r0, r3
 331 0018 07F10C07 		add	r7, r7, #12
 332 001c BD46     		mov	sp, r7
 333 001e 80BC     		pop	{r7}
 334 0020 7047     		bx	lr
 335              		.cfi_endproc
 336              	.LFE61:
 337              		.size	isr_BUTTON_GetVector, .-isr_BUTTON_GetVector
 338 0022 00BF     		.section	.text.isr_BUTTON_SetPriority,"ax",%progbits
 339              		.align	2
 340              		.global	isr_BUTTON_SetPriority
 341              		.thumb
 342              		.thumb_func
 343              		.type	isr_BUTTON_SetPriority, %function
 344              	isr_BUTTON_SetPriority:
 345              	.LFB62:
 254:.\Generated_Source\PSoC5/isr_BUTTON.c **** 
 255:.\Generated_Source\PSoC5/isr_BUTTON.c **** 
 256:.\Generated_Source\PSoC5/isr_BUTTON.c **** /*******************************************************************************
 257:.\Generated_Source\PSoC5/isr_BUTTON.c **** * Function Name: isr_BUTTON_SetPriority
 258:.\Generated_Source\PSoC5/isr_BUTTON.c **** ********************************************************************************
 259:.\Generated_Source\PSoC5/isr_BUTTON.c **** *
 260:.\Generated_Source\PSoC5/isr_BUTTON.c **** * Summary:
 261:.\Generated_Source\PSoC5/isr_BUTTON.c **** *   Sets the Priority of the Interrupt. Note calling isr_BUTTON_Start
 262:.\Generated_Source\PSoC5/isr_BUTTON.c **** *   or isr_BUTTON_StartEx will override any effect this method 
 263:.\Generated_Source\PSoC5/isr_BUTTON.c **** *   would have had. This method should only be called after 
 264:.\Generated_Source\PSoC5/isr_BUTTON.c **** *   isr_BUTTON_Start or isr_BUTTON_StartEx has been called. To set 
 265:.\Generated_Source\PSoC5/isr_BUTTON.c **** *   the initial priority for the component use the cydwr file in the tool.
 266:.\Generated_Source\PSoC5/isr_BUTTON.c **** *
 267:.\Generated_Source\PSoC5/isr_BUTTON.c **** * Parameters:
 268:.\Generated_Source\PSoC5/isr_BUTTON.c **** *   priority: Priority of the interrupt. 0 - 7, 0 being the highest.
 269:.\Generated_Source\PSoC5/isr_BUTTON.c **** *
 270:.\Generated_Source\PSoC5/isr_BUTTON.c **** * Return:
 271:.\Generated_Source\PSoC5/isr_BUTTON.c **** *   None
 272:.\Generated_Source\PSoC5/isr_BUTTON.c **** *
 273:.\Generated_Source\PSoC5/isr_BUTTON.c **** *******************************************************************************/
 274:.\Generated_Source\PSoC5/isr_BUTTON.c **** void isr_BUTTON_SetPriority(uint8 priority)
 275:.\Generated_Source\PSoC5/isr_BUTTON.c **** {
 346              		.loc 1 275 0
 347              		.cfi_startproc
 348              		@ args = 0, pretend = 0, frame = 8
 349              		@ frame_needed = 1, uses_anonymous_args = 0
 350              		@ link register save eliminated.
ARM GAS  C:\Users\gravi\AppData\Local\Temp\cctldI0i.s 			page 12


 351 0000 80B4     		push	{r7}
 352              	.LCFI15:
 353              		.cfi_def_cfa_offset 4
 354              		.cfi_offset 7, -4
 355 0002 83B0     		sub	sp, sp, #12
 356              	.LCFI16:
 357              		.cfi_def_cfa_offset 16
 358 0004 00AF     		add	r7, sp, #0
 359              	.LCFI17:
 360              		.cfi_def_cfa_register 7
 361 0006 0346     		mov	r3, r0
 362 0008 FB71     		strb	r3, [r7, #7]
 276:.\Generated_Source\PSoC5/isr_BUTTON.c ****     *isr_BUTTON_INTC_PRIOR = priority << 5;
 363              		.loc 1 276 0
 364 000a 4EF20243 		movw	r3, #58370
 365 000e CEF20003 		movt	r3, 57344
 366 0012 FA79     		ldrb	r2, [r7, #7]
 367 0014 4FEA4212 		lsl	r2, r2, #5
 368 0018 D2B2     		uxtb	r2, r2
 369 001a 1A70     		strb	r2, [r3, #0]
 277:.\Generated_Source\PSoC5/isr_BUTTON.c **** }
 370              		.loc 1 277 0
 371 001c 07F10C07 		add	r7, r7, #12
 372 0020 BD46     		mov	sp, r7
 373 0022 80BC     		pop	{r7}
 374 0024 7047     		bx	lr
 375              		.cfi_endproc
 376              	.LFE62:
 377              		.size	isr_BUTTON_SetPriority, .-isr_BUTTON_SetPriority
 378 0026 00BF     		.section	.text.isr_BUTTON_GetPriority,"ax",%progbits
 379              		.align	2
 380              		.global	isr_BUTTON_GetPriority
 381              		.thumb
 382              		.thumb_func
 383              		.type	isr_BUTTON_GetPriority, %function
 384              	isr_BUTTON_GetPriority:
 385              	.LFB63:
 278:.\Generated_Source\PSoC5/isr_BUTTON.c **** 
 279:.\Generated_Source\PSoC5/isr_BUTTON.c **** 
 280:.\Generated_Source\PSoC5/isr_BUTTON.c **** /*******************************************************************************
 281:.\Generated_Source\PSoC5/isr_BUTTON.c **** * Function Name: isr_BUTTON_GetPriority
 282:.\Generated_Source\PSoC5/isr_BUTTON.c **** ********************************************************************************
 283:.\Generated_Source\PSoC5/isr_BUTTON.c **** *
 284:.\Generated_Source\PSoC5/isr_BUTTON.c **** * Summary:
 285:.\Generated_Source\PSoC5/isr_BUTTON.c **** *   Gets the Priority of the Interrupt.
 286:.\Generated_Source\PSoC5/isr_BUTTON.c **** *
 287:.\Generated_Source\PSoC5/isr_BUTTON.c **** * Parameters:
 288:.\Generated_Source\PSoC5/isr_BUTTON.c **** *   None
 289:.\Generated_Source\PSoC5/isr_BUTTON.c **** *
 290:.\Generated_Source\PSoC5/isr_BUTTON.c **** * Return:
 291:.\Generated_Source\PSoC5/isr_BUTTON.c **** *   Priority of the interrupt. 0 - 7, 0 being the highest.
 292:.\Generated_Source\PSoC5/isr_BUTTON.c **** *
 293:.\Generated_Source\PSoC5/isr_BUTTON.c **** *******************************************************************************/
 294:.\Generated_Source\PSoC5/isr_BUTTON.c **** uint8 isr_BUTTON_GetPriority(void)
 295:.\Generated_Source\PSoC5/isr_BUTTON.c **** {
 386              		.loc 1 295 0
 387              		.cfi_startproc
ARM GAS  C:\Users\gravi\AppData\Local\Temp\cctldI0i.s 			page 13


 388              		@ args = 0, pretend = 0, frame = 8
 389              		@ frame_needed = 1, uses_anonymous_args = 0
 390              		@ link register save eliminated.
 391 0000 80B4     		push	{r7}
 392              	.LCFI18:
 393              		.cfi_def_cfa_offset 4
 394              		.cfi_offset 7, -4
 395 0002 83B0     		sub	sp, sp, #12
 396              	.LCFI19:
 397              		.cfi_def_cfa_offset 16
 398 0004 00AF     		add	r7, sp, #0
 399              	.LCFI20:
 400              		.cfi_def_cfa_register 7
 296:.\Generated_Source\PSoC5/isr_BUTTON.c ****     uint8 priority;
 297:.\Generated_Source\PSoC5/isr_BUTTON.c **** 
 298:.\Generated_Source\PSoC5/isr_BUTTON.c **** 
 299:.\Generated_Source\PSoC5/isr_BUTTON.c ****     priority = *isr_BUTTON_INTC_PRIOR >> 5;
 401              		.loc 1 299 0
 402 0006 4EF20243 		movw	r3, #58370
 403 000a CEF20003 		movt	r3, 57344
 404 000e 1B78     		ldrb	r3, [r3, #0]
 405 0010 DBB2     		uxtb	r3, r3
 406 0012 4FEA5313 		lsr	r3, r3, #5
 407 0016 FB71     		strb	r3, [r7, #7]
 300:.\Generated_Source\PSoC5/isr_BUTTON.c **** 
 301:.\Generated_Source\PSoC5/isr_BUTTON.c ****     return priority;
 408              		.loc 1 301 0
 409 0018 FB79     		ldrb	r3, [r7, #7]	@ zero_extendqisi2
 302:.\Generated_Source\PSoC5/isr_BUTTON.c **** }
 410              		.loc 1 302 0
 411 001a 1846     		mov	r0, r3
 412 001c 07F10C07 		add	r7, r7, #12
 413 0020 BD46     		mov	sp, r7
 414 0022 80BC     		pop	{r7}
 415 0024 7047     		bx	lr
 416              		.cfi_endproc
 417              	.LFE63:
 418              		.size	isr_BUTTON_GetPriority, .-isr_BUTTON_GetPriority
 419 0026 00BF     		.section	.text.isr_BUTTON_Enable,"ax",%progbits
 420              		.align	2
 421              		.global	isr_BUTTON_Enable
 422              		.thumb
 423              		.thumb_func
 424              		.type	isr_BUTTON_Enable, %function
 425              	isr_BUTTON_Enable:
 426              	.LFB64:
 303:.\Generated_Source\PSoC5/isr_BUTTON.c **** 
 304:.\Generated_Source\PSoC5/isr_BUTTON.c **** 
 305:.\Generated_Source\PSoC5/isr_BUTTON.c **** /*******************************************************************************
 306:.\Generated_Source\PSoC5/isr_BUTTON.c **** * Function Name: isr_BUTTON_Enable
 307:.\Generated_Source\PSoC5/isr_BUTTON.c **** ********************************************************************************
 308:.\Generated_Source\PSoC5/isr_BUTTON.c **** *
 309:.\Generated_Source\PSoC5/isr_BUTTON.c **** * Summary:
 310:.\Generated_Source\PSoC5/isr_BUTTON.c **** *   Enables the interrupt.
 311:.\Generated_Source\PSoC5/isr_BUTTON.c **** *
 312:.\Generated_Source\PSoC5/isr_BUTTON.c **** * Parameters:
 313:.\Generated_Source\PSoC5/isr_BUTTON.c **** *   None
ARM GAS  C:\Users\gravi\AppData\Local\Temp\cctldI0i.s 			page 14


 314:.\Generated_Source\PSoC5/isr_BUTTON.c **** *
 315:.\Generated_Source\PSoC5/isr_BUTTON.c **** * Return:
 316:.\Generated_Source\PSoC5/isr_BUTTON.c **** *   None
 317:.\Generated_Source\PSoC5/isr_BUTTON.c **** *
 318:.\Generated_Source\PSoC5/isr_BUTTON.c **** *******************************************************************************/
 319:.\Generated_Source\PSoC5/isr_BUTTON.c **** void isr_BUTTON_Enable(void)
 320:.\Generated_Source\PSoC5/isr_BUTTON.c **** {
 427              		.loc 1 320 0
 428              		.cfi_startproc
 429              		@ args = 0, pretend = 0, frame = 0
 430              		@ frame_needed = 1, uses_anonymous_args = 0
 431              		@ link register save eliminated.
 432 0000 80B4     		push	{r7}
 433              	.LCFI21:
 434              		.cfi_def_cfa_offset 4
 435              		.cfi_offset 7, -4
 436 0002 00AF     		add	r7, sp, #0
 437              	.LCFI22:
 438              		.cfi_def_cfa_register 7
 321:.\Generated_Source\PSoC5/isr_BUTTON.c ****     /* Enable the general interrupt. */
 322:.\Generated_Source\PSoC5/isr_BUTTON.c ****     *isr_BUTTON_INTC_SET_EN = isr_BUTTON__INTC_MASK;
 439              		.loc 1 322 0
 440 0004 4FF46143 		mov	r3, #57600
 441 0008 CEF20003 		movt	r3, 57344
 442 000c 4FF00402 		mov	r2, #4
 443 0010 1A60     		str	r2, [r3, #0]
 323:.\Generated_Source\PSoC5/isr_BUTTON.c **** }
 444              		.loc 1 323 0
 445 0012 BD46     		mov	sp, r7
 446 0014 80BC     		pop	{r7}
 447 0016 7047     		bx	lr
 448              		.cfi_endproc
 449              	.LFE64:
 450              		.size	isr_BUTTON_Enable, .-isr_BUTTON_Enable
 451              		.section	.text.isr_BUTTON_GetState,"ax",%progbits
 452              		.align	2
 453              		.global	isr_BUTTON_GetState
 454              		.thumb
 455              		.thumb_func
 456              		.type	isr_BUTTON_GetState, %function
 457              	isr_BUTTON_GetState:
 458              	.LFB65:
 324:.\Generated_Source\PSoC5/isr_BUTTON.c **** 
 325:.\Generated_Source\PSoC5/isr_BUTTON.c **** 
 326:.\Generated_Source\PSoC5/isr_BUTTON.c **** /*******************************************************************************
 327:.\Generated_Source\PSoC5/isr_BUTTON.c **** * Function Name: isr_BUTTON_GetState
 328:.\Generated_Source\PSoC5/isr_BUTTON.c **** ********************************************************************************
 329:.\Generated_Source\PSoC5/isr_BUTTON.c **** *
 330:.\Generated_Source\PSoC5/isr_BUTTON.c **** * Summary:
 331:.\Generated_Source\PSoC5/isr_BUTTON.c **** *   Gets the state (enabled, disabled) of the Interrupt.
 332:.\Generated_Source\PSoC5/isr_BUTTON.c **** *
 333:.\Generated_Source\PSoC5/isr_BUTTON.c **** * Parameters:
 334:.\Generated_Source\PSoC5/isr_BUTTON.c **** *   None
 335:.\Generated_Source\PSoC5/isr_BUTTON.c **** *
 336:.\Generated_Source\PSoC5/isr_BUTTON.c **** * Return:
 337:.\Generated_Source\PSoC5/isr_BUTTON.c **** *   1 if enabled, 0 if disabled.
 338:.\Generated_Source\PSoC5/isr_BUTTON.c **** *
ARM GAS  C:\Users\gravi\AppData\Local\Temp\cctldI0i.s 			page 15


 339:.\Generated_Source\PSoC5/isr_BUTTON.c **** *******************************************************************************/
 340:.\Generated_Source\PSoC5/isr_BUTTON.c **** uint8 isr_BUTTON_GetState(void)
 341:.\Generated_Source\PSoC5/isr_BUTTON.c **** {
 459              		.loc 1 341 0
 460              		.cfi_startproc
 461              		@ args = 0, pretend = 0, frame = 0
 462              		@ frame_needed = 1, uses_anonymous_args = 0
 463              		@ link register save eliminated.
 464 0000 80B4     		push	{r7}
 465              	.LCFI23:
 466              		.cfi_def_cfa_offset 4
 467              		.cfi_offset 7, -4
 468 0002 00AF     		add	r7, sp, #0
 469              	.LCFI24:
 470              		.cfi_def_cfa_register 7
 342:.\Generated_Source\PSoC5/isr_BUTTON.c ****     /* Get the state of the general interrupt. */
 343:.\Generated_Source\PSoC5/isr_BUTTON.c ****     return ((*isr_BUTTON_INTC_SET_EN & (uint32)isr_BUTTON__INTC_MASK) != 0u) ? 1u:0u;
 471              		.loc 1 343 0
 472 0004 4FF46143 		mov	r3, #57600
 473 0008 CEF20003 		movt	r3, 57344
 474 000c 1B68     		ldr	r3, [r3, #0]
 475 000e 03F00403 		and	r3, r3, #4
 476 0012 002B     		cmp	r3, #0
 477 0014 02D0     		beq	.L17
 478              		.loc 1 343 0 is_stmt 0 discriminator 1
 479 0016 4FF00103 		mov	r3, #1
 480 001a 01E0     		b	.L18
 481              	.L17:
 482              		.loc 1 343 0 discriminator 2
 483 001c 4FF00003 		mov	r3, #0
 484              	.L18:
 344:.\Generated_Source\PSoC5/isr_BUTTON.c **** }
 485              		.loc 1 344 0 is_stmt 1 discriminator 3
 486 0020 1846     		mov	r0, r3
 487 0022 BD46     		mov	sp, r7
 488 0024 80BC     		pop	{r7}
 489 0026 7047     		bx	lr
 490              		.cfi_endproc
 491              	.LFE65:
 492              		.size	isr_BUTTON_GetState, .-isr_BUTTON_GetState
 493              		.section	.text.isr_BUTTON_Disable,"ax",%progbits
 494              		.align	2
 495              		.global	isr_BUTTON_Disable
 496              		.thumb
 497              		.thumb_func
 498              		.type	isr_BUTTON_Disable, %function
 499              	isr_BUTTON_Disable:
 500              	.LFB66:
 345:.\Generated_Source\PSoC5/isr_BUTTON.c **** 
 346:.\Generated_Source\PSoC5/isr_BUTTON.c **** 
 347:.\Generated_Source\PSoC5/isr_BUTTON.c **** /*******************************************************************************
 348:.\Generated_Source\PSoC5/isr_BUTTON.c **** * Function Name: isr_BUTTON_Disable
 349:.\Generated_Source\PSoC5/isr_BUTTON.c **** ********************************************************************************
 350:.\Generated_Source\PSoC5/isr_BUTTON.c **** *
 351:.\Generated_Source\PSoC5/isr_BUTTON.c **** * Summary:
 352:.\Generated_Source\PSoC5/isr_BUTTON.c **** *   Disables the Interrupt.
 353:.\Generated_Source\PSoC5/isr_BUTTON.c **** *
ARM GAS  C:\Users\gravi\AppData\Local\Temp\cctldI0i.s 			page 16


 354:.\Generated_Source\PSoC5/isr_BUTTON.c **** * Parameters:
 355:.\Generated_Source\PSoC5/isr_BUTTON.c **** *   None
 356:.\Generated_Source\PSoC5/isr_BUTTON.c **** *
 357:.\Generated_Source\PSoC5/isr_BUTTON.c **** * Return:
 358:.\Generated_Source\PSoC5/isr_BUTTON.c **** *   None
 359:.\Generated_Source\PSoC5/isr_BUTTON.c **** *
 360:.\Generated_Source\PSoC5/isr_BUTTON.c **** *******************************************************************************/
 361:.\Generated_Source\PSoC5/isr_BUTTON.c **** void isr_BUTTON_Disable(void)
 362:.\Generated_Source\PSoC5/isr_BUTTON.c **** {
 501              		.loc 1 362 0
 502              		.cfi_startproc
 503              		@ args = 0, pretend = 0, frame = 0
 504              		@ frame_needed = 1, uses_anonymous_args = 0
 505              		@ link register save eliminated.
 506 0000 80B4     		push	{r7}
 507              	.LCFI25:
 508              		.cfi_def_cfa_offset 4
 509              		.cfi_offset 7, -4
 510 0002 00AF     		add	r7, sp, #0
 511              	.LCFI26:
 512              		.cfi_def_cfa_register 7
 363:.\Generated_Source\PSoC5/isr_BUTTON.c ****     /* Disable the general interrupt. */
 364:.\Generated_Source\PSoC5/isr_BUTTON.c ****     *isr_BUTTON_INTC_CLR_EN = isr_BUTTON__INTC_MASK;
 513              		.loc 1 364 0
 514 0004 4EF28013 		movw	r3, #57728
 515 0008 CEF20003 		movt	r3, 57344
 516 000c 4FF00402 		mov	r2, #4
 517 0010 1A60     		str	r2, [r3, #0]
 365:.\Generated_Source\PSoC5/isr_BUTTON.c **** }
 518              		.loc 1 365 0
 519 0012 BD46     		mov	sp, r7
 520 0014 80BC     		pop	{r7}
 521 0016 7047     		bx	lr
 522              		.cfi_endproc
 523              	.LFE66:
 524              		.size	isr_BUTTON_Disable, .-isr_BUTTON_Disable
 525              		.section	.text.isr_BUTTON_SetPending,"ax",%progbits
 526              		.align	2
 527              		.global	isr_BUTTON_SetPending
 528              		.thumb
 529              		.thumb_func
 530              		.type	isr_BUTTON_SetPending, %function
 531              	isr_BUTTON_SetPending:
 532              	.LFB67:
 366:.\Generated_Source\PSoC5/isr_BUTTON.c **** 
 367:.\Generated_Source\PSoC5/isr_BUTTON.c **** 
 368:.\Generated_Source\PSoC5/isr_BUTTON.c **** /*******************************************************************************
 369:.\Generated_Source\PSoC5/isr_BUTTON.c **** * Function Name: isr_BUTTON_SetPending
 370:.\Generated_Source\PSoC5/isr_BUTTON.c **** ********************************************************************************
 371:.\Generated_Source\PSoC5/isr_BUTTON.c **** *
 372:.\Generated_Source\PSoC5/isr_BUTTON.c **** * Summary:
 373:.\Generated_Source\PSoC5/isr_BUTTON.c **** *   Causes the Interrupt to enter the pending state, a software method of
 374:.\Generated_Source\PSoC5/isr_BUTTON.c **** *   generating the interrupt.
 375:.\Generated_Source\PSoC5/isr_BUTTON.c **** *
 376:.\Generated_Source\PSoC5/isr_BUTTON.c **** * Parameters:
 377:.\Generated_Source\PSoC5/isr_BUTTON.c **** *   None
 378:.\Generated_Source\PSoC5/isr_BUTTON.c **** *
ARM GAS  C:\Users\gravi\AppData\Local\Temp\cctldI0i.s 			page 17


 379:.\Generated_Source\PSoC5/isr_BUTTON.c **** * Return:
 380:.\Generated_Source\PSoC5/isr_BUTTON.c **** *   None
 381:.\Generated_Source\PSoC5/isr_BUTTON.c **** *
 382:.\Generated_Source\PSoC5/isr_BUTTON.c **** *******************************************************************************/
 383:.\Generated_Source\PSoC5/isr_BUTTON.c **** void isr_BUTTON_SetPending(void)
 384:.\Generated_Source\PSoC5/isr_BUTTON.c **** {
 533              		.loc 1 384 0
 534              		.cfi_startproc
 535              		@ args = 0, pretend = 0, frame = 0
 536              		@ frame_needed = 1, uses_anonymous_args = 0
 537              		@ link register save eliminated.
 538 0000 80B4     		push	{r7}
 539              	.LCFI27:
 540              		.cfi_def_cfa_offset 4
 541              		.cfi_offset 7, -4
 542 0002 00AF     		add	r7, sp, #0
 543              	.LCFI28:
 544              		.cfi_def_cfa_register 7
 385:.\Generated_Source\PSoC5/isr_BUTTON.c ****     *isr_BUTTON_INTC_SET_PD = isr_BUTTON__INTC_MASK;
 545              		.loc 1 385 0
 546 0004 4FF46243 		mov	r3, #57856
 547 0008 CEF20003 		movt	r3, 57344
 548 000c 4FF00402 		mov	r2, #4
 549 0010 1A60     		str	r2, [r3, #0]
 386:.\Generated_Source\PSoC5/isr_BUTTON.c **** }
 550              		.loc 1 386 0
 551 0012 BD46     		mov	sp, r7
 552 0014 80BC     		pop	{r7}
 553 0016 7047     		bx	lr
 554              		.cfi_endproc
 555              	.LFE67:
 556              		.size	isr_BUTTON_SetPending, .-isr_BUTTON_SetPending
 557              		.section	.text.isr_BUTTON_ClearPending,"ax",%progbits
 558              		.align	2
 559              		.global	isr_BUTTON_ClearPending
 560              		.thumb
 561              		.thumb_func
 562              		.type	isr_BUTTON_ClearPending, %function
 563              	isr_BUTTON_ClearPending:
 564              	.LFB68:
 387:.\Generated_Source\PSoC5/isr_BUTTON.c **** 
 388:.\Generated_Source\PSoC5/isr_BUTTON.c **** 
 389:.\Generated_Source\PSoC5/isr_BUTTON.c **** /*******************************************************************************
 390:.\Generated_Source\PSoC5/isr_BUTTON.c **** * Function Name: isr_BUTTON_ClearPending
 391:.\Generated_Source\PSoC5/isr_BUTTON.c **** ********************************************************************************
 392:.\Generated_Source\PSoC5/isr_BUTTON.c **** *
 393:.\Generated_Source\PSoC5/isr_BUTTON.c **** * Summary:
 394:.\Generated_Source\PSoC5/isr_BUTTON.c **** *   Clears a pending interrupt.
 395:.\Generated_Source\PSoC5/isr_BUTTON.c **** *
 396:.\Generated_Source\PSoC5/isr_BUTTON.c **** * Parameters:
 397:.\Generated_Source\PSoC5/isr_BUTTON.c **** *   None
 398:.\Generated_Source\PSoC5/isr_BUTTON.c **** *
 399:.\Generated_Source\PSoC5/isr_BUTTON.c **** * Return:
 400:.\Generated_Source\PSoC5/isr_BUTTON.c **** *   None
 401:.\Generated_Source\PSoC5/isr_BUTTON.c **** *
 402:.\Generated_Source\PSoC5/isr_BUTTON.c **** *******************************************************************************/
 403:.\Generated_Source\PSoC5/isr_BUTTON.c **** void isr_BUTTON_ClearPending(void)
ARM GAS  C:\Users\gravi\AppData\Local\Temp\cctldI0i.s 			page 18


 404:.\Generated_Source\PSoC5/isr_BUTTON.c **** {
 565              		.loc 1 404 0
 566              		.cfi_startproc
 567              		@ args = 0, pretend = 0, frame = 0
 568              		@ frame_needed = 1, uses_anonymous_args = 0
 569              		@ link register save eliminated.
 570 0000 80B4     		push	{r7}
 571              	.LCFI29:
 572              		.cfi_def_cfa_offset 4
 573              		.cfi_offset 7, -4
 574 0002 00AF     		add	r7, sp, #0
 575              	.LCFI30:
 576              		.cfi_def_cfa_register 7
 405:.\Generated_Source\PSoC5/isr_BUTTON.c ****     *isr_BUTTON_INTC_CLR_PD = isr_BUTTON__INTC_MASK;
 577              		.loc 1 405 0
 578 0004 4EF28023 		movw	r3, #57984
 579 0008 CEF20003 		movt	r3, 57344
 580 000c 4FF00402 		mov	r2, #4
 581 0010 1A60     		str	r2, [r3, #0]
 406:.\Generated_Source\PSoC5/isr_BUTTON.c **** }
 582              		.loc 1 406 0
 583 0012 BD46     		mov	sp, r7
 584 0014 80BC     		pop	{r7}
 585 0016 7047     		bx	lr
 586              		.cfi_endproc
 587              	.LFE68:
 588              		.size	isr_BUTTON_ClearPending, .-isr_BUTTON_ClearPending
 589              		.text
 590              	.Letext0:
 591              		.file 2 "c:\\program files (x86)\\cypress\\psoc creator\\3.0\\psoc creator\\import\\gnu_cs\\arm\\4
 592              		.file 3 "./Generated_Source/PSoC5/cytypes.h"
 593              		.file 4 "./gobee.h"
 594              		.file 5 "./Generated_Source/PSoC5/core_cm3.h"