ARM GAS  C:\Users\gravi\AppData\Local\Temp\ccQRbHGh.s 			page 1


   1              		.syntax unified
   2              		.cpu cortex-m3
   3              		.fpu softvfp
   4              		.eabi_attribute 20, 1
   5              		.eabi_attribute 21, 1
   6              		.eabi_attribute 23, 3
   7              		.eabi_attribute 24, 1
   8              		.eabi_attribute 25, 1
   9              		.eabi_attribute 26, 1
  10              		.eabi_attribute 30, 6
  11              		.eabi_attribute 34, 1
  12              		.eabi_attribute 18, 4
  13              		.thumb
  14              		.file	"isr_CLU_EXEC.c"
  15              		.text
  16              	.Ltext0:
  17              		.cfi_sections	.debug_frame
  18              		.section	.text.isr_CLU_EXEC_Start,"ax",%progbits
  19              		.align	2
  20              		.global	isr_CLU_EXEC_Start
  21              		.thumb
  22              		.thumb_func
  23              		.type	isr_CLU_EXEC_Start, %function
  24              	isr_CLU_EXEC_Start:
  25              	.LFB0:
  26              		.file 1 ".\\Generated_Source\\PSoC5\\isr_CLU_EXEC.c"
   1:.\Generated_Source\PSoC5/isr_CLU_EXEC.c **** /*******************************************************************************
   2:.\Generated_Source\PSoC5/isr_CLU_EXEC.c **** * File Name: isr_CLU_EXEC.c  
   3:.\Generated_Source\PSoC5/isr_CLU_EXEC.c **** * Version 1.70
   4:.\Generated_Source\PSoC5/isr_CLU_EXEC.c **** *
   5:.\Generated_Source\PSoC5/isr_CLU_EXEC.c **** *  Description:
   6:.\Generated_Source\PSoC5/isr_CLU_EXEC.c **** *   API for controlling the state of an interrupt.
   7:.\Generated_Source\PSoC5/isr_CLU_EXEC.c **** *
   8:.\Generated_Source\PSoC5/isr_CLU_EXEC.c **** *
   9:.\Generated_Source\PSoC5/isr_CLU_EXEC.c **** *  Note:
  10:.\Generated_Source\PSoC5/isr_CLU_EXEC.c **** *
  11:.\Generated_Source\PSoC5/isr_CLU_EXEC.c **** ********************************************************************************
  12:.\Generated_Source\PSoC5/isr_CLU_EXEC.c **** * Copyright 2008-2012, Cypress Semiconductor Corporation.  All rights reserved.
  13:.\Generated_Source\PSoC5/isr_CLU_EXEC.c **** * You may use this file only in accordance with the license, terms, conditions, 
  14:.\Generated_Source\PSoC5/isr_CLU_EXEC.c **** * disclaimers, and limitations in the end user license agreement accompanying 
  15:.\Generated_Source\PSoC5/isr_CLU_EXEC.c **** * the software package with which this file was provided.
  16:.\Generated_Source\PSoC5/isr_CLU_EXEC.c **** *******************************************************************************/
  17:.\Generated_Source\PSoC5/isr_CLU_EXEC.c **** 
  18:.\Generated_Source\PSoC5/isr_CLU_EXEC.c **** 
  19:.\Generated_Source\PSoC5/isr_CLU_EXEC.c **** #include <cydevice_trm.h>
  20:.\Generated_Source\PSoC5/isr_CLU_EXEC.c **** #include <CyLib.h>
  21:.\Generated_Source\PSoC5/isr_CLU_EXEC.c **** #include <isr_CLU_EXEC.h>
  22:.\Generated_Source\PSoC5/isr_CLU_EXEC.c **** 
  23:.\Generated_Source\PSoC5/isr_CLU_EXEC.c **** #if !defined(isr_CLU_EXEC__REMOVED) /* Check for removal by optimization */
  24:.\Generated_Source\PSoC5/isr_CLU_EXEC.c **** 
  25:.\Generated_Source\PSoC5/isr_CLU_EXEC.c **** /*******************************************************************************
  26:.\Generated_Source\PSoC5/isr_CLU_EXEC.c **** *  Place your includes, defines and code here 
  27:.\Generated_Source\PSoC5/isr_CLU_EXEC.c **** ********************************************************************************/
  28:.\Generated_Source\PSoC5/isr_CLU_EXEC.c **** /* `#START isr_CLU_EXEC_intc` */
  29:.\Generated_Source\PSoC5/isr_CLU_EXEC.c **** 
  30:.\Generated_Source\PSoC5/isr_CLU_EXEC.c **** #include <gml.h>
  31:.\Generated_Source\PSoC5/isr_CLU_EXEC.c **** 	
ARM GAS  C:\Users\gravi\AppData\Local\Temp\ccQRbHGh.s 			page 2


  32:.\Generated_Source\PSoC5/isr_CLU_EXEC.c **** /* `#END` */
  33:.\Generated_Source\PSoC5/isr_CLU_EXEC.c **** 
  34:.\Generated_Source\PSoC5/isr_CLU_EXEC.c **** #ifndef CYINT_IRQ_BASE
  35:.\Generated_Source\PSoC5/isr_CLU_EXEC.c **** #define CYINT_IRQ_BASE      16
  36:.\Generated_Source\PSoC5/isr_CLU_EXEC.c **** #endif /* CYINT_IRQ_BASE */
  37:.\Generated_Source\PSoC5/isr_CLU_EXEC.c **** #ifndef CYINT_VECT_TABLE
  38:.\Generated_Source\PSoC5/isr_CLU_EXEC.c **** #define CYINT_VECT_TABLE    ((cyisraddress **) CYREG_NVIC_VECT_OFFSET)
  39:.\Generated_Source\PSoC5/isr_CLU_EXEC.c **** #endif /* CYINT_VECT_TABLE */
  40:.\Generated_Source\PSoC5/isr_CLU_EXEC.c **** 
  41:.\Generated_Source\PSoC5/isr_CLU_EXEC.c **** /* Declared in startup, used to set unused interrupts to. */
  42:.\Generated_Source\PSoC5/isr_CLU_EXEC.c **** CY_ISR_PROTO(IntDefaultHandler);
  43:.\Generated_Source\PSoC5/isr_CLU_EXEC.c **** 
  44:.\Generated_Source\PSoC5/isr_CLU_EXEC.c **** 
  45:.\Generated_Source\PSoC5/isr_CLU_EXEC.c **** /*******************************************************************************
  46:.\Generated_Source\PSoC5/isr_CLU_EXEC.c **** * Function Name: isr_CLU_EXEC_Start
  47:.\Generated_Source\PSoC5/isr_CLU_EXEC.c **** ********************************************************************************
  48:.\Generated_Source\PSoC5/isr_CLU_EXEC.c **** *
  49:.\Generated_Source\PSoC5/isr_CLU_EXEC.c **** * Summary:
  50:.\Generated_Source\PSoC5/isr_CLU_EXEC.c **** *  Set up the interrupt and enable it.
  51:.\Generated_Source\PSoC5/isr_CLU_EXEC.c **** *
  52:.\Generated_Source\PSoC5/isr_CLU_EXEC.c **** * Parameters:  
  53:.\Generated_Source\PSoC5/isr_CLU_EXEC.c **** *   None
  54:.\Generated_Source\PSoC5/isr_CLU_EXEC.c **** *
  55:.\Generated_Source\PSoC5/isr_CLU_EXEC.c **** * Return:
  56:.\Generated_Source\PSoC5/isr_CLU_EXEC.c **** *   None
  57:.\Generated_Source\PSoC5/isr_CLU_EXEC.c **** *
  58:.\Generated_Source\PSoC5/isr_CLU_EXEC.c **** *******************************************************************************/
  59:.\Generated_Source\PSoC5/isr_CLU_EXEC.c **** void isr_CLU_EXEC_Start(void)
  60:.\Generated_Source\PSoC5/isr_CLU_EXEC.c **** {
  27              		.loc 1 60 0
  28              		.cfi_startproc
  29              		@ args = 0, pretend = 0, frame = 0
  30              		@ frame_needed = 1, uses_anonymous_args = 0
  31 0000 80B5     		push	{r7, lr}
  32              	.LCFI0:
  33              		.cfi_def_cfa_offset 8
  34              		.cfi_offset 7, -8
  35              		.cfi_offset 14, -4
  36 0002 00AF     		add	r7, sp, #0
  37              	.LCFI1:
  38              		.cfi_def_cfa_register 7
  61:.\Generated_Source\PSoC5/isr_CLU_EXEC.c ****     /* For all we know the interrupt is active. */
  62:.\Generated_Source\PSoC5/isr_CLU_EXEC.c ****     isr_CLU_EXEC_Disable();
  39              		.loc 1 62 0
  40 0004 FFF7FEFF 		bl	isr_CLU_EXEC_Disable
  63:.\Generated_Source\PSoC5/isr_CLU_EXEC.c **** 
  64:.\Generated_Source\PSoC5/isr_CLU_EXEC.c ****     /* Set the ISR to point to the isr_CLU_EXEC Interrupt. */
  65:.\Generated_Source\PSoC5/isr_CLU_EXEC.c ****     isr_CLU_EXEC_SetVector(&isr_CLU_EXEC_Interrupt);
  41              		.loc 1 65 0
  42 0008 40F20000 		movw	r0, #:lower16:isr_CLU_EXEC_Interrupt
  43 000c C0F20000 		movt	r0, #:upper16:isr_CLU_EXEC_Interrupt
  44 0010 FFF7FEFF 		bl	isr_CLU_EXEC_SetVector
  66:.\Generated_Source\PSoC5/isr_CLU_EXEC.c **** 
  67:.\Generated_Source\PSoC5/isr_CLU_EXEC.c ****     /* Set the priority. */
  68:.\Generated_Source\PSoC5/isr_CLU_EXEC.c ****     isr_CLU_EXEC_SetPriority((uint8)isr_CLU_EXEC_INTC_PRIOR_NUMBER);
  45              		.loc 1 68 0
  46 0014 4FF00700 		mov	r0, #7
ARM GAS  C:\Users\gravi\AppData\Local\Temp\ccQRbHGh.s 			page 3


  47 0018 FFF7FEFF 		bl	isr_CLU_EXEC_SetPriority
  69:.\Generated_Source\PSoC5/isr_CLU_EXEC.c **** 
  70:.\Generated_Source\PSoC5/isr_CLU_EXEC.c ****     /* Enable it. */
  71:.\Generated_Source\PSoC5/isr_CLU_EXEC.c ****     isr_CLU_EXEC_Enable();
  48              		.loc 1 71 0
  49 001c FFF7FEFF 		bl	isr_CLU_EXEC_Enable
  72:.\Generated_Source\PSoC5/isr_CLU_EXEC.c **** }
  50              		.loc 1 72 0
  51 0020 80BD     		pop	{r7, pc}
  52              		.cfi_endproc
  53              	.LFE0:
  54              		.size	isr_CLU_EXEC_Start, .-isr_CLU_EXEC_Start
  55 0022 00BF     		.section	.text.isr_CLU_EXEC_StartEx,"ax",%progbits
  56              		.align	2
  57              		.global	isr_CLU_EXEC_StartEx
  58              		.thumb
  59              		.thumb_func
  60              		.type	isr_CLU_EXEC_StartEx, %function
  61              	isr_CLU_EXEC_StartEx:
  62              	.LFB1:
  73:.\Generated_Source\PSoC5/isr_CLU_EXEC.c **** 
  74:.\Generated_Source\PSoC5/isr_CLU_EXEC.c **** 
  75:.\Generated_Source\PSoC5/isr_CLU_EXEC.c **** /*******************************************************************************
  76:.\Generated_Source\PSoC5/isr_CLU_EXEC.c **** * Function Name: isr_CLU_EXEC_StartEx
  77:.\Generated_Source\PSoC5/isr_CLU_EXEC.c **** ********************************************************************************
  78:.\Generated_Source\PSoC5/isr_CLU_EXEC.c **** *
  79:.\Generated_Source\PSoC5/isr_CLU_EXEC.c **** * Summary:
  80:.\Generated_Source\PSoC5/isr_CLU_EXEC.c **** *  Set up the interrupt and enable it.
  81:.\Generated_Source\PSoC5/isr_CLU_EXEC.c **** *
  82:.\Generated_Source\PSoC5/isr_CLU_EXEC.c **** * Parameters:  
  83:.\Generated_Source\PSoC5/isr_CLU_EXEC.c **** *   address: Address of the ISR to set in the interrupt vector table.
  84:.\Generated_Source\PSoC5/isr_CLU_EXEC.c **** *
  85:.\Generated_Source\PSoC5/isr_CLU_EXEC.c **** * Return:
  86:.\Generated_Source\PSoC5/isr_CLU_EXEC.c **** *   None
  87:.\Generated_Source\PSoC5/isr_CLU_EXEC.c **** *
  88:.\Generated_Source\PSoC5/isr_CLU_EXEC.c **** *******************************************************************************/
  89:.\Generated_Source\PSoC5/isr_CLU_EXEC.c **** void isr_CLU_EXEC_StartEx(cyisraddress address)
  90:.\Generated_Source\PSoC5/isr_CLU_EXEC.c **** {
  63              		.loc 1 90 0
  64              		.cfi_startproc
  65              		@ args = 0, pretend = 0, frame = 8
  66              		@ frame_needed = 1, uses_anonymous_args = 0
  67 0000 80B5     		push	{r7, lr}
  68              	.LCFI2:
  69              		.cfi_def_cfa_offset 8
  70              		.cfi_offset 7, -8
  71              		.cfi_offset 14, -4
  72 0002 82B0     		sub	sp, sp, #8
  73              	.LCFI3:
  74              		.cfi_def_cfa_offset 16
  75 0004 00AF     		add	r7, sp, #0
  76              	.LCFI4:
  77              		.cfi_def_cfa_register 7
  78 0006 7860     		str	r0, [r7, #4]
  91:.\Generated_Source\PSoC5/isr_CLU_EXEC.c ****     /* For all we know the interrupt is active. */
  92:.\Generated_Source\PSoC5/isr_CLU_EXEC.c ****     isr_CLU_EXEC_Disable();
  79              		.loc 1 92 0
ARM GAS  C:\Users\gravi\AppData\Local\Temp\ccQRbHGh.s 			page 4


  80 0008 FFF7FEFF 		bl	isr_CLU_EXEC_Disable
  93:.\Generated_Source\PSoC5/isr_CLU_EXEC.c **** 
  94:.\Generated_Source\PSoC5/isr_CLU_EXEC.c ****     /* Set the ISR to point to the isr_CLU_EXEC Interrupt. */
  95:.\Generated_Source\PSoC5/isr_CLU_EXEC.c ****     isr_CLU_EXEC_SetVector(address);
  81              		.loc 1 95 0
  82 000c 7868     		ldr	r0, [r7, #4]
  83 000e FFF7FEFF 		bl	isr_CLU_EXEC_SetVector
  96:.\Generated_Source\PSoC5/isr_CLU_EXEC.c **** 
  97:.\Generated_Source\PSoC5/isr_CLU_EXEC.c ****     /* Set the priority. */
  98:.\Generated_Source\PSoC5/isr_CLU_EXEC.c ****     isr_CLU_EXEC_SetPriority((uint8)isr_CLU_EXEC_INTC_PRIOR_NUMBER);
  84              		.loc 1 98 0
  85 0012 4FF00700 		mov	r0, #7
  86 0016 FFF7FEFF 		bl	isr_CLU_EXEC_SetPriority
  99:.\Generated_Source\PSoC5/isr_CLU_EXEC.c **** 
 100:.\Generated_Source\PSoC5/isr_CLU_EXEC.c ****     /* Enable it. */
 101:.\Generated_Source\PSoC5/isr_CLU_EXEC.c ****     isr_CLU_EXEC_Enable();
  87              		.loc 1 101 0
  88 001a FFF7FEFF 		bl	isr_CLU_EXEC_Enable
 102:.\Generated_Source\PSoC5/isr_CLU_EXEC.c **** }
  89              		.loc 1 102 0
  90 001e 07F10807 		add	r7, r7, #8
  91 0022 BD46     		mov	sp, r7
  92 0024 80BD     		pop	{r7, pc}
  93              		.cfi_endproc
  94              	.LFE1:
  95              		.size	isr_CLU_EXEC_StartEx, .-isr_CLU_EXEC_StartEx
  96 0026 00BF     		.section	.text.isr_CLU_EXEC_Stop,"ax",%progbits
  97              		.align	2
  98              		.global	isr_CLU_EXEC_Stop
  99              		.thumb
 100              		.thumb_func
 101              		.type	isr_CLU_EXEC_Stop, %function
 102              	isr_CLU_EXEC_Stop:
 103              	.LFB2:
 103:.\Generated_Source\PSoC5/isr_CLU_EXEC.c **** 
 104:.\Generated_Source\PSoC5/isr_CLU_EXEC.c **** 
 105:.\Generated_Source\PSoC5/isr_CLU_EXEC.c **** /*******************************************************************************
 106:.\Generated_Source\PSoC5/isr_CLU_EXEC.c **** * Function Name: isr_CLU_EXEC_Stop
 107:.\Generated_Source\PSoC5/isr_CLU_EXEC.c **** ********************************************************************************
 108:.\Generated_Source\PSoC5/isr_CLU_EXEC.c **** *
 109:.\Generated_Source\PSoC5/isr_CLU_EXEC.c **** * Summary:
 110:.\Generated_Source\PSoC5/isr_CLU_EXEC.c **** *   Disables and removes the interrupt.
 111:.\Generated_Source\PSoC5/isr_CLU_EXEC.c **** *
 112:.\Generated_Source\PSoC5/isr_CLU_EXEC.c **** * Parameters:  
 113:.\Generated_Source\PSoC5/isr_CLU_EXEC.c **** *
 114:.\Generated_Source\PSoC5/isr_CLU_EXEC.c **** * Return:
 115:.\Generated_Source\PSoC5/isr_CLU_EXEC.c **** *   None
 116:.\Generated_Source\PSoC5/isr_CLU_EXEC.c **** *
 117:.\Generated_Source\PSoC5/isr_CLU_EXEC.c **** *******************************************************************************/
 118:.\Generated_Source\PSoC5/isr_CLU_EXEC.c **** void isr_CLU_EXEC_Stop(void)
 119:.\Generated_Source\PSoC5/isr_CLU_EXEC.c **** {
 104              		.loc 1 119 0
 105              		.cfi_startproc
 106              		@ args = 0, pretend = 0, frame = 0
 107              		@ frame_needed = 1, uses_anonymous_args = 0
 108 0000 80B5     		push	{r7, lr}
 109              	.LCFI5:
ARM GAS  C:\Users\gravi\AppData\Local\Temp\ccQRbHGh.s 			page 5


 110              		.cfi_def_cfa_offset 8
 111              		.cfi_offset 7, -8
 112              		.cfi_offset 14, -4
 113 0002 00AF     		add	r7, sp, #0
 114              	.LCFI6:
 115              		.cfi_def_cfa_register 7
 120:.\Generated_Source\PSoC5/isr_CLU_EXEC.c ****     /* Disable this interrupt. */
 121:.\Generated_Source\PSoC5/isr_CLU_EXEC.c ****     isr_CLU_EXEC_Disable();
 116              		.loc 1 121 0
 117 0004 FFF7FEFF 		bl	isr_CLU_EXEC_Disable
 122:.\Generated_Source\PSoC5/isr_CLU_EXEC.c **** 
 123:.\Generated_Source\PSoC5/isr_CLU_EXEC.c ****     /* Set the ISR to point to the passive one. */
 124:.\Generated_Source\PSoC5/isr_CLU_EXEC.c ****     isr_CLU_EXEC_SetVector(&IntDefaultHandler);
 118              		.loc 1 124 0
 119 0008 40F20000 		movw	r0, #:lower16:IntDefaultHandler
 120 000c C0F20000 		movt	r0, #:upper16:IntDefaultHandler
 121 0010 FFF7FEFF 		bl	isr_CLU_EXEC_SetVector
 125:.\Generated_Source\PSoC5/isr_CLU_EXEC.c **** }
 122              		.loc 1 125 0
 123 0014 80BD     		pop	{r7, pc}
 124              		.cfi_endproc
 125              	.LFE2:
 126              		.size	isr_CLU_EXEC_Stop, .-isr_CLU_EXEC_Stop
 127 0016 00BF     		.section	.text.isr_CLU_EXEC_Interrupt,"ax",%progbits
 128              		.align	2
 129              		.global	isr_CLU_EXEC_Interrupt
 130              		.thumb
 131              		.thumb_func
 132              		.type	isr_CLU_EXEC_Interrupt, %function
 133              	isr_CLU_EXEC_Interrupt:
 134              	.LFB3:
 126:.\Generated_Source\PSoC5/isr_CLU_EXEC.c **** 
 127:.\Generated_Source\PSoC5/isr_CLU_EXEC.c **** 
 128:.\Generated_Source\PSoC5/isr_CLU_EXEC.c **** /*******************************************************************************
 129:.\Generated_Source\PSoC5/isr_CLU_EXEC.c **** * Function Name: isr_CLU_EXEC_Interrupt
 130:.\Generated_Source\PSoC5/isr_CLU_EXEC.c **** ********************************************************************************
 131:.\Generated_Source\PSoC5/isr_CLU_EXEC.c **** *
 132:.\Generated_Source\PSoC5/isr_CLU_EXEC.c **** * Summary:
 133:.\Generated_Source\PSoC5/isr_CLU_EXEC.c **** *   The default Interrupt Service Routine for isr_CLU_EXEC.
 134:.\Generated_Source\PSoC5/isr_CLU_EXEC.c **** *
 135:.\Generated_Source\PSoC5/isr_CLU_EXEC.c **** *   Add custom code between the coments to keep the next version of this file
 136:.\Generated_Source\PSoC5/isr_CLU_EXEC.c **** *   from over writting your code.
 137:.\Generated_Source\PSoC5/isr_CLU_EXEC.c **** *
 138:.\Generated_Source\PSoC5/isr_CLU_EXEC.c **** * Parameters:  
 139:.\Generated_Source\PSoC5/isr_CLU_EXEC.c **** *
 140:.\Generated_Source\PSoC5/isr_CLU_EXEC.c **** * Return:
 141:.\Generated_Source\PSoC5/isr_CLU_EXEC.c **** *   None
 142:.\Generated_Source\PSoC5/isr_CLU_EXEC.c **** *
 143:.\Generated_Source\PSoC5/isr_CLU_EXEC.c **** *******************************************************************************/
 144:.\Generated_Source\PSoC5/isr_CLU_EXEC.c **** CY_ISR(isr_CLU_EXEC_Interrupt)
 145:.\Generated_Source\PSoC5/isr_CLU_EXEC.c **** {
 135              		.loc 1 145 0
 136              		.cfi_startproc
 137              		@ args = 0, pretend = 0, frame = 0
 138              		@ frame_needed = 1, uses_anonymous_args = 0
 139 0000 80B5     		push	{r7, lr}
 140              	.LCFI7:
ARM GAS  C:\Users\gravi\AppData\Local\Temp\ccQRbHGh.s 			page 6


 141              		.cfi_def_cfa_offset 8
 142              		.cfi_offset 7, -8
 143              		.cfi_offset 14, -4
 144 0002 00AF     		add	r7, sp, #0
 145              	.LCFI8:
 146              		.cfi_def_cfa_register 7
 146:.\Generated_Source\PSoC5/isr_CLU_EXEC.c ****     /*  Place your Interrupt code here. */
 147:.\Generated_Source\PSoC5/isr_CLU_EXEC.c ****     /* `#START isr_CLU_EXEC_Interrupt` */
 148:.\Generated_Source\PSoC5/isr_CLU_EXEC.c **** 	
 149:.\Generated_Source\PSoC5/isr_CLU_EXEC.c **** 	// ****************************************************************
 150:.\Generated_Source\PSoC5/isr_CLU_EXEC.c **** 	// *** CLU STATE MACHINE EXECUTOR FUNCTION					    ***
 151:.\Generated_Source\PSoC5/isr_CLU_EXEC.c **** 	// ****************************************************************
 152:.\Generated_Source\PSoC5/isr_CLU_EXEC.c **** 	clu_sm_exec(VERBOSE_ON);
 147              		.loc 1 152 0
 148 0004 4FF00100 		mov	r0, #1
 149 0008 FFF7FEFF 		bl	clu_sm_exec
 153:.\Generated_Source\PSoC5/isr_CLU_EXEC.c **** 
 154:.\Generated_Source\PSoC5/isr_CLU_EXEC.c ****     /* `#END` */
 155:.\Generated_Source\PSoC5/isr_CLU_EXEC.c **** }
 150              		.loc 1 155 0
 151 000c 80BD     		pop	{r7, pc}
 152              		.cfi_endproc
 153              	.LFE3:
 154              		.size	isr_CLU_EXEC_Interrupt, .-isr_CLU_EXEC_Interrupt
 155 000e 00BF     		.section	.text.isr_CLU_EXEC_SetVector,"ax",%progbits
 156              		.align	2
 157              		.global	isr_CLU_EXEC_SetVector
 158              		.thumb
 159              		.thumb_func
 160              		.type	isr_CLU_EXEC_SetVector, %function
 161              	isr_CLU_EXEC_SetVector:
 162              	.LFB4:
 156:.\Generated_Source\PSoC5/isr_CLU_EXEC.c **** 
 157:.\Generated_Source\PSoC5/isr_CLU_EXEC.c **** 
 158:.\Generated_Source\PSoC5/isr_CLU_EXEC.c **** /*******************************************************************************
 159:.\Generated_Source\PSoC5/isr_CLU_EXEC.c **** * Function Name: isr_CLU_EXEC_SetVector
 160:.\Generated_Source\PSoC5/isr_CLU_EXEC.c **** ********************************************************************************
 161:.\Generated_Source\PSoC5/isr_CLU_EXEC.c **** *
 162:.\Generated_Source\PSoC5/isr_CLU_EXEC.c **** * Summary:
 163:.\Generated_Source\PSoC5/isr_CLU_EXEC.c **** *   Change the ISR vector for the Interrupt. Note calling isr_CLU_EXEC_Start
 164:.\Generated_Source\PSoC5/isr_CLU_EXEC.c **** *   will override any effect this method would have had. To set the vector 
 165:.\Generated_Source\PSoC5/isr_CLU_EXEC.c **** *   before the component has been started use isr_CLU_EXEC_StartEx instead.
 166:.\Generated_Source\PSoC5/isr_CLU_EXEC.c **** *
 167:.\Generated_Source\PSoC5/isr_CLU_EXEC.c **** * Parameters:
 168:.\Generated_Source\PSoC5/isr_CLU_EXEC.c **** *   address: Address of the ISR to set in the interrupt vector table.
 169:.\Generated_Source\PSoC5/isr_CLU_EXEC.c **** *
 170:.\Generated_Source\PSoC5/isr_CLU_EXEC.c **** * Return:
 171:.\Generated_Source\PSoC5/isr_CLU_EXEC.c **** *   None
 172:.\Generated_Source\PSoC5/isr_CLU_EXEC.c **** *
 173:.\Generated_Source\PSoC5/isr_CLU_EXEC.c **** *******************************************************************************/
 174:.\Generated_Source\PSoC5/isr_CLU_EXEC.c **** void isr_CLU_EXEC_SetVector(cyisraddress address)
 175:.\Generated_Source\PSoC5/isr_CLU_EXEC.c **** {
 163              		.loc 1 175 0
 164              		.cfi_startproc
 165              		@ args = 0, pretend = 0, frame = 16
 166              		@ frame_needed = 1, uses_anonymous_args = 0
 167              		@ link register save eliminated.
ARM GAS  C:\Users\gravi\AppData\Local\Temp\ccQRbHGh.s 			page 7


 168 0000 80B4     		push	{r7}
 169              	.LCFI9:
 170              		.cfi_def_cfa_offset 4
 171              		.cfi_offset 7, -4
 172 0002 85B0     		sub	sp, sp, #20
 173              	.LCFI10:
 174              		.cfi_def_cfa_offset 24
 175 0004 00AF     		add	r7, sp, #0
 176              	.LCFI11:
 177              		.cfi_def_cfa_register 7
 178 0006 7860     		str	r0, [r7, #4]
 176:.\Generated_Source\PSoC5/isr_CLU_EXEC.c ****     cyisraddress * ramVectorTable;
 177:.\Generated_Source\PSoC5/isr_CLU_EXEC.c **** 
 178:.\Generated_Source\PSoC5/isr_CLU_EXEC.c ****     ramVectorTable = (cyisraddress *) *CYINT_VECT_TABLE;
 179              		.loc 1 178 0
 180 0008 4EF60853 		movw	r3, #60680
 181 000c CEF20003 		movt	r3, 57344
 182 0010 1B68     		ldr	r3, [r3, #0]
 183 0012 FB60     		str	r3, [r7, #12]
 179:.\Generated_Source\PSoC5/isr_CLU_EXEC.c **** 
 180:.\Generated_Source\PSoC5/isr_CLU_EXEC.c ****     ramVectorTable[CYINT_IRQ_BASE + (uint32)isr_CLU_EXEC__INTC_NUMBER] = address;
 184              		.loc 1 180 0
 185 0014 FB68     		ldr	r3, [r7, #12]
 186 0016 03F14C03 		add	r3, r3, #76
 187 001a 7A68     		ldr	r2, [r7, #4]
 188 001c 1A60     		str	r2, [r3, #0]
 181:.\Generated_Source\PSoC5/isr_CLU_EXEC.c **** }
 189              		.loc 1 181 0
 190 001e 07F11407 		add	r7, r7, #20
 191 0022 BD46     		mov	sp, r7
 192 0024 80BC     		pop	{r7}
 193 0026 7047     		bx	lr
 194              		.cfi_endproc
 195              	.LFE4:
 196              		.size	isr_CLU_EXEC_SetVector, .-isr_CLU_EXEC_SetVector
 197              		.section	.text.isr_CLU_EXEC_GetVector,"ax",%progbits
 198              		.align	2
 199              		.global	isr_CLU_EXEC_GetVector
 200              		.thumb
 201              		.thumb_func
 202              		.type	isr_CLU_EXEC_GetVector, %function
 203              	isr_CLU_EXEC_GetVector:
 204              	.LFB5:
 182:.\Generated_Source\PSoC5/isr_CLU_EXEC.c **** 
 183:.\Generated_Source\PSoC5/isr_CLU_EXEC.c **** 
 184:.\Generated_Source\PSoC5/isr_CLU_EXEC.c **** /*******************************************************************************
 185:.\Generated_Source\PSoC5/isr_CLU_EXEC.c **** * Function Name: isr_CLU_EXEC_GetVector
 186:.\Generated_Source\PSoC5/isr_CLU_EXEC.c **** ********************************************************************************
 187:.\Generated_Source\PSoC5/isr_CLU_EXEC.c **** *
 188:.\Generated_Source\PSoC5/isr_CLU_EXEC.c **** * Summary:
 189:.\Generated_Source\PSoC5/isr_CLU_EXEC.c **** *   Gets the "address" of the current ISR vector for the Interrupt.
 190:.\Generated_Source\PSoC5/isr_CLU_EXEC.c **** *
 191:.\Generated_Source\PSoC5/isr_CLU_EXEC.c **** * Parameters:
 192:.\Generated_Source\PSoC5/isr_CLU_EXEC.c **** *   None
 193:.\Generated_Source\PSoC5/isr_CLU_EXEC.c **** *
 194:.\Generated_Source\PSoC5/isr_CLU_EXEC.c **** * Return:
 195:.\Generated_Source\PSoC5/isr_CLU_EXEC.c **** *   Address of the ISR in the interrupt vector table.
ARM GAS  C:\Users\gravi\AppData\Local\Temp\ccQRbHGh.s 			page 8


 196:.\Generated_Source\PSoC5/isr_CLU_EXEC.c **** *
 197:.\Generated_Source\PSoC5/isr_CLU_EXEC.c **** *******************************************************************************/
 198:.\Generated_Source\PSoC5/isr_CLU_EXEC.c **** cyisraddress isr_CLU_EXEC_GetVector(void)
 199:.\Generated_Source\PSoC5/isr_CLU_EXEC.c **** {
 205              		.loc 1 199 0
 206              		.cfi_startproc
 207              		@ args = 0, pretend = 0, frame = 8
 208              		@ frame_needed = 1, uses_anonymous_args = 0
 209              		@ link register save eliminated.
 210 0000 80B4     		push	{r7}
 211              	.LCFI12:
 212              		.cfi_def_cfa_offset 4
 213              		.cfi_offset 7, -4
 214 0002 83B0     		sub	sp, sp, #12
 215              	.LCFI13:
 216              		.cfi_def_cfa_offset 16
 217 0004 00AF     		add	r7, sp, #0
 218              	.LCFI14:
 219              		.cfi_def_cfa_register 7
 200:.\Generated_Source\PSoC5/isr_CLU_EXEC.c ****     cyisraddress * ramVectorTable;
 201:.\Generated_Source\PSoC5/isr_CLU_EXEC.c **** 
 202:.\Generated_Source\PSoC5/isr_CLU_EXEC.c ****     ramVectorTable = (cyisraddress *) *CYINT_VECT_TABLE;
 220              		.loc 1 202 0
 221 0006 4EF60853 		movw	r3, #60680
 222 000a CEF20003 		movt	r3, 57344
 223 000e 1B68     		ldr	r3, [r3, #0]
 224 0010 7B60     		str	r3, [r7, #4]
 203:.\Generated_Source\PSoC5/isr_CLU_EXEC.c **** 
 204:.\Generated_Source\PSoC5/isr_CLU_EXEC.c ****     return ramVectorTable[CYINT_IRQ_BASE + (uint32)isr_CLU_EXEC__INTC_NUMBER];
 225              		.loc 1 204 0
 226 0012 7B68     		ldr	r3, [r7, #4]
 227 0014 DB6C     		ldr	r3, [r3, #76]
 205:.\Generated_Source\PSoC5/isr_CLU_EXEC.c **** }
 228              		.loc 1 205 0
 229 0016 1846     		mov	r0, r3
 230 0018 07F10C07 		add	r7, r7, #12
 231 001c BD46     		mov	sp, r7
 232 001e 80BC     		pop	{r7}
 233 0020 7047     		bx	lr
 234              		.cfi_endproc
 235              	.LFE5:
 236              		.size	isr_CLU_EXEC_GetVector, .-isr_CLU_EXEC_GetVector
 237 0022 00BF     		.section	.text.isr_CLU_EXEC_SetPriority,"ax",%progbits
 238              		.align	2
 239              		.global	isr_CLU_EXEC_SetPriority
 240              		.thumb
 241              		.thumb_func
 242              		.type	isr_CLU_EXEC_SetPriority, %function
 243              	isr_CLU_EXEC_SetPriority:
 244              	.LFB6:
 206:.\Generated_Source\PSoC5/isr_CLU_EXEC.c **** 
 207:.\Generated_Source\PSoC5/isr_CLU_EXEC.c **** 
 208:.\Generated_Source\PSoC5/isr_CLU_EXEC.c **** /*******************************************************************************
 209:.\Generated_Source\PSoC5/isr_CLU_EXEC.c **** * Function Name: isr_CLU_EXEC_SetPriority
 210:.\Generated_Source\PSoC5/isr_CLU_EXEC.c **** ********************************************************************************
 211:.\Generated_Source\PSoC5/isr_CLU_EXEC.c **** *
 212:.\Generated_Source\PSoC5/isr_CLU_EXEC.c **** * Summary:
ARM GAS  C:\Users\gravi\AppData\Local\Temp\ccQRbHGh.s 			page 9


 213:.\Generated_Source\PSoC5/isr_CLU_EXEC.c **** *   Sets the Priority of the Interrupt. Note calling isr_CLU_EXEC_Start
 214:.\Generated_Source\PSoC5/isr_CLU_EXEC.c **** *   or isr_CLU_EXEC_StartEx will override any effect this method 
 215:.\Generated_Source\PSoC5/isr_CLU_EXEC.c **** *   would have had. This method should only be called after 
 216:.\Generated_Source\PSoC5/isr_CLU_EXEC.c **** *   isr_CLU_EXEC_Start or isr_CLU_EXEC_StartEx has been called. To set 
 217:.\Generated_Source\PSoC5/isr_CLU_EXEC.c **** *   the initial priority for the component use the cydwr file in the tool.
 218:.\Generated_Source\PSoC5/isr_CLU_EXEC.c **** *
 219:.\Generated_Source\PSoC5/isr_CLU_EXEC.c **** * Parameters:
 220:.\Generated_Source\PSoC5/isr_CLU_EXEC.c **** *   priority: Priority of the interrupt. 0 - 7, 0 being the highest.
 221:.\Generated_Source\PSoC5/isr_CLU_EXEC.c **** *
 222:.\Generated_Source\PSoC5/isr_CLU_EXEC.c **** * Return:
 223:.\Generated_Source\PSoC5/isr_CLU_EXEC.c **** *   None
 224:.\Generated_Source\PSoC5/isr_CLU_EXEC.c **** *
 225:.\Generated_Source\PSoC5/isr_CLU_EXEC.c **** *******************************************************************************/
 226:.\Generated_Source\PSoC5/isr_CLU_EXEC.c **** void isr_CLU_EXEC_SetPriority(uint8 priority)
 227:.\Generated_Source\PSoC5/isr_CLU_EXEC.c **** {
 245              		.loc 1 227 0
 246              		.cfi_startproc
 247              		@ args = 0, pretend = 0, frame = 8
 248              		@ frame_needed = 1, uses_anonymous_args = 0
 249              		@ link register save eliminated.
 250 0000 80B4     		push	{r7}
 251              	.LCFI15:
 252              		.cfi_def_cfa_offset 4
 253              		.cfi_offset 7, -4
 254 0002 83B0     		sub	sp, sp, #12
 255              	.LCFI16:
 256              		.cfi_def_cfa_offset 16
 257 0004 00AF     		add	r7, sp, #0
 258              	.LCFI17:
 259              		.cfi_def_cfa_register 7
 260 0006 0346     		mov	r3, r0
 261 0008 FB71     		strb	r3, [r7, #7]
 228:.\Generated_Source\PSoC5/isr_CLU_EXEC.c ****     *isr_CLU_EXEC_INTC_PRIOR = priority << 5;
 262              		.loc 1 228 0
 263 000a 4EF20343 		movw	r3, #58371
 264 000e CEF20003 		movt	r3, 57344
 265 0012 FA79     		ldrb	r2, [r7, #7]
 266 0014 4FEA4212 		lsl	r2, r2, #5
 267 0018 D2B2     		uxtb	r2, r2
 268 001a 1A70     		strb	r2, [r3, #0]
 229:.\Generated_Source\PSoC5/isr_CLU_EXEC.c **** }
 269              		.loc 1 229 0
 270 001c 07F10C07 		add	r7, r7, #12
 271 0020 BD46     		mov	sp, r7
 272 0022 80BC     		pop	{r7}
 273 0024 7047     		bx	lr
 274              		.cfi_endproc
 275              	.LFE6:
 276              		.size	isr_CLU_EXEC_SetPriority, .-isr_CLU_EXEC_SetPriority
 277 0026 00BF     		.section	.text.isr_CLU_EXEC_GetPriority,"ax",%progbits
 278              		.align	2
 279              		.global	isr_CLU_EXEC_GetPriority
 280              		.thumb
 281              		.thumb_func
 282              		.type	isr_CLU_EXEC_GetPriority, %function
 283              	isr_CLU_EXEC_GetPriority:
 284              	.LFB7:
ARM GAS  C:\Users\gravi\AppData\Local\Temp\ccQRbHGh.s 			page 10


 230:.\Generated_Source\PSoC5/isr_CLU_EXEC.c **** 
 231:.\Generated_Source\PSoC5/isr_CLU_EXEC.c **** 
 232:.\Generated_Source\PSoC5/isr_CLU_EXEC.c **** /*******************************************************************************
 233:.\Generated_Source\PSoC5/isr_CLU_EXEC.c **** * Function Name: isr_CLU_EXEC_GetPriority
 234:.\Generated_Source\PSoC5/isr_CLU_EXEC.c **** ********************************************************************************
 235:.\Generated_Source\PSoC5/isr_CLU_EXEC.c **** *
 236:.\Generated_Source\PSoC5/isr_CLU_EXEC.c **** * Summary:
 237:.\Generated_Source\PSoC5/isr_CLU_EXEC.c **** *   Gets the Priority of the Interrupt.
 238:.\Generated_Source\PSoC5/isr_CLU_EXEC.c **** *
 239:.\Generated_Source\PSoC5/isr_CLU_EXEC.c **** * Parameters:
 240:.\Generated_Source\PSoC5/isr_CLU_EXEC.c **** *   None
 241:.\Generated_Source\PSoC5/isr_CLU_EXEC.c **** *
 242:.\Generated_Source\PSoC5/isr_CLU_EXEC.c **** * Return:
 243:.\Generated_Source\PSoC5/isr_CLU_EXEC.c **** *   Priority of the interrupt. 0 - 7, 0 being the highest.
 244:.\Generated_Source\PSoC5/isr_CLU_EXEC.c **** *
 245:.\Generated_Source\PSoC5/isr_CLU_EXEC.c **** *******************************************************************************/
 246:.\Generated_Source\PSoC5/isr_CLU_EXEC.c **** uint8 isr_CLU_EXEC_GetPriority(void)
 247:.\Generated_Source\PSoC5/isr_CLU_EXEC.c **** {
 285              		.loc 1 247 0
 286              		.cfi_startproc
 287              		@ args = 0, pretend = 0, frame = 8
 288              		@ frame_needed = 1, uses_anonymous_args = 0
 289              		@ link register save eliminated.
 290 0000 80B4     		push	{r7}
 291              	.LCFI18:
 292              		.cfi_def_cfa_offset 4
 293              		.cfi_offset 7, -4
 294 0002 83B0     		sub	sp, sp, #12
 295              	.LCFI19:
 296              		.cfi_def_cfa_offset 16
 297 0004 00AF     		add	r7, sp, #0
 298              	.LCFI20:
 299              		.cfi_def_cfa_register 7
 248:.\Generated_Source\PSoC5/isr_CLU_EXEC.c ****     uint8 priority;
 249:.\Generated_Source\PSoC5/isr_CLU_EXEC.c **** 
 250:.\Generated_Source\PSoC5/isr_CLU_EXEC.c **** 
 251:.\Generated_Source\PSoC5/isr_CLU_EXEC.c ****     priority = *isr_CLU_EXEC_INTC_PRIOR >> 5;
 300              		.loc 1 251 0
 301 0006 4EF20343 		movw	r3, #58371
 302 000a CEF20003 		movt	r3, 57344
 303 000e 1B78     		ldrb	r3, [r3, #0]
 304 0010 DBB2     		uxtb	r3, r3
 305 0012 4FEA5313 		lsr	r3, r3, #5
 306 0016 FB71     		strb	r3, [r7, #7]
 252:.\Generated_Source\PSoC5/isr_CLU_EXEC.c **** 
 253:.\Generated_Source\PSoC5/isr_CLU_EXEC.c ****     return priority;
 307              		.loc 1 253 0
 308 0018 FB79     		ldrb	r3, [r7, #7]	@ zero_extendqisi2
 254:.\Generated_Source\PSoC5/isr_CLU_EXEC.c **** }
 309              		.loc 1 254 0
 310 001a 1846     		mov	r0, r3
 311 001c 07F10C07 		add	r7, r7, #12
 312 0020 BD46     		mov	sp, r7
 313 0022 80BC     		pop	{r7}
 314 0024 7047     		bx	lr
 315              		.cfi_endproc
 316              	.LFE7:
ARM GAS  C:\Users\gravi\AppData\Local\Temp\ccQRbHGh.s 			page 11


 317              		.size	isr_CLU_EXEC_GetPriority, .-isr_CLU_EXEC_GetPriority
 318 0026 00BF     		.section	.text.isr_CLU_EXEC_Enable,"ax",%progbits
 319              		.align	2
 320              		.global	isr_CLU_EXEC_Enable
 321              		.thumb
 322              		.thumb_func
 323              		.type	isr_CLU_EXEC_Enable, %function
 324              	isr_CLU_EXEC_Enable:
 325              	.LFB8:
 255:.\Generated_Source\PSoC5/isr_CLU_EXEC.c **** 
 256:.\Generated_Source\PSoC5/isr_CLU_EXEC.c **** 
 257:.\Generated_Source\PSoC5/isr_CLU_EXEC.c **** /*******************************************************************************
 258:.\Generated_Source\PSoC5/isr_CLU_EXEC.c **** * Function Name: isr_CLU_EXEC_Enable
 259:.\Generated_Source\PSoC5/isr_CLU_EXEC.c **** ********************************************************************************
 260:.\Generated_Source\PSoC5/isr_CLU_EXEC.c **** *
 261:.\Generated_Source\PSoC5/isr_CLU_EXEC.c **** * Summary:
 262:.\Generated_Source\PSoC5/isr_CLU_EXEC.c **** *   Enables the interrupt.
 263:.\Generated_Source\PSoC5/isr_CLU_EXEC.c **** *
 264:.\Generated_Source\PSoC5/isr_CLU_EXEC.c **** * Parameters:
 265:.\Generated_Source\PSoC5/isr_CLU_EXEC.c **** *   None
 266:.\Generated_Source\PSoC5/isr_CLU_EXEC.c **** *
 267:.\Generated_Source\PSoC5/isr_CLU_EXEC.c **** * Return:
 268:.\Generated_Source\PSoC5/isr_CLU_EXEC.c **** *   None
 269:.\Generated_Source\PSoC5/isr_CLU_EXEC.c **** *
 270:.\Generated_Source\PSoC5/isr_CLU_EXEC.c **** *******************************************************************************/
 271:.\Generated_Source\PSoC5/isr_CLU_EXEC.c **** void isr_CLU_EXEC_Enable(void)
 272:.\Generated_Source\PSoC5/isr_CLU_EXEC.c **** {
 326              		.loc 1 272 0
 327              		.cfi_startproc
 328              		@ args = 0, pretend = 0, frame = 0
 329              		@ frame_needed = 1, uses_anonymous_args = 0
 330              		@ link register save eliminated.
 331 0000 80B4     		push	{r7}
 332              	.LCFI21:
 333              		.cfi_def_cfa_offset 4
 334              		.cfi_offset 7, -4
 335 0002 00AF     		add	r7, sp, #0
 336              	.LCFI22:
 337              		.cfi_def_cfa_register 7
 273:.\Generated_Source\PSoC5/isr_CLU_EXEC.c ****     /* Enable the general interrupt. */
 274:.\Generated_Source\PSoC5/isr_CLU_EXEC.c ****     *isr_CLU_EXEC_INTC_SET_EN = isr_CLU_EXEC__INTC_MASK;
 338              		.loc 1 274 0
 339 0004 4FF46143 		mov	r3, #57600
 340 0008 CEF20003 		movt	r3, 57344
 341 000c 4FF00802 		mov	r2, #8
 342 0010 1A60     		str	r2, [r3, #0]
 275:.\Generated_Source\PSoC5/isr_CLU_EXEC.c **** }
 343              		.loc 1 275 0
 344 0012 BD46     		mov	sp, r7
 345 0014 80BC     		pop	{r7}
 346 0016 7047     		bx	lr
 347              		.cfi_endproc
 348              	.LFE8:
 349              		.size	isr_CLU_EXEC_Enable, .-isr_CLU_EXEC_Enable
 350              		.section	.text.isr_CLU_EXEC_GetState,"ax",%progbits
 351              		.align	2
 352              		.global	isr_CLU_EXEC_GetState
ARM GAS  C:\Users\gravi\AppData\Local\Temp\ccQRbHGh.s 			page 12


 353              		.thumb
 354              		.thumb_func
 355              		.type	isr_CLU_EXEC_GetState, %function
 356              	isr_CLU_EXEC_GetState:
 357              	.LFB9:
 276:.\Generated_Source\PSoC5/isr_CLU_EXEC.c **** 
 277:.\Generated_Source\PSoC5/isr_CLU_EXEC.c **** 
 278:.\Generated_Source\PSoC5/isr_CLU_EXEC.c **** /*******************************************************************************
 279:.\Generated_Source\PSoC5/isr_CLU_EXEC.c **** * Function Name: isr_CLU_EXEC_GetState
 280:.\Generated_Source\PSoC5/isr_CLU_EXEC.c **** ********************************************************************************
 281:.\Generated_Source\PSoC5/isr_CLU_EXEC.c **** *
 282:.\Generated_Source\PSoC5/isr_CLU_EXEC.c **** * Summary:
 283:.\Generated_Source\PSoC5/isr_CLU_EXEC.c **** *   Gets the state (enabled, disabled) of the Interrupt.
 284:.\Generated_Source\PSoC5/isr_CLU_EXEC.c **** *
 285:.\Generated_Source\PSoC5/isr_CLU_EXEC.c **** * Parameters:
 286:.\Generated_Source\PSoC5/isr_CLU_EXEC.c **** *   None
 287:.\Generated_Source\PSoC5/isr_CLU_EXEC.c **** *
 288:.\Generated_Source\PSoC5/isr_CLU_EXEC.c **** * Return:
 289:.\Generated_Source\PSoC5/isr_CLU_EXEC.c **** *   1 if enabled, 0 if disabled.
 290:.\Generated_Source\PSoC5/isr_CLU_EXEC.c **** *
 291:.\Generated_Source\PSoC5/isr_CLU_EXEC.c **** *******************************************************************************/
 292:.\Generated_Source\PSoC5/isr_CLU_EXEC.c **** uint8 isr_CLU_EXEC_GetState(void)
 293:.\Generated_Source\PSoC5/isr_CLU_EXEC.c **** {
 358              		.loc 1 293 0
 359              		.cfi_startproc
 360              		@ args = 0, pretend = 0, frame = 0
 361              		@ frame_needed = 1, uses_anonymous_args = 0
 362              		@ link register save eliminated.
 363 0000 80B4     		push	{r7}
 364              	.LCFI23:
 365              		.cfi_def_cfa_offset 4
 366              		.cfi_offset 7, -4
 367 0002 00AF     		add	r7, sp, #0
 368              	.LCFI24:
 369              		.cfi_def_cfa_register 7
 294:.\Generated_Source\PSoC5/isr_CLU_EXEC.c ****     /* Get the state of the general interrupt. */
 295:.\Generated_Source\PSoC5/isr_CLU_EXEC.c ****     return ((*isr_CLU_EXEC_INTC_SET_EN & (uint32)isr_CLU_EXEC__INTC_MASK) != 0u) ? 1u:0u;
 370              		.loc 1 295 0
 371 0004 4FF46143 		mov	r3, #57600
 372 0008 CEF20003 		movt	r3, 57344
 373 000c 1B68     		ldr	r3, [r3, #0]
 374 000e 03F00803 		and	r3, r3, #8
 375 0012 002B     		cmp	r3, #0
 376 0014 02D0     		beq	.L13
 377              		.loc 1 295 0 is_stmt 0 discriminator 1
 378 0016 4FF00103 		mov	r3, #1
 379 001a 01E0     		b	.L14
 380              	.L13:
 381              		.loc 1 295 0 discriminator 2
 382 001c 4FF00003 		mov	r3, #0
 383              	.L14:
 296:.\Generated_Source\PSoC5/isr_CLU_EXEC.c **** }
 384              		.loc 1 296 0 is_stmt 1 discriminator 3
 385 0020 1846     		mov	r0, r3
 386 0022 BD46     		mov	sp, r7
 387 0024 80BC     		pop	{r7}
 388 0026 7047     		bx	lr
ARM GAS  C:\Users\gravi\AppData\Local\Temp\ccQRbHGh.s 			page 13


 389              		.cfi_endproc
 390              	.LFE9:
 391              		.size	isr_CLU_EXEC_GetState, .-isr_CLU_EXEC_GetState
 392              		.section	.text.isr_CLU_EXEC_Disable,"ax",%progbits
 393              		.align	2
 394              		.global	isr_CLU_EXEC_Disable
 395              		.thumb
 396              		.thumb_func
 397              		.type	isr_CLU_EXEC_Disable, %function
 398              	isr_CLU_EXEC_Disable:
 399              	.LFB10:
 297:.\Generated_Source\PSoC5/isr_CLU_EXEC.c **** 
 298:.\Generated_Source\PSoC5/isr_CLU_EXEC.c **** 
 299:.\Generated_Source\PSoC5/isr_CLU_EXEC.c **** /*******************************************************************************
 300:.\Generated_Source\PSoC5/isr_CLU_EXEC.c **** * Function Name: isr_CLU_EXEC_Disable
 301:.\Generated_Source\PSoC5/isr_CLU_EXEC.c **** ********************************************************************************
 302:.\Generated_Source\PSoC5/isr_CLU_EXEC.c **** *
 303:.\Generated_Source\PSoC5/isr_CLU_EXEC.c **** * Summary:
 304:.\Generated_Source\PSoC5/isr_CLU_EXEC.c **** *   Disables the Interrupt.
 305:.\Generated_Source\PSoC5/isr_CLU_EXEC.c **** *
 306:.\Generated_Source\PSoC5/isr_CLU_EXEC.c **** * Parameters:
 307:.\Generated_Source\PSoC5/isr_CLU_EXEC.c **** *   None
 308:.\Generated_Source\PSoC5/isr_CLU_EXEC.c **** *
 309:.\Generated_Source\PSoC5/isr_CLU_EXEC.c **** * Return:
 310:.\Generated_Source\PSoC5/isr_CLU_EXEC.c **** *   None
 311:.\Generated_Source\PSoC5/isr_CLU_EXEC.c **** *
 312:.\Generated_Source\PSoC5/isr_CLU_EXEC.c **** *******************************************************************************/
 313:.\Generated_Source\PSoC5/isr_CLU_EXEC.c **** void isr_CLU_EXEC_Disable(void)
 314:.\Generated_Source\PSoC5/isr_CLU_EXEC.c **** {
 400              		.loc 1 314 0
 401              		.cfi_startproc
 402              		@ args = 0, pretend = 0, frame = 0
 403              		@ frame_needed = 1, uses_anonymous_args = 0
 404              		@ link register save eliminated.
 405 0000 80B4     		push	{r7}
 406              	.LCFI25:
 407              		.cfi_def_cfa_offset 4
 408              		.cfi_offset 7, -4
 409 0002 00AF     		add	r7, sp, #0
 410              	.LCFI26:
 411              		.cfi_def_cfa_register 7
 315:.\Generated_Source\PSoC5/isr_CLU_EXEC.c ****     /* Disable the general interrupt. */
 316:.\Generated_Source\PSoC5/isr_CLU_EXEC.c ****     *isr_CLU_EXEC_INTC_CLR_EN = isr_CLU_EXEC__INTC_MASK;
 412              		.loc 1 316 0
 413 0004 4EF28013 		movw	r3, #57728
 414 0008 CEF20003 		movt	r3, 57344
 415 000c 4FF00802 		mov	r2, #8
 416 0010 1A60     		str	r2, [r3, #0]
 317:.\Generated_Source\PSoC5/isr_CLU_EXEC.c **** }
 417              		.loc 1 317 0
 418 0012 BD46     		mov	sp, r7
 419 0014 80BC     		pop	{r7}
 420 0016 7047     		bx	lr
 421              		.cfi_endproc
 422              	.LFE10:
 423              		.size	isr_CLU_EXEC_Disable, .-isr_CLU_EXEC_Disable
 424              		.section	.text.isr_CLU_EXEC_SetPending,"ax",%progbits
ARM GAS  C:\Users\gravi\AppData\Local\Temp\ccQRbHGh.s 			page 14


 425              		.align	2
 426              		.global	isr_CLU_EXEC_SetPending
 427              		.thumb
 428              		.thumb_func
 429              		.type	isr_CLU_EXEC_SetPending, %function
 430              	isr_CLU_EXEC_SetPending:
 431              	.LFB11:
 318:.\Generated_Source\PSoC5/isr_CLU_EXEC.c **** 
 319:.\Generated_Source\PSoC5/isr_CLU_EXEC.c **** 
 320:.\Generated_Source\PSoC5/isr_CLU_EXEC.c **** /*******************************************************************************
 321:.\Generated_Source\PSoC5/isr_CLU_EXEC.c **** * Function Name: isr_CLU_EXEC_SetPending
 322:.\Generated_Source\PSoC5/isr_CLU_EXEC.c **** ********************************************************************************
 323:.\Generated_Source\PSoC5/isr_CLU_EXEC.c **** *
 324:.\Generated_Source\PSoC5/isr_CLU_EXEC.c **** * Summary:
 325:.\Generated_Source\PSoC5/isr_CLU_EXEC.c **** *   Causes the Interrupt to enter the pending state, a software method of
 326:.\Generated_Source\PSoC5/isr_CLU_EXEC.c **** *   generating the interrupt.
 327:.\Generated_Source\PSoC5/isr_CLU_EXEC.c **** *
 328:.\Generated_Source\PSoC5/isr_CLU_EXEC.c **** * Parameters:
 329:.\Generated_Source\PSoC5/isr_CLU_EXEC.c **** *   None
 330:.\Generated_Source\PSoC5/isr_CLU_EXEC.c **** *
 331:.\Generated_Source\PSoC5/isr_CLU_EXEC.c **** * Return:
 332:.\Generated_Source\PSoC5/isr_CLU_EXEC.c **** *   None
 333:.\Generated_Source\PSoC5/isr_CLU_EXEC.c **** *
 334:.\Generated_Source\PSoC5/isr_CLU_EXEC.c **** *******************************************************************************/
 335:.\Generated_Source\PSoC5/isr_CLU_EXEC.c **** void isr_CLU_EXEC_SetPending(void)
 336:.\Generated_Source\PSoC5/isr_CLU_EXEC.c **** {
 432              		.loc 1 336 0
 433              		.cfi_startproc
 434              		@ args = 0, pretend = 0, frame = 0
 435              		@ frame_needed = 1, uses_anonymous_args = 0
 436              		@ link register save eliminated.
 437 0000 80B4     		push	{r7}
 438              	.LCFI27:
 439              		.cfi_def_cfa_offset 4
 440              		.cfi_offset 7, -4
 441 0002 00AF     		add	r7, sp, #0
 442              	.LCFI28:
 443              		.cfi_def_cfa_register 7
 337:.\Generated_Source\PSoC5/isr_CLU_EXEC.c ****     *isr_CLU_EXEC_INTC_SET_PD = isr_CLU_EXEC__INTC_MASK;
 444              		.loc 1 337 0
 445 0004 4FF46243 		mov	r3, #57856
 446 0008 CEF20003 		movt	r3, 57344
 447 000c 4FF00802 		mov	r2, #8
 448 0010 1A60     		str	r2, [r3, #0]
 338:.\Generated_Source\PSoC5/isr_CLU_EXEC.c **** }
 449              		.loc 1 338 0
 450 0012 BD46     		mov	sp, r7
 451 0014 80BC     		pop	{r7}
 452 0016 7047     		bx	lr
 453              		.cfi_endproc
 454              	.LFE11:
 455              		.size	isr_CLU_EXEC_SetPending, .-isr_CLU_EXEC_SetPending
 456              		.section	.text.isr_CLU_EXEC_ClearPending,"ax",%progbits
 457              		.align	2
 458              		.global	isr_CLU_EXEC_ClearPending
 459              		.thumb
 460              		.thumb_func
ARM GAS  C:\Users\gravi\AppData\Local\Temp\ccQRbHGh.s 			page 15


 461              		.type	isr_CLU_EXEC_ClearPending, %function
 462              	isr_CLU_EXEC_ClearPending:
 463              	.LFB12:
 339:.\Generated_Source\PSoC5/isr_CLU_EXEC.c **** 
 340:.\Generated_Source\PSoC5/isr_CLU_EXEC.c **** 
 341:.\Generated_Source\PSoC5/isr_CLU_EXEC.c **** /*******************************************************************************
 342:.\Generated_Source\PSoC5/isr_CLU_EXEC.c **** * Function Name: isr_CLU_EXEC_ClearPending
 343:.\Generated_Source\PSoC5/isr_CLU_EXEC.c **** ********************************************************************************
 344:.\Generated_Source\PSoC5/isr_CLU_EXEC.c **** *
 345:.\Generated_Source\PSoC5/isr_CLU_EXEC.c **** * Summary:
 346:.\Generated_Source\PSoC5/isr_CLU_EXEC.c **** *   Clears a pending interrupt.
 347:.\Generated_Source\PSoC5/isr_CLU_EXEC.c **** *
 348:.\Generated_Source\PSoC5/isr_CLU_EXEC.c **** * Parameters:
 349:.\Generated_Source\PSoC5/isr_CLU_EXEC.c **** *   None
 350:.\Generated_Source\PSoC5/isr_CLU_EXEC.c **** *
 351:.\Generated_Source\PSoC5/isr_CLU_EXEC.c **** * Return:
 352:.\Generated_Source\PSoC5/isr_CLU_EXEC.c **** *   None
 353:.\Generated_Source\PSoC5/isr_CLU_EXEC.c **** *
 354:.\Generated_Source\PSoC5/isr_CLU_EXEC.c **** *******************************************************************************/
 355:.\Generated_Source\PSoC5/isr_CLU_EXEC.c **** void isr_CLU_EXEC_ClearPending(void)
 356:.\Generated_Source\PSoC5/isr_CLU_EXEC.c **** {
 464              		.loc 1 356 0
 465              		.cfi_startproc
 466              		@ args = 0, pretend = 0, frame = 0
 467              		@ frame_needed = 1, uses_anonymous_args = 0
 468              		@ link register save eliminated.
 469 0000 80B4     		push	{r7}
 470              	.LCFI29:
 471              		.cfi_def_cfa_offset 4
 472              		.cfi_offset 7, -4
 473 0002 00AF     		add	r7, sp, #0
 474              	.LCFI30:
 475              		.cfi_def_cfa_register 7
 357:.\Generated_Source\PSoC5/isr_CLU_EXEC.c ****     *isr_CLU_EXEC_INTC_CLR_PD = isr_CLU_EXEC__INTC_MASK;
 476              		.loc 1 357 0
 477 0004 4EF28023 		movw	r3, #57984
 478 0008 CEF20003 		movt	r3, 57344
 479 000c 4FF00802 		mov	r2, #8
 480 0010 1A60     		str	r2, [r3, #0]
 358:.\Generated_Source\PSoC5/isr_CLU_EXEC.c **** }
 481              		.loc 1 358 0
 482 0012 BD46     		mov	sp, r7
 483 0014 80BC     		pop	{r7}
 484 0016 7047     		bx	lr
 485              		.cfi_endproc
 486              	.LFE12:
 487              		.size	isr_CLU_EXEC_ClearPending, .-isr_CLU_EXEC_ClearPending
 488              		.text
 489              	.Letext0:
 490              		.file 2 "./Generated_Source/PSoC5/cytypes.h"