ARM GAS  C:\Users\gravi\AppData\Local\Temp\ccgBIGBX.s 			page 1


   1              		.syntax unified
   2              		.cpu cortex-m3
   3              		.fpu softvfp
   4              		.eabi_attribute 20, 1
   5              		.eabi_attribute 21, 1
   6              		.eabi_attribute 23, 3
   7              		.eabi_attribute 24, 1
   8              		.eabi_attribute 25, 1
   9              		.eabi_attribute 26, 1
  10              		.eabi_attribute 30, 6
  11              		.eabi_attribute 34, 1
  12              		.eabi_attribute 18, 4
  13              		.thumb
  14              		.file	"isr_TORQUESTAT.c"
  15              		.text
  16              	.Ltext0:
  17              		.cfi_sections	.debug_frame
  18              		.comm	TORQUESTAT,32,8
  19              		.comm	pan_torque_stat,32,8
  20              		.comm	tilt_torque_stat,32,8
  21              		.comm	pan_abs_motor_velocity,4,4
  22              		.comm	tilt_abs_motor_velocity,4,4
  23              		.section	.text.isr_TORQUESTAT_Start,"ax",%progbits
  24              		.align	2
  25              		.global	isr_TORQUESTAT_Start
  26              		.thumb
  27              		.thumb_func
  28              		.type	isr_TORQUESTAT_Start, %function
  29              	isr_TORQUESTAT_Start:
  30              	.LFB0:
  31              		.file 1 ".\\Generated_Source\\PSoC5\\isr_TORQUESTAT.c"
   1:.\Generated_Source\PSoC5/isr_TORQUESTAT.c **** /*******************************************************************************
   2:.\Generated_Source\PSoC5/isr_TORQUESTAT.c **** * File Name: isr_TORQUESTAT.c  
   3:.\Generated_Source\PSoC5/isr_TORQUESTAT.c **** * Version 1.70
   4:.\Generated_Source\PSoC5/isr_TORQUESTAT.c **** *
   5:.\Generated_Source\PSoC5/isr_TORQUESTAT.c **** *  Description:
   6:.\Generated_Source\PSoC5/isr_TORQUESTAT.c **** *   API for controlling the state of an interrupt.
   7:.\Generated_Source\PSoC5/isr_TORQUESTAT.c **** *
   8:.\Generated_Source\PSoC5/isr_TORQUESTAT.c **** *
   9:.\Generated_Source\PSoC5/isr_TORQUESTAT.c **** *  Note:
  10:.\Generated_Source\PSoC5/isr_TORQUESTAT.c **** *
  11:.\Generated_Source\PSoC5/isr_TORQUESTAT.c **** ********************************************************************************
  12:.\Generated_Source\PSoC5/isr_TORQUESTAT.c **** * Copyright 2008-2012, Cypress Semiconductor Corporation.  All rights reserved.
  13:.\Generated_Source\PSoC5/isr_TORQUESTAT.c **** * You may use this file only in accordance with the license, terms, conditions, 
  14:.\Generated_Source\PSoC5/isr_TORQUESTAT.c **** * disclaimers, and limitations in the end user license agreement accompanying 
  15:.\Generated_Source\PSoC5/isr_TORQUESTAT.c **** * the software package with which this file was provided.
  16:.\Generated_Source\PSoC5/isr_TORQUESTAT.c **** *******************************************************************************/
  17:.\Generated_Source\PSoC5/isr_TORQUESTAT.c **** 
  18:.\Generated_Source\PSoC5/isr_TORQUESTAT.c **** 
  19:.\Generated_Source\PSoC5/isr_TORQUESTAT.c **** #include <cydevice_trm.h>
  20:.\Generated_Source\PSoC5/isr_TORQUESTAT.c **** #include <CyLib.h>
  21:.\Generated_Source\PSoC5/isr_TORQUESTAT.c **** #include <isr_TORQUESTAT.h>
  22:.\Generated_Source\PSoC5/isr_TORQUESTAT.c **** 
  23:.\Generated_Source\PSoC5/isr_TORQUESTAT.c **** #if !defined(isr_TORQUESTAT__REMOVED) /* Check for removal by optimization */
  24:.\Generated_Source\PSoC5/isr_TORQUESTAT.c **** 
  25:.\Generated_Source\PSoC5/isr_TORQUESTAT.c **** /*******************************************************************************
  26:.\Generated_Source\PSoC5/isr_TORQUESTAT.c **** *  Place your includes, defines and code here 
ARM GAS  C:\Users\gravi\AppData\Local\Temp\ccgBIGBX.s 			page 2


  27:.\Generated_Source\PSoC5/isr_TORQUESTAT.c **** ********************************************************************************/
  28:.\Generated_Source\PSoC5/isr_TORQUESTAT.c **** /* `#START isr_TORQUESTAT_intc` */
  29:.\Generated_Source\PSoC5/isr_TORQUESTAT.c **** #include <gobee.h>
  30:.\Generated_Source\PSoC5/isr_TORQUESTAT.c **** #include <statistics.h>
  31:.\Generated_Source\PSoC5/isr_TORQUESTAT.c **** #include <torquestat.h>
  32:.\Generated_Source\PSoC5/isr_TORQUESTAT.c **** 
  33:.\Generated_Source\PSoC5/isr_TORQUESTAT.c **** /* extern Feedback Encoder structure */
  34:.\Generated_Source\PSoC5/isr_TORQUESTAT.c **** extern struct ENCODER pan_feedback_encoder;  	/* PAN Feedback Encoder Parameters & RT Datas	*/
  35:.\Generated_Source\PSoC5/isr_TORQUESTAT.c **** extern struct ENCODER tilt_feedback_encoder; 	/* TILT Feedback Encoder Parameters & RT Datas	*/
  36:.\Generated_Source\PSoC5/isr_TORQUESTAT.c **** 
  37:.\Generated_Source\PSoC5/isr_TORQUESTAT.c **** /* extern MOTOR AXIS STRUCTURES */
  38:.\Generated_Source\PSoC5/isr_TORQUESTAT.c **** extern struct MOTOR_AXIS pan_axis;				/* PAN  Motor Axis Parameters & RT Datas		*/
  39:.\Generated_Source\PSoC5/isr_TORQUESTAT.c **** extern struct MOTOR_AXIS tilt_axis;				/* TILT Motor Axis Parameters & RT Datas		*/
  40:.\Generated_Source\PSoC5/isr_TORQUESTAT.c **** 	
  41:.\Generated_Source\PSoC5/isr_TORQUESTAT.c **** /* extern axis TORQUE Estimator	*/
  42:.\Generated_Source\PSoC5/isr_TORQUESTAT.c **** struct TORQUESTAT pan_torque_stat;				/* PAN  Torque Statistics Real Time Datas  	  	*/
  43:.\Generated_Source\PSoC5/isr_TORQUESTAT.c **** struct TORQUESTAT tilt_torque_stat;				/* TILT Torque Statistics Real Time Datas		*/	
  44:.\Generated_Source\PSoC5/isr_TORQUESTAT.c **** 
  45:.\Generated_Source\PSoC5/isr_TORQUESTAT.c **** /* extern axis current and power STATISTICS	*/
  46:.\Generated_Source\PSoC5/isr_TORQUESTAT.c **** extern struct STATISTICS pan_current_stat;		/* PAN  Current  Statistic    [A]           (Motor Torq
  47:.\Generated_Source\PSoC5/isr_TORQUESTAT.c **** extern struct STATISTICS pan_qpower_stat;		/* PAN  quasi-power Statistic [A * rad/sec] (Motor Power
  48:.\Generated_Source\PSoC5/isr_TORQUESTAT.c **** extern struct STATISTICS tilt_current_stat;		/* TILT Current  Statistic    [A]           (Motor Tor
  49:.\Generated_Source\PSoC5/isr_TORQUESTAT.c **** extern struct STATISTICS tilt_qpower_stat;		/* TILT quasi-power Statistic [A * rad/sec] (Motor Powe
  50:.\Generated_Source\PSoC5/isr_TORQUESTAT.c **** 	
  51:.\Generated_Source\PSoC5/isr_TORQUESTAT.c **** /* Local Wars */
  52:.\Generated_Source\PSoC5/isr_TORQUESTAT.c **** float pan_abs_motor_velocity;		/* Pan  Motor abs(velocity(t)) calculated @ 3.125Hz sampling rate	*/
  53:.\Generated_Source\PSoC5/isr_TORQUESTAT.c **** float tilt_abs_motor_velocity;		/* Tilt Motor abs(velocity(t)) calculated @ 3.125Hz sampling rate	*
  54:.\Generated_Source\PSoC5/isr_TORQUESTAT.c **** 	
  55:.\Generated_Source\PSoC5/isr_TORQUESTAT.c **** /* `#END` */
  56:.\Generated_Source\PSoC5/isr_TORQUESTAT.c **** 
  57:.\Generated_Source\PSoC5/isr_TORQUESTAT.c **** #ifndef CYINT_IRQ_BASE
  58:.\Generated_Source\PSoC5/isr_TORQUESTAT.c **** #define CYINT_IRQ_BASE      16
  59:.\Generated_Source\PSoC5/isr_TORQUESTAT.c **** #endif /* CYINT_IRQ_BASE */
  60:.\Generated_Source\PSoC5/isr_TORQUESTAT.c **** #ifndef CYINT_VECT_TABLE
  61:.\Generated_Source\PSoC5/isr_TORQUESTAT.c **** #define CYINT_VECT_TABLE    ((cyisraddress **) CYREG_NVIC_VECT_OFFSET)
  62:.\Generated_Source\PSoC5/isr_TORQUESTAT.c **** #endif /* CYINT_VECT_TABLE */
  63:.\Generated_Source\PSoC5/isr_TORQUESTAT.c **** 
  64:.\Generated_Source\PSoC5/isr_TORQUESTAT.c **** /* Declared in startup, used to set unused interrupts to. */
  65:.\Generated_Source\PSoC5/isr_TORQUESTAT.c **** CY_ISR_PROTO(IntDefaultHandler);
  66:.\Generated_Source\PSoC5/isr_TORQUESTAT.c **** 
  67:.\Generated_Source\PSoC5/isr_TORQUESTAT.c **** 
  68:.\Generated_Source\PSoC5/isr_TORQUESTAT.c **** /*******************************************************************************
  69:.\Generated_Source\PSoC5/isr_TORQUESTAT.c **** * Function Name: isr_TORQUESTAT_Start
  70:.\Generated_Source\PSoC5/isr_TORQUESTAT.c **** ********************************************************************************
  71:.\Generated_Source\PSoC5/isr_TORQUESTAT.c **** *
  72:.\Generated_Source\PSoC5/isr_TORQUESTAT.c **** * Summary:
  73:.\Generated_Source\PSoC5/isr_TORQUESTAT.c **** *  Set up the interrupt and enable it.
  74:.\Generated_Source\PSoC5/isr_TORQUESTAT.c **** *
  75:.\Generated_Source\PSoC5/isr_TORQUESTAT.c **** * Parameters:  
  76:.\Generated_Source\PSoC5/isr_TORQUESTAT.c **** *   None
  77:.\Generated_Source\PSoC5/isr_TORQUESTAT.c **** *
  78:.\Generated_Source\PSoC5/isr_TORQUESTAT.c **** * Return:
  79:.\Generated_Source\PSoC5/isr_TORQUESTAT.c **** *   None
  80:.\Generated_Source\PSoC5/isr_TORQUESTAT.c **** *
  81:.\Generated_Source\PSoC5/isr_TORQUESTAT.c **** *******************************************************************************/
  82:.\Generated_Source\PSoC5/isr_TORQUESTAT.c **** void isr_TORQUESTAT_Start(void)
  83:.\Generated_Source\PSoC5/isr_TORQUESTAT.c **** {
ARM GAS  C:\Users\gravi\AppData\Local\Temp\ccgBIGBX.s 			page 3


  32              		.loc 1 83 0
  33              		.cfi_startproc
  34              		@ args = 0, pretend = 0, frame = 0
  35              		@ frame_needed = 1, uses_anonymous_args = 0
  36 0000 80B5     		push	{r7, lr}
  37              	.LCFI0:
  38              		.cfi_def_cfa_offset 8
  39              		.cfi_offset 7, -8
  40              		.cfi_offset 14, -4
  41 0002 00AF     		add	r7, sp, #0
  42              	.LCFI1:
  43              		.cfi_def_cfa_register 7
  84:.\Generated_Source\PSoC5/isr_TORQUESTAT.c ****     /* For all we know the interrupt is active. */
  85:.\Generated_Source\PSoC5/isr_TORQUESTAT.c ****     isr_TORQUESTAT_Disable();
  44              		.loc 1 85 0
  45 0004 FFF7FEFF 		bl	isr_TORQUESTAT_Disable
  86:.\Generated_Source\PSoC5/isr_TORQUESTAT.c **** 
  87:.\Generated_Source\PSoC5/isr_TORQUESTAT.c ****     /* Set the ISR to point to the isr_TORQUESTAT Interrupt. */
  88:.\Generated_Source\PSoC5/isr_TORQUESTAT.c ****     isr_TORQUESTAT_SetVector(&isr_TORQUESTAT_Interrupt);
  46              		.loc 1 88 0
  47 0008 40F20000 		movw	r0, #:lower16:isr_TORQUESTAT_Interrupt
  48 000c C0F20000 		movt	r0, #:upper16:isr_TORQUESTAT_Interrupt
  49 0010 FFF7FEFF 		bl	isr_TORQUESTAT_SetVector
  89:.\Generated_Source\PSoC5/isr_TORQUESTAT.c **** 
  90:.\Generated_Source\PSoC5/isr_TORQUESTAT.c ****     /* Set the priority. */
  91:.\Generated_Source\PSoC5/isr_TORQUESTAT.c ****     isr_TORQUESTAT_SetPriority((uint8)isr_TORQUESTAT_INTC_PRIOR_NUMBER);
  50              		.loc 1 91 0
  51 0014 4FF00700 		mov	r0, #7
  52 0018 FFF7FEFF 		bl	isr_TORQUESTAT_SetPriority
  92:.\Generated_Source\PSoC5/isr_TORQUESTAT.c **** 
  93:.\Generated_Source\PSoC5/isr_TORQUESTAT.c ****     /* Enable it. */
  94:.\Generated_Source\PSoC5/isr_TORQUESTAT.c ****     isr_TORQUESTAT_Enable();
  53              		.loc 1 94 0
  54 001c FFF7FEFF 		bl	isr_TORQUESTAT_Enable
  95:.\Generated_Source\PSoC5/isr_TORQUESTAT.c **** }
  55              		.loc 1 95 0
  56 0020 80BD     		pop	{r7, pc}
  57              		.cfi_endproc
  58              	.LFE0:
  59              		.size	isr_TORQUESTAT_Start, .-isr_TORQUESTAT_Start
  60 0022 00BF     		.section	.text.isr_TORQUESTAT_StartEx,"ax",%progbits
  61              		.align	2
  62              		.global	isr_TORQUESTAT_StartEx
  63              		.thumb
  64              		.thumb_func
  65              		.type	isr_TORQUESTAT_StartEx, %function
  66              	isr_TORQUESTAT_StartEx:
  67              	.LFB1:
  96:.\Generated_Source\PSoC5/isr_TORQUESTAT.c **** 
  97:.\Generated_Source\PSoC5/isr_TORQUESTAT.c **** 
  98:.\Generated_Source\PSoC5/isr_TORQUESTAT.c **** /*******************************************************************************
  99:.\Generated_Source\PSoC5/isr_TORQUESTAT.c **** * Function Name: isr_TORQUESTAT_StartEx
 100:.\Generated_Source\PSoC5/isr_TORQUESTAT.c **** ********************************************************************************
 101:.\Generated_Source\PSoC5/isr_TORQUESTAT.c **** *
 102:.\Generated_Source\PSoC5/isr_TORQUESTAT.c **** * Summary:
 103:.\Generated_Source\PSoC5/isr_TORQUESTAT.c **** *  Set up the interrupt and enable it.
 104:.\Generated_Source\PSoC5/isr_TORQUESTAT.c **** *
ARM GAS  C:\Users\gravi\AppData\Local\Temp\ccgBIGBX.s 			page 4


 105:.\Generated_Source\PSoC5/isr_TORQUESTAT.c **** * Parameters:  
 106:.\Generated_Source\PSoC5/isr_TORQUESTAT.c **** *   address: Address of the ISR to set in the interrupt vector table.
 107:.\Generated_Source\PSoC5/isr_TORQUESTAT.c **** *
 108:.\Generated_Source\PSoC5/isr_TORQUESTAT.c **** * Return:
 109:.\Generated_Source\PSoC5/isr_TORQUESTAT.c **** *   None
 110:.\Generated_Source\PSoC5/isr_TORQUESTAT.c **** *
 111:.\Generated_Source\PSoC5/isr_TORQUESTAT.c **** *******************************************************************************/
 112:.\Generated_Source\PSoC5/isr_TORQUESTAT.c **** void isr_TORQUESTAT_StartEx(cyisraddress address)
 113:.\Generated_Source\PSoC5/isr_TORQUESTAT.c **** {
  68              		.loc 1 113 0
  69              		.cfi_startproc
  70              		@ args = 0, pretend = 0, frame = 8
  71              		@ frame_needed = 1, uses_anonymous_args = 0
  72 0000 80B5     		push	{r7, lr}
  73              	.LCFI2:
  74              		.cfi_def_cfa_offset 8
  75              		.cfi_offset 7, -8
  76              		.cfi_offset 14, -4
  77 0002 82B0     		sub	sp, sp, #8
  78              	.LCFI3:
  79              		.cfi_def_cfa_offset 16
  80 0004 00AF     		add	r7, sp, #0
  81              	.LCFI4:
  82              		.cfi_def_cfa_register 7
  83 0006 7860     		str	r0, [r7, #4]
 114:.\Generated_Source\PSoC5/isr_TORQUESTAT.c ****     /* For all we know the interrupt is active. */
 115:.\Generated_Source\PSoC5/isr_TORQUESTAT.c ****     isr_TORQUESTAT_Disable();
  84              		.loc 1 115 0
  85 0008 FFF7FEFF 		bl	isr_TORQUESTAT_Disable
 116:.\Generated_Source\PSoC5/isr_TORQUESTAT.c **** 
 117:.\Generated_Source\PSoC5/isr_TORQUESTAT.c ****     /* Set the ISR to point to the isr_TORQUESTAT Interrupt. */
 118:.\Generated_Source\PSoC5/isr_TORQUESTAT.c ****     isr_TORQUESTAT_SetVector(address);
  86              		.loc 1 118 0
  87 000c 7868     		ldr	r0, [r7, #4]
  88 000e FFF7FEFF 		bl	isr_TORQUESTAT_SetVector
 119:.\Generated_Source\PSoC5/isr_TORQUESTAT.c **** 
 120:.\Generated_Source\PSoC5/isr_TORQUESTAT.c ****     /* Set the priority. */
 121:.\Generated_Source\PSoC5/isr_TORQUESTAT.c ****     isr_TORQUESTAT_SetPriority((uint8)isr_TORQUESTAT_INTC_PRIOR_NUMBER);
  89              		.loc 1 121 0
  90 0012 4FF00700 		mov	r0, #7
  91 0016 FFF7FEFF 		bl	isr_TORQUESTAT_SetPriority
 122:.\Generated_Source\PSoC5/isr_TORQUESTAT.c **** 
 123:.\Generated_Source\PSoC5/isr_TORQUESTAT.c ****     /* Enable it. */
 124:.\Generated_Source\PSoC5/isr_TORQUESTAT.c ****     isr_TORQUESTAT_Enable();
  92              		.loc 1 124 0
  93 001a FFF7FEFF 		bl	isr_TORQUESTAT_Enable
 125:.\Generated_Source\PSoC5/isr_TORQUESTAT.c **** }
  94              		.loc 1 125 0
  95 001e 07F10807 		add	r7, r7, #8
  96 0022 BD46     		mov	sp, r7
  97 0024 80BD     		pop	{r7, pc}
  98              		.cfi_endproc
  99              	.LFE1:
 100              		.size	isr_TORQUESTAT_StartEx, .-isr_TORQUESTAT_StartEx
 101 0026 00BF     		.section	.text.isr_TORQUESTAT_Stop,"ax",%progbits
 102              		.align	2
 103              		.global	isr_TORQUESTAT_Stop
ARM GAS  C:\Users\gravi\AppData\Local\Temp\ccgBIGBX.s 			page 5


 104              		.thumb
 105              		.thumb_func
 106              		.type	isr_TORQUESTAT_Stop, %function
 107              	isr_TORQUESTAT_Stop:
 108              	.LFB2:
 126:.\Generated_Source\PSoC5/isr_TORQUESTAT.c **** 
 127:.\Generated_Source\PSoC5/isr_TORQUESTAT.c **** 
 128:.\Generated_Source\PSoC5/isr_TORQUESTAT.c **** /*******************************************************************************
 129:.\Generated_Source\PSoC5/isr_TORQUESTAT.c **** * Function Name: isr_TORQUESTAT_Stop
 130:.\Generated_Source\PSoC5/isr_TORQUESTAT.c **** ********************************************************************************
 131:.\Generated_Source\PSoC5/isr_TORQUESTAT.c **** *
 132:.\Generated_Source\PSoC5/isr_TORQUESTAT.c **** * Summary:
 133:.\Generated_Source\PSoC5/isr_TORQUESTAT.c **** *   Disables and removes the interrupt.
 134:.\Generated_Source\PSoC5/isr_TORQUESTAT.c **** *
 135:.\Generated_Source\PSoC5/isr_TORQUESTAT.c **** * Parameters:  
 136:.\Generated_Source\PSoC5/isr_TORQUESTAT.c **** *
 137:.\Generated_Source\PSoC5/isr_TORQUESTAT.c **** * Return:
 138:.\Generated_Source\PSoC5/isr_TORQUESTAT.c **** *   None
 139:.\Generated_Source\PSoC5/isr_TORQUESTAT.c **** *
 140:.\Generated_Source\PSoC5/isr_TORQUESTAT.c **** *******************************************************************************/
 141:.\Generated_Source\PSoC5/isr_TORQUESTAT.c **** void isr_TORQUESTAT_Stop(void)
 142:.\Generated_Source\PSoC5/isr_TORQUESTAT.c **** {
 109              		.loc 1 142 0
 110              		.cfi_startproc
 111              		@ args = 0, pretend = 0, frame = 0
 112              		@ frame_needed = 1, uses_anonymous_args = 0
 113 0000 80B5     		push	{r7, lr}
 114              	.LCFI5:
 115              		.cfi_def_cfa_offset 8
 116              		.cfi_offset 7, -8
 117              		.cfi_offset 14, -4
 118 0002 00AF     		add	r7, sp, #0
 119              	.LCFI6:
 120              		.cfi_def_cfa_register 7
 143:.\Generated_Source\PSoC5/isr_TORQUESTAT.c ****     /* Disable this interrupt. */
 144:.\Generated_Source\PSoC5/isr_TORQUESTAT.c ****     isr_TORQUESTAT_Disable();
 121              		.loc 1 144 0
 122 0004 FFF7FEFF 		bl	isr_TORQUESTAT_Disable
 145:.\Generated_Source\PSoC5/isr_TORQUESTAT.c **** 
 146:.\Generated_Source\PSoC5/isr_TORQUESTAT.c ****     /* Set the ISR to point to the passive one. */
 147:.\Generated_Source\PSoC5/isr_TORQUESTAT.c ****     isr_TORQUESTAT_SetVector(&IntDefaultHandler);
 123              		.loc 1 147 0
 124 0008 40F20000 		movw	r0, #:lower16:IntDefaultHandler
 125 000c C0F20000 		movt	r0, #:upper16:IntDefaultHandler
 126 0010 FFF7FEFF 		bl	isr_TORQUESTAT_SetVector
 148:.\Generated_Source\PSoC5/isr_TORQUESTAT.c **** }
 127              		.loc 1 148 0
 128 0014 80BD     		pop	{r7, pc}
 129              		.cfi_endproc
 130              	.LFE2:
 131              		.size	isr_TORQUESTAT_Stop, .-isr_TORQUESTAT_Stop
 132 0016 00BF     		.section	.text.isr_TORQUESTAT_Interrupt,"ax",%progbits
 133              		.align	2
 134              		.global	isr_TORQUESTAT_Interrupt
 135              		.thumb
 136              		.thumb_func
 137              		.type	isr_TORQUESTAT_Interrupt, %function
ARM GAS  C:\Users\gravi\AppData\Local\Temp\ccgBIGBX.s 			page 6


 138              	isr_TORQUESTAT_Interrupt:
 139              	.LFB3:
 149:.\Generated_Source\PSoC5/isr_TORQUESTAT.c **** 
 150:.\Generated_Source\PSoC5/isr_TORQUESTAT.c **** 
 151:.\Generated_Source\PSoC5/isr_TORQUESTAT.c **** /*******************************************************************************
 152:.\Generated_Source\PSoC5/isr_TORQUESTAT.c **** * Function Name: isr_TORQUESTAT_Interrupt
 153:.\Generated_Source\PSoC5/isr_TORQUESTAT.c **** ********************************************************************************
 154:.\Generated_Source\PSoC5/isr_TORQUESTAT.c **** *
 155:.\Generated_Source\PSoC5/isr_TORQUESTAT.c **** * Summary:
 156:.\Generated_Source\PSoC5/isr_TORQUESTAT.c **** *   The default Interrupt Service Routine for isr_TORQUESTAT.
 157:.\Generated_Source\PSoC5/isr_TORQUESTAT.c **** *
 158:.\Generated_Source\PSoC5/isr_TORQUESTAT.c **** *   Add custom code between the coments to keep the next version of this file
 159:.\Generated_Source\PSoC5/isr_TORQUESTAT.c **** *   from over writting your code.
 160:.\Generated_Source\PSoC5/isr_TORQUESTAT.c **** *
 161:.\Generated_Source\PSoC5/isr_TORQUESTAT.c **** * Parameters:  
 162:.\Generated_Source\PSoC5/isr_TORQUESTAT.c **** *
 163:.\Generated_Source\PSoC5/isr_TORQUESTAT.c **** * Return:
 164:.\Generated_Source\PSoC5/isr_TORQUESTAT.c **** *   None
 165:.\Generated_Source\PSoC5/isr_TORQUESTAT.c **** *
 166:.\Generated_Source\PSoC5/isr_TORQUESTAT.c **** *******************************************************************************/
 167:.\Generated_Source\PSoC5/isr_TORQUESTAT.c **** CY_ISR(isr_TORQUESTAT_Interrupt)
 168:.\Generated_Source\PSoC5/isr_TORQUESTAT.c **** {
 140              		.loc 1 168 0
 141              		.cfi_startproc
 142              		@ args = 0, pretend = 0, frame = 0
 143              		@ frame_needed = 1, uses_anonymous_args = 0
 144 0000 80B5     		push	{r7, lr}
 145              	.LCFI7:
 146              		.cfi_def_cfa_offset 8
 147              		.cfi_offset 7, -8
 148              		.cfi_offset 14, -4
 149 0002 00AF     		add	r7, sp, #0
 150              	.LCFI8:
 151              		.cfi_def_cfa_register 7
 169:.\Generated_Source\PSoC5/isr_TORQUESTAT.c ****     /*  Place your Interrupt code here. */
 170:.\Generated_Source\PSoC5/isr_TORQUESTAT.c ****     /* `#START isr_TORQUESTAT_Interrupt` */
 171:.\Generated_Source\PSoC5/isr_TORQUESTAT.c **** 	
 172:.\Generated_Source\PSoC5/isr_TORQUESTAT.c **** 	/********************************************************************/
 173:.\Generated_Source\PSoC5/isr_TORQUESTAT.c **** 	/* Calculates Pan&Tilt motor abs(velocity) (3.125Hz mean value)		*/
 174:.\Generated_Source\PSoC5/isr_TORQUESTAT.c **** 	/********************************************************************/	
 175:.\Generated_Source\PSoC5/isr_TORQUESTAT.c **** 	pan_abs_motor_velocity  = motor_abs_velocity_sampling(&pan_torque_stat,  pan_axis.mc.slave_enc.pos
 152              		.loc 1 175 0
 153 0004 40F20003 		movw	r3, #:lower16:pan_axis
 154 0008 C0F20003 		movt	r3, #:upper16:pan_axis
 155 000c 5B6C     		ldr	r3, [r3, #68]
 156 000e 40F20000 		movw	r0, #:lower16:pan_torque_stat
 157 0012 C0F20000 		movt	r0, #:upper16:pan_torque_stat
 158 0016 1946     		mov	r1, r3
 159 0018 FFF7FEFF 		bl	motor_abs_velocity_sampling
 160 001c 0246     		mov	r2, r0
 161 001e 40F20003 		movw	r3, #:lower16:pan_abs_motor_velocity
 162 0022 C0F20003 		movt	r3, #:upper16:pan_abs_motor_velocity
 163 0026 1A60     		str	r2, [r3, #0]	@ float
 176:.\Generated_Source\PSoC5/isr_TORQUESTAT.c **** 	tilt_abs_motor_velocity = motor_abs_velocity_sampling(&tilt_torque_stat, tilt_axis.mc.slave_enc.po
 164              		.loc 1 176 0
 165 0028 40F20003 		movw	r3, #:lower16:tilt_axis
 166 002c C0F20003 		movt	r3, #:upper16:tilt_axis
ARM GAS  C:\Users\gravi\AppData\Local\Temp\ccgBIGBX.s 			page 7


 167 0030 5B6C     		ldr	r3, [r3, #68]
 168 0032 40F20000 		movw	r0, #:lower16:tilt_torque_stat
 169 0036 C0F20000 		movt	r0, #:upper16:tilt_torque_stat
 170 003a 1946     		mov	r1, r3
 171 003c FFF7FEFF 		bl	motor_abs_velocity_sampling
 172 0040 0246     		mov	r2, r0
 173 0042 40F20003 		movw	r3, #:lower16:tilt_abs_motor_velocity
 174 0046 C0F20003 		movt	r3, #:upper16:tilt_abs_motor_velocity
 175 004a 1A60     		str	r2, [r3, #0]	@ float
 177:.\Generated_Source\PSoC5/isr_TORQUESTAT.c **** 
 178:.\Generated_Source\PSoC5/isr_TORQUESTAT.c **** 	/********************************************************************/
 179:.\Generated_Source\PSoC5/isr_TORQUESTAT.c **** 	/* Elaborate Pan&Tilt statistics of the current (i(t))				*/
 180:.\Generated_Source\PSoC5/isr_TORQUESTAT.c **** 	/********************************************************************/
 181:.\Generated_Source\PSoC5/isr_TORQUESTAT.c **** 	current_statistics_elab_step(&pan_torque_stat,  &pan_current_stat,  pan_axis.mc.current);
 176              		.loc 1 181 0
 177 004c 40F20003 		movw	r3, #:lower16:pan_axis
 178 0050 C0F20003 		movt	r3, #:upper16:pan_axis
 179 0054 9B6F     		ldr	r3, [r3, #120]	@ float
 180 0056 40F20000 		movw	r0, #:lower16:pan_torque_stat
 181 005a C0F20000 		movt	r0, #:upper16:pan_torque_stat
 182 005e 40F20001 		movw	r1, #:lower16:pan_current_stat
 183 0062 C0F20001 		movt	r1, #:upper16:pan_current_stat
 184 0066 1A46     		mov	r2, r3
 185 0068 FFF7FEFF 		bl	current_statistics_elab_step
 182:.\Generated_Source\PSoC5/isr_TORQUESTAT.c **** 	current_statistics_elab_step(&tilt_torque_stat, &tilt_current_stat, tilt_axis.mc.current);
 186              		.loc 1 182 0
 187 006c 40F20003 		movw	r3, #:lower16:tilt_axis
 188 0070 C0F20003 		movt	r3, #:upper16:tilt_axis
 189 0074 9B6F     		ldr	r3, [r3, #120]	@ float
 190 0076 40F20000 		movw	r0, #:lower16:tilt_torque_stat
 191 007a C0F20000 		movt	r0, #:upper16:tilt_torque_stat
 192 007e 40F20001 		movw	r1, #:lower16:tilt_current_stat
 193 0082 C0F20001 		movt	r1, #:upper16:tilt_current_stat
 194 0086 1A46     		mov	r2, r3
 195 0088 FFF7FEFF 		bl	current_statistics_elab_step
 183:.\Generated_Source\PSoC5/isr_TORQUESTAT.c **** 	
 184:.\Generated_Source\PSoC5/isr_TORQUESTAT.c **** 	/********************************************************************/	
 185:.\Generated_Source\PSoC5/isr_TORQUESTAT.c **** 	/* Elaborate Pan&Tilt statistics of the quasi-power [A * rad/sec]	*/
 186:.\Generated_Source\PSoC5/isr_TORQUESTAT.c **** 	/********************************************************************/
 187:.\Generated_Source\PSoC5/isr_TORQUESTAT.c **** 	qpower_statistics_elab_step(&pan_torque_stat,  &pan_qpower_stat,  pan_axis.mc.current,  pan_abs_mo
 196              		.loc 1 187 0
 197 008c 40F20003 		movw	r3, #:lower16:pan_axis
 198 0090 C0F20003 		movt	r3, #:upper16:pan_axis
 199 0094 9A6F     		ldr	r2, [r3, #120]	@ float
 200 0096 40F20003 		movw	r3, #:lower16:pan_abs_motor_velocity
 201 009a C0F20003 		movt	r3, #:upper16:pan_abs_motor_velocity
 202 009e 1B68     		ldr	r3, [r3, #0]	@ float
 203 00a0 40F20000 		movw	r0, #:lower16:pan_torque_stat
 204 00a4 C0F20000 		movt	r0, #:upper16:pan_torque_stat
 205 00a8 40F20001 		movw	r1, #:lower16:pan_qpower_stat
 206 00ac C0F20001 		movt	r1, #:upper16:pan_qpower_stat
 207 00b0 FFF7FEFF 		bl	qpower_statistics_elab_step
 188:.\Generated_Source\PSoC5/isr_TORQUESTAT.c **** 	qpower_statistics_elab_step(&tilt_torque_stat, &tilt_qpower_stat, tilt_axis.mc.current, tilt_abs_m
 208              		.loc 1 188 0
 209 00b4 40F20003 		movw	r3, #:lower16:tilt_axis
 210 00b8 C0F20003 		movt	r3, #:upper16:tilt_axis
 211 00bc 9A6F     		ldr	r2, [r3, #120]	@ float
ARM GAS  C:\Users\gravi\AppData\Local\Temp\ccgBIGBX.s 			page 8


 212 00be 40F20003 		movw	r3, #:lower16:tilt_abs_motor_velocity
 213 00c2 C0F20003 		movt	r3, #:upper16:tilt_abs_motor_velocity
 214 00c6 1B68     		ldr	r3, [r3, #0]	@ float
 215 00c8 40F20000 		movw	r0, #:lower16:tilt_torque_stat
 216 00cc C0F20000 		movt	r0, #:upper16:tilt_torque_stat
 217 00d0 40F20001 		movw	r1, #:lower16:tilt_qpower_stat
 218 00d4 C0F20001 		movt	r1, #:upper16:tilt_qpower_stat
 219 00d8 FFF7FEFF 		bl	qpower_statistics_elab_step
 189:.\Generated_Source\PSoC5/isr_TORQUESTAT.c **** 
 190:.\Generated_Source\PSoC5/isr_TORQUESTAT.c ****     /* `#END` */
 191:.\Generated_Source\PSoC5/isr_TORQUESTAT.c **** }
 220              		.loc 1 191 0
 221 00dc 80BD     		pop	{r7, pc}
 222              		.cfi_endproc
 223              	.LFE3:
 224              		.size	isr_TORQUESTAT_Interrupt, .-isr_TORQUESTAT_Interrupt
 225 00de 00BF     		.section	.text.isr_TORQUESTAT_SetVector,"ax",%progbits
 226              		.align	2
 227              		.global	isr_TORQUESTAT_SetVector
 228              		.thumb
 229              		.thumb_func
 230              		.type	isr_TORQUESTAT_SetVector, %function
 231              	isr_TORQUESTAT_SetVector:
 232              	.LFB4:
 192:.\Generated_Source\PSoC5/isr_TORQUESTAT.c **** 
 193:.\Generated_Source\PSoC5/isr_TORQUESTAT.c **** 
 194:.\Generated_Source\PSoC5/isr_TORQUESTAT.c **** /*******************************************************************************
 195:.\Generated_Source\PSoC5/isr_TORQUESTAT.c **** * Function Name: isr_TORQUESTAT_SetVector
 196:.\Generated_Source\PSoC5/isr_TORQUESTAT.c **** ********************************************************************************
 197:.\Generated_Source\PSoC5/isr_TORQUESTAT.c **** *
 198:.\Generated_Source\PSoC5/isr_TORQUESTAT.c **** * Summary:
 199:.\Generated_Source\PSoC5/isr_TORQUESTAT.c **** *   Change the ISR vector for the Interrupt. Note calling isr_TORQUESTAT_Start
 200:.\Generated_Source\PSoC5/isr_TORQUESTAT.c **** *   will override any effect this method would have had. To set the vector 
 201:.\Generated_Source\PSoC5/isr_TORQUESTAT.c **** *   before the component has been started use isr_TORQUESTAT_StartEx instead.
 202:.\Generated_Source\PSoC5/isr_TORQUESTAT.c **** *
 203:.\Generated_Source\PSoC5/isr_TORQUESTAT.c **** * Parameters:
 204:.\Generated_Source\PSoC5/isr_TORQUESTAT.c **** *   address: Address of the ISR to set in the interrupt vector table.
 205:.\Generated_Source\PSoC5/isr_TORQUESTAT.c **** *
 206:.\Generated_Source\PSoC5/isr_TORQUESTAT.c **** * Return:
 207:.\Generated_Source\PSoC5/isr_TORQUESTAT.c **** *   None
 208:.\Generated_Source\PSoC5/isr_TORQUESTAT.c **** *
 209:.\Generated_Source\PSoC5/isr_TORQUESTAT.c **** *******************************************************************************/
 210:.\Generated_Source\PSoC5/isr_TORQUESTAT.c **** void isr_TORQUESTAT_SetVector(cyisraddress address)
 211:.\Generated_Source\PSoC5/isr_TORQUESTAT.c **** {
 233              		.loc 1 211 0
 234              		.cfi_startproc
 235              		@ args = 0, pretend = 0, frame = 16
 236              		@ frame_needed = 1, uses_anonymous_args = 0
 237              		@ link register save eliminated.
 238 0000 80B4     		push	{r7}
 239              	.LCFI9:
 240              		.cfi_def_cfa_offset 4
 241              		.cfi_offset 7, -4
 242 0002 85B0     		sub	sp, sp, #20
 243              	.LCFI10:
 244              		.cfi_def_cfa_offset 24
 245 0004 00AF     		add	r7, sp, #0
ARM GAS  C:\Users\gravi\AppData\Local\Temp\ccgBIGBX.s 			page 9


 246              	.LCFI11:
 247              		.cfi_def_cfa_register 7
 248 0006 7860     		str	r0, [r7, #4]
 212:.\Generated_Source\PSoC5/isr_TORQUESTAT.c ****     cyisraddress * ramVectorTable;
 213:.\Generated_Source\PSoC5/isr_TORQUESTAT.c **** 
 214:.\Generated_Source\PSoC5/isr_TORQUESTAT.c ****     ramVectorTable = (cyisraddress *) *CYINT_VECT_TABLE;
 249              		.loc 1 214 0
 250 0008 4EF60853 		movw	r3, #60680
 251 000c CEF20003 		movt	r3, 57344
 252 0010 1B68     		ldr	r3, [r3, #0]
 253 0012 FB60     		str	r3, [r7, #12]
 215:.\Generated_Source\PSoC5/isr_TORQUESTAT.c **** 
 216:.\Generated_Source\PSoC5/isr_TORQUESTAT.c ****     ramVectorTable[CYINT_IRQ_BASE + (uint32)isr_TORQUESTAT__INTC_NUMBER] = address;
 254              		.loc 1 216 0
 255 0014 FB68     		ldr	r3, [r7, #12]
 256 0016 03F16003 		add	r3, r3, #96
 257 001a 7A68     		ldr	r2, [r7, #4]
 258 001c 1A60     		str	r2, [r3, #0]
 217:.\Generated_Source\PSoC5/isr_TORQUESTAT.c **** }
 259              		.loc 1 217 0
 260 001e 07F11407 		add	r7, r7, #20
 261 0022 BD46     		mov	sp, r7
 262 0024 80BC     		pop	{r7}
 263 0026 7047     		bx	lr
 264              		.cfi_endproc
 265              	.LFE4:
 266              		.size	isr_TORQUESTAT_SetVector, .-isr_TORQUESTAT_SetVector
 267              		.section	.text.isr_TORQUESTAT_GetVector,"ax",%progbits
 268              		.align	2
 269              		.global	isr_TORQUESTAT_GetVector
 270              		.thumb
 271              		.thumb_func
 272              		.type	isr_TORQUESTAT_GetVector, %function
 273              	isr_TORQUESTAT_GetVector:
 274              	.LFB5:
 218:.\Generated_Source\PSoC5/isr_TORQUESTAT.c **** 
 219:.\Generated_Source\PSoC5/isr_TORQUESTAT.c **** 
 220:.\Generated_Source\PSoC5/isr_TORQUESTAT.c **** /*******************************************************************************
 221:.\Generated_Source\PSoC5/isr_TORQUESTAT.c **** * Function Name: isr_TORQUESTAT_GetVector
 222:.\Generated_Source\PSoC5/isr_TORQUESTAT.c **** ********************************************************************************
 223:.\Generated_Source\PSoC5/isr_TORQUESTAT.c **** *
 224:.\Generated_Source\PSoC5/isr_TORQUESTAT.c **** * Summary:
 225:.\Generated_Source\PSoC5/isr_TORQUESTAT.c **** *   Gets the "address" of the current ISR vector for the Interrupt.
 226:.\Generated_Source\PSoC5/isr_TORQUESTAT.c **** *
 227:.\Generated_Source\PSoC5/isr_TORQUESTAT.c **** * Parameters:
 228:.\Generated_Source\PSoC5/isr_TORQUESTAT.c **** *   None
 229:.\Generated_Source\PSoC5/isr_TORQUESTAT.c **** *
 230:.\Generated_Source\PSoC5/isr_TORQUESTAT.c **** * Return:
 231:.\Generated_Source\PSoC5/isr_TORQUESTAT.c **** *   Address of the ISR in the interrupt vector table.
 232:.\Generated_Source\PSoC5/isr_TORQUESTAT.c **** *
 233:.\Generated_Source\PSoC5/isr_TORQUESTAT.c **** *******************************************************************************/
 234:.\Generated_Source\PSoC5/isr_TORQUESTAT.c **** cyisraddress isr_TORQUESTAT_GetVector(void)
 235:.\Generated_Source\PSoC5/isr_TORQUESTAT.c **** {
 275              		.loc 1 235 0
 276              		.cfi_startproc
 277              		@ args = 0, pretend = 0, frame = 8
 278              		@ frame_needed = 1, uses_anonymous_args = 0
ARM GAS  C:\Users\gravi\AppData\Local\Temp\ccgBIGBX.s 			page 10


 279              		@ link register save eliminated.
 280 0000 80B4     		push	{r7}
 281              	.LCFI12:
 282              		.cfi_def_cfa_offset 4
 283              		.cfi_offset 7, -4
 284 0002 83B0     		sub	sp, sp, #12
 285              	.LCFI13:
 286              		.cfi_def_cfa_offset 16
 287 0004 00AF     		add	r7, sp, #0
 288              	.LCFI14:
 289              		.cfi_def_cfa_register 7
 236:.\Generated_Source\PSoC5/isr_TORQUESTAT.c ****     cyisraddress * ramVectorTable;
 237:.\Generated_Source\PSoC5/isr_TORQUESTAT.c **** 
 238:.\Generated_Source\PSoC5/isr_TORQUESTAT.c ****     ramVectorTable = (cyisraddress *) *CYINT_VECT_TABLE;
 290              		.loc 1 238 0
 291 0006 4EF60853 		movw	r3, #60680
 292 000a CEF20003 		movt	r3, 57344
 293 000e 1B68     		ldr	r3, [r3, #0]
 294 0010 7B60     		str	r3, [r7, #4]
 239:.\Generated_Source\PSoC5/isr_TORQUESTAT.c **** 
 240:.\Generated_Source\PSoC5/isr_TORQUESTAT.c ****     return ramVectorTable[CYINT_IRQ_BASE + (uint32)isr_TORQUESTAT__INTC_NUMBER];
 295              		.loc 1 240 0
 296 0012 7B68     		ldr	r3, [r7, #4]
 297 0014 1B6E     		ldr	r3, [r3, #96]
 241:.\Generated_Source\PSoC5/isr_TORQUESTAT.c **** }
 298              		.loc 1 241 0
 299 0016 1846     		mov	r0, r3
 300 0018 07F10C07 		add	r7, r7, #12
 301 001c BD46     		mov	sp, r7
 302 001e 80BC     		pop	{r7}
 303 0020 7047     		bx	lr
 304              		.cfi_endproc
 305              	.LFE5:
 306              		.size	isr_TORQUESTAT_GetVector, .-isr_TORQUESTAT_GetVector
 307 0022 00BF     		.section	.text.isr_TORQUESTAT_SetPriority,"ax",%progbits
 308              		.align	2
 309              		.global	isr_TORQUESTAT_SetPriority
 310              		.thumb
 311              		.thumb_func
 312              		.type	isr_TORQUESTAT_SetPriority, %function
 313              	isr_TORQUESTAT_SetPriority:
 314              	.LFB6:
 242:.\Generated_Source\PSoC5/isr_TORQUESTAT.c **** 
 243:.\Generated_Source\PSoC5/isr_TORQUESTAT.c **** 
 244:.\Generated_Source\PSoC5/isr_TORQUESTAT.c **** /*******************************************************************************
 245:.\Generated_Source\PSoC5/isr_TORQUESTAT.c **** * Function Name: isr_TORQUESTAT_SetPriority
 246:.\Generated_Source\PSoC5/isr_TORQUESTAT.c **** ********************************************************************************
 247:.\Generated_Source\PSoC5/isr_TORQUESTAT.c **** *
 248:.\Generated_Source\PSoC5/isr_TORQUESTAT.c **** * Summary:
 249:.\Generated_Source\PSoC5/isr_TORQUESTAT.c **** *   Sets the Priority of the Interrupt. Note calling isr_TORQUESTAT_Start
 250:.\Generated_Source\PSoC5/isr_TORQUESTAT.c **** *   or isr_TORQUESTAT_StartEx will override any effect this method 
 251:.\Generated_Source\PSoC5/isr_TORQUESTAT.c **** *   would have had. This method should only be called after 
 252:.\Generated_Source\PSoC5/isr_TORQUESTAT.c **** *   isr_TORQUESTAT_Start or isr_TORQUESTAT_StartEx has been called. To set 
 253:.\Generated_Source\PSoC5/isr_TORQUESTAT.c **** *   the initial priority for the component use the cydwr file in the tool.
 254:.\Generated_Source\PSoC5/isr_TORQUESTAT.c **** *
 255:.\Generated_Source\PSoC5/isr_TORQUESTAT.c **** * Parameters:
 256:.\Generated_Source\PSoC5/isr_TORQUESTAT.c **** *   priority: Priority of the interrupt. 0 - 7, 0 being the highest.
ARM GAS  C:\Users\gravi\AppData\Local\Temp\ccgBIGBX.s 			page 11


 257:.\Generated_Source\PSoC5/isr_TORQUESTAT.c **** *
 258:.\Generated_Source\PSoC5/isr_TORQUESTAT.c **** * Return:
 259:.\Generated_Source\PSoC5/isr_TORQUESTAT.c **** *   None
 260:.\Generated_Source\PSoC5/isr_TORQUESTAT.c **** *
 261:.\Generated_Source\PSoC5/isr_TORQUESTAT.c **** *******************************************************************************/
 262:.\Generated_Source\PSoC5/isr_TORQUESTAT.c **** void isr_TORQUESTAT_SetPriority(uint8 priority)
 263:.\Generated_Source\PSoC5/isr_TORQUESTAT.c **** {
 315              		.loc 1 263 0
 316              		.cfi_startproc
 317              		@ args = 0, pretend = 0, frame = 8
 318              		@ frame_needed = 1, uses_anonymous_args = 0
 319              		@ link register save eliminated.
 320 0000 80B4     		push	{r7}
 321              	.LCFI15:
 322              		.cfi_def_cfa_offset 4
 323              		.cfi_offset 7, -4
 324 0002 83B0     		sub	sp, sp, #12
 325              	.LCFI16:
 326              		.cfi_def_cfa_offset 16
 327 0004 00AF     		add	r7, sp, #0
 328              	.LCFI17:
 329              		.cfi_def_cfa_register 7
 330 0006 0346     		mov	r3, r0
 331 0008 FB71     		strb	r3, [r7, #7]
 264:.\Generated_Source\PSoC5/isr_TORQUESTAT.c ****     *isr_TORQUESTAT_INTC_PRIOR = priority << 5;
 332              		.loc 1 264 0
 333 000a 4EF20843 		movw	r3, #58376
 334 000e CEF20003 		movt	r3, 57344
 335 0012 FA79     		ldrb	r2, [r7, #7]
 336 0014 4FEA4212 		lsl	r2, r2, #5
 337 0018 D2B2     		uxtb	r2, r2
 338 001a 1A70     		strb	r2, [r3, #0]
 265:.\Generated_Source\PSoC5/isr_TORQUESTAT.c **** }
 339              		.loc 1 265 0
 340 001c 07F10C07 		add	r7, r7, #12
 341 0020 BD46     		mov	sp, r7
 342 0022 80BC     		pop	{r7}
 343 0024 7047     		bx	lr
 344              		.cfi_endproc
 345              	.LFE6:
 346              		.size	isr_TORQUESTAT_SetPriority, .-isr_TORQUESTAT_SetPriority
 347 0026 00BF     		.section	.text.isr_TORQUESTAT_GetPriority,"ax",%progbits
 348              		.align	2
 349              		.global	isr_TORQUESTAT_GetPriority
 350              		.thumb
 351              		.thumb_func
 352              		.type	isr_TORQUESTAT_GetPriority, %function
 353              	isr_TORQUESTAT_GetPriority:
 354              	.LFB7:
 266:.\Generated_Source\PSoC5/isr_TORQUESTAT.c **** 
 267:.\Generated_Source\PSoC5/isr_TORQUESTAT.c **** 
 268:.\Generated_Source\PSoC5/isr_TORQUESTAT.c **** /*******************************************************************************
 269:.\Generated_Source\PSoC5/isr_TORQUESTAT.c **** * Function Name: isr_TORQUESTAT_GetPriority
 270:.\Generated_Source\PSoC5/isr_TORQUESTAT.c **** ********************************************************************************
 271:.\Generated_Source\PSoC5/isr_TORQUESTAT.c **** *
 272:.\Generated_Source\PSoC5/isr_TORQUESTAT.c **** * Summary:
 273:.\Generated_Source\PSoC5/isr_TORQUESTAT.c **** *   Gets the Priority of the Interrupt.
ARM GAS  C:\Users\gravi\AppData\Local\Temp\ccgBIGBX.s 			page 12


 274:.\Generated_Source\PSoC5/isr_TORQUESTAT.c **** *
 275:.\Generated_Source\PSoC5/isr_TORQUESTAT.c **** * Parameters:
 276:.\Generated_Source\PSoC5/isr_TORQUESTAT.c **** *   None
 277:.\Generated_Source\PSoC5/isr_TORQUESTAT.c **** *
 278:.\Generated_Source\PSoC5/isr_TORQUESTAT.c **** * Return:
 279:.\Generated_Source\PSoC5/isr_TORQUESTAT.c **** *   Priority of the interrupt. 0 - 7, 0 being the highest.
 280:.\Generated_Source\PSoC5/isr_TORQUESTAT.c **** *
 281:.\Generated_Source\PSoC5/isr_TORQUESTAT.c **** *******************************************************************************/
 282:.\Generated_Source\PSoC5/isr_TORQUESTAT.c **** uint8 isr_TORQUESTAT_GetPriority(void)
 283:.\Generated_Source\PSoC5/isr_TORQUESTAT.c **** {
 355              		.loc 1 283 0
 356              		.cfi_startproc
 357              		@ args = 0, pretend = 0, frame = 8
 358              		@ frame_needed = 1, uses_anonymous_args = 0
 359              		@ link register save eliminated.
 360 0000 80B4     		push	{r7}
 361              	.LCFI18:
 362              		.cfi_def_cfa_offset 4
 363              		.cfi_offset 7, -4
 364 0002 83B0     		sub	sp, sp, #12
 365              	.LCFI19:
 366              		.cfi_def_cfa_offset 16
 367 0004 00AF     		add	r7, sp, #0
 368              	.LCFI20:
 369              		.cfi_def_cfa_register 7
 284:.\Generated_Source\PSoC5/isr_TORQUESTAT.c ****     uint8 priority;
 285:.\Generated_Source\PSoC5/isr_TORQUESTAT.c **** 
 286:.\Generated_Source\PSoC5/isr_TORQUESTAT.c **** 
 287:.\Generated_Source\PSoC5/isr_TORQUESTAT.c ****     priority = *isr_TORQUESTAT_INTC_PRIOR >> 5;
 370              		.loc 1 287 0
 371 0006 4EF20843 		movw	r3, #58376
 372 000a CEF20003 		movt	r3, 57344
 373 000e 1B78     		ldrb	r3, [r3, #0]
 374 0010 DBB2     		uxtb	r3, r3
 375 0012 4FEA5313 		lsr	r3, r3, #5
 376 0016 FB71     		strb	r3, [r7, #7]
 288:.\Generated_Source\PSoC5/isr_TORQUESTAT.c **** 
 289:.\Generated_Source\PSoC5/isr_TORQUESTAT.c ****     return priority;
 377              		.loc 1 289 0
 378 0018 FB79     		ldrb	r3, [r7, #7]	@ zero_extendqisi2
 290:.\Generated_Source\PSoC5/isr_TORQUESTAT.c **** }
 379              		.loc 1 290 0
 380 001a 1846     		mov	r0, r3
 381 001c 07F10C07 		add	r7, r7, #12
 382 0020 BD46     		mov	sp, r7
 383 0022 80BC     		pop	{r7}
 384 0024 7047     		bx	lr
 385              		.cfi_endproc
 386              	.LFE7:
 387              		.size	isr_TORQUESTAT_GetPriority, .-isr_TORQUESTAT_GetPriority
 388 0026 00BF     		.section	.text.isr_TORQUESTAT_Enable,"ax",%progbits
 389              		.align	2
 390              		.global	isr_TORQUESTAT_Enable
 391              		.thumb
 392              		.thumb_func
 393              		.type	isr_TORQUESTAT_Enable, %function
 394              	isr_TORQUESTAT_Enable:
ARM GAS  C:\Users\gravi\AppData\Local\Temp\ccgBIGBX.s 			page 13


 395              	.LFB8:
 291:.\Generated_Source\PSoC5/isr_TORQUESTAT.c **** 
 292:.\Generated_Source\PSoC5/isr_TORQUESTAT.c **** 
 293:.\Generated_Source\PSoC5/isr_TORQUESTAT.c **** /*******************************************************************************
 294:.\Generated_Source\PSoC5/isr_TORQUESTAT.c **** * Function Name: isr_TORQUESTAT_Enable
 295:.\Generated_Source\PSoC5/isr_TORQUESTAT.c **** ********************************************************************************
 296:.\Generated_Source\PSoC5/isr_TORQUESTAT.c **** *
 297:.\Generated_Source\PSoC5/isr_TORQUESTAT.c **** * Summary:
 298:.\Generated_Source\PSoC5/isr_TORQUESTAT.c **** *   Enables the interrupt.
 299:.\Generated_Source\PSoC5/isr_TORQUESTAT.c **** *
 300:.\Generated_Source\PSoC5/isr_TORQUESTAT.c **** * Parameters:
 301:.\Generated_Source\PSoC5/isr_TORQUESTAT.c **** *   None
 302:.\Generated_Source\PSoC5/isr_TORQUESTAT.c **** *
 303:.\Generated_Source\PSoC5/isr_TORQUESTAT.c **** * Return:
 304:.\Generated_Source\PSoC5/isr_TORQUESTAT.c **** *   None
 305:.\Generated_Source\PSoC5/isr_TORQUESTAT.c **** *
 306:.\Generated_Source\PSoC5/isr_TORQUESTAT.c **** *******************************************************************************/
 307:.\Generated_Source\PSoC5/isr_TORQUESTAT.c **** void isr_TORQUESTAT_Enable(void)
 308:.\Generated_Source\PSoC5/isr_TORQUESTAT.c **** {
 396              		.loc 1 308 0
 397              		.cfi_startproc
 398              		@ args = 0, pretend = 0, frame = 0
 399              		@ frame_needed = 1, uses_anonymous_args = 0
 400              		@ link register save eliminated.
 401 0000 80B4     		push	{r7}
 402              	.LCFI21:
 403              		.cfi_def_cfa_offset 4
 404              		.cfi_offset 7, -4
 405 0002 00AF     		add	r7, sp, #0
 406              	.LCFI22:
 407              		.cfi_def_cfa_register 7
 309:.\Generated_Source\PSoC5/isr_TORQUESTAT.c ****     /* Enable the general interrupt. */
 310:.\Generated_Source\PSoC5/isr_TORQUESTAT.c ****     *isr_TORQUESTAT_INTC_SET_EN = isr_TORQUESTAT__INTC_MASK;
 408              		.loc 1 310 0
 409 0004 4FF46143 		mov	r3, #57600
 410 0008 CEF20003 		movt	r3, 57344
 411 000c 4FF48072 		mov	r2, #256
 412 0010 1A60     		str	r2, [r3, #0]
 311:.\Generated_Source\PSoC5/isr_TORQUESTAT.c **** }
 413              		.loc 1 311 0
 414 0012 BD46     		mov	sp, r7
 415 0014 80BC     		pop	{r7}
 416 0016 7047     		bx	lr
 417              		.cfi_endproc
 418              	.LFE8:
 419              		.size	isr_TORQUESTAT_Enable, .-isr_TORQUESTAT_Enable
 420              		.section	.text.isr_TORQUESTAT_GetState,"ax",%progbits
 421              		.align	2
 422              		.global	isr_TORQUESTAT_GetState
 423              		.thumb
 424              		.thumb_func
 425              		.type	isr_TORQUESTAT_GetState, %function
 426              	isr_TORQUESTAT_GetState:
 427              	.LFB9:
 312:.\Generated_Source\PSoC5/isr_TORQUESTAT.c **** 
 313:.\Generated_Source\PSoC5/isr_TORQUESTAT.c **** 
 314:.\Generated_Source\PSoC5/isr_TORQUESTAT.c **** /*******************************************************************************
ARM GAS  C:\Users\gravi\AppData\Local\Temp\ccgBIGBX.s 			page 14


 315:.\Generated_Source\PSoC5/isr_TORQUESTAT.c **** * Function Name: isr_TORQUESTAT_GetState
 316:.\Generated_Source\PSoC5/isr_TORQUESTAT.c **** ********************************************************************************
 317:.\Generated_Source\PSoC5/isr_TORQUESTAT.c **** *
 318:.\Generated_Source\PSoC5/isr_TORQUESTAT.c **** * Summary:
 319:.\Generated_Source\PSoC5/isr_TORQUESTAT.c **** *   Gets the state (enabled, disabled) of the Interrupt.
 320:.\Generated_Source\PSoC5/isr_TORQUESTAT.c **** *
 321:.\Generated_Source\PSoC5/isr_TORQUESTAT.c **** * Parameters:
 322:.\Generated_Source\PSoC5/isr_TORQUESTAT.c **** *   None
 323:.\Generated_Source\PSoC5/isr_TORQUESTAT.c **** *
 324:.\Generated_Source\PSoC5/isr_TORQUESTAT.c **** * Return:
 325:.\Generated_Source\PSoC5/isr_TORQUESTAT.c **** *   1 if enabled, 0 if disabled.
 326:.\Generated_Source\PSoC5/isr_TORQUESTAT.c **** *
 327:.\Generated_Source\PSoC5/isr_TORQUESTAT.c **** *******************************************************************************/
 328:.\Generated_Source\PSoC5/isr_TORQUESTAT.c **** uint8 isr_TORQUESTAT_GetState(void)
 329:.\Generated_Source\PSoC5/isr_TORQUESTAT.c **** {
 428              		.loc 1 329 0
 429              		.cfi_startproc
 430              		@ args = 0, pretend = 0, frame = 0
 431              		@ frame_needed = 1, uses_anonymous_args = 0
 432              		@ link register save eliminated.
 433 0000 80B4     		push	{r7}
 434              	.LCFI23:
 435              		.cfi_def_cfa_offset 4
 436              		.cfi_offset 7, -4
 437 0002 00AF     		add	r7, sp, #0
 438              	.LCFI24:
 439              		.cfi_def_cfa_register 7
 330:.\Generated_Source\PSoC5/isr_TORQUESTAT.c ****     /* Get the state of the general interrupt. */
 331:.\Generated_Source\PSoC5/isr_TORQUESTAT.c ****     return ((*isr_TORQUESTAT_INTC_SET_EN & (uint32)isr_TORQUESTAT__INTC_MASK) != 0u) ? 1u:0u;
 440              		.loc 1 331 0
 441 0004 4FF46143 		mov	r3, #57600
 442 0008 CEF20003 		movt	r3, 57344
 443 000c 1B68     		ldr	r3, [r3, #0]
 444 000e 03F48073 		and	r3, r3, #256
 445 0012 002B     		cmp	r3, #0
 446 0014 02D0     		beq	.L13
 447              		.loc 1 331 0 is_stmt 0 discriminator 1
 448 0016 4FF00103 		mov	r3, #1
 449 001a 01E0     		b	.L14
 450              	.L13:
 451              		.loc 1 331 0 discriminator 2
 452 001c 4FF00003 		mov	r3, #0
 453              	.L14:
 332:.\Generated_Source\PSoC5/isr_TORQUESTAT.c **** }
 454              		.loc 1 332 0 is_stmt 1 discriminator 3
 455 0020 1846     		mov	r0, r3
 456 0022 BD46     		mov	sp, r7
 457 0024 80BC     		pop	{r7}
 458 0026 7047     		bx	lr
 459              		.cfi_endproc
 460              	.LFE9:
 461              		.size	isr_TORQUESTAT_GetState, .-isr_TORQUESTAT_GetState
 462              		.section	.text.isr_TORQUESTAT_Disable,"ax",%progbits
 463              		.align	2
 464              		.global	isr_TORQUESTAT_Disable
 465              		.thumb
 466              		.thumb_func
ARM GAS  C:\Users\gravi\AppData\Local\Temp\ccgBIGBX.s 			page 15


 467              		.type	isr_TORQUESTAT_Disable, %function
 468              	isr_TORQUESTAT_Disable:
 469              	.LFB10:
 333:.\Generated_Source\PSoC5/isr_TORQUESTAT.c **** 
 334:.\Generated_Source\PSoC5/isr_TORQUESTAT.c **** 
 335:.\Generated_Source\PSoC5/isr_TORQUESTAT.c **** /*******************************************************************************
 336:.\Generated_Source\PSoC5/isr_TORQUESTAT.c **** * Function Name: isr_TORQUESTAT_Disable
 337:.\Generated_Source\PSoC5/isr_TORQUESTAT.c **** ********************************************************************************
 338:.\Generated_Source\PSoC5/isr_TORQUESTAT.c **** *
 339:.\Generated_Source\PSoC5/isr_TORQUESTAT.c **** * Summary:
 340:.\Generated_Source\PSoC5/isr_TORQUESTAT.c **** *   Disables the Interrupt.
 341:.\Generated_Source\PSoC5/isr_TORQUESTAT.c **** *
 342:.\Generated_Source\PSoC5/isr_TORQUESTAT.c **** * Parameters:
 343:.\Generated_Source\PSoC5/isr_TORQUESTAT.c **** *   None
 344:.\Generated_Source\PSoC5/isr_TORQUESTAT.c **** *
 345:.\Generated_Source\PSoC5/isr_TORQUESTAT.c **** * Return:
 346:.\Generated_Source\PSoC5/isr_TORQUESTAT.c **** *   None
 347:.\Generated_Source\PSoC5/isr_TORQUESTAT.c **** *
 348:.\Generated_Source\PSoC5/isr_TORQUESTAT.c **** *******************************************************************************/
 349:.\Generated_Source\PSoC5/isr_TORQUESTAT.c **** void isr_TORQUESTAT_Disable(void)
 350:.\Generated_Source\PSoC5/isr_TORQUESTAT.c **** {
 470              		.loc 1 350 0
 471              		.cfi_startproc
 472              		@ args = 0, pretend = 0, frame = 0
 473              		@ frame_needed = 1, uses_anonymous_args = 0
 474              		@ link register save eliminated.
 475 0000 80B4     		push	{r7}
 476              	.LCFI25:
 477              		.cfi_def_cfa_offset 4
 478              		.cfi_offset 7, -4
 479 0002 00AF     		add	r7, sp, #0
 480              	.LCFI26:
 481              		.cfi_def_cfa_register 7
 351:.\Generated_Source\PSoC5/isr_TORQUESTAT.c ****     /* Disable the general interrupt. */
 352:.\Generated_Source\PSoC5/isr_TORQUESTAT.c ****     *isr_TORQUESTAT_INTC_CLR_EN = isr_TORQUESTAT__INTC_MASK;
 482              		.loc 1 352 0
 483 0004 4EF28013 		movw	r3, #57728
 484 0008 CEF20003 		movt	r3, 57344
 485 000c 4FF48072 		mov	r2, #256
 486 0010 1A60     		str	r2, [r3, #0]
 353:.\Generated_Source\PSoC5/isr_TORQUESTAT.c **** }
 487              		.loc 1 353 0
 488 0012 BD46     		mov	sp, r7
 489 0014 80BC     		pop	{r7}
 490 0016 7047     		bx	lr
 491              		.cfi_endproc
 492              	.LFE10:
 493              		.size	isr_TORQUESTAT_Disable, .-isr_TORQUESTAT_Disable
 494              		.section	.text.isr_TORQUESTAT_SetPending,"ax",%progbits
 495              		.align	2
 496              		.global	isr_TORQUESTAT_SetPending
 497              		.thumb
 498              		.thumb_func
 499              		.type	isr_TORQUESTAT_SetPending, %function
 500              	isr_TORQUESTAT_SetPending:
 501              	.LFB11:
 354:.\Generated_Source\PSoC5/isr_TORQUESTAT.c **** 
ARM GAS  C:\Users\gravi\AppData\Local\Temp\ccgBIGBX.s 			page 16


 355:.\Generated_Source\PSoC5/isr_TORQUESTAT.c **** 
 356:.\Generated_Source\PSoC5/isr_TORQUESTAT.c **** /*******************************************************************************
 357:.\Generated_Source\PSoC5/isr_TORQUESTAT.c **** * Function Name: isr_TORQUESTAT_SetPending
 358:.\Generated_Source\PSoC5/isr_TORQUESTAT.c **** ********************************************************************************
 359:.\Generated_Source\PSoC5/isr_TORQUESTAT.c **** *
 360:.\Generated_Source\PSoC5/isr_TORQUESTAT.c **** * Summary:
 361:.\Generated_Source\PSoC5/isr_TORQUESTAT.c **** *   Causes the Interrupt to enter the pending state, a software method of
 362:.\Generated_Source\PSoC5/isr_TORQUESTAT.c **** *   generating the interrupt.
 363:.\Generated_Source\PSoC5/isr_TORQUESTAT.c **** *
 364:.\Generated_Source\PSoC5/isr_TORQUESTAT.c **** * Parameters:
 365:.\Generated_Source\PSoC5/isr_TORQUESTAT.c **** *   None
 366:.\Generated_Source\PSoC5/isr_TORQUESTAT.c **** *
 367:.\Generated_Source\PSoC5/isr_TORQUESTAT.c **** * Return:
 368:.\Generated_Source\PSoC5/isr_TORQUESTAT.c **** *   None
 369:.\Generated_Source\PSoC5/isr_TORQUESTAT.c **** *
 370:.\Generated_Source\PSoC5/isr_TORQUESTAT.c **** *******************************************************************************/
 371:.\Generated_Source\PSoC5/isr_TORQUESTAT.c **** void isr_TORQUESTAT_SetPending(void)
 372:.\Generated_Source\PSoC5/isr_TORQUESTAT.c **** {
 502              		.loc 1 372 0
 503              		.cfi_startproc
 504              		@ args = 0, pretend = 0, frame = 0
 505              		@ frame_needed = 1, uses_anonymous_args = 0
 506              		@ link register save eliminated.
 507 0000 80B4     		push	{r7}
 508              	.LCFI27:
 509              		.cfi_def_cfa_offset 4
 510              		.cfi_offset 7, -4
 511 0002 00AF     		add	r7, sp, #0
 512              	.LCFI28:
 513              		.cfi_def_cfa_register 7
 373:.\Generated_Source\PSoC5/isr_TORQUESTAT.c ****     *isr_TORQUESTAT_INTC_SET_PD = isr_TORQUESTAT__INTC_MASK;
 514              		.loc 1 373 0
 515 0004 4FF46243 		mov	r3, #57856
 516 0008 CEF20003 		movt	r3, 57344
 517 000c 4FF48072 		mov	r2, #256
 518 0010 1A60     		str	r2, [r3, #0]
 374:.\Generated_Source\PSoC5/isr_TORQUESTAT.c **** }
 519              		.loc 1 374 0
 520 0012 BD46     		mov	sp, r7
 521 0014 80BC     		pop	{r7}
 522 0016 7047     		bx	lr
 523              		.cfi_endproc
 524              	.LFE11:
 525              		.size	isr_TORQUESTAT_SetPending, .-isr_TORQUESTAT_SetPending
 526              		.section	.text.isr_TORQUESTAT_ClearPending,"ax",%progbits
 527              		.align	2
 528              		.global	isr_TORQUESTAT_ClearPending
 529              		.thumb
 530              		.thumb_func
 531              		.type	isr_TORQUESTAT_ClearPending, %function
 532              	isr_TORQUESTAT_ClearPending:
 533              	.LFB12:
 375:.\Generated_Source\PSoC5/isr_TORQUESTAT.c **** 
 376:.\Generated_Source\PSoC5/isr_TORQUESTAT.c **** 
 377:.\Generated_Source\PSoC5/isr_TORQUESTAT.c **** /*******************************************************************************
 378:.\Generated_Source\PSoC5/isr_TORQUESTAT.c **** * Function Name: isr_TORQUESTAT_ClearPending
 379:.\Generated_Source\PSoC5/isr_TORQUESTAT.c **** ********************************************************************************
ARM GAS  C:\Users\gravi\AppData\Local\Temp\ccgBIGBX.s 			page 17


 380:.\Generated_Source\PSoC5/isr_TORQUESTAT.c **** *
 381:.\Generated_Source\PSoC5/isr_TORQUESTAT.c **** * Summary:
 382:.\Generated_Source\PSoC5/isr_TORQUESTAT.c **** *   Clears a pending interrupt.
 383:.\Generated_Source\PSoC5/isr_TORQUESTAT.c **** *
 384:.\Generated_Source\PSoC5/isr_TORQUESTAT.c **** * Parameters:
 385:.\Generated_Source\PSoC5/isr_TORQUESTAT.c **** *   None
 386:.\Generated_Source\PSoC5/isr_TORQUESTAT.c **** *
 387:.\Generated_Source\PSoC5/isr_TORQUESTAT.c **** * Return:
 388:.\Generated_Source\PSoC5/isr_TORQUESTAT.c **** *   None
 389:.\Generated_Source\PSoC5/isr_TORQUESTAT.c **** *
 390:.\Generated_Source\PSoC5/isr_TORQUESTAT.c **** *******************************************************************************/
 391:.\Generated_Source\PSoC5/isr_TORQUESTAT.c **** void isr_TORQUESTAT_ClearPending(void)
 392:.\Generated_Source\PSoC5/isr_TORQUESTAT.c **** {
 534              		.loc 1 392 0
 535              		.cfi_startproc
 536              		@ args = 0, pretend = 0, frame = 0
 537              		@ frame_needed = 1, uses_anonymous_args = 0
 538              		@ link register save eliminated.
 539 0000 80B4     		push	{r7}
 540              	.LCFI29:
 541              		.cfi_def_cfa_offset 4
 542              		.cfi_offset 7, -4
 543 0002 00AF     		add	r7, sp, #0
 544              	.LCFI30:
 545              		.cfi_def_cfa_register 7
 393:.\Generated_Source\PSoC5/isr_TORQUESTAT.c ****     *isr_TORQUESTAT_INTC_CLR_PD = isr_TORQUESTAT__INTC_MASK;
 546              		.loc 1 393 0
 547 0004 4EF28023 		movw	r3, #57984
 548 0008 CEF20003 		movt	r3, 57344
 549 000c 4FF48072 		mov	r2, #256
 550 0010 1A60     		str	r2, [r3, #0]
 394:.\Generated_Source\PSoC5/isr_TORQUESTAT.c **** }
 551              		.loc 1 394 0
 552 0012 BD46     		mov	sp, r7
 553 0014 80BC     		pop	{r7}
 554 0016 7047     		bx	lr
 555              		.cfi_endproc
 556              	.LFE12:
 557              		.size	isr_TORQUESTAT_ClearPending, .-isr_TORQUESTAT_ClearPending
 558              		.text
 559              	.Letext0:
 560              		.file 2 "./Generated_Source/PSoC5/cytypes.h"
 561              		.file 3 "./gobee.h"
 562              		.file 4 "./statistics.h"
 563              		.file 5 "./torquestat.h"