ARM GAS  C:\Users\graziano\AppData\Local\Temp\ccUJzEC3.s 			page 1


   1              		.syntax unified
   2              		.cpu cortex-m3
   3              		.fpu softvfp
   4              		.eabi_attribute 20, 1
   5              		.eabi_attribute 21, 1
   6              		.eabi_attribute 23, 3
   7              		.eabi_attribute 24, 1
   8              		.eabi_attribute 25, 1
   9              		.eabi_attribute 26, 1
  10              		.eabi_attribute 30, 6
  11              		.eabi_attribute 34, 1
  12              		.eabi_attribute 18, 4
  13              		.thumb
  14              		.file	"isr_LoveLock_Ticks.c"
  15              		.text
  16              	.Ltext0:
  17              		.cfi_sections	.debug_frame
  18              		.section	.text.isr_LoveLock_Ticks_Start,"ax",%progbits
  19              		.align	2
  20              		.global	isr_LoveLock_Ticks_Start
  21              		.thumb
  22              		.thumb_func
  23              		.type	isr_LoveLock_Ticks_Start, %function
  24              	isr_LoveLock_Ticks_Start:
  25              	.LFB0:
  26              		.file 1 ".\\Generated_Source\\PSoC5\\isr_LoveLock_Ticks.c"
   1:.\Generated_Source\PSoC5/isr_LoveLock_Ticks.c **** /*******************************************************************************
   2:.\Generated_Source\PSoC5/isr_LoveLock_Ticks.c **** * File Name: isr_LoveLock_Ticks.c  
   3:.\Generated_Source\PSoC5/isr_LoveLock_Ticks.c **** * Version 1.70
   4:.\Generated_Source\PSoC5/isr_LoveLock_Ticks.c **** *
   5:.\Generated_Source\PSoC5/isr_LoveLock_Ticks.c **** *  Description:
   6:.\Generated_Source\PSoC5/isr_LoveLock_Ticks.c **** *   API for controlling the state of an interrupt.
   7:.\Generated_Source\PSoC5/isr_LoveLock_Ticks.c **** *
   8:.\Generated_Source\PSoC5/isr_LoveLock_Ticks.c **** *
   9:.\Generated_Source\PSoC5/isr_LoveLock_Ticks.c **** *  Note:
  10:.\Generated_Source\PSoC5/isr_LoveLock_Ticks.c **** *
  11:.\Generated_Source\PSoC5/isr_LoveLock_Ticks.c **** ********************************************************************************
  12:.\Generated_Source\PSoC5/isr_LoveLock_Ticks.c **** * Copyright 2008-2012, Cypress Semiconductor Corporation.  All rights reserved.
  13:.\Generated_Source\PSoC5/isr_LoveLock_Ticks.c **** * You may use this file only in accordance with the license, terms, conditions, 
  14:.\Generated_Source\PSoC5/isr_LoveLock_Ticks.c **** * disclaimers, and limitations in the end user license agreement accompanying 
  15:.\Generated_Source\PSoC5/isr_LoveLock_Ticks.c **** * the software package with which this file was provided.
  16:.\Generated_Source\PSoC5/isr_LoveLock_Ticks.c **** *******************************************************************************/
  17:.\Generated_Source\PSoC5/isr_LoveLock_Ticks.c **** 
  18:.\Generated_Source\PSoC5/isr_LoveLock_Ticks.c **** 
  19:.\Generated_Source\PSoC5/isr_LoveLock_Ticks.c **** #include <cydevice_trm.h>
  20:.\Generated_Source\PSoC5/isr_LoveLock_Ticks.c **** #include <CyLib.h>
  21:.\Generated_Source\PSoC5/isr_LoveLock_Ticks.c **** #include <isr_LoveLock_Ticks.h>
  22:.\Generated_Source\PSoC5/isr_LoveLock_Ticks.c **** 
  23:.\Generated_Source\PSoC5/isr_LoveLock_Ticks.c **** #if !defined(isr_LoveLock_Ticks__REMOVED) /* Check for removal by optimization */
  24:.\Generated_Source\PSoC5/isr_LoveLock_Ticks.c **** 
  25:.\Generated_Source\PSoC5/isr_LoveLock_Ticks.c **** /*******************************************************************************
  26:.\Generated_Source\PSoC5/isr_LoveLock_Ticks.c **** *  Place your includes, defines and code here 
  27:.\Generated_Source\PSoC5/isr_LoveLock_Ticks.c **** ********************************************************************************/
  28:.\Generated_Source\PSoC5/isr_LoveLock_Ticks.c **** /* `#START isr_LoveLock_Ticks_intc` */
  29:.\Generated_Source\PSoC5/isr_LoveLock_Ticks.c **** 	
  30:.\Generated_Source\PSoC5/isr_LoveLock_Ticks.c **** /* external global wars */
  31:.\Generated_Source\PSoC5/isr_LoveLock_Ticks.c **** #include <das.h>
ARM GAS  C:\Users\graziano\AppData\Local\Temp\ccUJzEC3.s 			page 2


  32:.\Generated_Source\PSoC5/isr_LoveLock_Ticks.c **** 	
  33:.\Generated_Source\PSoC5/isr_LoveLock_Ticks.c **** extern struct DAS_VALUES das;				/* DAS- Digital Acquisition System struct 	 */
  34:.\Generated_Source\PSoC5/isr_LoveLock_Ticks.c **** 	
  35:.\Generated_Source\PSoC5/isr_LoveLock_Ticks.c **** /* `#END` */
  36:.\Generated_Source\PSoC5/isr_LoveLock_Ticks.c **** 
  37:.\Generated_Source\PSoC5/isr_LoveLock_Ticks.c **** #ifndef CYINT_IRQ_BASE
  38:.\Generated_Source\PSoC5/isr_LoveLock_Ticks.c **** #define CYINT_IRQ_BASE      16
  39:.\Generated_Source\PSoC5/isr_LoveLock_Ticks.c **** #endif /* CYINT_IRQ_BASE */
  40:.\Generated_Source\PSoC5/isr_LoveLock_Ticks.c **** #ifndef CYINT_VECT_TABLE
  41:.\Generated_Source\PSoC5/isr_LoveLock_Ticks.c **** #define CYINT_VECT_TABLE    ((cyisraddress **) CYREG_NVIC_VECT_OFFSET)
  42:.\Generated_Source\PSoC5/isr_LoveLock_Ticks.c **** #endif /* CYINT_VECT_TABLE */
  43:.\Generated_Source\PSoC5/isr_LoveLock_Ticks.c **** 
  44:.\Generated_Source\PSoC5/isr_LoveLock_Ticks.c **** /* Declared in startup, used to set unused interrupts to. */
  45:.\Generated_Source\PSoC5/isr_LoveLock_Ticks.c **** CY_ISR_PROTO(IntDefaultHandler);
  46:.\Generated_Source\PSoC5/isr_LoveLock_Ticks.c **** 
  47:.\Generated_Source\PSoC5/isr_LoveLock_Ticks.c **** 
  48:.\Generated_Source\PSoC5/isr_LoveLock_Ticks.c **** /*******************************************************************************
  49:.\Generated_Source\PSoC5/isr_LoveLock_Ticks.c **** * Function Name: isr_LoveLock_Ticks_Start
  50:.\Generated_Source\PSoC5/isr_LoveLock_Ticks.c **** ********************************************************************************
  51:.\Generated_Source\PSoC5/isr_LoveLock_Ticks.c **** *
  52:.\Generated_Source\PSoC5/isr_LoveLock_Ticks.c **** * Summary:
  53:.\Generated_Source\PSoC5/isr_LoveLock_Ticks.c **** *  Set up the interrupt and enable it.
  54:.\Generated_Source\PSoC5/isr_LoveLock_Ticks.c **** *
  55:.\Generated_Source\PSoC5/isr_LoveLock_Ticks.c **** * Parameters:  
  56:.\Generated_Source\PSoC5/isr_LoveLock_Ticks.c **** *   None
  57:.\Generated_Source\PSoC5/isr_LoveLock_Ticks.c **** *
  58:.\Generated_Source\PSoC5/isr_LoveLock_Ticks.c **** * Return:
  59:.\Generated_Source\PSoC5/isr_LoveLock_Ticks.c **** *   None
  60:.\Generated_Source\PSoC5/isr_LoveLock_Ticks.c **** *
  61:.\Generated_Source\PSoC5/isr_LoveLock_Ticks.c **** *******************************************************************************/
  62:.\Generated_Source\PSoC5/isr_LoveLock_Ticks.c **** void isr_LoveLock_Ticks_Start(void)
  63:.\Generated_Source\PSoC5/isr_LoveLock_Ticks.c **** {
  27              		.loc 1 63 0
  28              		.cfi_startproc
  29              		@ args = 0, pretend = 0, frame = 0
  30              		@ frame_needed = 1, uses_anonymous_args = 0
  31 0000 80B5     		push	{r7, lr}
  32              	.LCFI0:
  33              		.cfi_def_cfa_offset 8
  34              		.cfi_offset 7, -8
  35              		.cfi_offset 14, -4
  36 0002 00AF     		add	r7, sp, #0
  37              	.LCFI1:
  38              		.cfi_def_cfa_register 7
  64:.\Generated_Source\PSoC5/isr_LoveLock_Ticks.c ****     /* For all we know the interrupt is active. */
  65:.\Generated_Source\PSoC5/isr_LoveLock_Ticks.c ****     isr_LoveLock_Ticks_Disable();
  39              		.loc 1 65 0
  40 0004 FFF7FEFF 		bl	isr_LoveLock_Ticks_Disable
  66:.\Generated_Source\PSoC5/isr_LoveLock_Ticks.c **** 
  67:.\Generated_Source\PSoC5/isr_LoveLock_Ticks.c ****     /* Set the ISR to point to the isr_LoveLock_Ticks Interrupt. */
  68:.\Generated_Source\PSoC5/isr_LoveLock_Ticks.c ****     isr_LoveLock_Ticks_SetVector(&isr_LoveLock_Ticks_Interrupt);
  41              		.loc 1 68 0
  42 0008 40F20000 		movw	r0, #:lower16:isr_LoveLock_Ticks_Interrupt
  43 000c C0F20000 		movt	r0, #:upper16:isr_LoveLock_Ticks_Interrupt
  44 0010 FFF7FEFF 		bl	isr_LoveLock_Ticks_SetVector
  69:.\Generated_Source\PSoC5/isr_LoveLock_Ticks.c **** 
  70:.\Generated_Source\PSoC5/isr_LoveLock_Ticks.c ****     /* Set the priority. */
ARM GAS  C:\Users\graziano\AppData\Local\Temp\ccUJzEC3.s 			page 3


  71:.\Generated_Source\PSoC5/isr_LoveLock_Ticks.c ****     isr_LoveLock_Ticks_SetPriority((uint8)isr_LoveLock_Ticks_INTC_PRIOR_NUMBER);
  45              		.loc 1 71 0
  46 0014 4FF00700 		mov	r0, #7
  47 0018 FFF7FEFF 		bl	isr_LoveLock_Ticks_SetPriority
  72:.\Generated_Source\PSoC5/isr_LoveLock_Ticks.c **** 
  73:.\Generated_Source\PSoC5/isr_LoveLock_Ticks.c ****     /* Enable it. */
  74:.\Generated_Source\PSoC5/isr_LoveLock_Ticks.c ****     isr_LoveLock_Ticks_Enable();
  48              		.loc 1 74 0
  49 001c FFF7FEFF 		bl	isr_LoveLock_Ticks_Enable
  75:.\Generated_Source\PSoC5/isr_LoveLock_Ticks.c **** }
  50              		.loc 1 75 0
  51 0020 80BD     		pop	{r7, pc}
  52              		.cfi_endproc
  53              	.LFE0:
  54              		.size	isr_LoveLock_Ticks_Start, .-isr_LoveLock_Ticks_Start
  55 0022 00BF     		.section	.text.isr_LoveLock_Ticks_StartEx,"ax",%progbits
  56              		.align	2
  57              		.global	isr_LoveLock_Ticks_StartEx
  58              		.thumb
  59              		.thumb_func
  60              		.type	isr_LoveLock_Ticks_StartEx, %function
  61              	isr_LoveLock_Ticks_StartEx:
  62              	.LFB1:
  76:.\Generated_Source\PSoC5/isr_LoveLock_Ticks.c **** 
  77:.\Generated_Source\PSoC5/isr_LoveLock_Ticks.c **** 
  78:.\Generated_Source\PSoC5/isr_LoveLock_Ticks.c **** /*******************************************************************************
  79:.\Generated_Source\PSoC5/isr_LoveLock_Ticks.c **** * Function Name: isr_LoveLock_Ticks_StartEx
  80:.\Generated_Source\PSoC5/isr_LoveLock_Ticks.c **** ********************************************************************************
  81:.\Generated_Source\PSoC5/isr_LoveLock_Ticks.c **** *
  82:.\Generated_Source\PSoC5/isr_LoveLock_Ticks.c **** * Summary:
  83:.\Generated_Source\PSoC5/isr_LoveLock_Ticks.c **** *  Set up the interrupt and enable it.
  84:.\Generated_Source\PSoC5/isr_LoveLock_Ticks.c **** *
  85:.\Generated_Source\PSoC5/isr_LoveLock_Ticks.c **** * Parameters:  
  86:.\Generated_Source\PSoC5/isr_LoveLock_Ticks.c **** *   address: Address of the ISR to set in the interrupt vector table.
  87:.\Generated_Source\PSoC5/isr_LoveLock_Ticks.c **** *
  88:.\Generated_Source\PSoC5/isr_LoveLock_Ticks.c **** * Return:
  89:.\Generated_Source\PSoC5/isr_LoveLock_Ticks.c **** *   None
  90:.\Generated_Source\PSoC5/isr_LoveLock_Ticks.c **** *
  91:.\Generated_Source\PSoC5/isr_LoveLock_Ticks.c **** *******************************************************************************/
  92:.\Generated_Source\PSoC5/isr_LoveLock_Ticks.c **** void isr_LoveLock_Ticks_StartEx(cyisraddress address)
  93:.\Generated_Source\PSoC5/isr_LoveLock_Ticks.c **** {
  63              		.loc 1 93 0
  64              		.cfi_startproc
  65              		@ args = 0, pretend = 0, frame = 8
  66              		@ frame_needed = 1, uses_anonymous_args = 0
  67 0000 80B5     		push	{r7, lr}
  68              	.LCFI2:
  69              		.cfi_def_cfa_offset 8
  70              		.cfi_offset 7, -8
  71              		.cfi_offset 14, -4
  72 0002 82B0     		sub	sp, sp, #8
  73              	.LCFI3:
  74              		.cfi_def_cfa_offset 16
  75 0004 00AF     		add	r7, sp, #0
  76              	.LCFI4:
  77              		.cfi_def_cfa_register 7
  78 0006 7860     		str	r0, [r7, #4]
ARM GAS  C:\Users\graziano\AppData\Local\Temp\ccUJzEC3.s 			page 4


  94:.\Generated_Source\PSoC5/isr_LoveLock_Ticks.c ****     /* For all we know the interrupt is active. */
  95:.\Generated_Source\PSoC5/isr_LoveLock_Ticks.c ****     isr_LoveLock_Ticks_Disable();
  79              		.loc 1 95 0
  80 0008 FFF7FEFF 		bl	isr_LoveLock_Ticks_Disable
  96:.\Generated_Source\PSoC5/isr_LoveLock_Ticks.c **** 
  97:.\Generated_Source\PSoC5/isr_LoveLock_Ticks.c ****     /* Set the ISR to point to the isr_LoveLock_Ticks Interrupt. */
  98:.\Generated_Source\PSoC5/isr_LoveLock_Ticks.c ****     isr_LoveLock_Ticks_SetVector(address);
  81              		.loc 1 98 0
  82 000c 7868     		ldr	r0, [r7, #4]
  83 000e FFF7FEFF 		bl	isr_LoveLock_Ticks_SetVector
  99:.\Generated_Source\PSoC5/isr_LoveLock_Ticks.c **** 
 100:.\Generated_Source\PSoC5/isr_LoveLock_Ticks.c ****     /* Set the priority. */
 101:.\Generated_Source\PSoC5/isr_LoveLock_Ticks.c ****     isr_LoveLock_Ticks_SetPriority((uint8)isr_LoveLock_Ticks_INTC_PRIOR_NUMBER);
  84              		.loc 1 101 0
  85 0012 4FF00700 		mov	r0, #7
  86 0016 FFF7FEFF 		bl	isr_LoveLock_Ticks_SetPriority
 102:.\Generated_Source\PSoC5/isr_LoveLock_Ticks.c **** 
 103:.\Generated_Source\PSoC5/isr_LoveLock_Ticks.c ****     /* Enable it. */
 104:.\Generated_Source\PSoC5/isr_LoveLock_Ticks.c ****     isr_LoveLock_Ticks_Enable();
  87              		.loc 1 104 0
  88 001a FFF7FEFF 		bl	isr_LoveLock_Ticks_Enable
 105:.\Generated_Source\PSoC5/isr_LoveLock_Ticks.c **** }
  89              		.loc 1 105 0
  90 001e 07F10807 		add	r7, r7, #8
  91 0022 BD46     		mov	sp, r7
  92 0024 80BD     		pop	{r7, pc}
  93              		.cfi_endproc
  94              	.LFE1:
  95              		.size	isr_LoveLock_Ticks_StartEx, .-isr_LoveLock_Ticks_StartEx
  96 0026 00BF     		.section	.text.isr_LoveLock_Ticks_Stop,"ax",%progbits
  97              		.align	2
  98              		.global	isr_LoveLock_Ticks_Stop
  99              		.thumb
 100              		.thumb_func
 101              		.type	isr_LoveLock_Ticks_Stop, %function
 102              	isr_LoveLock_Ticks_Stop:
 103              	.LFB2:
 106:.\Generated_Source\PSoC5/isr_LoveLock_Ticks.c **** 
 107:.\Generated_Source\PSoC5/isr_LoveLock_Ticks.c **** 
 108:.\Generated_Source\PSoC5/isr_LoveLock_Ticks.c **** /*******************************************************************************
 109:.\Generated_Source\PSoC5/isr_LoveLock_Ticks.c **** * Function Name: isr_LoveLock_Ticks_Stop
 110:.\Generated_Source\PSoC5/isr_LoveLock_Ticks.c **** ********************************************************************************
 111:.\Generated_Source\PSoC5/isr_LoveLock_Ticks.c **** *
 112:.\Generated_Source\PSoC5/isr_LoveLock_Ticks.c **** * Summary:
 113:.\Generated_Source\PSoC5/isr_LoveLock_Ticks.c **** *   Disables and removes the interrupt.
 114:.\Generated_Source\PSoC5/isr_LoveLock_Ticks.c **** *
 115:.\Generated_Source\PSoC5/isr_LoveLock_Ticks.c **** * Parameters:  
 116:.\Generated_Source\PSoC5/isr_LoveLock_Ticks.c **** *
 117:.\Generated_Source\PSoC5/isr_LoveLock_Ticks.c **** * Return:
 118:.\Generated_Source\PSoC5/isr_LoveLock_Ticks.c **** *   None
 119:.\Generated_Source\PSoC5/isr_LoveLock_Ticks.c **** *
 120:.\Generated_Source\PSoC5/isr_LoveLock_Ticks.c **** *******************************************************************************/
 121:.\Generated_Source\PSoC5/isr_LoveLock_Ticks.c **** void isr_LoveLock_Ticks_Stop(void)
 122:.\Generated_Source\PSoC5/isr_LoveLock_Ticks.c **** {
 104              		.loc 1 122 0
 105              		.cfi_startproc
 106              		@ args = 0, pretend = 0, frame = 0
ARM GAS  C:\Users\graziano\AppData\Local\Temp\ccUJzEC3.s 			page 5


 107              		@ frame_needed = 1, uses_anonymous_args = 0
 108 0000 80B5     		push	{r7, lr}
 109              	.LCFI5:
 110              		.cfi_def_cfa_offset 8
 111              		.cfi_offset 7, -8
 112              		.cfi_offset 14, -4
 113 0002 00AF     		add	r7, sp, #0
 114              	.LCFI6:
 115              		.cfi_def_cfa_register 7
 123:.\Generated_Source\PSoC5/isr_LoveLock_Ticks.c ****     /* Disable this interrupt. */
 124:.\Generated_Source\PSoC5/isr_LoveLock_Ticks.c ****     isr_LoveLock_Ticks_Disable();
 116              		.loc 1 124 0
 117 0004 FFF7FEFF 		bl	isr_LoveLock_Ticks_Disable
 125:.\Generated_Source\PSoC5/isr_LoveLock_Ticks.c **** 
 126:.\Generated_Source\PSoC5/isr_LoveLock_Ticks.c ****     /* Set the ISR to point to the passive one. */
 127:.\Generated_Source\PSoC5/isr_LoveLock_Ticks.c ****     isr_LoveLock_Ticks_SetVector(&IntDefaultHandler);
 118              		.loc 1 127 0
 119 0008 40F20000 		movw	r0, #:lower16:IntDefaultHandler
 120 000c C0F20000 		movt	r0, #:upper16:IntDefaultHandler
 121 0010 FFF7FEFF 		bl	isr_LoveLock_Ticks_SetVector
 128:.\Generated_Source\PSoC5/isr_LoveLock_Ticks.c **** }
 122              		.loc 1 128 0
 123 0014 80BD     		pop	{r7, pc}
 124              		.cfi_endproc
 125              	.LFE2:
 126              		.size	isr_LoveLock_Ticks_Stop, .-isr_LoveLock_Ticks_Stop
 127 0016 00BF     		.section	.text.isr_LoveLock_Ticks_Interrupt,"ax",%progbits
 128              		.align	2
 129              		.global	isr_LoveLock_Ticks_Interrupt
 130              		.thumb
 131              		.thumb_func
 132              		.type	isr_LoveLock_Ticks_Interrupt, %function
 133              	isr_LoveLock_Ticks_Interrupt:
 134              	.LFB3:
 129:.\Generated_Source\PSoC5/isr_LoveLock_Ticks.c **** 
 130:.\Generated_Source\PSoC5/isr_LoveLock_Ticks.c **** 
 131:.\Generated_Source\PSoC5/isr_LoveLock_Ticks.c **** /*******************************************************************************
 132:.\Generated_Source\PSoC5/isr_LoveLock_Ticks.c **** * Function Name: isr_LoveLock_Ticks_Interrupt
 133:.\Generated_Source\PSoC5/isr_LoveLock_Ticks.c **** ********************************************************************************
 134:.\Generated_Source\PSoC5/isr_LoveLock_Ticks.c **** *
 135:.\Generated_Source\PSoC5/isr_LoveLock_Ticks.c **** * Summary:
 136:.\Generated_Source\PSoC5/isr_LoveLock_Ticks.c **** *   The default Interrupt Service Routine for isr_LoveLock_Ticks.
 137:.\Generated_Source\PSoC5/isr_LoveLock_Ticks.c **** *
 138:.\Generated_Source\PSoC5/isr_LoveLock_Ticks.c **** *   Add custom code between the coments to keep the next version of this file
 139:.\Generated_Source\PSoC5/isr_LoveLock_Ticks.c **** *   from over writting your code.
 140:.\Generated_Source\PSoC5/isr_LoveLock_Ticks.c **** *
 141:.\Generated_Source\PSoC5/isr_LoveLock_Ticks.c **** * Parameters:  
 142:.\Generated_Source\PSoC5/isr_LoveLock_Ticks.c **** *
 143:.\Generated_Source\PSoC5/isr_LoveLock_Ticks.c **** * Return:
 144:.\Generated_Source\PSoC5/isr_LoveLock_Ticks.c **** *   None
 145:.\Generated_Source\PSoC5/isr_LoveLock_Ticks.c **** *
 146:.\Generated_Source\PSoC5/isr_LoveLock_Ticks.c **** *******************************************************************************/
 147:.\Generated_Source\PSoC5/isr_LoveLock_Ticks.c **** CY_ISR(isr_LoveLock_Ticks_Interrupt)
 148:.\Generated_Source\PSoC5/isr_LoveLock_Ticks.c **** {
 135              		.loc 1 148 0
 136              		.cfi_startproc
 137              		@ args = 0, pretend = 0, frame = 0
ARM GAS  C:\Users\graziano\AppData\Local\Temp\ccUJzEC3.s 			page 6


 138              		@ frame_needed = 1, uses_anonymous_args = 0
 139              		@ link register save eliminated.
 140 0000 80B4     		push	{r7}
 141              	.LCFI7:
 142              		.cfi_def_cfa_offset 4
 143              		.cfi_offset 7, -4
 144 0002 00AF     		add	r7, sp, #0
 145              	.LCFI8:
 146              		.cfi_def_cfa_register 7
 149:.\Generated_Source\PSoC5/isr_LoveLock_Ticks.c ****     /*  Place your Interrupt code here. */
 150:.\Generated_Source\PSoC5/isr_LoveLock_Ticks.c ****     /* `#START isr_LoveLock_Ticks_Interrupt` */
 151:.\Generated_Source\PSoC5/isr_LoveLock_Ticks.c **** 	
 152:.\Generated_Source\PSoC5/isr_LoveLock_Ticks.c **** 	//=======================================================//
 153:.\Generated_Source\PSoC5/isr_LoveLock_Ticks.c **** 	//=== LoveLock Ticks Increment [sec]			      ===//
 154:.\Generated_Source\PSoC5/isr_LoveLock_Ticks.c **** 	//=======================================================//
 155:.\Generated_Source\PSoC5/isr_LoveLock_Ticks.c **** 	
 156:.\Generated_Source\PSoC5/isr_LoveLock_Ticks.c **** 	das.lovelock.ticks++;
 147              		.loc 1 156 0
 148 0004 40F20003 		movw	r3, #:lower16:das
 149 0008 C0F20003 		movt	r3, #:upper16:das
 150 000c 03F58B43 		add	r3, r3, #17792
 151 0010 1B68     		ldr	r3, [r3, #0]
 152 0012 03F10102 		add	r2, r3, #1
 153 0016 40F20003 		movw	r3, #:lower16:das
 154 001a C0F20003 		movt	r3, #:upper16:das
 155 001e 03F58B43 		add	r3, r3, #17792
 156 0022 1A60     		str	r2, [r3, #0]
 157:.\Generated_Source\PSoC5/isr_LoveLock_Ticks.c **** 
 158:.\Generated_Source\PSoC5/isr_LoveLock_Ticks.c ****     /* `#END` */
 159:.\Generated_Source\PSoC5/isr_LoveLock_Ticks.c **** }
 157              		.loc 1 159 0
 158 0024 BD46     		mov	sp, r7
 159 0026 80BC     		pop	{r7}
 160 0028 7047     		bx	lr
 161              		.cfi_endproc
 162              	.LFE3:
 163              		.size	isr_LoveLock_Ticks_Interrupt, .-isr_LoveLock_Ticks_Interrupt
 164 002a 00BF     		.section	.text.isr_LoveLock_Ticks_SetVector,"ax",%progbits
 165              		.align	2
 166              		.global	isr_LoveLock_Ticks_SetVector
 167              		.thumb
 168              		.thumb_func
 169              		.type	isr_LoveLock_Ticks_SetVector, %function
 170              	isr_LoveLock_Ticks_SetVector:
 171              	.LFB4:
 160:.\Generated_Source\PSoC5/isr_LoveLock_Ticks.c **** 
 161:.\Generated_Source\PSoC5/isr_LoveLock_Ticks.c **** 
 162:.\Generated_Source\PSoC5/isr_LoveLock_Ticks.c **** /*******************************************************************************
 163:.\Generated_Source\PSoC5/isr_LoveLock_Ticks.c **** * Function Name: isr_LoveLock_Ticks_SetVector
 164:.\Generated_Source\PSoC5/isr_LoveLock_Ticks.c **** ********************************************************************************
 165:.\Generated_Source\PSoC5/isr_LoveLock_Ticks.c **** *
 166:.\Generated_Source\PSoC5/isr_LoveLock_Ticks.c **** * Summary:
 167:.\Generated_Source\PSoC5/isr_LoveLock_Ticks.c **** *   Change the ISR vector for the Interrupt. Note calling isr_LoveLock_Ticks_Start
 168:.\Generated_Source\PSoC5/isr_LoveLock_Ticks.c **** *   will override any effect this method would have had. To set the vector 
 169:.\Generated_Source\PSoC5/isr_LoveLock_Ticks.c **** *   before the component has been started use isr_LoveLock_Ticks_StartEx instead.
 170:.\Generated_Source\PSoC5/isr_LoveLock_Ticks.c **** *
 171:.\Generated_Source\PSoC5/isr_LoveLock_Ticks.c **** * Parameters:
ARM GAS  C:\Users\graziano\AppData\Local\Temp\ccUJzEC3.s 			page 7


 172:.\Generated_Source\PSoC5/isr_LoveLock_Ticks.c **** *   address: Address of the ISR to set in the interrupt vector table.
 173:.\Generated_Source\PSoC5/isr_LoveLock_Ticks.c **** *
 174:.\Generated_Source\PSoC5/isr_LoveLock_Ticks.c **** * Return:
 175:.\Generated_Source\PSoC5/isr_LoveLock_Ticks.c **** *   None
 176:.\Generated_Source\PSoC5/isr_LoveLock_Ticks.c **** *
 177:.\Generated_Source\PSoC5/isr_LoveLock_Ticks.c **** *******************************************************************************/
 178:.\Generated_Source\PSoC5/isr_LoveLock_Ticks.c **** void isr_LoveLock_Ticks_SetVector(cyisraddress address)
 179:.\Generated_Source\PSoC5/isr_LoveLock_Ticks.c **** {
 172              		.loc 1 179 0
 173              		.cfi_startproc
 174              		@ args = 0, pretend = 0, frame = 16
 175              		@ frame_needed = 1, uses_anonymous_args = 0
 176              		@ link register save eliminated.
 177 0000 80B4     		push	{r7}
 178              	.LCFI9:
 179              		.cfi_def_cfa_offset 4
 180              		.cfi_offset 7, -4
 181 0002 85B0     		sub	sp, sp, #20
 182              	.LCFI10:
 183              		.cfi_def_cfa_offset 24
 184 0004 00AF     		add	r7, sp, #0
 185              	.LCFI11:
 186              		.cfi_def_cfa_register 7
 187 0006 7860     		str	r0, [r7, #4]
 180:.\Generated_Source\PSoC5/isr_LoveLock_Ticks.c ****     cyisraddress * ramVectorTable;
 181:.\Generated_Source\PSoC5/isr_LoveLock_Ticks.c **** 
 182:.\Generated_Source\PSoC5/isr_LoveLock_Ticks.c ****     ramVectorTable = (cyisraddress *) *CYINT_VECT_TABLE;
 188              		.loc 1 182 0
 189 0008 4EF60853 		movw	r3, #60680
 190 000c CEF20003 		movt	r3, 57344
 191 0010 1B68     		ldr	r3, [r3, #0]
 192 0012 FB60     		str	r3, [r7, #12]
 183:.\Generated_Source\PSoC5/isr_LoveLock_Ticks.c **** 
 184:.\Generated_Source\PSoC5/isr_LoveLock_Ticks.c ****     ramVectorTable[CYINT_IRQ_BASE + (uint32)isr_LoveLock_Ticks__INTC_NUMBER] = address;
 193              		.loc 1 184 0
 194 0014 FB68     		ldr	r3, [r7, #12]
 195 0016 03F16003 		add	r3, r3, #96
 196 001a 7A68     		ldr	r2, [r7, #4]
 197 001c 1A60     		str	r2, [r3, #0]
 185:.\Generated_Source\PSoC5/isr_LoveLock_Ticks.c **** }
 198              		.loc 1 185 0
 199 001e 07F11407 		add	r7, r7, #20
 200 0022 BD46     		mov	sp, r7
 201 0024 80BC     		pop	{r7}
 202 0026 7047     		bx	lr
 203              		.cfi_endproc
 204              	.LFE4:
 205              		.size	isr_LoveLock_Ticks_SetVector, .-isr_LoveLock_Ticks_SetVector
 206              		.section	.text.isr_LoveLock_Ticks_GetVector,"ax",%progbits
 207              		.align	2
 208              		.global	isr_LoveLock_Ticks_GetVector
 209              		.thumb
 210              		.thumb_func
 211              		.type	isr_LoveLock_Ticks_GetVector, %function
 212              	isr_LoveLock_Ticks_GetVector:
 213              	.LFB5:
 186:.\Generated_Source\PSoC5/isr_LoveLock_Ticks.c **** 
ARM GAS  C:\Users\graziano\AppData\Local\Temp\ccUJzEC3.s 			page 8


 187:.\Generated_Source\PSoC5/isr_LoveLock_Ticks.c **** 
 188:.\Generated_Source\PSoC5/isr_LoveLock_Ticks.c **** /*******************************************************************************
 189:.\Generated_Source\PSoC5/isr_LoveLock_Ticks.c **** * Function Name: isr_LoveLock_Ticks_GetVector
 190:.\Generated_Source\PSoC5/isr_LoveLock_Ticks.c **** ********************************************************************************
 191:.\Generated_Source\PSoC5/isr_LoveLock_Ticks.c **** *
 192:.\Generated_Source\PSoC5/isr_LoveLock_Ticks.c **** * Summary:
 193:.\Generated_Source\PSoC5/isr_LoveLock_Ticks.c **** *   Gets the "address" of the current ISR vector for the Interrupt.
 194:.\Generated_Source\PSoC5/isr_LoveLock_Ticks.c **** *
 195:.\Generated_Source\PSoC5/isr_LoveLock_Ticks.c **** * Parameters:
 196:.\Generated_Source\PSoC5/isr_LoveLock_Ticks.c **** *   None
 197:.\Generated_Source\PSoC5/isr_LoveLock_Ticks.c **** *
 198:.\Generated_Source\PSoC5/isr_LoveLock_Ticks.c **** * Return:
 199:.\Generated_Source\PSoC5/isr_LoveLock_Ticks.c **** *   Address of the ISR in the interrupt vector table.
 200:.\Generated_Source\PSoC5/isr_LoveLock_Ticks.c **** *
 201:.\Generated_Source\PSoC5/isr_LoveLock_Ticks.c **** *******************************************************************************/
 202:.\Generated_Source\PSoC5/isr_LoveLock_Ticks.c **** cyisraddress isr_LoveLock_Ticks_GetVector(void)
 203:.\Generated_Source\PSoC5/isr_LoveLock_Ticks.c **** {
 214              		.loc 1 203 0
 215              		.cfi_startproc
 216              		@ args = 0, pretend = 0, frame = 8
 217              		@ frame_needed = 1, uses_anonymous_args = 0
 218              		@ link register save eliminated.
 219 0000 80B4     		push	{r7}
 220              	.LCFI12:
 221              		.cfi_def_cfa_offset 4
 222              		.cfi_offset 7, -4
 223 0002 83B0     		sub	sp, sp, #12
 224              	.LCFI13:
 225              		.cfi_def_cfa_offset 16
 226 0004 00AF     		add	r7, sp, #0
 227              	.LCFI14:
 228              		.cfi_def_cfa_register 7
 204:.\Generated_Source\PSoC5/isr_LoveLock_Ticks.c ****     cyisraddress * ramVectorTable;
 205:.\Generated_Source\PSoC5/isr_LoveLock_Ticks.c **** 
 206:.\Generated_Source\PSoC5/isr_LoveLock_Ticks.c ****     ramVectorTable = (cyisraddress *) *CYINT_VECT_TABLE;
 229              		.loc 1 206 0
 230 0006 4EF60853 		movw	r3, #60680
 231 000a CEF20003 		movt	r3, 57344
 232 000e 1B68     		ldr	r3, [r3, #0]
 233 0010 7B60     		str	r3, [r7, #4]
 207:.\Generated_Source\PSoC5/isr_LoveLock_Ticks.c **** 
 208:.\Generated_Source\PSoC5/isr_LoveLock_Ticks.c ****     return ramVectorTable[CYINT_IRQ_BASE + (uint32)isr_LoveLock_Ticks__INTC_NUMBER];
 234              		.loc 1 208 0
 235 0012 7B68     		ldr	r3, [r7, #4]
 236 0014 1B6E     		ldr	r3, [r3, #96]
 209:.\Generated_Source\PSoC5/isr_LoveLock_Ticks.c **** }
 237              		.loc 1 209 0
 238 0016 1846     		mov	r0, r3
 239 0018 07F10C07 		add	r7, r7, #12
 240 001c BD46     		mov	sp, r7
 241 001e 80BC     		pop	{r7}
 242 0020 7047     		bx	lr
 243              		.cfi_endproc
 244              	.LFE5:
 245              		.size	isr_LoveLock_Ticks_GetVector, .-isr_LoveLock_Ticks_GetVector
 246 0022 00BF     		.section	.text.isr_LoveLock_Ticks_SetPriority,"ax",%progbits
 247              		.align	2
ARM GAS  C:\Users\graziano\AppData\Local\Temp\ccUJzEC3.s 			page 9


 248              		.global	isr_LoveLock_Ticks_SetPriority
 249              		.thumb
 250              		.thumb_func
 251              		.type	isr_LoveLock_Ticks_SetPriority, %function
 252              	isr_LoveLock_Ticks_SetPriority:
 253              	.LFB6:
 210:.\Generated_Source\PSoC5/isr_LoveLock_Ticks.c **** 
 211:.\Generated_Source\PSoC5/isr_LoveLock_Ticks.c **** 
 212:.\Generated_Source\PSoC5/isr_LoveLock_Ticks.c **** /*******************************************************************************
 213:.\Generated_Source\PSoC5/isr_LoveLock_Ticks.c **** * Function Name: isr_LoveLock_Ticks_SetPriority
 214:.\Generated_Source\PSoC5/isr_LoveLock_Ticks.c **** ********************************************************************************
 215:.\Generated_Source\PSoC5/isr_LoveLock_Ticks.c **** *
 216:.\Generated_Source\PSoC5/isr_LoveLock_Ticks.c **** * Summary:
 217:.\Generated_Source\PSoC5/isr_LoveLock_Ticks.c **** *   Sets the Priority of the Interrupt. Note calling isr_LoveLock_Ticks_Start
 218:.\Generated_Source\PSoC5/isr_LoveLock_Ticks.c **** *   or isr_LoveLock_Ticks_StartEx will override any effect this method 
 219:.\Generated_Source\PSoC5/isr_LoveLock_Ticks.c **** *   would have had. This method should only be called after 
 220:.\Generated_Source\PSoC5/isr_LoveLock_Ticks.c **** *   isr_LoveLock_Ticks_Start or isr_LoveLock_Ticks_StartEx has been called. To set 
 221:.\Generated_Source\PSoC5/isr_LoveLock_Ticks.c **** *   the initial priority for the component use the cydwr file in the tool.
 222:.\Generated_Source\PSoC5/isr_LoveLock_Ticks.c **** *
 223:.\Generated_Source\PSoC5/isr_LoveLock_Ticks.c **** * Parameters:
 224:.\Generated_Source\PSoC5/isr_LoveLock_Ticks.c **** *   priority: Priority of the interrupt. 0 - 7, 0 being the highest.
 225:.\Generated_Source\PSoC5/isr_LoveLock_Ticks.c **** *
 226:.\Generated_Source\PSoC5/isr_LoveLock_Ticks.c **** * Return:
 227:.\Generated_Source\PSoC5/isr_LoveLock_Ticks.c **** *   None
 228:.\Generated_Source\PSoC5/isr_LoveLock_Ticks.c **** *
 229:.\Generated_Source\PSoC5/isr_LoveLock_Ticks.c **** *******************************************************************************/
 230:.\Generated_Source\PSoC5/isr_LoveLock_Ticks.c **** void isr_LoveLock_Ticks_SetPriority(uint8 priority)
 231:.\Generated_Source\PSoC5/isr_LoveLock_Ticks.c **** {
 254              		.loc 1 231 0
 255              		.cfi_startproc
 256              		@ args = 0, pretend = 0, frame = 8
 257              		@ frame_needed = 1, uses_anonymous_args = 0
 258              		@ link register save eliminated.
 259 0000 80B4     		push	{r7}
 260              	.LCFI15:
 261              		.cfi_def_cfa_offset 4
 262              		.cfi_offset 7, -4
 263 0002 83B0     		sub	sp, sp, #12
 264              	.LCFI16:
 265              		.cfi_def_cfa_offset 16
 266 0004 00AF     		add	r7, sp, #0
 267              	.LCFI17:
 268              		.cfi_def_cfa_register 7
 269 0006 0346     		mov	r3, r0
 270 0008 FB71     		strb	r3, [r7, #7]
 232:.\Generated_Source\PSoC5/isr_LoveLock_Ticks.c ****     *isr_LoveLock_Ticks_INTC_PRIOR = priority << 5;
 271              		.loc 1 232 0
 272 000a 4EF20843 		movw	r3, #58376
 273 000e CEF20003 		movt	r3, 57344
 274 0012 FA79     		ldrb	r2, [r7, #7]
 275 0014 4FEA4212 		lsl	r2, r2, #5
 276 0018 D2B2     		uxtb	r2, r2
 277 001a 1A70     		strb	r2, [r3, #0]
 233:.\Generated_Source\PSoC5/isr_LoveLock_Ticks.c **** }
 278              		.loc 1 233 0
 279 001c 07F10C07 		add	r7, r7, #12
 280 0020 BD46     		mov	sp, r7
ARM GAS  C:\Users\graziano\AppData\Local\Temp\ccUJzEC3.s 			page 10


 281 0022 80BC     		pop	{r7}
 282 0024 7047     		bx	lr
 283              		.cfi_endproc
 284              	.LFE6:
 285              		.size	isr_LoveLock_Ticks_SetPriority, .-isr_LoveLock_Ticks_SetPriority
 286 0026 00BF     		.section	.text.isr_LoveLock_Ticks_GetPriority,"ax",%progbits
 287              		.align	2
 288              		.global	isr_LoveLock_Ticks_GetPriority
 289              		.thumb
 290              		.thumb_func
 291              		.type	isr_LoveLock_Ticks_GetPriority, %function
 292              	isr_LoveLock_Ticks_GetPriority:
 293              	.LFB7:
 234:.\Generated_Source\PSoC5/isr_LoveLock_Ticks.c **** 
 235:.\Generated_Source\PSoC5/isr_LoveLock_Ticks.c **** 
 236:.\Generated_Source\PSoC5/isr_LoveLock_Ticks.c **** /*******************************************************************************
 237:.\Generated_Source\PSoC5/isr_LoveLock_Ticks.c **** * Function Name: isr_LoveLock_Ticks_GetPriority
 238:.\Generated_Source\PSoC5/isr_LoveLock_Ticks.c **** ********************************************************************************
 239:.\Generated_Source\PSoC5/isr_LoveLock_Ticks.c **** *
 240:.\Generated_Source\PSoC5/isr_LoveLock_Ticks.c **** * Summary:
 241:.\Generated_Source\PSoC5/isr_LoveLock_Ticks.c **** *   Gets the Priority of the Interrupt.
 242:.\Generated_Source\PSoC5/isr_LoveLock_Ticks.c **** *
 243:.\Generated_Source\PSoC5/isr_LoveLock_Ticks.c **** * Parameters:
 244:.\Generated_Source\PSoC5/isr_LoveLock_Ticks.c **** *   None
 245:.\Generated_Source\PSoC5/isr_LoveLock_Ticks.c **** *
 246:.\Generated_Source\PSoC5/isr_LoveLock_Ticks.c **** * Return:
 247:.\Generated_Source\PSoC5/isr_LoveLock_Ticks.c **** *   Priority of the interrupt. 0 - 7, 0 being the highest.
 248:.\Generated_Source\PSoC5/isr_LoveLock_Ticks.c **** *
 249:.\Generated_Source\PSoC5/isr_LoveLock_Ticks.c **** *******************************************************************************/
 250:.\Generated_Source\PSoC5/isr_LoveLock_Ticks.c **** uint8 isr_LoveLock_Ticks_GetPriority(void)
 251:.\Generated_Source\PSoC5/isr_LoveLock_Ticks.c **** {
 294              		.loc 1 251 0
 295              		.cfi_startproc
 296              		@ args = 0, pretend = 0, frame = 8
 297              		@ frame_needed = 1, uses_anonymous_args = 0
 298              		@ link register save eliminated.
 299 0000 80B4     		push	{r7}
 300              	.LCFI18:
 301              		.cfi_def_cfa_offset 4
 302              		.cfi_offset 7, -4
 303 0002 83B0     		sub	sp, sp, #12
 304              	.LCFI19:
 305              		.cfi_def_cfa_offset 16
 306 0004 00AF     		add	r7, sp, #0
 307              	.LCFI20:
 308              		.cfi_def_cfa_register 7
 252:.\Generated_Source\PSoC5/isr_LoveLock_Ticks.c ****     uint8 priority;
 253:.\Generated_Source\PSoC5/isr_LoveLock_Ticks.c **** 
 254:.\Generated_Source\PSoC5/isr_LoveLock_Ticks.c **** 
 255:.\Generated_Source\PSoC5/isr_LoveLock_Ticks.c ****     priority = *isr_LoveLock_Ticks_INTC_PRIOR >> 5;
 309              		.loc 1 255 0
 310 0006 4EF20843 		movw	r3, #58376
 311 000a CEF20003 		movt	r3, 57344
 312 000e 1B78     		ldrb	r3, [r3, #0]
 313 0010 DBB2     		uxtb	r3, r3
 314 0012 4FEA5313 		lsr	r3, r3, #5
 315 0016 FB71     		strb	r3, [r7, #7]
ARM GAS  C:\Users\graziano\AppData\Local\Temp\ccUJzEC3.s 			page 11


 256:.\Generated_Source\PSoC5/isr_LoveLock_Ticks.c **** 
 257:.\Generated_Source\PSoC5/isr_LoveLock_Ticks.c ****     return priority;
 316              		.loc 1 257 0
 317 0018 FB79     		ldrb	r3, [r7, #7]	@ zero_extendqisi2
 258:.\Generated_Source\PSoC5/isr_LoveLock_Ticks.c **** }
 318              		.loc 1 258 0
 319 001a 1846     		mov	r0, r3
 320 001c 07F10C07 		add	r7, r7, #12
 321 0020 BD46     		mov	sp, r7
 322 0022 80BC     		pop	{r7}
 323 0024 7047     		bx	lr
 324              		.cfi_endproc
 325              	.LFE7:
 326              		.size	isr_LoveLock_Ticks_GetPriority, .-isr_LoveLock_Ticks_GetPriority
 327 0026 00BF     		.section	.text.isr_LoveLock_Ticks_Enable,"ax",%progbits
 328              		.align	2
 329              		.global	isr_LoveLock_Ticks_Enable
 330              		.thumb
 331              		.thumb_func
 332              		.type	isr_LoveLock_Ticks_Enable, %function
 333              	isr_LoveLock_Ticks_Enable:
 334              	.LFB8:
 259:.\Generated_Source\PSoC5/isr_LoveLock_Ticks.c **** 
 260:.\Generated_Source\PSoC5/isr_LoveLock_Ticks.c **** 
 261:.\Generated_Source\PSoC5/isr_LoveLock_Ticks.c **** /*******************************************************************************
 262:.\Generated_Source\PSoC5/isr_LoveLock_Ticks.c **** * Function Name: isr_LoveLock_Ticks_Enable
 263:.\Generated_Source\PSoC5/isr_LoveLock_Ticks.c **** ********************************************************************************
 264:.\Generated_Source\PSoC5/isr_LoveLock_Ticks.c **** *
 265:.\Generated_Source\PSoC5/isr_LoveLock_Ticks.c **** * Summary:
 266:.\Generated_Source\PSoC5/isr_LoveLock_Ticks.c **** *   Enables the interrupt.
 267:.\Generated_Source\PSoC5/isr_LoveLock_Ticks.c **** *
 268:.\Generated_Source\PSoC5/isr_LoveLock_Ticks.c **** * Parameters:
 269:.\Generated_Source\PSoC5/isr_LoveLock_Ticks.c **** *   None
 270:.\Generated_Source\PSoC5/isr_LoveLock_Ticks.c **** *
 271:.\Generated_Source\PSoC5/isr_LoveLock_Ticks.c **** * Return:
 272:.\Generated_Source\PSoC5/isr_LoveLock_Ticks.c **** *   None
 273:.\Generated_Source\PSoC5/isr_LoveLock_Ticks.c **** *
 274:.\Generated_Source\PSoC5/isr_LoveLock_Ticks.c **** *******************************************************************************/
 275:.\Generated_Source\PSoC5/isr_LoveLock_Ticks.c **** void isr_LoveLock_Ticks_Enable(void)
 276:.\Generated_Source\PSoC5/isr_LoveLock_Ticks.c **** {
 335              		.loc 1 276 0
 336              		.cfi_startproc
 337              		@ args = 0, pretend = 0, frame = 0
 338              		@ frame_needed = 1, uses_anonymous_args = 0
 339              		@ link register save eliminated.
 340 0000 80B4     		push	{r7}
 341              	.LCFI21:
 342              		.cfi_def_cfa_offset 4
 343              		.cfi_offset 7, -4
 344 0002 00AF     		add	r7, sp, #0
 345              	.LCFI22:
 346              		.cfi_def_cfa_register 7
 277:.\Generated_Source\PSoC5/isr_LoveLock_Ticks.c ****     /* Enable the general interrupt. */
 278:.\Generated_Source\PSoC5/isr_LoveLock_Ticks.c ****     *isr_LoveLock_Ticks_INTC_SET_EN = isr_LoveLock_Ticks__INTC_MASK;
 347              		.loc 1 278 0
 348 0004 4FF46143 		mov	r3, #57600
 349 0008 CEF20003 		movt	r3, 57344
ARM GAS  C:\Users\graziano\AppData\Local\Temp\ccUJzEC3.s 			page 12


 350 000c 4FF48072 		mov	r2, #256
 351 0010 1A60     		str	r2, [r3, #0]
 279:.\Generated_Source\PSoC5/isr_LoveLock_Ticks.c **** }
 352              		.loc 1 279 0
 353 0012 BD46     		mov	sp, r7
 354 0014 80BC     		pop	{r7}
 355 0016 7047     		bx	lr
 356              		.cfi_endproc
 357              	.LFE8:
 358              		.size	isr_LoveLock_Ticks_Enable, .-isr_LoveLock_Ticks_Enable
 359              		.section	.text.isr_LoveLock_Ticks_GetState,"ax",%progbits
 360              		.align	2
 361              		.global	isr_LoveLock_Ticks_GetState
 362              		.thumb
 363              		.thumb_func
 364              		.type	isr_LoveLock_Ticks_GetState, %function
 365              	isr_LoveLock_Ticks_GetState:
 366              	.LFB9:
 280:.\Generated_Source\PSoC5/isr_LoveLock_Ticks.c **** 
 281:.\Generated_Source\PSoC5/isr_LoveLock_Ticks.c **** 
 282:.\Generated_Source\PSoC5/isr_LoveLock_Ticks.c **** /*******************************************************************************
 283:.\Generated_Source\PSoC5/isr_LoveLock_Ticks.c **** * Function Name: isr_LoveLock_Ticks_GetState
 284:.\Generated_Source\PSoC5/isr_LoveLock_Ticks.c **** ********************************************************************************
 285:.\Generated_Source\PSoC5/isr_LoveLock_Ticks.c **** *
 286:.\Generated_Source\PSoC5/isr_LoveLock_Ticks.c **** * Summary:
 287:.\Generated_Source\PSoC5/isr_LoveLock_Ticks.c **** *   Gets the state (enabled, disabled) of the Interrupt.
 288:.\Generated_Source\PSoC5/isr_LoveLock_Ticks.c **** *
 289:.\Generated_Source\PSoC5/isr_LoveLock_Ticks.c **** * Parameters:
 290:.\Generated_Source\PSoC5/isr_LoveLock_Ticks.c **** *   None
 291:.\Generated_Source\PSoC5/isr_LoveLock_Ticks.c **** *
 292:.\Generated_Source\PSoC5/isr_LoveLock_Ticks.c **** * Return:
 293:.\Generated_Source\PSoC5/isr_LoveLock_Ticks.c **** *   1 if enabled, 0 if disabled.
 294:.\Generated_Source\PSoC5/isr_LoveLock_Ticks.c **** *
 295:.\Generated_Source\PSoC5/isr_LoveLock_Ticks.c **** *******************************************************************************/
 296:.\Generated_Source\PSoC5/isr_LoveLock_Ticks.c **** uint8 isr_LoveLock_Ticks_GetState(void)
 297:.\Generated_Source\PSoC5/isr_LoveLock_Ticks.c **** {
 367              		.loc 1 297 0
 368              		.cfi_startproc
 369              		@ args = 0, pretend = 0, frame = 0
 370              		@ frame_needed = 1, uses_anonymous_args = 0
 371              		@ link register save eliminated.
 372 0000 80B4     		push	{r7}
 373              	.LCFI23:
 374              		.cfi_def_cfa_offset 4
 375              		.cfi_offset 7, -4
 376 0002 00AF     		add	r7, sp, #0
 377              	.LCFI24:
 378              		.cfi_def_cfa_register 7
 298:.\Generated_Source\PSoC5/isr_LoveLock_Ticks.c ****     /* Get the state of the general interrupt. */
 299:.\Generated_Source\PSoC5/isr_LoveLock_Ticks.c ****     return ((*isr_LoveLock_Ticks_INTC_SET_EN & (uint32)isr_LoveLock_Ticks__INTC_MASK) != 0u) ? 1u:0
 379              		.loc 1 299 0
 380 0004 4FF46143 		mov	r3, #57600
 381 0008 CEF20003 		movt	r3, 57344
 382 000c 1B68     		ldr	r3, [r3, #0]
 383 000e 03F48073 		and	r3, r3, #256
 384 0012 002B     		cmp	r3, #0
 385 0014 02D0     		beq	.L13
ARM GAS  C:\Users\graziano\AppData\Local\Temp\ccUJzEC3.s 			page 13


 386              		.loc 1 299 0 is_stmt 0 discriminator 1
 387 0016 4FF00103 		mov	r3, #1
 388 001a 01E0     		b	.L14
 389              	.L13:
 390              		.loc 1 299 0 discriminator 2
 391 001c 4FF00003 		mov	r3, #0
 392              	.L14:
 300:.\Generated_Source\PSoC5/isr_LoveLock_Ticks.c **** }
 393              		.loc 1 300 0 is_stmt 1 discriminator 3
 394 0020 1846     		mov	r0, r3
 395 0022 BD46     		mov	sp, r7
 396 0024 80BC     		pop	{r7}
 397 0026 7047     		bx	lr
 398              		.cfi_endproc
 399              	.LFE9:
 400              		.size	isr_LoveLock_Ticks_GetState, .-isr_LoveLock_Ticks_GetState
 401              		.section	.text.isr_LoveLock_Ticks_Disable,"ax",%progbits
 402              		.align	2
 403              		.global	isr_LoveLock_Ticks_Disable
 404              		.thumb
 405              		.thumb_func
 406              		.type	isr_LoveLock_Ticks_Disable, %function
 407              	isr_LoveLock_Ticks_Disable:
 408              	.LFB10:
 301:.\Generated_Source\PSoC5/isr_LoveLock_Ticks.c **** 
 302:.\Generated_Source\PSoC5/isr_LoveLock_Ticks.c **** 
 303:.\Generated_Source\PSoC5/isr_LoveLock_Ticks.c **** /*******************************************************************************
 304:.\Generated_Source\PSoC5/isr_LoveLock_Ticks.c **** * Function Name: isr_LoveLock_Ticks_Disable
 305:.\Generated_Source\PSoC5/isr_LoveLock_Ticks.c **** ********************************************************************************
 306:.\Generated_Source\PSoC5/isr_LoveLock_Ticks.c **** *
 307:.\Generated_Source\PSoC5/isr_LoveLock_Ticks.c **** * Summary:
 308:.\Generated_Source\PSoC5/isr_LoveLock_Ticks.c **** *   Disables the Interrupt.
 309:.\Generated_Source\PSoC5/isr_LoveLock_Ticks.c **** *
 310:.\Generated_Source\PSoC5/isr_LoveLock_Ticks.c **** * Parameters:
 311:.\Generated_Source\PSoC5/isr_LoveLock_Ticks.c **** *   None
 312:.\Generated_Source\PSoC5/isr_LoveLock_Ticks.c **** *
 313:.\Generated_Source\PSoC5/isr_LoveLock_Ticks.c **** * Return:
 314:.\Generated_Source\PSoC5/isr_LoveLock_Ticks.c **** *   None
 315:.\Generated_Source\PSoC5/isr_LoveLock_Ticks.c **** *
 316:.\Generated_Source\PSoC5/isr_LoveLock_Ticks.c **** *******************************************************************************/
 317:.\Generated_Source\PSoC5/isr_LoveLock_Ticks.c **** void isr_LoveLock_Ticks_Disable(void)
 318:.\Generated_Source\PSoC5/isr_LoveLock_Ticks.c **** {
 409              		.loc 1 318 0
 410              		.cfi_startproc
 411              		@ args = 0, pretend = 0, frame = 0
 412              		@ frame_needed = 1, uses_anonymous_args = 0
 413              		@ link register save eliminated.
 414 0000 80B4     		push	{r7}
 415              	.LCFI25:
 416              		.cfi_def_cfa_offset 4
 417              		.cfi_offset 7, -4
 418 0002 00AF     		add	r7, sp, #0
 419              	.LCFI26:
 420              		.cfi_def_cfa_register 7
 319:.\Generated_Source\PSoC5/isr_LoveLock_Ticks.c ****     /* Disable the general interrupt. */
 320:.\Generated_Source\PSoC5/isr_LoveLock_Ticks.c ****     *isr_LoveLock_Ticks_INTC_CLR_EN = isr_LoveLock_Ticks__INTC_MASK;
 421              		.loc 1 320 0
ARM GAS  C:\Users\graziano\AppData\Local\Temp\ccUJzEC3.s 			page 14


 422 0004 4EF28013 		movw	r3, #57728
 423 0008 CEF20003 		movt	r3, 57344
 424 000c 4FF48072 		mov	r2, #256
 425 0010 1A60     		str	r2, [r3, #0]
 321:.\Generated_Source\PSoC5/isr_LoveLock_Ticks.c **** }
 426              		.loc 1 321 0
 427 0012 BD46     		mov	sp, r7
 428 0014 80BC     		pop	{r7}
 429 0016 7047     		bx	lr
 430              		.cfi_endproc
 431              	.LFE10:
 432              		.size	isr_LoveLock_Ticks_Disable, .-isr_LoveLock_Ticks_Disable
 433              		.section	.text.isr_LoveLock_Ticks_SetPending,"ax",%progbits
 434              		.align	2
 435              		.global	isr_LoveLock_Ticks_SetPending
 436              		.thumb
 437              		.thumb_func
 438              		.type	isr_LoveLock_Ticks_SetPending, %function
 439              	isr_LoveLock_Ticks_SetPending:
 440              	.LFB11:
 322:.\Generated_Source\PSoC5/isr_LoveLock_Ticks.c **** 
 323:.\Generated_Source\PSoC5/isr_LoveLock_Ticks.c **** 
 324:.\Generated_Source\PSoC5/isr_LoveLock_Ticks.c **** /*******************************************************************************
 325:.\Generated_Source\PSoC5/isr_LoveLock_Ticks.c **** * Function Name: isr_LoveLock_Ticks_SetPending
 326:.\Generated_Source\PSoC5/isr_LoveLock_Ticks.c **** ********************************************************************************
 327:.\Generated_Source\PSoC5/isr_LoveLock_Ticks.c **** *
 328:.\Generated_Source\PSoC5/isr_LoveLock_Ticks.c **** * Summary:
 329:.\Generated_Source\PSoC5/isr_LoveLock_Ticks.c **** *   Causes the Interrupt to enter the pending state, a software method of
 330:.\Generated_Source\PSoC5/isr_LoveLock_Ticks.c **** *   generating the interrupt.
 331:.\Generated_Source\PSoC5/isr_LoveLock_Ticks.c **** *
 332:.\Generated_Source\PSoC5/isr_LoveLock_Ticks.c **** * Parameters:
 333:.\Generated_Source\PSoC5/isr_LoveLock_Ticks.c **** *   None
 334:.\Generated_Source\PSoC5/isr_LoveLock_Ticks.c **** *
 335:.\Generated_Source\PSoC5/isr_LoveLock_Ticks.c **** * Return:
 336:.\Generated_Source\PSoC5/isr_LoveLock_Ticks.c **** *   None
 337:.\Generated_Source\PSoC5/isr_LoveLock_Ticks.c **** *
 338:.\Generated_Source\PSoC5/isr_LoveLock_Ticks.c **** *******************************************************************************/
 339:.\Generated_Source\PSoC5/isr_LoveLock_Ticks.c **** void isr_LoveLock_Ticks_SetPending(void)
 340:.\Generated_Source\PSoC5/isr_LoveLock_Ticks.c **** {
 441              		.loc 1 340 0
 442              		.cfi_startproc
 443              		@ args = 0, pretend = 0, frame = 0
 444              		@ frame_needed = 1, uses_anonymous_args = 0
 445              		@ link register save eliminated.
 446 0000 80B4     		push	{r7}
 447              	.LCFI27:
 448              		.cfi_def_cfa_offset 4
 449              		.cfi_offset 7, -4
 450 0002 00AF     		add	r7, sp, #0
 451              	.LCFI28:
 452              		.cfi_def_cfa_register 7
 341:.\Generated_Source\PSoC5/isr_LoveLock_Ticks.c ****     *isr_LoveLock_Ticks_INTC_SET_PD = isr_LoveLock_Ticks__INTC_MASK;
 453              		.loc 1 341 0
 454 0004 4FF46243 		mov	r3, #57856
 455 0008 CEF20003 		movt	r3, 57344
 456 000c 4FF48072 		mov	r2, #256
 457 0010 1A60     		str	r2, [r3, #0]
ARM GAS  C:\Users\graziano\AppData\Local\Temp\ccUJzEC3.s 			page 15


 342:.\Generated_Source\PSoC5/isr_LoveLock_Ticks.c **** }
 458              		.loc 1 342 0
 459 0012 BD46     		mov	sp, r7
 460 0014 80BC     		pop	{r7}
 461 0016 7047     		bx	lr
 462              		.cfi_endproc
 463              	.LFE11:
 464              		.size	isr_LoveLock_Ticks_SetPending, .-isr_LoveLock_Ticks_SetPending
 465              		.section	.text.isr_LoveLock_Ticks_ClearPending,"ax",%progbits
 466              		.align	2
 467              		.global	isr_LoveLock_Ticks_ClearPending
 468              		.thumb
 469              		.thumb_func
 470              		.type	isr_LoveLock_Ticks_ClearPending, %function
 471              	isr_LoveLock_Ticks_ClearPending:
 472              	.LFB12:
 343:.\Generated_Source\PSoC5/isr_LoveLock_Ticks.c **** 
 344:.\Generated_Source\PSoC5/isr_LoveLock_Ticks.c **** 
 345:.\Generated_Source\PSoC5/isr_LoveLock_Ticks.c **** /*******************************************************************************
 346:.\Generated_Source\PSoC5/isr_LoveLock_Ticks.c **** * Function Name: isr_LoveLock_Ticks_ClearPending
 347:.\Generated_Source\PSoC5/isr_LoveLock_Ticks.c **** ********************************************************************************
 348:.\Generated_Source\PSoC5/isr_LoveLock_Ticks.c **** *
 349:.\Generated_Source\PSoC5/isr_LoveLock_Ticks.c **** * Summary:
 350:.\Generated_Source\PSoC5/isr_LoveLock_Ticks.c **** *   Clears a pending interrupt.
 351:.\Generated_Source\PSoC5/isr_LoveLock_Ticks.c **** *
 352:.\Generated_Source\PSoC5/isr_LoveLock_Ticks.c **** * Parameters:
 353:.\Generated_Source\PSoC5/isr_LoveLock_Ticks.c **** *   None
 354:.\Generated_Source\PSoC5/isr_LoveLock_Ticks.c **** *
 355:.\Generated_Source\PSoC5/isr_LoveLock_Ticks.c **** * Return:
 356:.\Generated_Source\PSoC5/isr_LoveLock_Ticks.c **** *   None
 357:.\Generated_Source\PSoC5/isr_LoveLock_Ticks.c **** *
 358:.\Generated_Source\PSoC5/isr_LoveLock_Ticks.c **** *******************************************************************************/
 359:.\Generated_Source\PSoC5/isr_LoveLock_Ticks.c **** void isr_LoveLock_Ticks_ClearPending(void)
 360:.\Generated_Source\PSoC5/isr_LoveLock_Ticks.c **** {
 473              		.loc 1 360 0
 474              		.cfi_startproc
 475              		@ args = 0, pretend = 0, frame = 0
 476              		@ frame_needed = 1, uses_anonymous_args = 0
 477              		@ link register save eliminated.
 478 0000 80B4     		push	{r7}
 479              	.LCFI29:
 480              		.cfi_def_cfa_offset 4
 481              		.cfi_offset 7, -4
 482 0002 00AF     		add	r7, sp, #0
 483              	.LCFI30:
 484              		.cfi_def_cfa_register 7
 361:.\Generated_Source\PSoC5/isr_LoveLock_Ticks.c ****     *isr_LoveLock_Ticks_INTC_CLR_PD = isr_LoveLock_Ticks__INTC_MASK;
 485              		.loc 1 361 0
 486 0004 4EF28023 		movw	r3, #57984
 487 0008 CEF20003 		movt	r3, 57344
 488 000c 4FF48072 		mov	r2, #256
 489 0010 1A60     		str	r2, [r3, #0]
 362:.\Generated_Source\PSoC5/isr_LoveLock_Ticks.c **** }
 490              		.loc 1 362 0
 491 0012 BD46     		mov	sp, r7
 492 0014 80BC     		pop	{r7}
 493 0016 7047     		bx	lr
ARM GAS  C:\Users\graziano\AppData\Local\Temp\ccUJzEC3.s 			page 16


 494              		.cfi_endproc
 495              	.LFE12:
 496              		.size	isr_LoveLock_Ticks_ClearPending, .-isr_LoveLock_Ticks_ClearPending
 497              		.text
 498              	.Letext0:
 499              		.file 2 "./Generated_Source/PSoC5/cytypes.h"
 500              		.file 3 "./das.h"