ARM GAS  C:\Users\GRAZIA~1.RAV\AppData\Local\Temp\cc5K4lp0.s 			page 1


   1              		.syntax unified
   2              		.cpu cortex-m3
   3              		.fpu softvfp
   4              		.eabi_attribute 20, 1
   5              		.eabi_attribute 21, 1
   6              		.eabi_attribute 23, 3
   7              		.eabi_attribute 24, 1
   8              		.eabi_attribute 25, 1
   9              		.eabi_attribute 26, 1
  10              		.eabi_attribute 30, 6
  11              		.eabi_attribute 34, 1
  12              		.eabi_attribute 18, 4
  13              		.thumb
  14              		.file	"ME_geometry.c"
  15              		.text
  16              	.Ltext0:
  17              		.cfi_sections	.debug_frame
  18              		.section	.text.offset_heading,"ax",%progbits
  19              		.align	2
  20              		.global	offset_heading
  21              		.thumb
  22              		.thumb_func
  23              		.type	offset_heading, %function
  24              	offset_heading:
  25              	.LFB0:
  26              		.file 1 ".\\ME_geometry.c"
   1:.\ME_geometry.c **** /**************************************************************************************************
   2:.\ME_geometry.c ****   
   3:.\ME_geometry.c ****   Modulo "Geometry" (v0.20B)
   4:.\ME_geometry.c ****   (c) 2013-2015 Movie Engineering
   5:.\ME_geometry.c **** 
   6:.\ME_geometry.c ****   Vedi header file.
   7:.\ME_geometry.c ****    
   8:.\ME_geometry.c **** ***************************************************************************************************
   9:.\ME_geometry.c **** #include <stdio.h>
  10:.\ME_geometry.c **** #include <math.h>
  11:.\ME_geometry.c **** 
  12:.\ME_geometry.c **** #include "ME_common.h"
  13:.\ME_geometry.c **** #include "ME_geometry.h"
  14:.\ME_geometry.c **** 
  15:.\ME_geometry.c **** ///////////////////////////////////////////////////////////////////////////////////////////////////
  16:.\ME_geometry.c **** 
  17:.\ME_geometry.c **** 
  18:.\ME_geometry.c **** INT offset_heading(WORD raw, WORD offset)
  19:.\ME_geometry.c **** {
  27              		.loc 1 19 0
  28              		.cfi_startproc
  29              		@ args = 0, pretend = 0, frame = 16
  30              		@ frame_needed = 1, uses_anonymous_args = 0
  31              		@ link register save eliminated.
  32 0000 80B4     		push	{r7}
  33              	.LCFI0:
  34              		.cfi_def_cfa_offset 4
  35              		.cfi_offset 7, -4
  36 0002 85B0     		sub	sp, sp, #20
  37              	.LCFI1:
  38              		.cfi_def_cfa_offset 24
ARM GAS  C:\Users\GRAZIA~1.RAV\AppData\Local\Temp\cc5K4lp0.s 			page 2


  39 0004 00AF     		add	r7, sp, #0
  40              	.LCFI2:
  41              		.cfi_def_cfa_register 7
  42 0006 0246     		mov	r2, r0
  43 0008 0B46     		mov	r3, r1
  44 000a FA80     		strh	r2, [r7, #6]	@ movhi
  45 000c BB80     		strh	r3, [r7, #4]	@ movhi
  20:.\ME_geometry.c ****     INT heading ;
  21:.\ME_geometry.c **** 
  22:.\ME_geometry.c ****     heading = raw - offset ;                                  // Tiene in considerazione l'offset
  46              		.loc 1 22 0
  47 000e FA88     		ldrh	r2, [r7, #6]	@ movhi
  48 0010 BB88     		ldrh	r3, [r7, #4]	@ movhi
  49 0012 D31A     		subs	r3, r2, r3
  50 0014 9BB2     		uxth	r3, r3
  51 0016 FB81     		strh	r3, [r7, #14]	@ movhi
  23:.\ME_geometry.c **** 
  24:.\ME_geometry.c ****     if ( ( offset <= 1800 ) && ( raw >= offset+1800 ) )       // Offset piccolo zona da correggere 
  52              		.loc 1 24 0
  53 0018 BB88     		ldrh	r3, [r7, #4]
  54 001a B3F5E16F 		cmp	r3, #1800
  55 001e 0ED8     		bhi	.L2
  56              		.loc 1 24 0 is_stmt 0 discriminator 1
  57 0020 FA88     		ldrh	r2, [r7, #6]
  58 0022 BB88     		ldrh	r3, [r7, #4]
  59 0024 03F5E163 		add	r3, r3, #1800
  60 0028 9A42     		cmp	r2, r3
  61 002a 08DB     		blt	.L2
  25:.\ME_geometry.c ****     {
  26:.\ME_geometry.c ****         heading = raw - offset - 3600 ;
  62              		.loc 1 26 0 is_stmt 1
  63 002c FA88     		ldrh	r2, [r7, #6]	@ movhi
  64 002e BB88     		ldrh	r3, [r7, #4]	@ movhi
  65 0030 D31A     		subs	r3, r2, r3
  66 0032 9BB2     		uxth	r3, r3
  67 0034 A3F56163 		sub	r3, r3, #3600
  68 0038 9BB2     		uxth	r3, r3
  69 003a FB81     		strh	r3, [r7, #14]	@ movhi
  70 003c 12E0     		b	.L3
  71              	.L2:
  27:.\ME_geometry.c ****     }
  28:.\ME_geometry.c ****     else if ( ( offset >= 1800 ) && ( raw <= offset-1800 ) )  // Offset grande zona da correggere
  72              		.loc 1 28 0
  73 003e BA88     		ldrh	r2, [r7, #4]
  74 0040 40F20773 		movw	r3, #1799
  75 0044 9A42     		cmp	r2, r3
  76 0046 0DD9     		bls	.L3
  77              		.loc 1 28 0 is_stmt 0 discriminator 1
  78 0048 FA88     		ldrh	r2, [r7, #6]
  79 004a BB88     		ldrh	r3, [r7, #4]
  80 004c A3F5E163 		sub	r3, r3, #1800
  81 0050 9A42     		cmp	r2, r3
  82 0052 07DC     		bgt	.L3
  29:.\ME_geometry.c ****     {
  30:.\ME_geometry.c ****         heading = raw - offset + 3600 ;
  83              		.loc 1 30 0 is_stmt 1
  84 0054 FA88     		ldrh	r2, [r7, #6]	@ movhi
ARM GAS  C:\Users\GRAZIA~1.RAV\AppData\Local\Temp\cc5K4lp0.s 			page 3


  85 0056 BB88     		ldrh	r3, [r7, #4]	@ movhi
  86 0058 D31A     		subs	r3, r2, r3
  87 005a 9BB2     		uxth	r3, r3
  88 005c 03F56163 		add	r3, r3, #3600
  89 0060 9BB2     		uxth	r3, r3
  90 0062 FB81     		strh	r3, [r7, #14]	@ movhi
  91              	.L3:
  31:.\ME_geometry.c ****     }
  32:.\ME_geometry.c **** 
  33:.\ME_geometry.c ****     return heading ;
  92              		.loc 1 33 0
  93 0064 FB89     		ldrh	r3, [r7, #14]
  94 0066 1BB2     		sxth	r3, r3
  34:.\ME_geometry.c **** }
  95              		.loc 1 34 0
  96 0068 1846     		mov	r0, r3
  97 006a 07F11407 		add	r7, r7, #20
  98 006e BD46     		mov	sp, r7
  99 0070 80BC     		pop	{r7}
 100 0072 7047     		bx	lr
 101              		.cfi_endproc
 102              	.LFE0:
 103              		.size	offset_heading, .-offset_heading
 104              		.global	__aeabi_f2d
 105              		.global	__aeabi_dmul
 106              		.global	__aeabi_d2f
 107              		.section	.text.euler_rad_to_deg,"ax",%progbits
 108              		.align	2
 109              		.global	euler_rad_to_deg
 110              		.thumb
 111              		.thumb_func
 112              		.type	euler_rad_to_deg, %function
 113              	euler_rad_to_deg:
 114              	.LFB1:
  35:.\ME_geometry.c **** 
  36:.\ME_geometry.c **** 
  37:.\ME_geometry.c **** ///////////////////////////////////////////////////////////////////////////////////////////////////
  38:.\ME_geometry.c **** 
  39:.\ME_geometry.c **** void euler_rad_to_deg(EULER_ANGLES *e)
  40:.\ME_geometry.c **** {
 115              		.loc 1 40 0
 116              		.cfi_startproc
 117              		@ args = 0, pretend = 0, frame = 8
 118              		@ frame_needed = 1, uses_anonymous_args = 0
 119 0000 80B5     		push	{r7, lr}
 120              	.LCFI3:
 121              		.cfi_def_cfa_offset 8
 122              		.cfi_offset 7, -8
 123              		.cfi_offset 14, -4
 124 0002 82B0     		sub	sp, sp, #8
 125              	.LCFI4:
 126              		.cfi_def_cfa_offset 16
 127 0004 00AF     		add	r7, sp, #0
 128              	.LCFI5:
 129              		.cfi_def_cfa_register 7
 130 0006 7860     		str	r0, [r7, #4]
  41:.\ME_geometry.c ****     e->phi   *= RAD_TO_DEG ;          // Sufficiente la costante di proporzionalità
ARM GAS  C:\Users\GRAZIA~1.RAV\AppData\Local\Temp\cc5K4lp0.s 			page 4


 131              		.loc 1 41 0
 132 0008 7B68     		ldr	r3, [r7, #4]
 133 000a 1B68     		ldr	r3, [r3, #0]	@ float
 134 000c 1846     		mov	r0, r3
 135 000e FFF7FEFF 		bl	__aeabi_f2d
 136 0012 0246     		mov	r2, r0
 137 0014 0B46     		mov	r3, r1
 138 0016 1046     		mov	r0, r2
 139 0018 1946     		mov	r1, r3
 140 001a 21A3     		adr	r3, .L6
 141 001c D3E90023 		ldrd	r2, [r3]
 142 0020 FFF7FEFF 		bl	__aeabi_dmul
 143 0024 0246     		mov	r2, r0
 144 0026 0B46     		mov	r3, r1
 145 0028 1046     		mov	r0, r2
 146 002a 1946     		mov	r1, r3
 147 002c FFF7FEFF 		bl	__aeabi_d2f
 148 0030 0246     		mov	r2, r0
 149 0032 7B68     		ldr	r3, [r7, #4]
 150 0034 1A60     		str	r2, [r3, #0]	@ float
  42:.\ME_geometry.c ****     e->theta *= RAD_TO_DEG ;
 151              		.loc 1 42 0
 152 0036 7B68     		ldr	r3, [r7, #4]
 153 0038 5B68     		ldr	r3, [r3, #4]	@ float
 154 003a 1846     		mov	r0, r3
 155 003c FFF7FEFF 		bl	__aeabi_f2d
 156 0040 0246     		mov	r2, r0
 157 0042 0B46     		mov	r3, r1
 158 0044 1046     		mov	r0, r2
 159 0046 1946     		mov	r1, r3
 160 0048 15A3     		adr	r3, .L6
 161 004a D3E90023 		ldrd	r2, [r3]
 162 004e FFF7FEFF 		bl	__aeabi_dmul
 163 0052 0246     		mov	r2, r0
 164 0054 0B46     		mov	r3, r1
 165 0056 1046     		mov	r0, r2
 166 0058 1946     		mov	r1, r3
 167 005a FFF7FEFF 		bl	__aeabi_d2f
 168 005e 0246     		mov	r2, r0
 169 0060 7B68     		ldr	r3, [r7, #4]
 170 0062 5A60     		str	r2, [r3, #4]	@ float
  43:.\ME_geometry.c ****     e->psi   *= RAD_TO_DEG ;
 171              		.loc 1 43 0
 172 0064 7B68     		ldr	r3, [r7, #4]
 173 0066 9B68     		ldr	r3, [r3, #8]	@ float
 174 0068 1846     		mov	r0, r3
 175 006a FFF7FEFF 		bl	__aeabi_f2d
 176 006e 0246     		mov	r2, r0
 177 0070 0B46     		mov	r3, r1
 178 0072 1046     		mov	r0, r2
 179 0074 1946     		mov	r1, r3
 180 0076 0AA3     		adr	r3, .L6
 181 0078 D3E90023 		ldrd	r2, [r3]
 182 007c FFF7FEFF 		bl	__aeabi_dmul
 183 0080 0246     		mov	r2, r0
 184 0082 0B46     		mov	r3, r1
 185 0084 1046     		mov	r0, r2
ARM GAS  C:\Users\GRAZIA~1.RAV\AppData\Local\Temp\cc5K4lp0.s 			page 5


 186 0086 1946     		mov	r1, r3
 187 0088 FFF7FEFF 		bl	__aeabi_d2f
 188 008c 0246     		mov	r2, r0
 189 008e 7B68     		ldr	r3, [r7, #4]
 190 0090 9A60     		str	r2, [r3, #8]	@ float
  44:.\ME_geometry.c **** }
 191              		.loc 1 44 0
 192 0092 07F10807 		add	r7, r7, #8
 193 0096 BD46     		mov	sp, r7
 194 0098 80BD     		pop	{r7, pc}
 195              	.L7:
 196 009a 00BFAFF3 		.align	3
 196      0080
 197              	.L6:
 198 00a0 F8C1631A 		.word	442745336
 199 00a4 DCA54C40 		.word	1078765020
 200              		.cfi_endproc
 201              	.LFE1:
 202              		.size	euler_rad_to_deg, .-euler_rad_to_deg
 203              		.global	__aeabi_fmul
 204              		.global	__aeabi_fadd
 205              		.global	__aeabi_dcmpgt
 206              		.global	__aeabi_dadd
 207              		.global	__aeabi_dcmplt
 208              		.global	__aeabi_fsub
 209              		.section	.text.quaternion_to_euler,"ax",%progbits
 210              		.align	2
 211              		.global	quaternion_to_euler
 212              		.thumb
 213              		.thumb_func
 214              		.type	quaternion_to_euler, %function
 215              	quaternion_to_euler:
 216              	.LFB2:
  45:.\ME_geometry.c **** 
  46:.\ME_geometry.c **** ///////////////////////////////////////////////////////////////////////////////////////////////////
  47:.\ME_geometry.c **** 
  48:.\ME_geometry.c **** #define SINGULARITY_THRESHOLD 0.49999
  49:.\ME_geometry.c **** 
  50:.\ME_geometry.c **** // Originle funzionante 
  51:.\ME_geometry.c **** //
  52:.\ME_geometry.c **** //void quaternion_to_euler(QUATERNION q, EULER_ANGLES *e)
  53:.\ME_geometry.c **** //{
  54:.\ME_geometry.c **** //    FLOAT test = q.x * q.y + q.z * q.w ;
  55:.\ME_geometry.c **** //    FLOAT sqx, sqy, sqz ;
  56:.\ME_geometry.c **** //    
  57:.\ME_geometry.c **** //    if (test > SINGULARITY_THRESHOLD)
  58:.\ME_geometry.c **** //    {
  59:.\ME_geometry.c **** //        e->phi = 2 * atan2(q.x, q.w) ;
  60:.\ME_geometry.c **** //        e->theta = PI_2 ;
  61:.\ME_geometry.c **** //        e->psi = 0 ;
  62:.\ME_geometry.c **** //        return ;
  63:.\ME_geometry.c **** //    }
  64:.\ME_geometry.c **** //    
  65:.\ME_geometry.c **** //    if (test < -SINGULARITY_THRESHOLD)
  66:.\ME_geometry.c **** //    {
  67:.\ME_geometry.c **** //        e->phi = -2 * atan2(q.x, q.w) ;
  68:.\ME_geometry.c **** //        e->theta = -PI_2 ;
ARM GAS  C:\Users\GRAZIA~1.RAV\AppData\Local\Temp\cc5K4lp0.s 			page 6


  69:.\ME_geometry.c **** //        e->psi = 0 ;
  70:.\ME_geometry.c **** //        return ;
  71:.\ME_geometry.c **** //    }
  72:.\ME_geometry.c **** //
  73:.\ME_geometry.c **** //    sqx = q.x * q.x ;
  74:.\ME_geometry.c **** //    sqy = q.y * q.y ;
  75:.\ME_geometry.c **** //    sqz = q.z * q.z ;
  76:.\ME_geometry.c **** //    
  77:.\ME_geometry.c **** //    e->phi = atan2(2*q.y*q.w - 2*q.x*q.z , 1 - 2*sqy - 2*sqz);
  78:.\ME_geometry.c **** //	e->theta = asin(2*test);
  79:.\ME_geometry.c **** //	e->psi = atan2(2*q.x*q.w-2*q.y*q.z , 1 - 2*sqx - 2*sqz);
  80:.\ME_geometry.c **** //    
  81:.\ME_geometry.c **** //}
  82:.\ME_geometry.c ****  
  83:.\ME_geometry.c **** void quaternion_to_euler(QUATERNION q, EULER_ANGLES *e)
  84:.\ME_geometry.c **** {
 217              		.loc 1 84 0
 218              		.cfi_startproc
 219              		@ args = 4, pretend = 0, frame = 16
 220              		@ frame_needed = 1, uses_anonymous_args = 0
 221 0000 2DE9F047 		push	{r4, r5, r6, r7, r8, r9, sl, lr}
 222              	.LCFI6:
 223              		.cfi_def_cfa_offset 32
 224              		.cfi_offset 4, -32
 225              		.cfi_offset 5, -28
 226              		.cfi_offset 6, -24
 227              		.cfi_offset 7, -20
 228              		.cfi_offset 8, -16
 229              		.cfi_offset 9, -12
 230              		.cfi_offset 10, -8
 231              		.cfi_offset 14, -4
 232 0004 84B0     		sub	sp, sp, #16
 233              	.LCFI7:
 234              		.cfi_def_cfa_offset 48
 235 0006 00AF     		add	r7, sp, #0
 236              	.LCFI8:
 237              		.cfi_def_cfa_register 7
 238 0008 3C46     		mov	r4, r7
 239 000a 84E80F00 		stmia	r4, {r0, r1, r2, r3}
  85:.\ME_geometry.c ****     register FLOAT test = q.x * q.y + q.z * q.w ;
 240              		.loc 1 85 0
 241 000e 7A68     		ldr	r2, [r7, #4]	@ float
 242 0010 BB68     		ldr	r3, [r7, #8]	@ float
 243 0012 1046     		mov	r0, r2
 244 0014 1946     		mov	r1, r3
 245 0016 FFF7FEFF 		bl	__aeabi_fmul
 246 001a 0346     		mov	r3, r0
 247 001c 1C46     		mov	r4, r3
 248 001e FA68     		ldr	r2, [r7, #12]	@ float
 249 0020 3B68     		ldr	r3, [r7, #0]	@ float
 250 0022 1046     		mov	r0, r2
 251 0024 1946     		mov	r1, r3
 252 0026 FFF7FEFF 		bl	__aeabi_fmul
 253 002a 0346     		mov	r3, r0
 254 002c 2046     		mov	r0, r4
 255 002e 1946     		mov	r1, r3
 256 0030 FFF7FEFF 		bl	__aeabi_fadd
ARM GAS  C:\Users\GRAZIA~1.RAV\AppData\Local\Temp\cc5K4lp0.s 			page 7


 257 0034 0346     		mov	r3, r0
 258 0036 1C46     		mov	r4, r3
  86:.\ME_geometry.c ****     register FLOAT sqx, sqy, sqz ;
  87:.\ME_geometry.c ****     
  88:.\ME_geometry.c ****     if (test > SINGULARITY_THRESHOLD)
 259              		.loc 1 88 0
 260 0038 2046     		mov	r0, r4
 261 003a FFF7FEFF 		bl	__aeabi_f2d
 262 003e 0246     		mov	r2, r0
 263 0040 0B46     		mov	r3, r1
 264 0042 1046     		mov	r0, r2
 265 0044 1946     		mov	r1, r3
 266 0046 92A3     		adr	r3, .L18
 267 0048 D3E90023 		ldrd	r2, [r3]
 268 004c FFF7FEFF 		bl	__aeabi_dcmpgt
 269 0050 0346     		mov	r3, r0
 270 0052 002B     		cmp	r3, #0
 271 0054 29D0     		beq	.L16
 272              	.L14:
  89:.\ME_geometry.c ****     {
  90:.\ME_geometry.c ****         e->phi = 2 * atan2(q.x, q.w) ;
 273              		.loc 1 90 0
 274 0056 7B68     		ldr	r3, [r7, #4]	@ float
 275 0058 1846     		mov	r0, r3
 276 005a FFF7FEFF 		bl	__aeabi_f2d
 277 005e 0446     		mov	r4, r0
 278 0060 0D46     		mov	r5, r1
 279 0062 3B68     		ldr	r3, [r7, #0]	@ float
 280 0064 1846     		mov	r0, r3
 281 0066 FFF7FEFF 		bl	__aeabi_f2d
 282 006a 0246     		mov	r2, r0
 283 006c 0B46     		mov	r3, r1
 284 006e 2046     		mov	r0, r4
 285 0070 2946     		mov	r1, r5
 286 0072 FFF7FEFF 		bl	atan2
 287 0076 0246     		mov	r2, r0
 288 0078 0B46     		mov	r3, r1
 289 007a 1046     		mov	r0, r2
 290 007c 1946     		mov	r1, r3
 291 007e FFF7FEFF 		bl	__aeabi_dadd
 292 0082 0246     		mov	r2, r0
 293 0084 0B46     		mov	r3, r1
 294 0086 1046     		mov	r0, r2
 295 0088 1946     		mov	r1, r3
 296 008a FFF7FEFF 		bl	__aeabi_d2f
 297 008e 0246     		mov	r2, r0
 298 0090 3B6B     		ldr	r3, [r7, #48]
 299 0092 1A60     		str	r2, [r3, #0]	@ float
  91:.\ME_geometry.c ****         e->theta = PI_2 ;
 300              		.loc 1 91 0
 301 0094 3B6B     		ldr	r3, [r7, #48]
 302 0096 40F6DB72 		movw	r2, #4059
 303 009a C3F6C972 		movt	r2, 16329
 304 009e 5A60     		str	r2, [r3, #4]	@ float
  92:.\ME_geometry.c ****         e->psi = 0 ;
 305              		.loc 1 92 0
 306 00a0 3B6B     		ldr	r3, [r7, #48]
ARM GAS  C:\Users\GRAZIA~1.RAV\AppData\Local\Temp\cc5K4lp0.s 			page 8


 307 00a2 4FF00002 		mov	r2, #0
 308 00a6 9A60     		str	r2, [r3, #8]	@ float
  93:.\ME_geometry.c ****         return ;
 309              		.loc 1 93 0
 310 00a8 EBE0     		b	.L8
 311              	.L16:
  94:.\ME_geometry.c ****     }
  95:.\ME_geometry.c ****     
  96:.\ME_geometry.c ****     if (test < -SINGULARITY_THRESHOLD)
 312              		.loc 1 96 0
 313 00aa 2046     		mov	r0, r4
 314 00ac FFF7FEFF 		bl	__aeabi_f2d
 315 00b0 0246     		mov	r2, r0
 316 00b2 0B46     		mov	r3, r1
 317 00b4 1046     		mov	r0, r2
 318 00b6 1946     		mov	r1, r3
 319 00b8 77A3     		adr	r3, .L18+8
 320 00ba D3E90023 		ldrd	r2, [r3]
 321 00be FFF7FEFF 		bl	__aeabi_dcmplt
 322 00c2 0346     		mov	r3, r0
 323 00c4 002B     		cmp	r3, #0
 324 00c6 2DD0     		beq	.L17
 325              	.L15:
  97:.\ME_geometry.c ****     {
  98:.\ME_geometry.c ****         e->phi = -2 * atan2(q.x, q.w) ;
 326              		.loc 1 98 0
 327 00c8 7B68     		ldr	r3, [r7, #4]	@ float
 328 00ca 1846     		mov	r0, r3
 329 00cc FFF7FEFF 		bl	__aeabi_f2d
 330 00d0 0446     		mov	r4, r0
 331 00d2 0D46     		mov	r5, r1
 332 00d4 3B68     		ldr	r3, [r7, #0]	@ float
 333 00d6 1846     		mov	r0, r3
 334 00d8 FFF7FEFF 		bl	__aeabi_f2d
 335 00dc 0246     		mov	r2, r0
 336 00de 0B46     		mov	r3, r1
 337 00e0 2046     		mov	r0, r4
 338 00e2 2946     		mov	r1, r5
 339 00e4 FFF7FEFF 		bl	atan2
 340 00e8 0246     		mov	r2, r0
 341 00ea 0B46     		mov	r3, r1
 342 00ec 1046     		mov	r0, r2
 343 00ee 1946     		mov	r1, r3
 344 00f0 4FF00002 		mov	r2, #0
 345 00f4 4FF04043 		mov	r3, #-1073741824
 346 00f8 FFF7FEFF 		bl	__aeabi_dmul
 347 00fc 0246     		mov	r2, r0
 348 00fe 0B46     		mov	r3, r1
 349 0100 1046     		mov	r0, r2
 350 0102 1946     		mov	r1, r3
 351 0104 FFF7FEFF 		bl	__aeabi_d2f
 352 0108 0246     		mov	r2, r0
 353 010a 3B6B     		ldr	r3, [r7, #48]
 354 010c 1A60     		str	r2, [r3, #0]	@ float
  99:.\ME_geometry.c ****         e->theta = -PI_2 ;
 355              		.loc 1 99 0
 356 010e 3B6B     		ldr	r3, [r7, #48]
ARM GAS  C:\Users\GRAZIA~1.RAV\AppData\Local\Temp\cc5K4lp0.s 			page 9


 357 0110 40F6DB72 		movw	r2, #4059
 358 0114 CBF6C972 		movt	r2, 49097
 359 0118 5A60     		str	r2, [r3, #4]	@ float
 100:.\ME_geometry.c ****         e->psi = 0 ;
 360              		.loc 1 100 0
 361 011a 3B6B     		ldr	r3, [r7, #48]
 362 011c 4FF00002 		mov	r2, #0
 363 0120 9A60     		str	r2, [r3, #8]	@ float
 101:.\ME_geometry.c ****         return ;
 364              		.loc 1 101 0
 365 0122 AEE0     		b	.L8
 366              	.L17:
 102:.\ME_geometry.c ****     }
 103:.\ME_geometry.c **** 
 104:.\ME_geometry.c ****     sqx = q.x * q.x ;
 367              		.loc 1 104 0
 368 0124 7A68     		ldr	r2, [r7, #4]	@ float
 369 0126 7B68     		ldr	r3, [r7, #4]	@ float
 370 0128 1046     		mov	r0, r2
 371 012a 1946     		mov	r1, r3
 372 012c FFF7FEFF 		bl	__aeabi_fmul
 373 0130 0346     		mov	r3, r0
 374 0132 9A46     		mov	sl, r3
 105:.\ME_geometry.c ****     sqy = q.y * q.y ;
 375              		.loc 1 105 0
 376 0134 BA68     		ldr	r2, [r7, #8]	@ float
 377 0136 BB68     		ldr	r3, [r7, #8]	@ float
 378 0138 1046     		mov	r0, r2
 379 013a 1946     		mov	r1, r3
 380 013c FFF7FEFF 		bl	__aeabi_fmul
 381 0140 0346     		mov	r3, r0
 382 0142 1D46     		mov	r5, r3
 106:.\ME_geometry.c ****     sqz = q.z * q.z ;
 383              		.loc 1 106 0
 384 0144 FA68     		ldr	r2, [r7, #12]	@ float
 385 0146 FB68     		ldr	r3, [r7, #12]	@ float
 386 0148 1046     		mov	r0, r2
 387 014a 1946     		mov	r1, r3
 388 014c FFF7FEFF 		bl	__aeabi_fmul
 389 0150 0346     		mov	r3, r0
 390 0152 1E46     		mov	r6, r3
 107:.\ME_geometry.c ****     
 108:.\ME_geometry.c ****     e->phi = atan2(2 * ( q.y*q.w + q.x*q.z ) , 1 - 2 * ( sqy + sqz ) );
 391              		.loc 1 108 0
 392 0154 BA68     		ldr	r2, [r7, #8]	@ float
 393 0156 3B68     		ldr	r3, [r7, #0]	@ float
 394 0158 1046     		mov	r0, r2
 395 015a 1946     		mov	r1, r3
 396 015c FFF7FEFF 		bl	__aeabi_fmul
 397 0160 0346     		mov	r3, r0
 398 0162 9846     		mov	r8, r3
 399 0164 7A68     		ldr	r2, [r7, #4]	@ float
 400 0166 FB68     		ldr	r3, [r7, #12]	@ float
 401 0168 1046     		mov	r0, r2
 402 016a 1946     		mov	r1, r3
 403 016c FFF7FEFF 		bl	__aeabi_fmul
 404 0170 0346     		mov	r3, r0
ARM GAS  C:\Users\GRAZIA~1.RAV\AppData\Local\Temp\cc5K4lp0.s 			page 10


 405 0172 4046     		mov	r0, r8
 406 0174 1946     		mov	r1, r3
 407 0176 FFF7FEFF 		bl	__aeabi_fadd
 408 017a 0346     		mov	r3, r0
 409 017c 1846     		mov	r0, r3
 410 017e 1946     		mov	r1, r3
 411 0180 FFF7FEFF 		bl	__aeabi_fadd
 412 0184 0346     		mov	r3, r0
 413 0186 1846     		mov	r0, r3
 414 0188 FFF7FEFF 		bl	__aeabi_f2d
 415 018c 8046     		mov	r8, r0
 416 018e 8946     		mov	r9, r1
 417 0190 2846     		mov	r0, r5
 418 0192 3146     		mov	r1, r6
 419 0194 FFF7FEFF 		bl	__aeabi_fadd
 420 0198 0346     		mov	r3, r0
 421 019a 1846     		mov	r0, r3
 422 019c 1946     		mov	r1, r3
 423 019e FFF7FEFF 		bl	__aeabi_fadd
 424 01a2 0346     		mov	r3, r0
 425 01a4 4FF07E50 		mov	r0, #1065353216
 426 01a8 1946     		mov	r1, r3
 427 01aa FFF7FEFF 		bl	__aeabi_fsub
 428 01ae 0346     		mov	r3, r0
 429 01b0 1846     		mov	r0, r3
 430 01b2 FFF7FEFF 		bl	__aeabi_f2d
 431 01b6 0246     		mov	r2, r0
 432 01b8 0B46     		mov	r3, r1
 433 01ba 4046     		mov	r0, r8
 434 01bc 4946     		mov	r1, r9
 435 01be FFF7FEFF 		bl	atan2
 436 01c2 0246     		mov	r2, r0
 437 01c4 0B46     		mov	r3, r1
 438 01c6 1046     		mov	r0, r2
 439 01c8 1946     		mov	r1, r3
 440 01ca FFF7FEFF 		bl	__aeabi_d2f
 441 01ce 0246     		mov	r2, r0
 442 01d0 3B6B     		ldr	r3, [r7, #48]
 443 01d2 1A60     		str	r2, [r3, #0]	@ float
 109:.\ME_geometry.c **** 	e->theta = asin(2*test);
 444              		.loc 1 109 0
 445 01d4 2046     		mov	r0, r4
 446 01d6 2146     		mov	r1, r4
 447 01d8 FFF7FEFF 		bl	__aeabi_fadd
 448 01dc 0346     		mov	r3, r0
 449 01de 1846     		mov	r0, r3
 450 01e0 FFF7FEFF 		bl	__aeabi_f2d
 451 01e4 0246     		mov	r2, r0
 452 01e6 0B46     		mov	r3, r1
 453 01e8 1046     		mov	r0, r2
 454 01ea 1946     		mov	r1, r3
 455 01ec FFF7FEFF 		bl	asin
 456 01f0 0246     		mov	r2, r0
 457 01f2 0B46     		mov	r3, r1
 458 01f4 1046     		mov	r0, r2
 459 01f6 1946     		mov	r1, r3
 460 01f8 FFF7FEFF 		bl	__aeabi_d2f
ARM GAS  C:\Users\GRAZIA~1.RAV\AppData\Local\Temp\cc5K4lp0.s 			page 11


 461 01fc 0246     		mov	r2, r0
 462 01fe 3B6B     		ldr	r3, [r7, #48]
 463 0200 5A60     		str	r2, [r3, #4]	@ float
 110:.\ME_geometry.c **** 	e->psi = atan2( 2 * ( q.x*q.w + q.y*q.z ) , 1 - 2 * ( sqx + sqz ) );
 464              		.loc 1 110 0
 465 0202 7A68     		ldr	r2, [r7, #4]	@ float
 466 0204 3B68     		ldr	r3, [r7, #0]	@ float
 467 0206 1046     		mov	r0, r2
 468 0208 1946     		mov	r1, r3
 469 020a FFF7FEFF 		bl	__aeabi_fmul
 470 020e 0346     		mov	r3, r0
 471 0210 1C46     		mov	r4, r3
 472 0212 BA68     		ldr	r2, [r7, #8]	@ float
 473 0214 FB68     		ldr	r3, [r7, #12]	@ float
 474 0216 1046     		mov	r0, r2
 475 0218 1946     		mov	r1, r3
 476 021a FFF7FEFF 		bl	__aeabi_fmul
 477 021e 0346     		mov	r3, r0
 478 0220 2046     		mov	r0, r4
 479 0222 1946     		mov	r1, r3
 480 0224 FFF7FEFF 		bl	__aeabi_fadd
 481 0228 0346     		mov	r3, r0
 482 022a 1846     		mov	r0, r3
 483 022c 1946     		mov	r1, r3
 484 022e FFF7FEFF 		bl	__aeabi_fadd
 485 0232 0346     		mov	r3, r0
 486 0234 1846     		mov	r0, r3
 487 0236 FFF7FEFF 		bl	__aeabi_f2d
 488 023a 0446     		mov	r4, r0
 489 023c 0D46     		mov	r5, r1
 490 023e 5046     		mov	r0, sl
 491 0240 3146     		mov	r1, r6
 492 0242 FFF7FEFF 		bl	__aeabi_fadd
 493 0246 0346     		mov	r3, r0
 494 0248 1846     		mov	r0, r3
 495 024a 1946     		mov	r1, r3
 496 024c FFF7FEFF 		bl	__aeabi_fadd
 497 0250 0346     		mov	r3, r0
 498 0252 4FF07E50 		mov	r0, #1065353216
 499 0256 1946     		mov	r1, r3
 500 0258 FFF7FEFF 		bl	__aeabi_fsub
 501 025c 0346     		mov	r3, r0
 502 025e 1846     		mov	r0, r3
 503 0260 FFF7FEFF 		bl	__aeabi_f2d
 504 0264 0246     		mov	r2, r0
 505 0266 0B46     		mov	r3, r1
 506 0268 2046     		mov	r0, r4
 507 026a 2946     		mov	r1, r5
 508 026c FFF7FEFF 		bl	atan2
 509 0270 0246     		mov	r2, r0
 510 0272 0B46     		mov	r3, r1
 511 0274 1046     		mov	r0, r2
 512 0276 1946     		mov	r1, r3
 513 0278 FFF7FEFF 		bl	__aeabi_d2f
 514 027c 0246     		mov	r2, r0
 515 027e 3B6B     		ldr	r3, [r7, #48]
 516 0280 9A60     		str	r2, [r3, #8]	@ float
ARM GAS  C:\Users\GRAZIA~1.RAV\AppData\Local\Temp\cc5K4lp0.s 			page 12


 517              	.L8:
 111:.\ME_geometry.c ****     
 112:.\ME_geometry.c **** } 
 518              		.loc 1 112 0
 519 0282 07F11007 		add	r7, r7, #16
 520 0286 BD46     		mov	sp, r7
 521 0288 BDE8F087 		pop	{r4, r5, r6, r7, r8, r9, sl, pc}
 522              	.L19:
 523 028c AFF30080 		.align	3
 524              	.L18:
 525 0290 39EE940E 		.word	244641337
 526 0294 D6FFDF3F 		.word	1071644630
 527 0298 39EE940E 		.word	244641337
 528 029c D6FFDFBF 		.word	-1075839018
 529              		.cfi_endproc
 530              	.LFE2:
 531              		.size	quaternion_to_euler, .-quaternion_to_euler
 532              		.section	.text.quaternion_multiply,"ax",%progbits
 533              		.align	2
 534              		.global	quaternion_multiply
 535              		.thumb
 536              		.thumb_func
 537              		.type	quaternion_multiply, %function
 538              	quaternion_multiply:
 539              	.LFB3:
 113:.\ME_geometry.c **** 
 114:.\ME_geometry.c **** ///////////////////////////////////////////////////////////////////////////////////////////////////
 115:.\ME_geometry.c **** 
 116:.\ME_geometry.c **** void quaternion_multiply(QUATERNION *q3, QUATERNION q1, QUATERNION q2)
 117:.\ME_geometry.c **** {
 540              		.loc 1 117 0
 541              		.cfi_startproc
 542              		@ args = 36, pretend = 16, frame = 8
 543              		@ frame_needed = 1, uses_anonymous_args = 0
 544 0000 84B0     		sub	sp, sp, #16
 545              	.LCFI9:
 546              		.cfi_def_cfa_offset 16
 547 0002 90B5     		push	{r4, r7, lr}
 548              	.LCFI10:
 549              		.cfi_def_cfa_offset 28
 550              		.cfi_offset 4, -28
 551              		.cfi_offset 7, -24
 552              		.cfi_offset 14, -20
 553 0004 83B0     		sub	sp, sp, #12
 554              	.LCFI11:
 555              		.cfi_def_cfa_offset 40
 556 0006 00AF     		add	r7, sp, #0
 557              	.LCFI12:
 558              		.cfi_def_cfa_register 7
 559 0008 7860     		str	r0, [r7, #4]
 560 000a 07F11C00 		add	r0, r7, #28
 561 000e 80E80E00 		stmia	r0, {r1, r2, r3}
 118:.\ME_geometry.c ****     q3->w = q1.w*q2.w - q1.x*q2.x - q1.y*q2.y - q1.z*q2.z ;
 562              		.loc 1 118 0
 563 0012 FA69     		ldr	r2, [r7, #28]	@ float
 564 0014 FB6A     		ldr	r3, [r7, #44]	@ float
 565 0016 1046     		mov	r0, r2
ARM GAS  C:\Users\GRAZIA~1.RAV\AppData\Local\Temp\cc5K4lp0.s 			page 13


 566 0018 1946     		mov	r1, r3
 567 001a FFF7FEFF 		bl	__aeabi_fmul
 568 001e 0346     		mov	r3, r0
 569 0020 1C46     		mov	r4, r3
 570 0022 3A6A     		ldr	r2, [r7, #32]	@ float
 571 0024 3B6B     		ldr	r3, [r7, #48]	@ float
 572 0026 1046     		mov	r0, r2
 573 0028 1946     		mov	r1, r3
 574 002a FFF7FEFF 		bl	__aeabi_fmul
 575 002e 0346     		mov	r3, r0
 576 0030 2046     		mov	r0, r4
 577 0032 1946     		mov	r1, r3
 578 0034 FFF7FEFF 		bl	__aeabi_fsub
 579 0038 0346     		mov	r3, r0
 580 003a 1C46     		mov	r4, r3
 581 003c 7A6A     		ldr	r2, [r7, #36]	@ float
 582 003e 7B6B     		ldr	r3, [r7, #52]	@ float
 583 0040 1046     		mov	r0, r2
 584 0042 1946     		mov	r1, r3
 585 0044 FFF7FEFF 		bl	__aeabi_fmul
 586 0048 0346     		mov	r3, r0
 587 004a 2046     		mov	r0, r4
 588 004c 1946     		mov	r1, r3
 589 004e FFF7FEFF 		bl	__aeabi_fsub
 590 0052 0346     		mov	r3, r0
 591 0054 1C46     		mov	r4, r3
 592 0056 BA6A     		ldr	r2, [r7, #40]	@ float
 593 0058 BB6B     		ldr	r3, [r7, #56]	@ float
 594 005a 1046     		mov	r0, r2
 595 005c 1946     		mov	r1, r3
 596 005e FFF7FEFF 		bl	__aeabi_fmul
 597 0062 0346     		mov	r3, r0
 598 0064 2046     		mov	r0, r4
 599 0066 1946     		mov	r1, r3
 600 0068 FFF7FEFF 		bl	__aeabi_fsub
 601 006c 0346     		mov	r3, r0
 602 006e 1A46     		mov	r2, r3
 603 0070 7B68     		ldr	r3, [r7, #4]
 604 0072 1A60     		str	r2, [r3, #0]	@ float
 119:.\ME_geometry.c ****     q3->x = q1.w*q2.x + q1.x*q2.w + q1.y*q2.z - q1.z*q2.y ;
 605              		.loc 1 119 0
 606 0074 FA69     		ldr	r2, [r7, #28]	@ float
 607 0076 3B6B     		ldr	r3, [r7, #48]	@ float
 608 0078 1046     		mov	r0, r2
 609 007a 1946     		mov	r1, r3
 610 007c FFF7FEFF 		bl	__aeabi_fmul
 611 0080 0346     		mov	r3, r0
 612 0082 1C46     		mov	r4, r3
 613 0084 3A6A     		ldr	r2, [r7, #32]	@ float
 614 0086 FB6A     		ldr	r3, [r7, #44]	@ float
 615 0088 1046     		mov	r0, r2
 616 008a 1946     		mov	r1, r3
 617 008c FFF7FEFF 		bl	__aeabi_fmul
 618 0090 0346     		mov	r3, r0
 619 0092 2046     		mov	r0, r4
 620 0094 1946     		mov	r1, r3
 621 0096 FFF7FEFF 		bl	__aeabi_fadd
ARM GAS  C:\Users\GRAZIA~1.RAV\AppData\Local\Temp\cc5K4lp0.s 			page 14


 622 009a 0346     		mov	r3, r0
 623 009c 1C46     		mov	r4, r3
 624 009e 7A6A     		ldr	r2, [r7, #36]	@ float
 625 00a0 BB6B     		ldr	r3, [r7, #56]	@ float
 626 00a2 1046     		mov	r0, r2
 627 00a4 1946     		mov	r1, r3
 628 00a6 FFF7FEFF 		bl	__aeabi_fmul
 629 00aa 0346     		mov	r3, r0
 630 00ac 2046     		mov	r0, r4
 631 00ae 1946     		mov	r1, r3
 632 00b0 FFF7FEFF 		bl	__aeabi_fadd
 633 00b4 0346     		mov	r3, r0
 634 00b6 1C46     		mov	r4, r3
 635 00b8 BA6A     		ldr	r2, [r7, #40]	@ float
 636 00ba 7B6B     		ldr	r3, [r7, #52]	@ float
 637 00bc 1046     		mov	r0, r2
 638 00be 1946     		mov	r1, r3
 639 00c0 FFF7FEFF 		bl	__aeabi_fmul
 640 00c4 0346     		mov	r3, r0
 641 00c6 2046     		mov	r0, r4
 642 00c8 1946     		mov	r1, r3
 643 00ca FFF7FEFF 		bl	__aeabi_fsub
 644 00ce 0346     		mov	r3, r0
 645 00d0 1A46     		mov	r2, r3
 646 00d2 7B68     		ldr	r3, [r7, #4]
 647 00d4 5A60     		str	r2, [r3, #4]	@ float
 120:.\ME_geometry.c ****     q3->y = q1.w*q2.y - q1.x*q2.z + q1.y*q2.w + q1.z*q2.x ;
 648              		.loc 1 120 0
 649 00d6 FA69     		ldr	r2, [r7, #28]	@ float
 650 00d8 7B6B     		ldr	r3, [r7, #52]	@ float
 651 00da 1046     		mov	r0, r2
 652 00dc 1946     		mov	r1, r3
 653 00de FFF7FEFF 		bl	__aeabi_fmul
 654 00e2 0346     		mov	r3, r0
 655 00e4 1C46     		mov	r4, r3
 656 00e6 3A6A     		ldr	r2, [r7, #32]	@ float
 657 00e8 BB6B     		ldr	r3, [r7, #56]	@ float
 658 00ea 1046     		mov	r0, r2
 659 00ec 1946     		mov	r1, r3
 660 00ee FFF7FEFF 		bl	__aeabi_fmul
 661 00f2 0346     		mov	r3, r0
 662 00f4 2046     		mov	r0, r4
 663 00f6 1946     		mov	r1, r3
 664 00f8 FFF7FEFF 		bl	__aeabi_fsub
 665 00fc 0346     		mov	r3, r0
 666 00fe 1C46     		mov	r4, r3
 667 0100 7A6A     		ldr	r2, [r7, #36]	@ float
 668 0102 FB6A     		ldr	r3, [r7, #44]	@ float
 669 0104 1046     		mov	r0, r2
 670 0106 1946     		mov	r1, r3
 671 0108 FFF7FEFF 		bl	__aeabi_fmul
 672 010c 0346     		mov	r3, r0
 673 010e 2046     		mov	r0, r4
 674 0110 1946     		mov	r1, r3
 675 0112 FFF7FEFF 		bl	__aeabi_fadd
 676 0116 0346     		mov	r3, r0
 677 0118 1C46     		mov	r4, r3
ARM GAS  C:\Users\GRAZIA~1.RAV\AppData\Local\Temp\cc5K4lp0.s 			page 15


 678 011a BA6A     		ldr	r2, [r7, #40]	@ float
 679 011c 3B6B     		ldr	r3, [r7, #48]	@ float
 680 011e 1046     		mov	r0, r2
 681 0120 1946     		mov	r1, r3
 682 0122 FFF7FEFF 		bl	__aeabi_fmul
 683 0126 0346     		mov	r3, r0
 684 0128 2046     		mov	r0, r4
 685 012a 1946     		mov	r1, r3
 686 012c FFF7FEFF 		bl	__aeabi_fadd
 687 0130 0346     		mov	r3, r0
 688 0132 1A46     		mov	r2, r3
 689 0134 7B68     		ldr	r3, [r7, #4]
 690 0136 9A60     		str	r2, [r3, #8]	@ float
 121:.\ME_geometry.c ****     q3->z = q1.w*q2.z + q1.x*q2.y - q1.y*q2.x + q1.z*q2.w ;
 691              		.loc 1 121 0
 692 0138 FA69     		ldr	r2, [r7, #28]	@ float
 693 013a BB6B     		ldr	r3, [r7, #56]	@ float
 694 013c 1046     		mov	r0, r2
 695 013e 1946     		mov	r1, r3
 696 0140 FFF7FEFF 		bl	__aeabi_fmul
 697 0144 0346     		mov	r3, r0
 698 0146 1C46     		mov	r4, r3
 699 0148 3A6A     		ldr	r2, [r7, #32]	@ float
 700 014a 7B6B     		ldr	r3, [r7, #52]	@ float
 701 014c 1046     		mov	r0, r2
 702 014e 1946     		mov	r1, r3
 703 0150 FFF7FEFF 		bl	__aeabi_fmul
 704 0154 0346     		mov	r3, r0
 705 0156 2046     		mov	r0, r4
 706 0158 1946     		mov	r1, r3
 707 015a FFF7FEFF 		bl	__aeabi_fadd
 708 015e 0346     		mov	r3, r0
 709 0160 1C46     		mov	r4, r3
 710 0162 7A6A     		ldr	r2, [r7, #36]	@ float
 711 0164 3B6B     		ldr	r3, [r7, #48]	@ float
 712 0166 1046     		mov	r0, r2
 713 0168 1946     		mov	r1, r3
 714 016a FFF7FEFF 		bl	__aeabi_fmul
 715 016e 0346     		mov	r3, r0
 716 0170 2046     		mov	r0, r4
 717 0172 1946     		mov	r1, r3
 718 0174 FFF7FEFF 		bl	__aeabi_fsub
 719 0178 0346     		mov	r3, r0
 720 017a 1C46     		mov	r4, r3
 721 017c BA6A     		ldr	r2, [r7, #40]	@ float
 722 017e FB6A     		ldr	r3, [r7, #44]	@ float
 723 0180 1046     		mov	r0, r2
 724 0182 1946     		mov	r1, r3
 725 0184 FFF7FEFF 		bl	__aeabi_fmul
 726 0188 0346     		mov	r3, r0
 727 018a 2046     		mov	r0, r4
 728 018c 1946     		mov	r1, r3
 729 018e FFF7FEFF 		bl	__aeabi_fadd
 730 0192 0346     		mov	r3, r0
 731 0194 1A46     		mov	r2, r3
 732 0196 7B68     		ldr	r3, [r7, #4]
 733 0198 DA60     		str	r2, [r3, #12]	@ float
ARM GAS  C:\Users\GRAZIA~1.RAV\AppData\Local\Temp\cc5K4lp0.s 			page 16


 122:.\ME_geometry.c **** }
 734              		.loc 1 122 0
 735 019a 07F10C07 		add	r7, r7, #12
 736 019e BD46     		mov	sp, r7
 737 01a0 BDE89040 		pop	{r4, r7, lr}
 738 01a4 04B0     		add	sp, sp, #16
 739 01a6 7047     		bx	lr
 740              		.cfi_endproc
 741              	.LFE3:
 742              		.size	quaternion_multiply, .-quaternion_multiply
 743              		.section	.rodata
 744              		.align	2
 745              	.LC0:
 746 0000 5B583A25 		.ascii	"[X:%6.3f|Y:%6.3f|Z:%6.3f|W:%6.3f]\000"
 746      362E3366 
 746      7C593A25 
 746      362E3366 
 746      7C5A3A25 
 747              		.section	.text.print_quaternion,"ax",%progbits
 748              		.align	2
 749              		.global	print_quaternion
 750              		.thumb
 751              		.thumb_func
 752              		.type	print_quaternion, %function
 753              	print_quaternion:
 754              	.LFB4:
 123:.\ME_geometry.c **** 
 124:.\ME_geometry.c **** ///////////////////////////////////////////////////////////////////////////////////////////////////
 125:.\ME_geometry.c ****  
 126:.\ME_geometry.c **** void print_quaternion(QUATERNION q)
 127:.\ME_geometry.c **** {
 755              		.loc 1 127 0
 756              		.cfi_startproc
 757              		@ args = 0, pretend = 0, frame = 16
 758              		@ frame_needed = 1, uses_anonymous_args = 0
 759 0000 2DE9B04F 		push	{r4, r5, r7, r8, r9, sl, fp, lr}
 760              	.LCFI13:
 761              		.cfi_def_cfa_offset 32
 762              		.cfi_offset 4, -32
 763              		.cfi_offset 5, -28
 764              		.cfi_offset 7, -24
 765              		.cfi_offset 8, -20
 766              		.cfi_offset 9, -16
 767              		.cfi_offset 10, -12
 768              		.cfi_offset 11, -8
 769              		.cfi_offset 14, -4
 770 0004 8AB0     		sub	sp, sp, #40
 771              	.LCFI14:
 772              		.cfi_def_cfa_offset 72
 773 0006 06AF     		add	r7, sp, #24
 774              	.LCFI15:
 775              		.cfi_def_cfa 7, 48
 776 0008 3C46     		mov	r4, r7
 777 000a 84E80F00 		stmia	r4, {r0, r1, r2, r3}
 128:.\ME_geometry.c ****     printf("[X:%6.3f|Y:%6.3f|Z:%6.3f|W:%6.3f]", q.x, q.y, q.z, q.w);
 778              		.loc 1 128 0
 779 000e 7B68     		ldr	r3, [r7, #4]	@ float
ARM GAS  C:\Users\GRAZIA~1.RAV\AppData\Local\Temp\cc5K4lp0.s 			page 17


 780 0010 1846     		mov	r0, r3
 781 0012 FFF7FEFF 		bl	__aeabi_f2d
 782 0016 0446     		mov	r4, r0
 783 0018 0D46     		mov	r5, r1
 784 001a BB68     		ldr	r3, [r7, #8]	@ float
 785 001c 1846     		mov	r0, r3
 786 001e FFF7FEFF 		bl	__aeabi_f2d
 787 0022 8246     		mov	sl, r0
 788 0024 8B46     		mov	fp, r1
 789 0026 FB68     		ldr	r3, [r7, #12]	@ float
 790 0028 1846     		mov	r0, r3
 791 002a FFF7FEFF 		bl	__aeabi_f2d
 792 002e 8046     		mov	r8, r0
 793 0030 8946     		mov	r9, r1
 794 0032 3B68     		ldr	r3, [r7, #0]	@ float
 795 0034 1846     		mov	r0, r3
 796 0036 FFF7FEFF 		bl	__aeabi_f2d
 797 003a 0246     		mov	r2, r0
 798 003c 0B46     		mov	r3, r1
 799 003e CDE900AB 		strd	sl, [sp]
 800 0042 CDE90289 		strd	r8, [sp, #8]
 801 0046 CDE90423 		strd	r2, [sp, #16]
 802 004a 40F20000 		movw	r0, #:lower16:.LC0
 803 004e C0F20000 		movt	r0, #:upper16:.LC0
 804 0052 2246     		mov	r2, r4
 805 0054 2B46     		mov	r3, r5
 806 0056 FFF7FEFF 		bl	printf
 129:.\ME_geometry.c **** }
 807              		.loc 1 129 0
 808 005a 07F11007 		add	r7, r7, #16
 809 005e BD46     		mov	sp, r7
 810 0060 BDE8B08F 		pop	{r4, r5, r7, r8, r9, sl, fp, pc}
 811              		.cfi_endproc
 812              	.LFE4:
 813              		.size	print_quaternion, .-print_quaternion
 814              		.section	.rodata
 815 0022 0000     		.align	2
 816              	.LC1:
 817 0024 50534928 		.ascii	"PSI(pan):%6.3f | THETA(tilt):%6.3f | PHI(roll):%6.3"
 817      70616E29 
 817      3A25362E 
 817      3366207C 
 817      20544845 
 818 0057 66207C20 		.ascii	"f | \000"
 818      00
 819              		.section	.text.print_euler_angles,"ax",%progbits
 820              		.align	2
 821              		.global	print_euler_angles
 822              		.thumb
 823              		.thumb_func
 824              		.type	print_euler_angles, %function
 825              	print_euler_angles:
 826              	.LFB5:
 130:.\ME_geometry.c **** 
 131:.\ME_geometry.c **** ///////////////////////////////////////////////////////////////////////////////////////////////////
 132:.\ME_geometry.c **** 
 133:.\ME_geometry.c **** void print_euler_angles(EULER_ANGLES *e)
ARM GAS  C:\Users\GRAZIA~1.RAV\AppData\Local\Temp\cc5K4lp0.s 			page 18


 134:.\ME_geometry.c **** {
 827              		.loc 1 134 0
 828              		.cfi_startproc
 829              		@ args = 0, pretend = 0, frame = 8
 830              		@ frame_needed = 1, uses_anonymous_args = 0
 831 0000 2DE9B043 		push	{r4, r5, r7, r8, r9, lr}
 832              	.LCFI16:
 833              		.cfi_def_cfa_offset 24
 834              		.cfi_offset 4, -24
 835              		.cfi_offset 5, -20
 836              		.cfi_offset 7, -16
 837              		.cfi_offset 8, -12
 838              		.cfi_offset 9, -8
 839              		.cfi_offset 14, -4
 840 0004 86B0     		sub	sp, sp, #24
 841              	.LCFI17:
 842              		.cfi_def_cfa_offset 48
 843 0006 04AF     		add	r7, sp, #16
 844              	.LCFI18:
 845              		.cfi_def_cfa 7, 32
 846 0008 7860     		str	r0, [r7, #4]
 135:.\ME_geometry.c ****     printf("PSI(pan):%6.3f | THETA(tilt):%6.3f | PHI(roll):%6.3f | ", e->psi, e->theta, e->phi);
 847              		.loc 1 135 0
 848 000a 7B68     		ldr	r3, [r7, #4]
 849 000c 9B68     		ldr	r3, [r3, #8]	@ float
 850 000e 1846     		mov	r0, r3
 851 0010 FFF7FEFF 		bl	__aeabi_f2d
 852 0014 0446     		mov	r4, r0
 853 0016 0D46     		mov	r5, r1
 854 0018 7B68     		ldr	r3, [r7, #4]
 855 001a 5B68     		ldr	r3, [r3, #4]	@ float
 856 001c 1846     		mov	r0, r3
 857 001e FFF7FEFF 		bl	__aeabi_f2d
 858 0022 8046     		mov	r8, r0
 859 0024 8946     		mov	r9, r1
 860 0026 7B68     		ldr	r3, [r7, #4]
 861 0028 1B68     		ldr	r3, [r3, #0]	@ float
 862 002a 1846     		mov	r0, r3
 863 002c FFF7FEFF 		bl	__aeabi_f2d
 864 0030 0246     		mov	r2, r0
 865 0032 0B46     		mov	r3, r1
 866 0034 CDE90089 		strd	r8, [sp]
 867 0038 CDE90223 		strd	r2, [sp, #8]
 868 003c 40F20000 		movw	r0, #:lower16:.LC1
 869 0040 C0F20000 		movt	r0, #:upper16:.LC1
 870 0044 2246     		mov	r2, r4
 871 0046 2B46     		mov	r3, r5
 872 0048 FFF7FEFF 		bl	printf
 136:.\ME_geometry.c **** }
 873              		.loc 1 136 0
 874 004c 07F10807 		add	r7, r7, #8
 875 0050 BD46     		mov	sp, r7
 876 0052 BDE8B083 		pop	{r4, r5, r7, r8, r9, pc}
 877              		.cfi_endproc
 878              	.LFE5:
 879              		.size	print_euler_angles, .-print_euler_angles
 880 0056 00BF     		.section	.rodata
ARM GAS  C:\Users\GRAZIA~1.RAV\AppData\Local\Temp\cc5K4lp0.s 			page 19


 881              		.align	2
 882              	.LC2:
 883 005c 5B783A25 		.ascii	"[x:%6.2f|y:%6.2f|z:%6.2f]\000"
 883      362E3266 
 883      7C793A25 
 883      362E3266 
 883      7C7A3A25 
 884 0076 0000     		.section	.text.print_acceleration_vector,"ax",%progbits
 885              		.align	2
 886              		.global	print_acceleration_vector
 887              		.thumb
 888              		.thumb_func
 889              		.type	print_acceleration_vector, %function
 890              	print_acceleration_vector:
 891              	.LFB6:
 137:.\ME_geometry.c **** 
 138:.\ME_geometry.c **** ///////////////////////////////////////////////////////////////////////////////////////////////////
 139:.\ME_geometry.c **** 
 140:.\ME_geometry.c **** void print_acceleration_vector(ACCELERATION *a)
 141:.\ME_geometry.c **** {
 892              		.loc 1 141 0
 893              		.cfi_startproc
 894              		@ args = 0, pretend = 0, frame = 8
 895              		@ frame_needed = 1, uses_anonymous_args = 0
 896 0000 2DE9B043 		push	{r4, r5, r7, r8, r9, lr}
 897              	.LCFI19:
 898              		.cfi_def_cfa_offset 24
 899              		.cfi_offset 4, -24
 900              		.cfi_offset 5, -20
 901              		.cfi_offset 7, -16
 902              		.cfi_offset 8, -12
 903              		.cfi_offset 9, -8
 904              		.cfi_offset 14, -4
 905 0004 86B0     		sub	sp, sp, #24
 906              	.LCFI20:
 907              		.cfi_def_cfa_offset 48
 908 0006 04AF     		add	r7, sp, #16
 909              	.LCFI21:
 910              		.cfi_def_cfa 7, 32
 911 0008 7860     		str	r0, [r7, #4]
 142:.\ME_geometry.c ****     printf("[x:%6.2f|y:%6.2f|z:%6.2f]", a->x, a->y, a->z);
 912              		.loc 1 142 0
 913 000a 7B68     		ldr	r3, [r7, #4]
 914 000c 1B68     		ldr	r3, [r3, #0]	@ float
 915 000e 1846     		mov	r0, r3
 916 0010 FFF7FEFF 		bl	__aeabi_f2d
 917 0014 0446     		mov	r4, r0
 918 0016 0D46     		mov	r5, r1
 919 0018 7B68     		ldr	r3, [r7, #4]
 920 001a 5B68     		ldr	r3, [r3, #4]	@ float
 921 001c 1846     		mov	r0, r3
 922 001e FFF7FEFF 		bl	__aeabi_f2d
 923 0022 8046     		mov	r8, r0
 924 0024 8946     		mov	r9, r1
 925 0026 7B68     		ldr	r3, [r7, #4]
 926 0028 9B68     		ldr	r3, [r3, #8]	@ float
 927 002a 1846     		mov	r0, r3
ARM GAS  C:\Users\GRAZIA~1.RAV\AppData\Local\Temp\cc5K4lp0.s 			page 20


 928 002c FFF7FEFF 		bl	__aeabi_f2d
 929 0030 0246     		mov	r2, r0
 930 0032 0B46     		mov	r3, r1
 931 0034 CDE90089 		strd	r8, [sp]
 932 0038 CDE90223 		strd	r2, [sp, #8]
 933 003c 40F20000 		movw	r0, #:lower16:.LC2
 934 0040 C0F20000 		movt	r0, #:upper16:.LC2
 935 0044 2246     		mov	r2, r4
 936 0046 2B46     		mov	r3, r5
 937 0048 FFF7FEFF 		bl	printf
 143:.\ME_geometry.c **** }
 938              		.loc 1 143 0
 939 004c 07F10807 		add	r7, r7, #8
 940 0050 BD46     		mov	sp, r7
 941 0052 BDE8B083 		pop	{r4, r5, r7, r8, r9, pc}
 942              		.cfi_endproc
 943              	.LFE6:
 944              		.size	print_acceleration_vector, .-print_acceleration_vector
 945 0056 00BF     		.section	.text.angular_init,"ax",%progbits
 946              		.align	2
 947              		.global	angular_init
 948              		.thumb
 949              		.thumb_func
 950              		.type	angular_init, %function
 951              	angular_init:
 952              	.LFB7:
 144:.\ME_geometry.c **** 
 145:.\ME_geometry.c **** 
 146:.\ME_geometry.c **** 
 147:.\ME_geometry.c **** ////  FUNZIONI PER TIPI ANGULAR  //////////////////////////////////////////////////////////////////
 148:.\ME_geometry.c **** 
 149:.\ME_geometry.c **** void angular_init(ANGULAR *a, DOUBLE val, FLOAT ofs)
 150:.\ME_geometry.c **** {
 953              		.loc 1 150 0
 954              		.cfi_startproc
 955              		@ args = 4, pretend = 0, frame = 16
 956              		@ frame_needed = 1, uses_anonymous_args = 0
 957              		@ link register save eliminated.
 958 0000 80B4     		push	{r7}
 959              	.LCFI22:
 960              		.cfi_def_cfa_offset 4
 961              		.cfi_offset 7, -4
 962 0002 85B0     		sub	sp, sp, #20
 963              	.LCFI23:
 964              		.cfi_def_cfa_offset 24
 965 0004 00AF     		add	r7, sp, #0
 966              	.LCFI24:
 967              		.cfi_def_cfa_register 7
 968 0006 F860     		str	r0, [r7, #12]
 969 0008 C7E90023 		strd	r2, [r7]
 151:.\ME_geometry.c ****     a->old_raw = 0 ;
 970              		.loc 1 151 0
 971 000c FB68     		ldr	r3, [r7, #12]
 972 000e 4FF00002 		mov	r2, #0
 973 0012 9A60     		str	r2, [r3, #8]	@ float
 152:.\ME_geometry.c ****     a->value = val ;
 974              		.loc 1 152 0
ARM GAS  C:\Users\GRAZIA~1.RAV\AppData\Local\Temp\cc5K4lp0.s 			page 21


 975 0014 F968     		ldr	r1, [r7, #12]
 976 0016 D7E90023 		ldrd	r2, [r7]
 977 001a C1E90023 		strd	r2, [r1]
 153:.\ME_geometry.c ****     a->offset = ofs ;
 978              		.loc 1 153 0
 979 001e FB68     		ldr	r3, [r7, #12]
 980 0020 BA69     		ldr	r2, [r7, #24]	@ float
 981 0022 DA60     		str	r2, [r3, #12]	@ float
 154:.\ME_geometry.c **** }
 982              		.loc 1 154 0
 983 0024 07F11407 		add	r7, r7, #20
 984 0028 BD46     		mov	sp, r7
 985 002a 80BC     		pop	{r7}
 986 002c 7047     		bx	lr
 987              		.cfi_endproc
 988              	.LFE7:
 989              		.size	angular_init, .-angular_init
 990              		.global	__aeabi_fcmpge
 991              		.global	__aeabi_fcmple
 992              		.global	__aeabi_fcmplt
 993              		.section	.text.angular_add,"ax",%progbits
 994              		.align	2
 995              		.global	angular_add
 996              		.thumb
 997              		.thumb_func
 998              		.type	angular_add, %function
 999              	angular_add:
 1000              	.LFB8:
 155:.\ME_geometry.c **** 
 156:.\ME_geometry.c **** ///////////////////////////////////////////////////////////////////////////////////////////////////
 157:.\ME_geometry.c **** 
 158:.\ME_geometry.c **** DOUBLE angular_add(ANGULAR *a, FLOAT raw)
 159:.\ME_geometry.c **** {
 1001              		.loc 1 159 0
 1002              		.cfi_startproc
 1003              		@ args = 0, pretend = 0, frame = 16
 1004              		@ frame_needed = 1, uses_anonymous_args = 0
 1005 0000 B0B5     		push	{r4, r5, r7, lr}
 1006              	.LCFI25:
 1007              		.cfi_def_cfa_offset 16
 1008              		.cfi_offset 4, -16
 1009              		.cfi_offset 5, -12
 1010              		.cfi_offset 7, -8
 1011              		.cfi_offset 14, -4
 1012 0002 84B0     		sub	sp, sp, #16
 1013              	.LCFI26:
 1014              		.cfi_def_cfa_offset 32
 1015 0004 00AF     		add	r7, sp, #0
 1016              	.LCFI27:
 1017              		.cfi_def_cfa_register 7
 1018 0006 7860     		str	r0, [r7, #4]
 1019 0008 3960     		str	r1, [r7, #0]	@ float
 160:.\ME_geometry.c ****     FLOAT delta = raw - a->old_raw ;            // La variazione è tra dati -180..+180
 1020              		.loc 1 160 0
 1021 000a 7B68     		ldr	r3, [r7, #4]
 1022 000c 9B68     		ldr	r3, [r3, #8]	@ float
 1023 000e 3868     		ldr	r0, [r7, #0]	@ float
ARM GAS  C:\Users\GRAZIA~1.RAV\AppData\Local\Temp\cc5K4lp0.s 			page 22


 1024 0010 1946     		mov	r1, r3
 1025 0012 FFF7FEFF 		bl	__aeabi_fsub
 1026 0016 0346     		mov	r3, r0
 1027 0018 FB60     		str	r3, [r7, #12]	@ float
 161:.\ME_geometry.c ****  
 162:.\ME_geometry.c ****     if (ABS(delta)>= 180.0)                     // Caso particolare per variazioni grandi
 1028              		.loc 1 162 0
 1029 001a F868     		ldr	r0, [r7, #12]	@ float
 1030 001c 4FF00001 		mov	r1, #0
 1031 0020 FFF7FEFF 		bl	__aeabi_fcmpge
 1032 0024 0346     		mov	r3, r0
 1033 0026 002B     		cmp	r3, #0
 1034 0028 11D0     		beq	.L37
 1035              	.L35:
 1036              		.loc 1 162 0 is_stmt 0 discriminator 1
 1037 002a 4FF00103 		mov	r3, #1
 1038 002e 1C46     		mov	r4, r3
 1039 0030 F868     		ldr	r0, [r7, #12]	@ float
 1040 0032 4FF00001 		mov	r1, #0
 1041 0036 C4F23431 		movt	r1, 17204
 1042 003a FFF7FEFF 		bl	__aeabi_fcmpge
 1043 003e 0346     		mov	r3, r0
 1044 0040 002B     		cmp	r3, #0
 1045 0042 02D1     		bne	.L28
 1046 0044 4FF00003 		mov	r3, #0
 1047 0048 1C46     		mov	r4, r3
 1048              	.L28:
 1049 004a E3B2     		uxtb	r3, r4
 1050 004c 10E0     		b	.L29
 1051              	.L37:
 1052              		.loc 1 162 0 discriminator 2
 1053 004e 4FF00103 		mov	r3, #1
 1054 0052 1C46     		mov	r4, r3
 1055 0054 F868     		ldr	r0, [r7, #12]	@ float
 1056 0056 4FF00001 		mov	r1, #0
 1057 005a CCF23431 		movt	r1, 49972
 1058 005e FFF7FEFF 		bl	__aeabi_fcmple
 1059 0062 0346     		mov	r3, r0
 1060 0064 002B     		cmp	r3, #0
 1061 0066 02D1     		bne	.L30
 1062 0068 4FF00003 		mov	r3, #0
 1063 006c 1C46     		mov	r4, r3
 1064              	.L30:
 1065 006e E3B2     		uxtb	r3, r4
 1066              	.L29:
 1067              		.loc 1 162 0 discriminator 3
 1068 0070 002B     		cmp	r3, #0
 1069 0072 1AD0     		beq	.L31
 163:.\ME_geometry.c ****     {
 164:.\ME_geometry.c ****       if (delta<0)                              // Corregge la variazione tenendo conto dei 
 1070              		.loc 1 164 0 is_stmt 1
 1071 0074 F868     		ldr	r0, [r7, #12]	@ float
 1072 0076 4FF00001 		mov	r1, #0
 1073 007a FFF7FEFF 		bl	__aeabi_fcmplt
 1074 007e 0346     		mov	r3, r0
 1075 0080 002B     		cmp	r3, #0
 1076 0082 09D0     		beq	.L38
ARM GAS  C:\Users\GRAZIA~1.RAV\AppData\Local\Temp\cc5K4lp0.s 			page 23


 1077              	.L36:
 165:.\ME_geometry.c ****         delta = 360.0 + delta ;                 // ribaltamenti
 1078              		.loc 1 165 0
 1079 0084 F868     		ldr	r0, [r7, #12]	@ float
 1080 0086 4FF00001 		mov	r1, #0
 1081 008a C4F2B431 		movt	r1, 17332
 1082 008e FFF7FEFF 		bl	__aeabi_fadd
 1083 0092 0346     		mov	r3, r0
 1084 0094 FB60     		str	r3, [r7, #12]	@ float
 1085 0096 08E0     		b	.L31
 1086              	.L38:
 166:.\ME_geometry.c ****       else
 167:.\ME_geometry.c ****         delta = delta - 360.0 ;     
 1087              		.loc 1 167 0
 1088 0098 F868     		ldr	r0, [r7, #12]	@ float
 1089 009a 4FF00001 		mov	r1, #0
 1090 009e C4F2B431 		movt	r1, 17332
 1091 00a2 FFF7FEFF 		bl	__aeabi_fsub
 1092 00a6 0346     		mov	r3, r0
 1093 00a8 FB60     		str	r3, [r7, #12]	@ float
 1094              	.L31:
 168:.\ME_geometry.c ****     }
 169:.\ME_geometry.c **** 
 170:.\ME_geometry.c ****     a->value += delta ;                         // Aggiorna il valore finale
 1095              		.loc 1 170 0
 1096 00aa 7B68     		ldr	r3, [r7, #4]
 1097 00ac D3E90045 		ldrd	r4, [r3]
 1098 00b0 F868     		ldr	r0, [r7, #12]	@ float
 1099 00b2 FFF7FEFF 		bl	__aeabi_f2d
 1100 00b6 0246     		mov	r2, r0
 1101 00b8 0B46     		mov	r3, r1
 1102 00ba 2046     		mov	r0, r4
 1103 00bc 2946     		mov	r1, r5
 1104 00be FFF7FEFF 		bl	__aeabi_dadd
 1105 00c2 0246     		mov	r2, r0
 1106 00c4 0B46     		mov	r3, r1
 1107 00c6 7968     		ldr	r1, [r7, #4]
 1108 00c8 C1E90023 		strd	r2, [r1]
 171:.\ME_geometry.c ****     a->old_raw = raw ;                          // Memorizza il valore attuale in ingresso
 1109              		.loc 1 171 0
 1110 00cc 7B68     		ldr	r3, [r7, #4]
 1111 00ce 3A68     		ldr	r2, [r7, #0]	@ float
 1112 00d0 9A60     		str	r2, [r3, #8]	@ float
 172:.\ME_geometry.c ****     
 173:.\ME_geometry.c ****     return a->value + a->offset ;               // Può essere comodo avere il valore finale 
 1113              		.loc 1 173 0
 1114 00d2 7B68     		ldr	r3, [r7, #4]
 1115 00d4 D3E90045 		ldrd	r4, [r3]
 1116 00d8 7B68     		ldr	r3, [r7, #4]
 1117 00da DB68     		ldr	r3, [r3, #12]	@ float
 1118 00dc 1846     		mov	r0, r3
 1119 00de FFF7FEFF 		bl	__aeabi_f2d
 1120 00e2 0246     		mov	r2, r0
 1121 00e4 0B46     		mov	r3, r1
 1122 00e6 2046     		mov	r0, r4
 1123 00e8 2946     		mov	r1, r5
 1124 00ea FFF7FEFF 		bl	__aeabi_dadd
ARM GAS  C:\Users\GRAZIA~1.RAV\AppData\Local\Temp\cc5K4lp0.s 			page 24


 1125 00ee 0246     		mov	r2, r0
 1126 00f0 0B46     		mov	r3, r1
 174:.\ME_geometry.c **** }
 1127              		.loc 1 174 0
 1128 00f2 1046     		mov	r0, r2
 1129 00f4 1946     		mov	r1, r3
 1130 00f6 07F11007 		add	r7, r7, #16
 1131 00fa BD46     		mov	sp, r7
 1132 00fc B0BD     		pop	{r4, r5, r7, pc}
 1133              		.cfi_endproc
 1134              	.LFE8:
 1135              		.size	angular_add, .-angular_add
 1136 00fe 00BF     		.section	.text.angular_get,"ax",%progbits
 1137              		.align	2
 1138              		.global	angular_get
 1139              		.thumb
 1140              		.thumb_func
 1141              		.type	angular_get, %function
 1142              	angular_get:
 1143              	.LFB9:
 175:.\ME_geometry.c **** 
 176:.\ME_geometry.c **** ///////////////////////////////////////////////////////////////////////////////////////////////////
 177:.\ME_geometry.c **** 
 178:.\ME_geometry.c **** 
 179:.\ME_geometry.c **** DOUBLE angular_get(ANGULAR *a)
 180:.\ME_geometry.c **** {    
 1144              		.loc 1 180 0
 1145              		.cfi_startproc
 1146              		@ args = 0, pretend = 0, frame = 8
 1147              		@ frame_needed = 1, uses_anonymous_args = 0
 1148 0000 B0B5     		push	{r4, r5, r7, lr}
 1149              	.LCFI28:
 1150              		.cfi_def_cfa_offset 16
 1151              		.cfi_offset 4, -16
 1152              		.cfi_offset 5, -12
 1153              		.cfi_offset 7, -8
 1154              		.cfi_offset 14, -4
 1155 0002 82B0     		sub	sp, sp, #8
 1156              	.LCFI29:
 1157              		.cfi_def_cfa_offset 24
 1158 0004 00AF     		add	r7, sp, #0
 1159              	.LCFI30:
 1160              		.cfi_def_cfa_register 7
 1161 0006 7860     		str	r0, [r7, #4]
 181:.\ME_geometry.c ****     return a->value + a->offset ;
 1162              		.loc 1 181 0
 1163 0008 7B68     		ldr	r3, [r7, #4]
 1164 000a D3E90045 		ldrd	r4, [r3]
 1165 000e 7B68     		ldr	r3, [r7, #4]
 1166 0010 DB68     		ldr	r3, [r3, #12]	@ float
 1167 0012 1846     		mov	r0, r3
 1168 0014 FFF7FEFF 		bl	__aeabi_f2d
 1169 0018 0246     		mov	r2, r0
 1170 001a 0B46     		mov	r3, r1
 1171 001c 2046     		mov	r0, r4
 1172 001e 2946     		mov	r1, r5
 1173 0020 FFF7FEFF 		bl	__aeabi_dadd
ARM GAS  C:\Users\GRAZIA~1.RAV\AppData\Local\Temp\cc5K4lp0.s 			page 25


 1174 0024 0246     		mov	r2, r0
 1175 0026 0B46     		mov	r3, r1
 182:.\ME_geometry.c **** }
 1176              		.loc 1 182 0
 1177 0028 1046     		mov	r0, r2
 1178 002a 1946     		mov	r1, r3
 1179 002c 07F10807 		add	r7, r7, #8
 1180 0030 BD46     		mov	sp, r7
 1181 0032 B0BD     		pop	{r4, r5, r7, pc}
 1182              		.cfi_endproc
 1183              	.LFE9:
 1184              		.size	angular_get, .-angular_get
 1185              		.section	.text.angular_set_offset,"ax",%progbits
 1186              		.align	2
 1187              		.global	angular_set_offset
 1188              		.thumb
 1189              		.thumb_func
 1190              		.type	angular_set_offset, %function
 1191              	angular_set_offset:
 1192              	.LFB10:
 183:.\ME_geometry.c **** 
 184:.\ME_geometry.c **** ///////////////////////////////////////////////////////////////////////////////////////////////////
 185:.\ME_geometry.c **** 
 186:.\ME_geometry.c **** DOUBLE angular_set_offset(ANGULAR *a, FLOAT ofs)
 187:.\ME_geometry.c **** {   
 1193              		.loc 1 187 0
 1194              		.cfi_startproc
 1195              		@ args = 0, pretend = 0, frame = 8
 1196              		@ frame_needed = 1, uses_anonymous_args = 0
 1197 0000 B0B5     		push	{r4, r5, r7, lr}
 1198              	.LCFI31:
 1199              		.cfi_def_cfa_offset 16
 1200              		.cfi_offset 4, -16
 1201              		.cfi_offset 5, -12
 1202              		.cfi_offset 7, -8
 1203              		.cfi_offset 14, -4
 1204 0002 82B0     		sub	sp, sp, #8
 1205              	.LCFI32:
 1206              		.cfi_def_cfa_offset 24
 1207 0004 00AF     		add	r7, sp, #0
 1208              	.LCFI33:
 1209              		.cfi_def_cfa_register 7
 1210 0006 7860     		str	r0, [r7, #4]
 1211 0008 3960     		str	r1, [r7, #0]	@ float
 188:.\ME_geometry.c ****     a->offset = ofs ;
 1212              		.loc 1 188 0
 1213 000a 7B68     		ldr	r3, [r7, #4]
 1214 000c 3A68     		ldr	r2, [r7, #0]	@ float
 1215 000e DA60     		str	r2, [r3, #12]	@ float
 189:.\ME_geometry.c ****     return a->value + a->offset ;
 1216              		.loc 1 189 0
 1217 0010 7B68     		ldr	r3, [r7, #4]
 1218 0012 D3E90045 		ldrd	r4, [r3]
 1219 0016 7B68     		ldr	r3, [r7, #4]
 1220 0018 DB68     		ldr	r3, [r3, #12]	@ float
 1221 001a 1846     		mov	r0, r3
 1222 001c FFF7FEFF 		bl	__aeabi_f2d
ARM GAS  C:\Users\GRAZIA~1.RAV\AppData\Local\Temp\cc5K4lp0.s 			page 26


 1223 0020 0246     		mov	r2, r0
 1224 0022 0B46     		mov	r3, r1
 1225 0024 2046     		mov	r0, r4
 1226 0026 2946     		mov	r1, r5
 1227 0028 FFF7FEFF 		bl	__aeabi_dadd
 1228 002c 0246     		mov	r2, r0
 1229 002e 0B46     		mov	r3, r1
 190:.\ME_geometry.c **** }
 1230              		.loc 1 190 0
 1231 0030 1046     		mov	r0, r2
 1232 0032 1946     		mov	r1, r3
 1233 0034 07F10807 		add	r7, r7, #8
 1234 0038 BD46     		mov	sp, r7
 1235 003a B0BD     		pop	{r4, r5, r7, pc}
 1236              		.cfi_endproc
 1237              	.LFE10:
 1238              		.size	angular_set_offset, .-angular_set_offset
 1239              		.text
 1240              	.Letext0:
 1241              		.file 2 ".\\ME_common.h"
 1242              		.file 3 ".\\ME_geometry.h"