ARM GAS  C:\Users\gravi\AppData\Local\Temp\cc1ldmaO.s 			page 1


   1              		.syntax unified
   2              		.cpu cortex-m3
   3              		.fpu softvfp
   4              		.eabi_attribute 20, 1
   5              		.eabi_attribute 21, 1
   6              		.eabi_attribute 23, 3
   7              		.eabi_attribute 24, 1
   8              		.eabi_attribute 25, 1
   9              		.eabi_attribute 26, 1
  10              		.eabi_attribute 30, 6
  11              		.eabi_attribute 34, 1
  12              		.eabi_attribute 18, 4
  13              		.thumb
  14              		.file	"ME_lib_cbuffer.c"
  15              		.text
  16              	.Ltext0:
  17              		.cfi_sections	.debug_frame
  18              		.section	.text.CBuffer_Init,"ax",%progbits
  19              		.align	2
  20              		.global	CBuffer_Init
  21              		.thumb
  22              		.thumb_func
  23              		.type	CBuffer_Init, %function
  24              	CBuffer_Init:
  25              	.LFB0:
  26              		.file 1 ".\\ME_lib_cbuffer.c"
   1:.\ME_lib_cbuffer.c **** /**************************************************************************************************
   2:.\ME_lib_cbuffer.c ****   
   3:.\ME_lib_cbuffer.c ****   Modulo "Lib CBuffer" v0.12B
   4:.\ME_lib_cbuffer.c ****   (c) 2013-2015 Movie Engineering
   5:.\ME_lib_cbuffer.c **** 
   6:.\ME_lib_cbuffer.c ****   Vedi header file.
   7:.\ME_lib_cbuffer.c ****  
   8:.\ME_lib_cbuffer.c **** ***************************************************************************************************
   9:.\ME_lib_cbuffer.c **** 
  10:.\ME_lib_cbuffer.c **** #include "ME_common.h"
  11:.\ME_lib_cbuffer.c **** #include "ME_lib_cbuffer.h"
  12:.\ME_lib_cbuffer.c **** 
  13:.\ME_lib_cbuffer.c **** ///////////////////////////////////////////////////////////////////////////////////////////////////
  14:.\ME_lib_cbuffer.c **** 
  15:.\ME_lib_cbuffer.c **** void CBuffer_Init(CBUFFER *cbuffer, BYTE *buffer_data_ptr,  WORD size)
  16:.\ME_lib_cbuffer.c **** {
  27              		.loc 1 16 0
  28              		.cfi_startproc
  29              		@ args = 0, pretend = 0, frame = 16
  30              		@ frame_needed = 1, uses_anonymous_args = 0
  31              		@ link register save eliminated.
  32 0000 80B4     		push	{r7}
  33              	.LCFI0:
  34              		.cfi_def_cfa_offset 4
  35              		.cfi_offset 7, -4
  36 0002 85B0     		sub	sp, sp, #20
  37              	.LCFI1:
  38              		.cfi_def_cfa_offset 24
  39 0004 00AF     		add	r7, sp, #0
  40              	.LCFI2:
  41              		.cfi_def_cfa_register 7
ARM GAS  C:\Users\gravi\AppData\Local\Temp\cc1ldmaO.s 			page 2


  42 0006 F860     		str	r0, [r7, #12]
  43 0008 B960     		str	r1, [r7, #8]
  44 000a 1346     		mov	r3, r2
  45 000c FB80     		strh	r3, [r7, #6]	@ movhi
  17:.\ME_lib_cbuffer.c ****     cbuffer->data_ptr = buffer_data_ptr ;       // Posizione del buffer in memoria
  46              		.loc 1 17 0
  47 000e FB68     		ldr	r3, [r7, #12]
  48 0010 BA68     		ldr	r2, [r7, #8]
  49 0012 1A60     		str	r2, [r3, #0]
  18:.\ME_lib_cbuffer.c ****     cbuffer->size = size ,                      // Numero di byte usati ad iniziare da buffer_data_
  50              		.loc 1 18 0
  51 0014 FB68     		ldr	r3, [r7, #12]
  52 0016 FA88     		ldrh	r2, [r7, #6]	@ movhi
  53 0018 1A81     		strh	r2, [r3, #8]	@ movhi
  19:.\ME_lib_cbuffer.c ****     cbuffer->top = 0 ;                          // La condizione di buffer vuoto iniziale è zero 
  54              		.loc 1 19 0
  55 001a FB68     		ldr	r3, [r7, #12]
  56 001c 4FF00002 		mov	r2, #0
  57 0020 9A80     		strh	r2, [r3, #4]	@ movhi
  20:.\ME_lib_cbuffer.c ****     cbuffer->bottom = 0 ;                       // in entrambi i puntatori
  58              		.loc 1 20 0
  59 0022 FB68     		ldr	r3, [r7, #12]
  60 0024 4FF00002 		mov	r2, #0
  61 0028 DA80     		strh	r2, [r3, #6]	@ movhi
  21:.\ME_lib_cbuffer.c ****     cbuffer->status = CBUFFER_NOERROR ;         // Nessun errore all'inizio!
  62              		.loc 1 21 0
  63 002a FB68     		ldr	r3, [r7, #12]
  64 002c 4FF00002 		mov	r2, #0
  65 0030 9A72     		strb	r2, [r3, #10]
  22:.\ME_lib_cbuffer.c **** }
  66              		.loc 1 22 0
  67 0032 07F11407 		add	r7, r7, #20
  68 0036 BD46     		mov	sp, r7
  69 0038 80BC     		pop	{r7}
  70 003a 7047     		bx	lr
  71              		.cfi_endproc
  72              	.LFE0:
  73              		.size	CBuffer_Init, .-CBuffer_Init
  74              		.section	.text.CBuffer_PutByte,"ax",%progbits
  75              		.align	2
  76              		.global	CBuffer_PutByte
  77              		.thumb
  78              		.thumb_func
  79              		.type	CBuffer_PutByte, %function
  80              	CBuffer_PutByte:
  81              	.LFB1:
  23:.\ME_lib_cbuffer.c **** 
  24:.\ME_lib_cbuffer.c **** ///////////////////////////////////////////////////////////////////////////////////////////////////
  25:.\ME_lib_cbuffer.c **** 
  26:.\ME_lib_cbuffer.c **** void CBuffer_PutByte(CBUFFER *cbuffer, BYTE b)
  27:.\ME_lib_cbuffer.c **** {
  82              		.loc 1 27 0
  83              		.cfi_startproc
  84              		@ args = 0, pretend = 0, frame = 8
  85              		@ frame_needed = 1, uses_anonymous_args = 0
  86              		@ link register save eliminated.
  87 0000 80B4     		push	{r7}
ARM GAS  C:\Users\gravi\AppData\Local\Temp\cc1ldmaO.s 			page 3


  88              	.LCFI3:
  89              		.cfi_def_cfa_offset 4
  90              		.cfi_offset 7, -4
  91 0002 83B0     		sub	sp, sp, #12
  92              	.LCFI4:
  93              		.cfi_def_cfa_offset 16
  94 0004 00AF     		add	r7, sp, #0
  95              	.LCFI5:
  96              		.cfi_def_cfa_register 7
  97 0006 7860     		str	r0, [r7, #4]
  98 0008 0B46     		mov	r3, r1
  99 000a FB70     		strb	r3, [r7, #3]
  28:.\ME_lib_cbuffer.c ****     if (cbuffer->status != CBUFFER_NOERROR)     // Se c'è errore non modificare nulla
 100              		.loc 1 28 0
 101 000c 7B68     		ldr	r3, [r7, #4]
 102 000e 9B7A     		ldrb	r3, [r3, #10]	@ zero_extendqisi2
 103 0010 002B     		cmp	r3, #0
 104 0012 22D1     		bne	.L6
 105              	.L3:
  29:.\ME_lib_cbuffer.c ****     {
  30:.\ME_lib_cbuffer.c ****         return ;
  31:.\ME_lib_cbuffer.c ****     }
  32:.\ME_lib_cbuffer.c ****     
  33:.\ME_lib_cbuffer.c ****     cbuffer->data_ptr[cbuffer->top] = b ;       // L'indice top punta sempre al primo spazio
 106              		.loc 1 33 0
 107 0014 7B68     		ldr	r3, [r7, #4]
 108 0016 1A68     		ldr	r2, [r3, #0]
 109 0018 7B68     		ldr	r3, [r7, #4]
 110 001a 9B88     		ldrh	r3, [r3, #4]
 111 001c D318     		adds	r3, r2, r3
 112 001e FA78     		ldrb	r2, [r7, #3]
 113 0020 1A70     		strb	r2, [r3, #0]
  34:.\ME_lib_cbuffer.c ****     cbuffer->top++ ;                            // vuoto disponibile.
 114              		.loc 1 34 0
 115 0022 7B68     		ldr	r3, [r7, #4]
 116 0024 9B88     		ldrh	r3, [r3, #4]
 117 0026 03F10103 		add	r3, r3, #1
 118 002a 9AB2     		uxth	r2, r3
 119 002c 7B68     		ldr	r3, [r7, #4]
 120 002e 9A80     		strh	r2, [r3, #4]	@ movhi
  35:.\ME_lib_cbuffer.c **** 
  36:.\ME_lib_cbuffer.c ****     if (cbuffer->top == cbuffer->size)          // Se dopo l'inserimento non c'è uno spazio vuoto
 121              		.loc 1 36 0
 122 0030 7B68     		ldr	r3, [r7, #4]
 123 0032 9A88     		ldrh	r2, [r3, #4]
 124 0034 7B68     		ldr	r3, [r7, #4]
 125 0036 1B89     		ldrh	r3, [r3, #8]
 126 0038 9A42     		cmp	r2, r3
 127 003a 03D1     		bne	.L5
  37:.\ME_lib_cbuffer.c ****     {                                           // successivo, allora riporta all'inizio
  38:.\ME_lib_cbuffer.c ****       cbuffer->top = 0 ;
 128              		.loc 1 38 0
 129 003c 7B68     		ldr	r3, [r7, #4]
 130 003e 4FF00002 		mov	r2, #0
 131 0042 9A80     		strh	r2, [r3, #4]	@ movhi
 132              	.L5:
  39:.\ME_lib_cbuffer.c ****     }
ARM GAS  C:\Users\gravi\AppData\Local\Temp\cc1ldmaO.s 			page 4


  40:.\ME_lib_cbuffer.c **** 
  41:.\ME_lib_cbuffer.c ****     if (cbuffer->top == cbuffer->bottom)        // L'indice bottom punta sempre al primo byte  
 133              		.loc 1 41 0
 134 0044 7B68     		ldr	r3, [r7, #4]
 135 0046 9A88     		ldrh	r2, [r3, #4]
 136 0048 7B68     		ldr	r3, [r7, #4]
 137 004a DB88     		ldrh	r3, [r3, #6]
 138 004c 9A42     		cmp	r2, r3
 139 004e 05D1     		bne	.L2
  42:.\ME_lib_cbuffer.c ****     {                                           // utilizzabile, se top lo raggiunge vuol dire che 
  43:.\ME_lib_cbuffer.c ****         cbuffer->status = CBUFFER_OVERRUN ;     // il buffer è pieno!
 140              		.loc 1 43 0
 141 0050 7B68     		ldr	r3, [r7, #4]
 142 0052 4FF0FF02 		mov	r2, #255
 143 0056 9A72     		strb	r2, [r3, #10]
 144 0058 00E0     		b	.L2
 145              	.L6:
  30:.\ME_lib_cbuffer.c ****         return ;
 146              		.loc 1 30 0
 147 005a 00BF     		nop
 148              	.L2:
  44:.\ME_lib_cbuffer.c ****     }
  45:.\ME_lib_cbuffer.c **** }
 149              		.loc 1 45 0
 150 005c 07F10C07 		add	r7, r7, #12
 151 0060 BD46     		mov	sp, r7
 152 0062 80BC     		pop	{r7}
 153 0064 7047     		bx	lr
 154              		.cfi_endproc
 155              	.LFE1:
 156              		.size	CBuffer_PutByte, .-CBuffer_PutByte
 157 0066 00BF     		.section	.text.CBuffer_GetByte,"ax",%progbits
 158              		.align	2
 159              		.global	CBuffer_GetByte
 160              		.thumb
 161              		.thumb_func
 162              		.type	CBuffer_GetByte, %function
 163              	CBuffer_GetByte:
 164              	.LFB2:
  46:.\ME_lib_cbuffer.c **** 
  47:.\ME_lib_cbuffer.c **** ///////////////////////////////////////////////////////////////////////////////////////////////////
  48:.\ME_lib_cbuffer.c **** 
  49:.\ME_lib_cbuffer.c **** BYTE CBuffer_GetByte(CBUFFER *cbuffer)
  50:.\ME_lib_cbuffer.c **** {
 165              		.loc 1 50 0
 166              		.cfi_startproc
 167              		@ args = 0, pretend = 0, frame = 16
 168              		@ frame_needed = 1, uses_anonymous_args = 0
 169              		@ link register save eliminated.
 170 0000 80B4     		push	{r7}
 171              	.LCFI6:
 172              		.cfi_def_cfa_offset 4
 173              		.cfi_offset 7, -4
 174 0002 85B0     		sub	sp, sp, #20
 175              	.LCFI7:
 176              		.cfi_def_cfa_offset 24
 177 0004 00AF     		add	r7, sp, #0
ARM GAS  C:\Users\gravi\AppData\Local\Temp\cc1ldmaO.s 			page 5


 178              	.LCFI8:
 179              		.cfi_def_cfa_register 7
 180 0006 7860     		str	r0, [r7, #4]
  51:.\ME_lib_cbuffer.c ****     BYTE b ;
  52:.\ME_lib_cbuffer.c **** 
  53:.\ME_lib_cbuffer.c ****     if (cbuffer->status != CBUFFER_NOERROR)         // Se c'è errore non modificare nulla
 181              		.loc 1 53 0
 182 0008 7B68     		ldr	r3, [r7, #4]
 183 000a 9B7A     		ldrb	r3, [r3, #10]	@ zero_extendqisi2
 184 000c 002B     		cmp	r3, #0
 185 000e 02D0     		beq	.L8
  54:.\ME_lib_cbuffer.c ****     {
  55:.\ME_lib_cbuffer.c ****         return 0;
 186              		.loc 1 55 0
 187 0010 4FF00003 		mov	r3, #0
 188 0014 25E0     		b	.L9
 189              	.L8:
  56:.\ME_lib_cbuffer.c ****     }
  57:.\ME_lib_cbuffer.c ****     
  58:.\ME_lib_cbuffer.c ****     if (cbuffer->bottom == cbuffer->top)            // Se l'indice bottom ha raggiunto il top
 190              		.loc 1 58 0
 191 0016 7B68     		ldr	r3, [r7, #4]
 192 0018 DA88     		ldrh	r2, [r3, #6]
 193 001a 7B68     		ldr	r3, [r7, #4]
 194 001c 9B88     		ldrh	r3, [r3, #4]
 195 001e 9A42     		cmp	r2, r3
 196 0020 06D1     		bne	.L10
  59:.\ME_lib_cbuffer.c ****     {                                               // al giro prima significa che nel frattempo
  60:.\ME_lib_cbuffer.c ****         cbuffer->status = CBUFFER_UNDERRUN ;        // top non è avanzato quindi il buffer è vuot
 197              		.loc 1 60 0
 198 0022 7B68     		ldr	r3, [r7, #4]
 199 0024 4FF0EE02 		mov	r2, #238
 200 0028 9A72     		strb	r2, [r3, #10]
  61:.\ME_lib_cbuffer.c ****         return 0 ;                                  // Non c'è niente da prelevalre: underrun.
 201              		.loc 1 61 0
 202 002a 4FF00003 		mov	r3, #0
 203 002e 18E0     		b	.L9
 204              	.L10:
  62:.\ME_lib_cbuffer.c ****     }
  63:.\ME_lib_cbuffer.c **** 
  64:.\ME_lib_cbuffer.c ****     b = cbuffer->data_ptr[cbuffer->bottom];                  
 205              		.loc 1 64 0
 206 0030 7B68     		ldr	r3, [r7, #4]
 207 0032 1A68     		ldr	r2, [r3, #0]
 208 0034 7B68     		ldr	r3, [r7, #4]
 209 0036 DB88     		ldrh	r3, [r3, #6]
 210 0038 D318     		adds	r3, r2, r3
 211 003a 1B78     		ldrb	r3, [r3, #0]
 212 003c FB73     		strb	r3, [r7, #15]
  65:.\ME_lib_cbuffer.c ****     cbuffer->bottom++ ; 
 213              		.loc 1 65 0
 214 003e 7B68     		ldr	r3, [r7, #4]
 215 0040 DB88     		ldrh	r3, [r3, #6]
 216 0042 03F10103 		add	r3, r3, #1
 217 0046 9AB2     		uxth	r2, r3
 218 0048 7B68     		ldr	r3, [r7, #4]
 219 004a DA80     		strh	r2, [r3, #6]	@ movhi
ARM GAS  C:\Users\gravi\AppData\Local\Temp\cc1ldmaO.s 			page 6


  66:.\ME_lib_cbuffer.c **** 
  67:.\ME_lib_cbuffer.c ****     if (cbuffer->bottom == cbuffer->size)           // Se siamo alla fine del buffer riparti dall'
 220              		.loc 1 67 0
 221 004c 7B68     		ldr	r3, [r7, #4]
 222 004e DA88     		ldrh	r2, [r3, #6]
 223 0050 7B68     		ldr	r3, [r7, #4]
 224 0052 1B89     		ldrh	r3, [r3, #8]
 225 0054 9A42     		cmp	r2, r3
 226 0056 03D1     		bne	.L11
  68:.\ME_lib_cbuffer.c ****     {                                               // inizio.
  69:.\ME_lib_cbuffer.c ****         cbuffer->bottom = 0 ;                       // Nota: la verifica di underrun viene fatta 
 227              		.loc 1 69 0
 228 0058 7B68     		ldr	r3, [r7, #4]
 229 005a 4FF00002 		mov	r2, #0
 230 005e DA80     		strh	r2, [r3, #6]	@ movhi
 231              	.L11:
  70:.\ME_lib_cbuffer.c ****     }                                               // alla prossima richiesta perché un inserimen
  71:.\ME_lib_cbuffer.c ****                                                     // potrebbe sopraggiungere prima e far avanzare
  72:.\ME_lib_cbuffer.c ****     return b ;                                      // top.
 232              		.loc 1 72 0
 233 0060 FB7B     		ldrb	r3, [r7, #15]	@ zero_extendqisi2
 234              	.L9:
  73:.\ME_lib_cbuffer.c **** }
 235              		.loc 1 73 0
 236 0062 1846     		mov	r0, r3
 237 0064 07F11407 		add	r7, r7, #20
 238 0068 BD46     		mov	sp, r7
 239 006a 80BC     		pop	{r7}
 240 006c 7047     		bx	lr
 241              		.cfi_endproc
 242              	.LFE2:
 243              		.size	CBuffer_GetByte, .-CBuffer_GetByte
 244 006e 00BF     		.section	.text.CBuffer_AnyData,"ax",%progbits
 245              		.align	2
 246              		.global	CBuffer_AnyData
 247              		.thumb
 248              		.thumb_func
 249              		.type	CBuffer_AnyData, %function
 250              	CBuffer_AnyData:
 251              	.LFB3:
  74:.\ME_lib_cbuffer.c **** 
  75:.\ME_lib_cbuffer.c **** ///////////////////////////////////////////////////////////////////////////////////////////////////
  76:.\ME_lib_cbuffer.c **** 
  77:.\ME_lib_cbuffer.c **** WORD CBuffer_AnyData(CBUFFER *cbuffer)
  78:.\ME_lib_cbuffer.c **** {
 252              		.loc 1 78 0
 253              		.cfi_startproc
 254              		@ args = 0, pretend = 0, frame = 8
 255              		@ frame_needed = 1, uses_anonymous_args = 0
 256              		@ link register save eliminated.
 257 0000 B0B4     		push	{r4, r5, r7}
 258              	.LCFI9:
 259              		.cfi_def_cfa_offset 12
 260              		.cfi_offset 4, -12
 261              		.cfi_offset 5, -8
 262              		.cfi_offset 7, -4
 263 0002 83B0     		sub	sp, sp, #12
ARM GAS  C:\Users\gravi\AppData\Local\Temp\cc1ldmaO.s 			page 7


 264              	.LCFI10:
 265              		.cfi_def_cfa_offset 24
 266 0004 00AF     		add	r7, sp, #0
 267              	.LCFI11:
 268              		.cfi_def_cfa_register 7
 269 0006 7860     		str	r0, [r7, #4]
  79:.\ME_lib_cbuffer.c ****     register WORD top = cbuffer->top ;              // Salva gli indici in locale per rendere più 
 270              		.loc 1 79 0
 271 0008 7B68     		ldr	r3, [r7, #4]
 272 000a 9D88     		ldrh	r5, [r3, #4]
  80:.\ME_lib_cbuffer.c ****     register WORD bot = cbuffer->bottom ;           // efficiente il calcolo dopo.
 273              		.loc 1 80 0
 274 000c 7B68     		ldr	r3, [r7, #4]
 275 000e DC88     		ldrh	r4, [r3, #6]
  81:.\ME_lib_cbuffer.c ****     
  82:.\ME_lib_cbuffer.c ****     if (cbuffer->status != CBUFFER_NOERROR)         // Se c'è errore non ci sono dati disponibili
 276              		.loc 1 82 0
 277 0010 7B68     		ldr	r3, [r7, #4]
 278 0012 9B7A     		ldrb	r3, [r3, #10]	@ zero_extendqisi2
 279 0014 002B     		cmp	r3, #0
 280 0016 02D0     		beq	.L13
  83:.\ME_lib_cbuffer.c ****     {
  84:.\ME_lib_cbuffer.c ****         return 0 ;
 281              		.loc 1 84 0
 282 0018 4FF00003 		mov	r3, #0
 283 001c 0AE0     		b	.L14
 284              	.L13:
  85:.\ME_lib_cbuffer.c ****     }
  86:.\ME_lib_cbuffer.c ****     
  87:.\ME_lib_cbuffer.c ****     return ( top >= bot ? 
 285              		.loc 1 87 0
 286 001e A542     		cmp	r5, r4
 287 0020 02D3     		bcc	.L15
 288              		.loc 1 87 0 is_stmt 0 discriminator 1
 289 0022 2B1B     		subs	r3, r5, r4
 290 0024 9BB2     		uxth	r3, r3
 291 0026 05E0     		b	.L16
 292              	.L15:
  88:.\ME_lib_cbuffer.c ****             (top - bot) :                           // Caso semplice: sottoinsieme dell'array 
  89:.\ME_lib_cbuffer.c ****             ( cbuffer->size - (bot - top) ) ) ;     // Caso complicato: dati divisi in due sottoins
 293              		.loc 1 89 0 is_stmt 1 discriminator 2
 294 0028 7B68     		ldr	r3, [r7, #4]
 295 002a 1A89     		ldrh	r2, [r3, #8]
  87:.\ME_lib_cbuffer.c ****     return ( top >= bot ? 
 296              		.loc 1 87 0 discriminator 2
 297 002c 2B1B     		subs	r3, r5, r4
 298 002e 9BB2     		uxth	r3, r3
 299 0030 D318     		adds	r3, r2, r3
 300 0032 9BB2     		uxth	r3, r3
 301              	.L16:
 302              	.L14:
  90:.\ME_lib_cbuffer.c **** }
 303              		.loc 1 90 0
 304 0034 1846     		mov	r0, r3
 305 0036 07F10C07 		add	r7, r7, #12
 306 003a BD46     		mov	sp, r7
 307 003c B0BC     		pop	{r4, r5, r7}
ARM GAS  C:\Users\gravi\AppData\Local\Temp\cc1ldmaO.s 			page 8


 308 003e 7047     		bx	lr
 309              		.cfi_endproc
 310              	.LFE3:
 311              		.size	CBuffer_AnyData, .-CBuffer_AnyData
 312              		.text
 313              	.Letext0:
 314              		.file 2 ".\\ME_common.h"
 315              		.file 3 ".\\ME_lib_cbuffer.h"