ARM GAS  C:\Users\gravi\AppData\Local\Temp\ccrxhGOD.s 			page 1


   1              		.syntax unified
   2              		.cpu cortex-m3
   3              		.fpu softvfp
   4              		.eabi_attribute 20, 1
   5              		.eabi_attribute 21, 1
   6              		.eabi_attribute 23, 3
   7              		.eabi_attribute 24, 1
   8              		.eabi_attribute 25, 1
   9              		.eabi_attribute 26, 1
  10              		.eabi_attribute 30, 6
  11              		.eabi_attribute 34, 1
  12              		.eabi_attribute 18, 4
  13              		.thumb
  14              		.file	"ME_lib_imu_CHRUM7.c"
  15              		.text
  16              	.Ltext0:
  17              		.cfi_sections	.debug_frame
  18              		.section	.rodata
  19              		.align	2
  20              	.LC0:
  21 0000 0D0A2530 		.ascii	"\015\012%02X \000"
  21      32582000 
  22              		.align	2
  23              	.LC1:
  24 0008 4841535F 		.ascii	"HAS_DATA \000"
  24      44415441 
  24      2000
  25 0012 0000     		.align	2
  26              	.LC2:
  27 0014 4E4F5F44 		.ascii	"NO_DATA  \000"
  27      41544120 
  27      2000
  28 001e 0000     		.align	2
  29              	.LC3:
  30 0020 49535F42 		.ascii	"IS_BATCH \000"
  30      41544348 
  30      2000
  31 002a 0000     		.align	2
  32              	.LC4:
  33 002c 4E4F5F42 		.ascii	"NO_BATCH \000"
  33      41544348 
  33      2000
  34 0036 0000     		.align	2
  35              	.LC5:
  36 0038 4C656E3A 		.ascii	"Len:%02d \000"
  36      25303264 
  36      2000
  37 0042 0000     		.align	2
  38              	.LC6:
  39 0044 20202000 		.ascii	"   \000"
  40              		.align	2
  41              	.LC7:
  42 0048 4F4B2000 		.ascii	"OK \000"
  43              		.align	2
  44              	.LC8:
  45 004c 205B00   		.ascii	" [\000"
  46 004f 00       		.align	2
ARM GAS  C:\Users\gravi\AppData\Local\Temp\ccrxhGOD.s 			page 2


  47              	.LC9:
  48 0050 20253032 		.ascii	" %02X\000"
  48      5800
  49 0056 0000     		.align	2
  50              	.LC10:
  51 0058 205D2000 		.ascii	" ] \000"
  52              		.section	.text.CHRUM7_PrintPacket,"ax",%progbits
  53              		.align	2
  54              		.global	CHRUM7_PrintPacket
  55              		.thumb
  56              		.thumb_func
  57              		.type	CHRUM7_PrintPacket, %function
  58              	CHRUM7_PrintPacket:
  59              	.LFB0:
  60              		.file 1 ".\\ME_lib_imu_CHRUM7.c"
   1:.\ME_lib_imu_CHRUM7.c **** /**************************************************************************************************
   2:.\ME_lib_imu_CHRUM7.c ****   
   3:.\ME_lib_imu_CHRUM7.c ****   Modulo "Lib Imu CHRUM7" v0.10B
   4:.\ME_lib_imu_CHRUM7.c ****   (c) 2015 Movie Engineering
   5:.\ME_lib_imu_CHRUM7.c **** 
   6:.\ME_lib_imu_CHRUM7.c ****   Vedi header file.
   7:.\ME_lib_imu_CHRUM7.c **** 
   8:.\ME_lib_imu_CHRUM7.c **** ***************************************************************************************************
   9:.\ME_lib_imu_CHRUM7.c **** 
  10:.\ME_lib_imu_CHRUM7.c **** #include <stdio.h>
  11:.\ME_lib_imu_CHRUM7.c **** #include "ME_common.h"
  12:.\ME_lib_imu_CHRUM7.c **** #include "ME_lib_imu_CHRUM7.h"
  13:.\ME_lib_imu_CHRUM7.c **** 
  14:.\ME_lib_imu_CHRUM7.c **** 
  15:.\ME_lib_imu_CHRUM7.c **** ///////////////////////////////////////////////////////////////////////////////////////////////////
  16:.\ME_lib_imu_CHRUM7.c **** 
  17:.\ME_lib_imu_CHRUM7.c **** void CHRUM7_PrintPacket(BYTE *p)
  18:.\ME_lib_imu_CHRUM7.c **** {
  61              		.loc 1 18 0
  62              		.cfi_startproc
  63              		@ args = 0, pretend = 0, frame = 24
  64              		@ frame_needed = 1, uses_anonymous_args = 0
  65 0000 80B5     		push	{r7, lr}
  66              	.LCFI0:
  67              		.cfi_def_cfa_offset 8
  68              		.cfi_offset 7, -8
  69              		.cfi_offset 14, -4
  70 0002 86B0     		sub	sp, sp, #24
  71              	.LCFI1:
  72              		.cfi_def_cfa_offset 32
  73 0004 00AF     		add	r7, sp, #0
  74              	.LCFI2:
  75              		.cfi_def_cfa_register 7
  76 0006 7860     		str	r0, [r7, #4]
  19:.\ME_lib_imu_CHRUM7.c ****     CHRUM7_HEADER *hp = (CHRUM7_HEADER *) p ;           // Converte il puntatore generico all'heade
  77              		.loc 1 19 0
  78 0008 7B68     		ldr	r3, [r7, #4]
  79 000a 3B61     		str	r3, [r7, #16]
  20:.\ME_lib_imu_CHRUM7.c ****     
  21:.\ME_lib_imu_CHRUM7.c ****     BYTE i, len ;                                       // Lunghezza in DWORD (32bit)
  22:.\ME_lib_imu_CHRUM7.c **** 
  23:.\ME_lib_imu_CHRUM7.c ****   // Se "is_batch" è zero allora la lunghezza del pacchetto è 1 (cioè un 32bit che sono 4 byte) 
ARM GAS  C:\Users\gravi\AppData\Local\Temp\ccrxhGOD.s 			page 3


  24:.\ME_lib_imu_CHRUM7.c ****   // altrimenti la lunghezza in dwords è in "batch_len" (esempio: 5 vuol dire 20 bytes)
  25:.\ME_lib_imu_CHRUM7.c **** 
  26:.\ME_lib_imu_CHRUM7.c ****     len = hp->packet_type.has_data & !hp->packet_type.is_batch ? 
  80              		.loc 1 26 0
  81 000c 3B69     		ldr	r3, [r7, #16]
  82 000e DB78     		ldrb	r3, [r3, #3]
  83 0010 C3F3C013 		ubfx	r3, r3, #7, #1
  84 0014 DBB2     		uxtb	r3, r3
  85 0016 1A46     		mov	r2, r3
  86 0018 3B69     		ldr	r3, [r7, #16]
  87 001a DB78     		ldrb	r3, [r3, #3]	@ zero_extendqisi2
  88 001c 03F04003 		and	r3, r3, #64
  89 0020 DBB2     		uxtb	r3, r3
  90 0022 002B     		cmp	r3, #0
  91 0024 14BF     		ite	ne
  92 0026 0023     		movne	r3, #0
  93 0028 0123     		moveq	r3, #1
  94 002a DBB2     		uxtb	r3, r3
  95 002c 1340     		ands	r3, r3, r2
  96 002e 002B     		cmp	r3, #0
  97 0030 05D1     		bne	.L2
  27:.\ME_lib_imu_CHRUM7.c ****           1 : hp->packet_type.batch_len ; 
  98              		.loc 1 27 0
  99 0032 3B69     		ldr	r3, [r7, #16]
 100 0034 DB78     		ldrb	r3, [r3, #3]
 101 0036 C3F38303 		ubfx	r3, r3, #2, #4
 102 003a DBB2     		uxtb	r3, r3
 103 003c 01E0     		b	.L3
 104              	.L2:
  26:.\ME_lib_imu_CHRUM7.c ****     len = hp->packet_type.has_data & !hp->packet_type.is_batch ? 
 105              		.loc 1 26 0 discriminator 1
 106 003e 4FF00103 		mov	r3, #1
 107              	.L3:
  26:.\ME_lib_imu_CHRUM7.c ****     len = hp->packet_type.has_data & !hp->packet_type.is_batch ? 
 108              		.loc 1 26 0 is_stmt 0 discriminator 2
 109 0042 FB73     		strb	r3, [r7, #15]
  28:.\ME_lib_imu_CHRUM7.c **** 
  29:.\ME_lib_imu_CHRUM7.c **** 
  30:.\ME_lib_imu_CHRUM7.c ****   // Stampa della parte header
  31:.\ME_lib_imu_CHRUM7.c **** 
  32:.\ME_lib_imu_CHRUM7.c ****     printf(CRLF"%02X ",hp->address);
 110              		.loc 1 32 0 is_stmt 1 discriminator 2
 111 0044 3B69     		ldr	r3, [r7, #16]
 112 0046 1B79     		ldrb	r3, [r3, #4]	@ zero_extendqisi2
 113 0048 40F20000 		movw	r0, #:lower16:.LC0
 114 004c C0F20000 		movt	r0, #:upper16:.LC0
 115 0050 1946     		mov	r1, r3
 116 0052 FFF7FEFF 		bl	printf
  33:.\ME_lib_imu_CHRUM7.c ****     printf(hp->packet_type.has_data ? "HAS_DATA " : "NO_DATA  ");
 117              		.loc 1 33 0 discriminator 2
 118 0056 3B69     		ldr	r3, [r7, #16]
 119 0058 DB78     		ldrb	r3, [r3, #3]	@ zero_extendqisi2
 120 005a 23F07F03 		bic	r3, r3, #127
 121 005e DBB2     		uxtb	r3, r3
 122 0060 002B     		cmp	r3, #0
 123 0062 04D0     		beq	.L4
 124              		.loc 1 33 0 is_stmt 0 discriminator 1
ARM GAS  C:\Users\gravi\AppData\Local\Temp\ccrxhGOD.s 			page 4


 125 0064 40F20003 		movw	r3, #:lower16:.LC1
 126 0068 C0F20003 		movt	r3, #:upper16:.LC1
 127 006c 03E0     		b	.L5
 128              	.L4:
 129              		.loc 1 33 0 discriminator 2
 130 006e 40F20003 		movw	r3, #:lower16:.LC2
 131 0072 C0F20003 		movt	r3, #:upper16:.LC2
 132              	.L5:
 133              		.loc 1 33 0 discriminator 3
 134 0076 1846     		mov	r0, r3
 135 0078 FFF7FEFF 		bl	printf
  34:.\ME_lib_imu_CHRUM7.c ****     printf(hp->packet_type.is_batch ? "IS_BATCH " : "NO_BATCH ");
 136              		.loc 1 34 0 is_stmt 1 discriminator 3
 137 007c 3B69     		ldr	r3, [r7, #16]
 138 007e DB78     		ldrb	r3, [r3, #3]	@ zero_extendqisi2
 139 0080 03F04003 		and	r3, r3, #64
 140 0084 DBB2     		uxtb	r3, r3
 141 0086 002B     		cmp	r3, #0
 142 0088 04D0     		beq	.L6
 143              		.loc 1 34 0 is_stmt 0 discriminator 1
 144 008a 40F20003 		movw	r3, #:lower16:.LC3
 145 008e C0F20003 		movt	r3, #:upper16:.LC3
 146 0092 03E0     		b	.L7
 147              	.L6:
 148              		.loc 1 34 0 discriminator 2
 149 0094 40F20003 		movw	r3, #:lower16:.LC4
 150 0098 C0F20003 		movt	r3, #:upper16:.LC4
 151              	.L7:
 152              		.loc 1 34 0 discriminator 3
 153 009c 1846     		mov	r0, r3
 154 009e FFF7FEFF 		bl	printf
  35:.\ME_lib_imu_CHRUM7.c ****     printf("Len:%02d ", 4*hp->packet_type.batch_len );
 155              		.loc 1 35 0 is_stmt 1 discriminator 3
 156 00a2 3B69     		ldr	r3, [r7, #16]
 157 00a4 DB78     		ldrb	r3, [r3, #3]
 158 00a6 C3F38303 		ubfx	r3, r3, #2, #4
 159 00aa DBB2     		uxtb	r3, r3
 160 00ac 4FEA8303 		lsl	r3, r3, #2
 161 00b0 40F20000 		movw	r0, #:lower16:.LC5
 162 00b4 C0F20000 		movt	r0, #:upper16:.LC5
 163 00b8 1946     		mov	r1, r3
 164 00ba FFF7FEFF 		bl	printf
  36:.\ME_lib_imu_CHRUM7.c ****     printf("%c", hp->packet_type.hidden ? 'H' : ' ' );
 165              		.loc 1 36 0 discriminator 3
 166 00be 3B69     		ldr	r3, [r7, #16]
 167 00c0 DB78     		ldrb	r3, [r3, #3]	@ zero_extendqisi2
 168 00c2 03F00203 		and	r3, r3, #2
 169 00c6 DBB2     		uxtb	r3, r3
 170 00c8 002B     		cmp	r3, #0
 171 00ca 02D0     		beq	.L8
 172              		.loc 1 36 0 is_stmt 0 discriminator 1
 173 00cc 4FF04803 		mov	r3, #72
 174 00d0 01E0     		b	.L9
 175              	.L8:
 176              		.loc 1 36 0 discriminator 2
 177 00d2 4FF02003 		mov	r3, #32
 178              	.L9:
ARM GAS  C:\Users\gravi\AppData\Local\Temp\ccrxhGOD.s 			page 5


 179              		.loc 1 36 0 discriminator 3
 180 00d6 1846     		mov	r0, r3
 181 00d8 FFF7FEFF 		bl	putchar
  37:.\ME_lib_imu_CHRUM7.c ****     printf(hp->packet_type.command_failed ? "   " : "OK ");
 182              		.loc 1 37 0 is_stmt 1 discriminator 3
 183 00dc 3B69     		ldr	r3, [r7, #16]
 184 00de DB78     		ldrb	r3, [r3, #3]	@ zero_extendqisi2
 185 00e0 03F00103 		and	r3, r3, #1
 186 00e4 DBB2     		uxtb	r3, r3
 187 00e6 002B     		cmp	r3, #0
 188 00e8 04D0     		beq	.L10
 189              		.loc 1 37 0 is_stmt 0 discriminator 1
 190 00ea 40F20003 		movw	r3, #:lower16:.LC6
 191 00ee C0F20003 		movt	r3, #:upper16:.LC6
 192 00f2 03E0     		b	.L11
 193              	.L10:
 194              		.loc 1 37 0 discriminator 2
 195 00f4 40F20003 		movw	r3, #:lower16:.LC7
 196 00f8 C0F20003 		movt	r3, #:upper16:.LC7
 197              	.L11:
 198              		.loc 1 37 0 discriminator 3
 199 00fc 1846     		mov	r0, r3
 200 00fe FFF7FEFF 		bl	printf
  38:.\ME_lib_imu_CHRUM7.c **** 
  39:.\ME_lib_imu_CHRUM7.c ****   // Stampa tutto il pacchetto in esadecimale ascii
  40:.\ME_lib_imu_CHRUM7.c **** 
  41:.\ME_lib_imu_CHRUM7.c ****     printf(" [");         
 201              		.loc 1 41 0 is_stmt 1 discriminator 3
 202 0102 40F20000 		movw	r0, #:lower16:.LC8
 203 0106 C0F20000 		movt	r0, #:upper16:.LC8
 204 010a FFF7FEFF 		bl	printf
  42:.\ME_lib_imu_CHRUM7.c ****     for(i=0; i < sizeof(CHRUM7_HEADER)+4*len + 2 ; i++)   // Stampa anche la checksum (ultimi 2)
 205              		.loc 1 42 0 discriminator 3
 206 010e 4FF00003 		mov	r3, #0
 207 0112 FB75     		strb	r3, [r7, #23]
 208 0114 0EE0     		b	.L12
 209              	.L13:
  43:.\ME_lib_imu_CHRUM7.c ****     {
  44:.\ME_lib_imu_CHRUM7.c ****         printf(" %02X",p[i]);
 210              		.loc 1 44 0 discriminator 2
 211 0116 FB7D     		ldrb	r3, [r7, #23]	@ zero_extendqisi2
 212 0118 7A68     		ldr	r2, [r7, #4]
 213 011a D318     		adds	r3, r2, r3
 214 011c 1B78     		ldrb	r3, [r3, #0]	@ zero_extendqisi2
 215 011e 40F20000 		movw	r0, #:lower16:.LC9
 216 0122 C0F20000 		movt	r0, #:upper16:.LC9
 217 0126 1946     		mov	r1, r3
 218 0128 FFF7FEFF 		bl	printf
  42:.\ME_lib_imu_CHRUM7.c ****     for(i=0; i < sizeof(CHRUM7_HEADER)+4*len + 2 ; i++)   // Stampa anche la checksum (ultimi 2)
 219              		.loc 1 42 0 discriminator 2
 220 012c FB7D     		ldrb	r3, [r7, #23]
 221 012e 03F10103 		add	r3, r3, #1
 222 0132 FB75     		strb	r3, [r7, #23]
 223              	.L12:
  42:.\ME_lib_imu_CHRUM7.c ****     for(i=0; i < sizeof(CHRUM7_HEADER)+4*len + 2 ; i++)   // Stampa anche la checksum (ultimi 2)
 224              		.loc 1 42 0 is_stmt 0 discriminator 1
 225 0134 FA7D     		ldrb	r2, [r7, #23]	@ zero_extendqisi2
ARM GAS  C:\Users\gravi\AppData\Local\Temp\ccrxhGOD.s 			page 6


 226 0136 FB7B     		ldrb	r3, [r7, #15]	@ zero_extendqisi2
 227 0138 4FEA8303 		lsl	r3, r3, #2
 228 013c 03F10703 		add	r3, r3, #7
 229 0140 9A42     		cmp	r2, r3
 230 0142 E8D3     		bcc	.L13
  45:.\ME_lib_imu_CHRUM7.c ****     }
  46:.\ME_lib_imu_CHRUM7.c **** 
  47:.\ME_lib_imu_CHRUM7.c ****     printf(" ] ");
 231              		.loc 1 47 0 is_stmt 1
 232 0144 40F20000 		movw	r0, #:lower16:.LC10
 233 0148 C0F20000 		movt	r0, #:upper16:.LC10
 234 014c FFF7FEFF 		bl	printf
  48:.\ME_lib_imu_CHRUM7.c **** }
 235              		.loc 1 48 0
 236 0150 07F11807 		add	r7, r7, #24
 237 0154 BD46     		mov	sp, r7
 238 0156 80BD     		pop	{r7, pc}
 239              		.cfi_endproc
 240              	.LFE0:
 241              		.size	CHRUM7_PrintPacket, .-CHRUM7_PrintPacket
 242              		.global	__aeabi_i2d
 243              		.global	__aeabi_dmul
 244              		.global	__aeabi_d2f
 245              		.section	.text.CHRUM7_PacketToEuler,"ax",%progbits
 246              		.align	2
 247              		.global	CHRUM7_PacketToEuler
 248              		.thumb
 249              		.thumb_func
 250              		.type	CHRUM7_PacketToEuler, %function
 251              	CHRUM7_PacketToEuler:
 252              	.LFB1:
  49:.\ME_lib_imu_CHRUM7.c **** 
  50:.\ME_lib_imu_CHRUM7.c **** 
  51:.\ME_lib_imu_CHRUM7.c **** 
  52:.\ME_lib_imu_CHRUM7.c **** ///////////////////////////////////////////////////////////////////////////////////////////////////
  53:.\ME_lib_imu_CHRUM7.c **** 
  54:.\ME_lib_imu_CHRUM7.c **** void CHRUM7_PacketToEuler(BYTE *p, EULER_ANGLES *e)
  55:.\ME_lib_imu_CHRUM7.c **** {
 253              		.loc 1 55 0
 254              		.cfi_startproc
 255              		@ args = 0, pretend = 0, frame = 8
 256              		@ frame_needed = 1, uses_anonymous_args = 0
 257 0000 80B5     		push	{r7, lr}
 258              	.LCFI3:
 259              		.cfi_def_cfa_offset 8
 260              		.cfi_offset 7, -8
 261              		.cfi_offset 14, -4
 262 0002 82B0     		sub	sp, sp, #8
 263              	.LCFI4:
 264              		.cfi_def_cfa_offset 16
 265 0004 00AF     		add	r7, sp, #0
 266              	.LCFI5:
 267              		.cfi_def_cfa_register 7
 268 0006 7860     		str	r0, [r7, #4]
 269 0008 3960     		str	r1, [r7, #0]
  56:.\ME_lib_imu_CHRUM7.c ****   // Per i fattori di conversione vedi datasheet del componente hardware)
  57:.\ME_lib_imu_CHRUM7.c ****   
ARM GAS  C:\Users\gravi\AppData\Local\Temp\ccrxhGOD.s 			page 7


  58:.\ME_lib_imu_CHRUM7.c ****     e->phi   = 0.0109863 * (INT) W(p[5], p[6]);   
 270              		.loc 1 58 0
 271 000a 7B68     		ldr	r3, [r7, #4]
 272 000c 03F10503 		add	r3, r3, #5
 273 0010 1B78     		ldrb	r3, [r3, #0]	@ zero_extendqisi2
 274 0012 4FEA0323 		lsl	r3, r3, #8
 275 0016 9AB2     		uxth	r2, r3
 276 0018 7B68     		ldr	r3, [r7, #4]
 277 001a 03F10603 		add	r3, r3, #6
 278 001e 1B78     		ldrb	r3, [r3, #0]	@ zero_extendqisi2
 279 0020 1343     		orrs	r3, r3, r2
 280 0022 9BB2     		uxth	r3, r3
 281 0024 9BB2     		uxth	r3, r3
 282 0026 1BB2     		sxth	r3, r3
 283 0028 1846     		mov	r0, r3
 284 002a FFF7FEFF 		bl	__aeabi_i2d
 285 002e 0246     		mov	r2, r0
 286 0030 0B46     		mov	r3, r1
 287 0032 1046     		mov	r0, r2
 288 0034 1946     		mov	r1, r3
 289 0036 2EA3     		adr	r3, .L15
 290 0038 D3E90023 		ldrd	r2, [r3]
 291 003c FFF7FEFF 		bl	__aeabi_dmul
 292 0040 0246     		mov	r2, r0
 293 0042 0B46     		mov	r3, r1
 294 0044 1046     		mov	r0, r2
 295 0046 1946     		mov	r1, r3
 296 0048 FFF7FEFF 		bl	__aeabi_d2f
 297 004c 0246     		mov	r2, r0
 298 004e 3B68     		ldr	r3, [r7, #0]
 299 0050 1A60     		str	r2, [r3, #0]	@ float
  59:.\ME_lib_imu_CHRUM7.c ****     e->theta = 0.0109863 * (INT) W(p[7], p[8]);
 300              		.loc 1 59 0
 301 0052 7B68     		ldr	r3, [r7, #4]
 302 0054 03F10703 		add	r3, r3, #7
 303 0058 1B78     		ldrb	r3, [r3, #0]	@ zero_extendqisi2
 304 005a 4FEA0323 		lsl	r3, r3, #8
 305 005e 9AB2     		uxth	r2, r3
 306 0060 7B68     		ldr	r3, [r7, #4]
 307 0062 03F10803 		add	r3, r3, #8
 308 0066 1B78     		ldrb	r3, [r3, #0]	@ zero_extendqisi2
 309 0068 1343     		orrs	r3, r3, r2
 310 006a 9BB2     		uxth	r3, r3
 311 006c 9BB2     		uxth	r3, r3
 312 006e 1BB2     		sxth	r3, r3
 313 0070 1846     		mov	r0, r3
 314 0072 FFF7FEFF 		bl	__aeabi_i2d
 315 0076 0246     		mov	r2, r0
 316 0078 0B46     		mov	r3, r1
 317 007a 1046     		mov	r0, r2
 318 007c 1946     		mov	r1, r3
 319 007e 1CA3     		adr	r3, .L15
 320 0080 D3E90023 		ldrd	r2, [r3]
 321 0084 FFF7FEFF 		bl	__aeabi_dmul
 322 0088 0246     		mov	r2, r0
 323 008a 0B46     		mov	r3, r1
 324 008c 1046     		mov	r0, r2
ARM GAS  C:\Users\gravi\AppData\Local\Temp\ccrxhGOD.s 			page 8


 325 008e 1946     		mov	r1, r3
 326 0090 FFF7FEFF 		bl	__aeabi_d2f
 327 0094 0246     		mov	r2, r0
 328 0096 3B68     		ldr	r3, [r7, #0]
 329 0098 5A60     		str	r2, [r3, #4]	@ float
  60:.\ME_lib_imu_CHRUM7.c ****     e->psi   = 0.0109863 * (INT) W(p[9], p[10]);
 330              		.loc 1 60 0
 331 009a 7B68     		ldr	r3, [r7, #4]
 332 009c 03F10903 		add	r3, r3, #9
 333 00a0 1B78     		ldrb	r3, [r3, #0]	@ zero_extendqisi2
 334 00a2 4FEA0323 		lsl	r3, r3, #8
 335 00a6 9AB2     		uxth	r2, r3
 336 00a8 7B68     		ldr	r3, [r7, #4]
 337 00aa 03F10A03 		add	r3, r3, #10
 338 00ae 1B78     		ldrb	r3, [r3, #0]	@ zero_extendqisi2
 339 00b0 1343     		orrs	r3, r3, r2
 340 00b2 9BB2     		uxth	r3, r3
 341 00b4 9BB2     		uxth	r3, r3
 342 00b6 1BB2     		sxth	r3, r3
 343 00b8 1846     		mov	r0, r3
 344 00ba FFF7FEFF 		bl	__aeabi_i2d
 345 00be 0246     		mov	r2, r0
 346 00c0 0B46     		mov	r3, r1
 347 00c2 1046     		mov	r0, r2
 348 00c4 1946     		mov	r1, r3
 349 00c6 0AA3     		adr	r3, .L15
 350 00c8 D3E90023 		ldrd	r2, [r3]
 351 00cc FFF7FEFF 		bl	__aeabi_dmul
 352 00d0 0246     		mov	r2, r0
 353 00d2 0B46     		mov	r3, r1
 354 00d4 1046     		mov	r0, r2
 355 00d6 1946     		mov	r1, r3
 356 00d8 FFF7FEFF 		bl	__aeabi_d2f
 357 00dc 0246     		mov	r2, r0
 358 00de 3B68     		ldr	r3, [r7, #0]
 359 00e0 9A60     		str	r2, [r3, #8]	@ float
  61:.\ME_lib_imu_CHRUM7.c **** }
 360              		.loc 1 61 0
 361 00e2 07F10807 		add	r7, r7, #8
 362 00e6 BD46     		mov	sp, r7
 363 00e8 80BD     		pop	{r7, pc}
 364              	.L16:
 365 00ea 00BFAFF3 		.align	3
 365      0080
 366              	.L15:
 367 00f0 3DE2A139 		.word	966910525
 368 00f4 FC7F863F 		.word	1065779196
 369              		.cfi_endproc
 370              	.LFE1:
 371              		.size	CHRUM7_PacketToEuler, .-CHRUM7_PacketToEuler
 372              		.section	.text.CHRUM7_RegisterIO,"ax",%progbits
 373              		.align	2
 374              		.global	CHRUM7_RegisterIO
 375              		.thumb
 376              		.thumb_func
 377              		.type	CHRUM7_RegisterIO, %function
 378              	CHRUM7_RegisterIO:
ARM GAS  C:\Users\gravi\AppData\Local\Temp\ccrxhGOD.s 			page 9


 379              	.LFB2:
  62:.\ME_lib_imu_CHRUM7.c **** 
  63:.\ME_lib_imu_CHRUM7.c **** 
  64:.\ME_lib_imu_CHRUM7.c **** 
  65:.\ME_lib_imu_CHRUM7.c **** ///////////////////////////////////////////////////////////////////////////////////////////////////
  66:.\ME_lib_imu_CHRUM7.c **** 
  67:.\ME_lib_imu_CHRUM7.c **** void CHRUM7_RegisterIO(BOOL read, BYTE address, DWORD value, void (putchar_function)(BYTE b) )
  68:.\ME_lib_imu_CHRUM7.c **** {
 380              		.loc 1 68 0
 381              		.cfi_startproc
 382              		@ args = 0, pretend = 0, frame = 40
 383              		@ frame_needed = 1, uses_anonymous_args = 0
 384 0000 80B5     		push	{r7, lr}
 385              	.LCFI6:
 386              		.cfi_def_cfa_offset 8
 387              		.cfi_offset 7, -8
 388              		.cfi_offset 14, -4
 389 0002 8AB0     		sub	sp, sp, #40
 390              	.LCFI7:
 391              		.cfi_def_cfa_offset 48
 392 0004 00AF     		add	r7, sp, #0
 393              	.LCFI8:
 394              		.cfi_def_cfa_register 7
 395 0006 BA60     		str	r2, [r7, #8]
 396 0008 7B60     		str	r3, [r7, #4]
 397 000a 0346     		mov	r3, r0
 398 000c FB73     		strb	r3, [r7, #15]
 399 000e 0B46     		mov	r3, r1
 400 0010 BB73     		strb	r3, [r7, #14]
  69:.\ME_lib_imu_CHRUM7.c ****     CHRUM7_HEADER h ;
  70:.\ME_lib_imu_CHRUM7.c ****     WORD checksum = 0 ;
 401              		.loc 1 70 0
 402 0012 4FF00003 		mov	r3, #0
 403 0016 FB84     		strh	r3, [r7, #38]	@ movhi
  71:.\ME_lib_imu_CHRUM7.c ****     BYTE i, *p ;
  72:.\ME_lib_imu_CHRUM7.c ****     BOOL command = (address >= 0xAA) ;      // Stesso campo per indirizzo o comando (!)
 404              		.loc 1 72 0
 405 0018 BB7B     		ldrb	r3, [r7, #14]	@ zero_extendqisi2
 406 001a A92B     		cmp	r3, #169
 407 001c 94BF     		ite	ls
 408 001e 0023     		movls	r3, #0
 409 0020 0123     		movhi	r3, #1
 410 0022 DBB2     		uxtb	r3, r3
 411 0024 87F82430 		strb	r3, [r7, #36]
  73:.\ME_lib_imu_CHRUM7.c ****     BOOL write = !(command || read) ;       // Scrittura solo se non è comando e non è lettura
 412              		.loc 1 73 0
 413 0028 97F82430 		ldrb	r3, [r7, #36]	@ zero_extendqisi2
 414 002c 002B     		cmp	r3, #0
 415 002e 05D1     		bne	.L18
 416              		.loc 1 73 0 is_stmt 0 discriminator 1
 417 0030 FB7B     		ldrb	r3, [r7, #15]	@ zero_extendqisi2
 418 0032 002B     		cmp	r3, #0
 419 0034 02D1     		bne	.L18
 420              		.loc 1 73 0 discriminator 3
 421 0036 4FF00103 		mov	r3, #1
 422 003a 01E0     		b	.L19
 423              	.L18:
ARM GAS  C:\Users\gravi\AppData\Local\Temp\ccrxhGOD.s 			page 10


 424              		.loc 1 73 0 discriminator 2
 425 003c 4FF00003 		mov	r3, #0
 426              	.L19:
 427              		.loc 1 73 0 discriminator 4
 428 0040 87F82330 		strb	r3, [r7, #35]
  74:.\ME_lib_imu_CHRUM7.c ****     
  75:.\ME_lib_imu_CHRUM7.c ****   // Inizializza l'header (i pacchetti spediti e ricevuti hanno la stessa struttura)
  76:.\ME_lib_imu_CHRUM7.c ****   
  77:.\ME_lib_imu_CHRUM7.c ****     h.id[0]='s';
 429              		.loc 1 77 0 is_stmt 1 discriminator 4
 430 0044 4FF07303 		mov	r3, #115
 431 0048 3B75     		strb	r3, [r7, #20]
  78:.\ME_lib_imu_CHRUM7.c ****     h.id[1]='n';
 432              		.loc 1 78 0 discriminator 4
 433 004a 4FF06E03 		mov	r3, #110
 434 004e 7B75     		strb	r3, [r7, #21]
  79:.\ME_lib_imu_CHRUM7.c ****     h.id[2]='p';
 435              		.loc 1 79 0 discriminator 4
 436 0050 4FF07003 		mov	r3, #112
 437 0054 BB75     		strb	r3, [r7, #22]
  80:.\ME_lib_imu_CHRUM7.c ****     
  81:.\ME_lib_imu_CHRUM7.c ****     h.packet_type.has_data       = write ;            // 1 = scrive, se 0 = legge/esegue 
 438              		.loc 1 81 0 discriminator 4
 439 0056 97F82330 		ldrb	r3, [r7, #35]
 440 005a 03F00103 		and	r3, r3, #1
 441 005e DAB2     		uxtb	r2, r3
 442 0060 FB7D     		ldrb	r3, [r7, #23]
 443 0062 62F3C713 		bfi	r3, r2, #7, #1
 444 0066 FB75     		strb	r3, [r7, #23]
  82:.\ME_lib_imu_CHRUM7.c ****     h.packet_type.batch_len      = (write ? 1 : 0) ;  // Lettura o comando non hanno batch
 445              		.loc 1 82 0 discriminator 4
 446 0068 97F82330 		ldrb	r3, [r7, #35]	@ zero_extendqisi2
 447 006c 002B     		cmp	r3, #0
 448 006e 0CBF     		ite	eq
 449 0070 0023     		moveq	r3, #0
 450 0072 0123     		movne	r3, #1
 451 0074 DBB2     		uxtb	r3, r3
 452 0076 03F00F03 		and	r3, r3, #15
 453 007a DAB2     		uxtb	r2, r3
 454 007c FB7D     		ldrb	r3, [r7, #23]
 455 007e 62F38503 		bfi	r3, r2, #2, #4
 456 0082 FB75     		strb	r3, [r7, #23]
  83:.\ME_lib_imu_CHRUM7.c ****     h.packet_type.is_batch       = write ;            // Una sola DWORD cioè un solo registro
 457              		.loc 1 83 0 discriminator 4
 458 0084 97F82330 		ldrb	r3, [r7, #35]
 459 0088 03F00103 		and	r3, r3, #1
 460 008c DAB2     		uxtb	r2, r3
 461 008e FB7D     		ldrb	r3, [r7, #23]
 462 0090 62F38613 		bfi	r3, r2, #6, #1
 463 0094 FB75     		strb	r3, [r7, #23]
  84:.\ME_lib_imu_CHRUM7.c ****     h.packet_type.hidden         = 0 ;
 464              		.loc 1 84 0 discriminator 4
 465 0096 FB7D     		ldrb	r3, [r7, #23]
 466 0098 6FF34103 		bfc	r3, #1, #1
 467 009c FB75     		strb	r3, [r7, #23]
  85:.\ME_lib_imu_CHRUM7.c ****     h.packet_type.command_failed = 0 ;      
 468              		.loc 1 85 0 discriminator 4
ARM GAS  C:\Users\gravi\AppData\Local\Temp\ccrxhGOD.s 			page 11


 469 009e FB7D     		ldrb	r3, [r7, #23]
 470 00a0 6FF30003 		bfc	r3, #0, #1
 471 00a4 FB75     		strb	r3, [r7, #23]
  86:.\ME_lib_imu_CHRUM7.c ****     h.address                    = address ;
 472              		.loc 1 86 0 discriminator 4
 473 00a6 BB7B     		ldrb	r3, [r7, #14]
 474 00a8 3B76     		strb	r3, [r7, #24]
  87:.\ME_lib_imu_CHRUM7.c ****     
  88:.\ME_lib_imu_CHRUM7.c ****   
  89:.\ME_lib_imu_CHRUM7.c ****   // Spedisce i dati al componente (usando la funzione putchar di call-back)
  90:.\ME_lib_imu_CHRUM7.c ****  
  91:.\ME_lib_imu_CHRUM7.c ****   // ...prima l'header
  92:.\ME_lib_imu_CHRUM7.c ****  
  93:.\ME_lib_imu_CHRUM7.c ****     p = (BYTE *) &h  ;                      // Puntatore di comodo per mandare i byte 
 475              		.loc 1 93 0 discriminator 4
 476 00aa 07F11403 		add	r3, r7, #20
 477 00ae FB61     		str	r3, [r7, #28]
  94:.\ME_lib_imu_CHRUM7.c ****     for (i=0; i<sizeof(h); i++)             
 478              		.loc 1 94 0 discriminator 4
 479 00b0 4FF00003 		mov	r3, #0
 480 00b4 87F82530 		strb	r3, [r7, #37]
 481 00b8 16E0     		b	.L20
 482              	.L21:
  95:.\ME_lib_imu_CHRUM7.c ****     {
  96:.\ME_lib_imu_CHRUM7.c ****         putchar_function(*(p+i));           // (usa la funzione di call-back)
 483              		.loc 1 96 0 discriminator 2
 484 00ba 97F82530 		ldrb	r3, [r7, #37]	@ zero_extendqisi2
 485 00be FA69     		ldr	r2, [r7, #28]
 486 00c0 D318     		adds	r3, r2, r3
 487 00c2 1A78     		ldrb	r2, [r3, #0]	@ zero_extendqisi2
 488 00c4 7B68     		ldr	r3, [r7, #4]
 489 00c6 1046     		mov	r0, r2
 490 00c8 9847     		blx	r3
  97:.\ME_lib_imu_CHRUM7.c ****         checksum += *(p+i) ;
 491              		.loc 1 97 0 discriminator 2
 492 00ca 97F82530 		ldrb	r3, [r7, #37]	@ zero_extendqisi2
 493 00ce FA69     		ldr	r2, [r7, #28]
 494 00d0 D318     		adds	r3, r2, r3
 495 00d2 1B78     		ldrb	r3, [r3, #0]	@ zero_extendqisi2
 496 00d4 1A46     		mov	r2, r3
 497 00d6 FB8C     		ldrh	r3, [r7, #38]	@ movhi
 498 00d8 D318     		adds	r3, r2, r3
 499 00da FB84     		strh	r3, [r7, #38]	@ movhi
  94:.\ME_lib_imu_CHRUM7.c ****     for (i=0; i<sizeof(h); i++)             
 500              		.loc 1 94 0 discriminator 2
 501 00dc 97F82530 		ldrb	r3, [r7, #37]
 502 00e0 03F10103 		add	r3, r3, #1
 503 00e4 87F82530 		strb	r3, [r7, #37]
 504              	.L20:
  94:.\ME_lib_imu_CHRUM7.c ****     for (i=0; i<sizeof(h); i++)             
 505              		.loc 1 94 0 is_stmt 0 discriminator 1
 506 00e8 97F82530 		ldrb	r3, [r7, #37]	@ zero_extendqisi2
 507 00ec 042B     		cmp	r3, #4
 508 00ee E4D9     		bls	.L21
  98:.\ME_lib_imu_CHRUM7.c ****     }
  99:.\ME_lib_imu_CHRUM7.c **** 
 100:.\ME_lib_imu_CHRUM7.c ****   // ...poi il resto del pacchetto 
ARM GAS  C:\Users\gravi\AppData\Local\Temp\ccrxhGOD.s 			page 12


 101:.\ME_lib_imu_CHRUM7.c ****   
 102:.\ME_lib_imu_CHRUM7.c ****     p = (BYTE *) &value  ;                  // Puntatore di comodo per mandare i byte 
 509              		.loc 1 102 0 is_stmt 1
 510 00f0 07F10803 		add	r3, r7, #8
 511 00f4 FB61     		str	r3, [r7, #28]
 103:.\ME_lib_imu_CHRUM7.c ****     if (write)                              // (i 4 byte del dato solo se write e non comando.)
 512              		.loc 1 103 0
 513 00f6 97F82330 		ldrb	r3, [r7, #35]	@ zero_extendqisi2
 514 00fa 002B     		cmp	r3, #0
 515 00fc 23D0     		beq	.L22
 104:.\ME_lib_imu_CHRUM7.c ****     {
 105:.\ME_lib_imu_CHRUM7.c ****         for (i=4; i>0; i--)         
 516              		.loc 1 105 0
 517 00fe 4FF00403 		mov	r3, #4
 518 0102 87F82530 		strb	r3, [r7, #37]
 519 0106 1AE0     		b	.L23
 520              	.L24:
 106:.\ME_lib_imu_CHRUM7.c ****         {   
 107:.\ME_lib_imu_CHRUM7.c ****             putchar_function(*(p+i-1));
 521              		.loc 1 107 0 discriminator 2
 522 0108 97F82530 		ldrb	r3, [r7, #37]	@ zero_extendqisi2
 523 010c 03F1FF33 		add	r3, r3, #-1
 524 0110 FA69     		ldr	r2, [r7, #28]
 525 0112 D318     		adds	r3, r2, r3
 526 0114 1A78     		ldrb	r2, [r3, #0]	@ zero_extendqisi2
 527 0116 7B68     		ldr	r3, [r7, #4]
 528 0118 1046     		mov	r0, r2
 529 011a 9847     		blx	r3
 108:.\ME_lib_imu_CHRUM7.c ****             checksum += *(p+i-1) ;
 530              		.loc 1 108 0 discriminator 2
 531 011c 97F82530 		ldrb	r3, [r7, #37]	@ zero_extendqisi2
 532 0120 03F1FF33 		add	r3, r3, #-1
 533 0124 FA69     		ldr	r2, [r7, #28]
 534 0126 D318     		adds	r3, r2, r3
 535 0128 1B78     		ldrb	r3, [r3, #0]	@ zero_extendqisi2
 536 012a 1A46     		mov	r2, r3
 537 012c FB8C     		ldrh	r3, [r7, #38]	@ movhi
 538 012e D318     		adds	r3, r2, r3
 539 0130 FB84     		strh	r3, [r7, #38]	@ movhi
 105:.\ME_lib_imu_CHRUM7.c ****         for (i=4; i>0; i--)         
 540              		.loc 1 105 0 discriminator 2
 541 0132 97F82530 		ldrb	r3, [r7, #37]
 542 0136 03F1FF33 		add	r3, r3, #-1
 543 013a 87F82530 		strb	r3, [r7, #37]
 544              	.L23:
 105:.\ME_lib_imu_CHRUM7.c ****         for (i=4; i>0; i--)         
 545              		.loc 1 105 0 is_stmt 0 discriminator 1
 546 013e 97F82530 		ldrb	r3, [r7, #37]	@ zero_extendqisi2
 547 0142 002B     		cmp	r3, #0
 548 0144 E0D1     		bne	.L24
 549              	.L22:
 109:.\ME_lib_imu_CHRUM7.c ****         }
 110:.\ME_lib_imu_CHRUM7.c ****     }
 111:.\ME_lib_imu_CHRUM7.c ****     
 112:.\ME_lib_imu_CHRUM7.c ****   // ...infine la checksum complessiva
 113:.\ME_lib_imu_CHRUM7.c ****   
 114:.\ME_lib_imu_CHRUM7.c ****     putchar_function(H(checksum));          
ARM GAS  C:\Users\gravi\AppData\Local\Temp\ccrxhGOD.s 			page 13


 550              		.loc 1 114 0 is_stmt 1
 551 0146 FB8C     		ldrh	r3, [r7, #38]
 552 0148 4FEA1323 		lsr	r3, r3, #8
 553 014c 9BB2     		uxth	r3, r3
 554 014e DAB2     		uxtb	r2, r3
 555 0150 7B68     		ldr	r3, [r7, #4]
 556 0152 1046     		mov	r0, r2
 557 0154 9847     		blx	r3
 115:.\ME_lib_imu_CHRUM7.c ****     putchar_function(L(checksum));
 558              		.loc 1 115 0
 559 0156 FB8C     		ldrh	r3, [r7, #38]	@ movhi
 560 0158 DAB2     		uxtb	r2, r3
 561 015a 7B68     		ldr	r3, [r7, #4]
 562 015c 1046     		mov	r0, r2
 563 015e 9847     		blx	r3
 116:.\ME_lib_imu_CHRUM7.c **** }
 564              		.loc 1 116 0
 565 0160 07F12807 		add	r7, r7, #40
 566 0164 BD46     		mov	sp, r7
 567 0166 80BD     		pop	{r7, pc}
 568              		.cfi_endproc
 569              	.LFE2:
 570              		.size	CHRUM7_RegisterIO, .-CHRUM7_RegisterIO
 571              		.section	.text.CHRUM7_HeaderValidator,"ax",%progbits
 572              		.align	2
 573              		.global	CHRUM7_HeaderValidator
 574              		.thumb
 575              		.thumb_func
 576              		.type	CHRUM7_HeaderValidator, %function
 577              	CHRUM7_HeaderValidator:
 578              	.LFB3:
 117:.\ME_lib_imu_CHRUM7.c **** 
 118:.\ME_lib_imu_CHRUM7.c **** 
 119:.\ME_lib_imu_CHRUM7.c **** 
 120:.\ME_lib_imu_CHRUM7.c **** ///////////////////////////////////////////////////////////////////////////////////////////////////
 121:.\ME_lib_imu_CHRUM7.c **** 
 122:.\ME_lib_imu_CHRUM7.c **** BYTE CHRUM7_HeaderValidator(BYTE *packet)
 123:.\ME_lib_imu_CHRUM7.c **** {
 579              		.loc 1 123 0
 580              		.cfi_startproc
 581              		@ args = 0, pretend = 0, frame = 16
 582              		@ frame_needed = 1, uses_anonymous_args = 0
 583              		@ link register save eliminated.
 584 0000 80B4     		push	{r7}
 585              	.LCFI9:
 586              		.cfi_def_cfa_offset 4
 587              		.cfi_offset 7, -4
 588 0002 85B0     		sub	sp, sp, #20
 589              	.LCFI10:
 590              		.cfi_def_cfa_offset 24
 591 0004 00AF     		add	r7, sp, #0
 592              	.LCFI11:
 593              		.cfi_def_cfa_register 7
 594 0006 7860     		str	r0, [r7, #4]
 124:.\ME_lib_imu_CHRUM7.c ****     CHRUM7_HEADER *hdr = (CHRUM7_HEADER *) packet ;     // Converte il puntatore generico all'heade
 595              		.loc 1 124 0
 596 0008 7B68     		ldr	r3, [r7, #4]
ARM GAS  C:\Users\gravi\AppData\Local\Temp\ccrxhGOD.s 			page 14


 597 000a BB60     		str	r3, [r7, #8]
 125:.\ME_lib_imu_CHRUM7.c ****     BYTE length = 0 ;
 598              		.loc 1 125 0
 599 000c 4FF00003 		mov	r3, #0
 600 0010 FB73     		strb	r3, [r7, #15]
 126:.\ME_lib_imu_CHRUM7.c **** 
 127:.\ME_lib_imu_CHRUM7.c ****     if (   (packet[0]=='s')                  // I pacchetti iniziano tutti con questi tre caratteri
 601              		.loc 1 127 0
 602 0012 7B68     		ldr	r3, [r7, #4]
 603 0014 1B78     		ldrb	r3, [r3, #0]	@ zero_extendqisi2
 604 0016 732B     		cmp	r3, #115
 605 0018 2DD1     		bne	.L26
 128:.\ME_lib_imu_CHRUM7.c ****         && (packet[1]=='n')
 606              		.loc 1 128 0
 607 001a 7B68     		ldr	r3, [r7, #4]
 608 001c 03F10103 		add	r3, r3, #1
 609 0020 1B78     		ldrb	r3, [r3, #0]	@ zero_extendqisi2
 610 0022 6E2B     		cmp	r3, #110
 611 0024 27D1     		bne	.L26
 129:.\ME_lib_imu_CHRUM7.c ****         && (packet[2]=='p'))
 612              		.loc 1 129 0
 613 0026 7B68     		ldr	r3, [r7, #4]
 614 0028 03F10203 		add	r3, r3, #2
 615 002c 1B78     		ldrb	r3, [r3, #0]	@ zero_extendqisi2
 616 002e 702B     		cmp	r3, #112
 617 0030 21D1     		bne	.L26
 130:.\ME_lib_imu_CHRUM7.c ****     {    
 131:.\ME_lib_imu_CHRUM7.c ****         if (hdr->packet_type.has_data)      // Se ha dei dati calcola la lunghezza
 618              		.loc 1 131 0
 619 0032 BB68     		ldr	r3, [r7, #8]
 620 0034 DB78     		ldrb	r3, [r3, #3]	@ zero_extendqisi2
 621 0036 23F07F03 		bic	r3, r3, #127
 622 003a DBB2     		uxtb	r3, r3
 623 003c 002B     		cmp	r3, #0
 624 003e 16D0     		beq	.L27
 132:.\ME_lib_imu_CHRUM7.c ****         {
 133:.\ME_lib_imu_CHRUM7.c ****             if (hdr->packet_type.is_batch)
 625              		.loc 1 133 0
 626 0040 BB68     		ldr	r3, [r7, #8]
 627 0042 DB78     		ldrb	r3, [r3, #3]	@ zero_extendqisi2
 628 0044 03F04003 		and	r3, r3, #64
 629 0048 DBB2     		uxtb	r3, r3
 630 004a 002B     		cmp	r3, #0
 631 004c 0BD0     		beq	.L28
 134:.\ME_lib_imu_CHRUM7.c ****                 length = 7 + 4 * hdr->packet_type.batch_len ;
 632              		.loc 1 134 0
 633 004e BB68     		ldr	r3, [r7, #8]
 634 0050 DB78     		ldrb	r3, [r3, #3]
 635 0052 C3F38303 		ubfx	r3, r3, #2, #4
 636 0056 DBB2     		uxtb	r3, r3
 637 0058 4FEA8303 		lsl	r3, r3, #2
 638 005c DBB2     		uxtb	r3, r3
 639 005e 03F10703 		add	r3, r3, #7
 640 0062 FB73     		strb	r3, [r7, #15]
 131:.\ME_lib_imu_CHRUM7.c ****         if (hdr->packet_type.has_data)      // Se ha dei dati calcola la lunghezza
 641              		.loc 1 131 0
 642 0064 0AE0     		b	.L30
ARM GAS  C:\Users\gravi\AppData\Local\Temp\ccrxhGOD.s 			page 15


 643              	.L28:
 135:.\ME_lib_imu_CHRUM7.c ****             else
 136:.\ME_lib_imu_CHRUM7.c ****                 length = 11 ;
 644              		.loc 1 136 0
 645 0066 4FF00B03 		mov	r3, #11
 646 006a FB73     		strb	r3, [r7, #15]
 131:.\ME_lib_imu_CHRUM7.c ****         if (hdr->packet_type.has_data)      // Se ha dei dati calcola la lunghezza
 647              		.loc 1 131 0
 648 006c 06E0     		b	.L30
 649              	.L27:
 137:.\ME_lib_imu_CHRUM7.c ****         }
 138:.\ME_lib_imu_CHRUM7.c ****         else                                // Se non ha dati allora la lunghezza è fissa.
 139:.\ME_lib_imu_CHRUM7.c ****         {
 140:.\ME_lib_imu_CHRUM7.c ****             length = 7 ;        
 650              		.loc 1 140 0
 651 006e 4FF00703 		mov	r3, #7
 652 0072 FB73     		strb	r3, [r7, #15]
 131:.\ME_lib_imu_CHRUM7.c ****         if (hdr->packet_type.has_data)      // Se ha dei dati calcola la lunghezza
 653              		.loc 1 131 0
 654 0074 02E0     		b	.L30
 655              	.L26:
 141:.\ME_lib_imu_CHRUM7.c ****         }
 142:.\ME_lib_imu_CHRUM7.c ****     }
 143:.\ME_lib_imu_CHRUM7.c ****     else                                    // Se non è una header valida la lunghezza è nulla.
 144:.\ME_lib_imu_CHRUM7.c ****     {
 145:.\ME_lib_imu_CHRUM7.c ****         length = 0 ;
 656              		.loc 1 145 0
 657 0076 4FF00003 		mov	r3, #0
 658 007a FB73     		strb	r3, [r7, #15]
 659              	.L30:
 146:.\ME_lib_imu_CHRUM7.c ****     }
 147:.\ME_lib_imu_CHRUM7.c ****     
 148:.\ME_lib_imu_CHRUM7.c ****     return length ;
 660              		.loc 1 148 0
 661 007c FB7B     		ldrb	r3, [r7, #15]	@ zero_extendqisi2
 149:.\ME_lib_imu_CHRUM7.c **** }
 662              		.loc 1 149 0
 663 007e 1846     		mov	r0, r3
 664 0080 07F11407 		add	r7, r7, #20
 665 0084 BD46     		mov	sp, r7
 666 0086 80BC     		pop	{r7}
 667 0088 7047     		bx	lr
 668              		.cfi_endproc
 669              	.LFE3:
 670              		.size	CHRUM7_HeaderValidator, .-CHRUM7_HeaderValidator
 671 008a 00BF     		.section	.text.CHRUM7_PacketValidator,"ax",%progbits
 672              		.align	2
 673              		.global	CHRUM7_PacketValidator
 674              		.thumb
 675              		.thumb_func
 676              		.type	CHRUM7_PacketValidator, %function
 677              	CHRUM7_PacketValidator:
 678              	.LFB4:
 150:.\ME_lib_imu_CHRUM7.c **** 
 151:.\ME_lib_imu_CHRUM7.c **** 
 152:.\ME_lib_imu_CHRUM7.c **** 
 153:.\ME_lib_imu_CHRUM7.c **** ///////////////////////////////////////////////////////////////////////////////////////////////////
ARM GAS  C:\Users\gravi\AppData\Local\Temp\ccrxhGOD.s 			page 16


 154:.\ME_lib_imu_CHRUM7.c **** 
 155:.\ME_lib_imu_CHRUM7.c **** BOOL CHRUM7_PacketValidator(BYTE *packet, BYTE length)
 156:.\ME_lib_imu_CHRUM7.c **** {
 679              		.loc 1 156 0
 680              		.cfi_startproc
 681              		@ args = 0, pretend = 0, frame = 16
 682              		@ frame_needed = 1, uses_anonymous_args = 0
 683              		@ link register save eliminated.
 684 0000 80B4     		push	{r7}
 685              	.LCFI12:
 686              		.cfi_def_cfa_offset 4
 687              		.cfi_offset 7, -4
 688 0002 85B0     		sub	sp, sp, #20
 689              	.LCFI13:
 690              		.cfi_def_cfa_offset 24
 691 0004 00AF     		add	r7, sp, #0
 692              	.LCFI14:
 693              		.cfi_def_cfa_register 7
 694 0006 7860     		str	r0, [r7, #4]
 695 0008 0B46     		mov	r3, r1
 696 000a FB70     		strb	r3, [r7, #3]
 157:.\ME_lib_imu_CHRUM7.c ****     WORD checksum = 0 ;                         // L'unica verifica di integrità del pacchetto è 
 697              		.loc 1 157 0
 698 000c 4FF00003 		mov	r3, #0
 699 0010 FB81     		strh	r3, [r7, #14]	@ movhi
 158:.\ME_lib_imu_CHRUM7.c ****     WORD i ;                                    // la checksum.
 159:.\ME_lib_imu_CHRUM7.c ****     BOOL ok ;
 160:.\ME_lib_imu_CHRUM7.c ****     
 161:.\ME_lib_imu_CHRUM7.c **** //    printf(CRLF"[ PKT (%d): ",length);        // Usato per debug estremi
 162:.\ME_lib_imu_CHRUM7.c ****    
 163:.\ME_lib_imu_CHRUM7.c ****     for( i = 0 ; i < length-2 ; i++ )           
 700              		.loc 1 163 0
 701 0012 4FF00003 		mov	r3, #0
 702 0016 BB81     		strh	r3, [r7, #12]	@ movhi
 703 0018 0BE0     		b	.L33
 704              	.L34:
 164:.\ME_lib_imu_CHRUM7.c ****     {
 165:.\ME_lib_imu_CHRUM7.c ****         checksum += packet[i] ;       
 705              		.loc 1 165 0 discriminator 2
 706 001a BB89     		ldrh	r3, [r7, #12]
 707 001c 7A68     		ldr	r2, [r7, #4]
 708 001e D318     		adds	r3, r2, r3
 709 0020 1B78     		ldrb	r3, [r3, #0]	@ zero_extendqisi2
 710 0022 1A46     		mov	r2, r3
 711 0024 FB89     		ldrh	r3, [r7, #14]	@ movhi
 712 0026 D318     		adds	r3, r2, r3
 713 0028 FB81     		strh	r3, [r7, #14]	@ movhi
 163:.\ME_lib_imu_CHRUM7.c ****     for( i = 0 ; i < length-2 ; i++ )           
 714              		.loc 1 163 0 discriminator 2
 715 002a BB89     		ldrh	r3, [r7, #12]	@ movhi
 716 002c 03F10103 		add	r3, r3, #1
 717 0030 BB81     		strh	r3, [r7, #12]	@ movhi
 718              	.L33:
 163:.\ME_lib_imu_CHRUM7.c ****     for( i = 0 ; i < length-2 ; i++ )           
 719              		.loc 1 163 0 is_stmt 0 discriminator 1
 720 0032 BA89     		ldrh	r2, [r7, #12]
 721 0034 FB78     		ldrb	r3, [r7, #3]	@ zero_extendqisi2
ARM GAS  C:\Users\gravi\AppData\Local\Temp\ccrxhGOD.s 			page 17


 722 0036 A3F10203 		sub	r3, r3, #2
 723 003a 9A42     		cmp	r2, r3
 724 003c EDDB     		blt	.L34
 166:.\ME_lib_imu_CHRUM7.c **** //        printf("%02X.",packet[i]);            // Usato per debug estremi
 167:.\ME_lib_imu_CHRUM7.c ****     }
 168:.\ME_lib_imu_CHRUM7.c ****     
 169:.\ME_lib_imu_CHRUM7.c **** //    printf("%02X.%02X",packet[length-2], packet[length-1]);   // Usato per debug estremi
 170:.\ME_lib_imu_CHRUM7.c **** //    printf(" Calc: %04X ]", checksum);
 171:.\ME_lib_imu_CHRUM7.c **** 
 172:.\ME_lib_imu_CHRUM7.c ****     ok = (checksum == W(packet[length-2], packet[length-1]) ); 
 725              		.loc 1 172 0 is_stmt 1
 726 003e FA89     		ldrh	r2, [r7, #14]
 727 0040 FB78     		ldrb	r3, [r7, #3]	@ zero_extendqisi2
 728 0042 A3F10203 		sub	r3, r3, #2
 729 0046 7968     		ldr	r1, [r7, #4]
 730 0048 CB18     		adds	r3, r1, r3
 731 004a 1B78     		ldrb	r3, [r3, #0]	@ zero_extendqisi2
 732 004c 4FEA0323 		lsl	r3, r3, #8
 733 0050 9BB2     		uxth	r3, r3
 734 0052 1946     		mov	r1, r3
 735 0054 FB78     		ldrb	r3, [r7, #3]	@ zero_extendqisi2
 736 0056 03F1FF33 		add	r3, r3, #-1
 737 005a 7868     		ldr	r0, [r7, #4]
 738 005c C318     		adds	r3, r0, r3
 739 005e 1B78     		ldrb	r3, [r3, #0]	@ zero_extendqisi2
 740 0060 0B43     		orrs	r3, r3, r1
 741 0062 9A42     		cmp	r2, r3
 742 0064 14BF     		ite	ne
 743 0066 0023     		movne	r3, #0
 744 0068 0123     		moveq	r3, #1
 745 006a DBB2     		uxtb	r3, r3
 746 006c FB72     		strb	r3, [r7, #11]
 173:.\ME_lib_imu_CHRUM7.c **** 
 174:.\ME_lib_imu_CHRUM7.c **** //    if (!ok)                                                  // Usato per debug estremi
 175:.\ME_lib_imu_CHRUM7.c **** //        printf(" * ");
 176:.\ME_lib_imu_CHRUM7.c **** 
 177:.\ME_lib_imu_CHRUM7.c ****     return ok ;
 747              		.loc 1 177 0
 748 006e FB7A     		ldrb	r3, [r7, #11]	@ zero_extendqisi2
 178:.\ME_lib_imu_CHRUM7.c **** }
 749              		.loc 1 178 0
 750 0070 1846     		mov	r0, r3
 751 0072 07F11407 		add	r7, r7, #20
 752 0076 BD46     		mov	sp, r7
 753 0078 80BC     		pop	{r7}
 754 007a 7047     		bx	lr
 755              		.cfi_endproc
 756              	.LFE4:
 757              		.size	CHRUM7_PacketValidator, .-CHRUM7_PacketValidator
 758              		.text
 759              	.Letext0:
 760              		.file 2 ".\\ME_common.h"
 761              		.file 3 ".\\ME_geometry.h"
 762              		.file 4 ".\\ME_lib_imu_CHRUM7.h"