ARM GAS  C:\Users\GRAZIA~1.RAV\AppData\Local\Temp\ccLYRwwS.s 			page 1


   1              		.syntax unified
   2              		.cpu cortex-m3
   3              		.fpu softvfp
   4              		.eabi_attribute 20, 1
   5              		.eabi_attribute 21, 1
   6              		.eabi_attribute 23, 3
   7              		.eabi_attribute 24, 1
   8              		.eabi_attribute 25, 1
   9              		.eabi_attribute 26, 1
  10              		.eabi_attribute 30, 6
  11              		.eabi_attribute 34, 1
  12              		.eabi_attribute 18, 4
  13              		.thumb
  14              		.file	"motor_CTRL.c"
  15              		.text
  16              	.Ltext0:
  17              		.cfi_sections	.debug_frame
  18              		.global	__aeabi_i2f
  19              		.global	__aeabi_fmul
  20              		.global	__aeabi_fsub
  21              		.global	__aeabi_fdiv
  22              		.global	__aeabi_fcmpgt
  23              		.global	__aeabi_fcmplt
  24              		.global	__aeabi_fadd
  25              		.global	__aeabi_f2uiz
  26              		.section	.text.AnalogShow,"ax",%progbits
  27              		.align	2
  28              		.global	AnalogShow
  29              		.thumb
  30              		.thumb_func
  31              		.type	AnalogShow, %function
  32              	AnalogShow:
  33              	.LFB56:
  34              		.file 1 ".\\motor_CTRL.c"
   1:.\motor_CTRL.c **** /* ========================================
   2:.\motor_CTRL.c ****  *
   3:.\motor_CTRL.c ****  * Copyright Logic brainstorm, 2015
   4:.\motor_CTRL.c ****  * All Rights Reserved
   5:.\motor_CTRL.c ****  * UNPUBLISHED, LICENSED SOFTWARE.
   6:.\motor_CTRL.c ****  *
   7:.\motor_CTRL.c ****  * CONFIDENTIAL AND PROPRIETARY INFORMATION
   8:.\motor_CTRL.c ****  * WHICH IS THE PROPERTY OF your company.
   9:.\motor_CTRL.c ****  *
  10:.\motor_CTRL.c ****  * ========================================
  11:.\motor_CTRL.c **** */
  12:.\motor_CTRL.c **** 
  13:.\motor_CTRL.c **** #include <device.h>
  14:.\motor_CTRL.c **** #include <gobee.h>
  15:.\motor_CTRL.c **** #include <gobeelib.h>
  16:.\motor_CTRL.c **** #include <math.h>
  17:.\motor_CTRL.c **** #include <statistics.h>
  18:.\motor_CTRL.c **** #include <estimators.h>
  19:.\motor_CTRL.c **** #include <pid_lib.h>
  20:.\motor_CTRL.c **** #include <mover.h>
  21:.\motor_CTRL.c **** #include <motor_CTRL.h>
  22:.\motor_CTRL.c **** 
  23:.\motor_CTRL.c **** /* External Gobee Machine State */
ARM GAS  C:\Users\GRAZIA~1.RAV\AppData\Local\Temp\ccLYRwwS.s 			page 2


  24:.\motor_CTRL.c **** extern uint8 machine_state;			/* Initial Machine State = POWERON 					*/
  25:.\motor_CTRL.c **** 									/* Machine States = [POWERON | OPERATIVE | FAULT]	*/
  26:.\motor_CTRL.c **** 
  27:.\motor_CTRL.c **** extern uint8 machine_state_backup;	/* machine state backup var for test mode			*/
  28:.\motor_CTRL.c **** 
  29:.\motor_CTRL.c **** 
  30:.\motor_CTRL.c **** /* External GoBee Parameters */
  31:.\motor_CTRL.c **** extern struct GOBEE_PARAMS gobee_param;
  32:.\motor_CTRL.c **** 
  33:.\motor_CTRL.c **** /* EXTERNAL Absolute Position Sensor */
  34:.\motor_CTRL.c **** extern struct ABSPOS_SENSOR	pan_absolute_sensor;	/* PAN  Absolute Position Sensor Parameters & RT D
  35:.\motor_CTRL.c **** extern struct ABSPOS_SENSOR	tilt_absolute_sensor;	/* TILT Absolute Position Sensor Parameters & RT 
  36:.\motor_CTRL.c **** 
  37:.\motor_CTRL.c **** /* extern axis absolute sensor STATISTICS	*/
  38:.\motor_CTRL.c **** extern struct STATISTICS pan_absolute_sensor_stat;	/* PAN  Absolute Position Sensor Statistics Data
  39:.\motor_CTRL.c **** extern struct STATISTICS tilt_absolute_sensor_stat;	/* TILT Absolute Position Sensor Statistics Dat
  40:.\motor_CTRL.c **** 
  41:.\motor_CTRL.c **** /* EXTERNAL Motor Axis */
  42:.\motor_CTRL.c **** extern struct MOTOR_AXIS pan_axis; 			/* PAN Motor Axis Parameters & RT Datas	    */
  43:.\motor_CTRL.c **** extern struct MOTOR_AXIS tilt_axis; 		/* TILT Motor Axis Parameters & RT Datas	*/
  44:.\motor_CTRL.c **** 
  45:.\motor_CTRL.c **** /* EXTERN MOVER PAN&TILT  */
  46:.\motor_CTRL.c **** extern mover_type mover_pan;			/* mover PAN structure 		*/
  47:.\motor_CTRL.c **** extern mover_type mover_tilt;			/* mover TILT structure 	*/
  48:.\motor_CTRL.c **** 
  49:.\motor_CTRL.c **** /* EXTERN MOVER PATH Array */
  50:.\motor_CTRL.c **** extern path_type path[PATH_N_MAX];		/* path array structure 	*/
  51:.\motor_CTRL.c **** 
  52:.\motor_CTRL.c **** extern mover_type mover_pan;			/* mover PAN structure 		*/
  53:.\motor_CTRL.c **** extern mover_type mover_tilt;			/* mover TILT structure 	*/
  54:.\motor_CTRL.c **** 
  55:.\motor_CTRL.c **** /* extern Sensor ADC array */
  56:.\motor_CTRL.c **** extern int16 AdcValue[ADC_MUX_LENGHT];
  57:.\motor_CTRL.c **** 
  58:.\motor_CTRL.c **** /* extern anapos vars */
  59:.\motor_CTRL.c **** extern float anapos;					/* Analog Position Output(t) 				*/
  60:.\motor_CTRL.c **** extern int32 anapos_offset;				/* Analog Position Output Offset			*/
  61:.\motor_CTRL.c **** 
  62:.\motor_CTRL.c **** 
  63:.\motor_CTRL.c **** /********************************************************************/
  64:.\motor_CTRL.c **** /* ANAPOS OR ANAVEL SHOW											*/
  65:.\motor_CTRL.c **** /* DAC_ANAOUT <-- Selected ENCODER	* Gain_ANAOUT					*/
  66:.\motor_CTRL.c **** /*			  <-- d/dt(Selected ENCODER) * Gain_ANAOUT				*/
  67:.\motor_CTRL.c **** /********************************************************************/
  68:.\motor_CTRL.c **** void AnalogShow(struct MOTOR_AXIS *paxis)
  69:.\motor_CTRL.c **** {
  35              		.loc 1 69 0
  36              		.cfi_startproc
  37              		@ args = 0, pretend = 0, frame = 8
  38              		@ frame_needed = 1, uses_anonymous_args = 0
  39 0000 B0B5     		push	{r4, r5, r7, lr}
  40              	.LCFI0:
  41              		.cfi_def_cfa_offset 16
  42              		.cfi_offset 4, -16
  43              		.cfi_offset 5, -12
  44              		.cfi_offset 7, -8
  45              		.cfi_offset 14, -4
ARM GAS  C:\Users\GRAZIA~1.RAV\AppData\Local\Temp\ccLYRwwS.s 			page 3


  46 0002 82B0     		sub	sp, sp, #8
  47              	.LCFI1:
  48              		.cfi_def_cfa_offset 24
  49 0004 00AF     		add	r7, sp, #0
  50              	.LCFI2:
  51              		.cfi_def_cfa_register 7
  52 0006 7860     		str	r0, [r7, #4]
  70:.\motor_CTRL.c **** 	/* ANAPOS Selection based on *paxis (pan, tilt or roll?) and color (backslash or slave?)	*/
  71:.\motor_CTRL.c **** 
  72:.\motor_CTRL.c **** 	if ((*paxis).param.color == SLAVE_ENC_POS)
  53              		.loc 1 72 0
  54 0008 7B68     		ldr	r3, [r7, #4]
  55 000a 93F82C30 		ldrb	r3, [r3, #44]	@ zero_extendqisi2
  56 000e 012B     		cmp	r3, #1
  57 0010 19D1     		bne	.L2
  73:.\motor_CTRL.c **** 	{
  74:.\motor_CTRL.c **** 		anapos = (*paxis).param.Gain_ANAOUT.fnum*(float)((*paxis).mc.slave_enc.position - anapos_offset);
  58              		.loc 1 74 0
  59 0012 7B68     		ldr	r3, [r7, #4]
  60 0014 9C6A     		ldr	r4, [r3, #40]	@ float
  61 0016 7B68     		ldr	r3, [r7, #4]
  62 0018 5A6C     		ldr	r2, [r3, #68]
  63 001a 40F20003 		movw	r3, #:lower16:anapos_offset
  64 001e C0F20003 		movt	r3, #:upper16:anapos_offset
  65 0022 1B68     		ldr	r3, [r3, #0]
  66 0024 D31A     		subs	r3, r2, r3
  67 0026 1846     		mov	r0, r3
  68 0028 FFF7FEFF 		bl	__aeabi_i2f
  69 002c 0346     		mov	r3, r0
  70 002e 2046     		mov	r0, r4
  71 0030 1946     		mov	r1, r3
  72 0032 FFF7FEFF 		bl	__aeabi_fmul
  73 0036 0346     		mov	r3, r0
  74 0038 1A46     		mov	r2, r3
  75 003a 40F20003 		movw	r3, #:lower16:anapos
  76 003e C0F20003 		movt	r3, #:upper16:anapos
  77 0042 1A60     		str	r2, [r3, #0]	@ float
  78 0044 E5E0     		b	.L3
  79              	.L2:
  75:.\motor_CTRL.c **** 	}
  76:.\motor_CTRL.c **** 	else if ((*paxis).param.color == SLAVE_ENC_VEL)
  80              		.loc 1 76 0
  81 0046 7B68     		ldr	r3, [r7, #4]
  82 0048 93F82C30 		ldrb	r3, [r3, #44]	@ zero_extendqisi2
  83 004c 022B     		cmp	r3, #2
  84 004e 1DD1     		bne	.L4
  77:.\motor_CTRL.c **** 	{
  78:.\motor_CTRL.c **** 		anapos = (*paxis).param.Gain_ANAOUT.fnum*(float)((*paxis).mc.slave_enc.velocity - anapos_offset);
  85              		.loc 1 78 0
  86 0050 7B68     		ldr	r3, [r7, #4]
  87 0052 9C6A     		ldr	r4, [r3, #40]	@ float
  88 0054 7B68     		ldr	r3, [r7, #4]
  89 0056 9D6C     		ldr	r5, [r3, #72]	@ float
  90 0058 40F20003 		movw	r3, #:lower16:anapos_offset
  91 005c C0F20003 		movt	r3, #:upper16:anapos_offset
  92 0060 1B68     		ldr	r3, [r3, #0]
  93 0062 1846     		mov	r0, r3
ARM GAS  C:\Users\GRAZIA~1.RAV\AppData\Local\Temp\ccLYRwwS.s 			page 4


  94 0064 FFF7FEFF 		bl	__aeabi_i2f
  95 0068 0346     		mov	r3, r0
  96 006a 2846     		mov	r0, r5
  97 006c 1946     		mov	r1, r3
  98 006e FFF7FEFF 		bl	__aeabi_fsub
  99 0072 0346     		mov	r3, r0
 100 0074 2046     		mov	r0, r4
 101 0076 1946     		mov	r1, r3
 102 0078 FFF7FEFF 		bl	__aeabi_fmul
 103 007c 0346     		mov	r3, r0
 104 007e 1A46     		mov	r2, r3
 105 0080 40F20003 		movw	r3, #:lower16:anapos
 106 0084 C0F20003 		movt	r3, #:upper16:anapos
 107 0088 1A60     		str	r2, [r3, #0]	@ float
 108 008a C2E0     		b	.L3
 109              	.L4:
  79:.\motor_CTRL.c **** 	}	
  80:.\motor_CTRL.c **** 	else if ((*paxis).param.color == ASTIM_IN)
 110              		.loc 1 80 0
 111 008c 7B68     		ldr	r3, [r7, #4]
 112 008e 93F82C30 		ldrb	r3, [r3, #44]	@ zero_extendqisi2
 113 0092 032B     		cmp	r3, #3
 114 0094 12D1     		bne	.L5
  81:.\motor_CTRL.c **** 	{
  82:.\motor_CTRL.c **** 		//anapos = pan_axis.param.Gain_ANAOUT.fnum*(pan_axis.mc.Float_ASTIM - (float)anapos_offset);
  83:.\motor_CTRL.c **** 		anapos = (*paxis).param.Gain_ANAOUT.fnum*pan_axis.mc.Float_ASTIM;
 115              		.loc 1 83 0
 116 0096 7B68     		ldr	r3, [r7, #4]
 117 0098 9A6A     		ldr	r2, [r3, #40]	@ float
 118 009a 40F20003 		movw	r3, #:lower16:pan_axis
 119 009e C0F20003 		movt	r3, #:upper16:pan_axis
 120 00a2 DB6F     		ldr	r3, [r3, #124]	@ float
 121 00a4 1046     		mov	r0, r2
 122 00a6 1946     		mov	r1, r3
 123 00a8 FFF7FEFF 		bl	__aeabi_fmul
 124 00ac 0346     		mov	r3, r0
 125 00ae 1A46     		mov	r2, r3
 126 00b0 40F20003 		movw	r3, #:lower16:anapos
 127 00b4 C0F20003 		movt	r3, #:upper16:anapos
 128 00b8 1A60     		str	r2, [r3, #0]	@ float
 129 00ba AAE0     		b	.L3
 130              	.L5:
  84:.\motor_CTRL.c **** 		
  85:.\motor_CTRL.c **** 	}
  86:.\motor_CTRL.c **** 	else if ((*paxis).param.color == CTRL_ERROR)
 131              		.loc 1 86 0
 132 00bc 7B68     		ldr	r3, [r7, #4]
 133 00be 93F82C30 		ldrb	r3, [r3, #44]	@ zero_extendqisi2
 134 00c2 042B     		cmp	r3, #4
 135 00c4 1DD1     		bne	.L6
  87:.\motor_CTRL.c **** 	{
  88:.\motor_CTRL.c **** 		anapos = (*paxis).param.Gain_ANAOUT.fnum*((*paxis).mc.error - (float)anapos_offset);	
 136              		.loc 1 88 0
 137 00c6 7B68     		ldr	r3, [r7, #4]
 138 00c8 9C6A     		ldr	r4, [r3, #40]	@ float
 139 00ca 7B68     		ldr	r3, [r7, #4]
 140 00cc 9D6D     		ldr	r5, [r3, #88]	@ float
ARM GAS  C:\Users\GRAZIA~1.RAV\AppData\Local\Temp\ccLYRwwS.s 			page 5


 141 00ce 40F20003 		movw	r3, #:lower16:anapos_offset
 142 00d2 C0F20003 		movt	r3, #:upper16:anapos_offset
 143 00d6 1B68     		ldr	r3, [r3, #0]
 144 00d8 1846     		mov	r0, r3
 145 00da FFF7FEFF 		bl	__aeabi_i2f
 146 00de 0346     		mov	r3, r0
 147 00e0 2846     		mov	r0, r5
 148 00e2 1946     		mov	r1, r3
 149 00e4 FFF7FEFF 		bl	__aeabi_fsub
 150 00e8 0346     		mov	r3, r0
 151 00ea 2046     		mov	r0, r4
 152 00ec 1946     		mov	r1, r3
 153 00ee FFF7FEFF 		bl	__aeabi_fmul
 154 00f2 0346     		mov	r3, r0
 155 00f4 1A46     		mov	r2, r3
 156 00f6 40F20003 		movw	r3, #:lower16:anapos
 157 00fa C0F20003 		movt	r3, #:upper16:anapos
 158 00fe 1A60     		str	r2, [r3, #0]	@ float
 159 0100 87E0     		b	.L3
 160              	.L6:
  89:.\motor_CTRL.c **** 	}
  90:.\motor_CTRL.c **** 	else if ((*paxis).param.color == CTRL_DERROR)
 161              		.loc 1 90 0
 162 0102 7B68     		ldr	r3, [r7, #4]
 163 0104 93F82C30 		ldrb	r3, [r3, #44]	@ zero_extendqisi2
 164 0108 052B     		cmp	r3, #5
 165 010a 1DD1     		bne	.L7
  91:.\motor_CTRL.c **** 	{
  92:.\motor_CTRL.c **** 		anapos = (*paxis).param.Gain_ANAOUT.fnum*((*paxis).mc.derror - (float)anapos_offset);	
 166              		.loc 1 92 0
 167 010c 7B68     		ldr	r3, [r7, #4]
 168 010e 9C6A     		ldr	r4, [r3, #40]	@ float
 169 0110 7B68     		ldr	r3, [r7, #4]
 170 0112 5D6E     		ldr	r5, [r3, #100]	@ float
 171 0114 40F20003 		movw	r3, #:lower16:anapos_offset
 172 0118 C0F20003 		movt	r3, #:upper16:anapos_offset
 173 011c 1B68     		ldr	r3, [r3, #0]
 174 011e 1846     		mov	r0, r3
 175 0120 FFF7FEFF 		bl	__aeabi_i2f
 176 0124 0346     		mov	r3, r0
 177 0126 2846     		mov	r0, r5
 178 0128 1946     		mov	r1, r3
 179 012a FFF7FEFF 		bl	__aeabi_fsub
 180 012e 0346     		mov	r3, r0
 181 0130 2046     		mov	r0, r4
 182 0132 1946     		mov	r1, r3
 183 0134 FFF7FEFF 		bl	__aeabi_fmul
 184 0138 0346     		mov	r3, r0
 185 013a 1A46     		mov	r2, r3
 186 013c 40F20003 		movw	r3, #:lower16:anapos
 187 0140 C0F20003 		movt	r3, #:upper16:anapos
 188 0144 1A60     		str	r2, [r3, #0]	@ float
 189 0146 64E0     		b	.L3
 190              	.L7:
  93:.\motor_CTRL.c **** 	}
  94:.\motor_CTRL.c **** 	else if ((*paxis).param.color == CTRL_IERROR)
 191              		.loc 1 94 0
ARM GAS  C:\Users\GRAZIA~1.RAV\AppData\Local\Temp\ccLYRwwS.s 			page 6


 192 0148 7B68     		ldr	r3, [r7, #4]
 193 014a 93F82C30 		ldrb	r3, [r3, #44]	@ zero_extendqisi2
 194 014e 062B     		cmp	r3, #6
 195 0150 1DD1     		bne	.L8
  95:.\motor_CTRL.c **** 	{
  96:.\motor_CTRL.c **** 		anapos = (*paxis).param.Gain_ANAOUT.fnum*((*paxis).mc.ierror - (float)anapos_offset);	
 196              		.loc 1 96 0
 197 0152 7B68     		ldr	r3, [r7, #4]
 198 0154 9C6A     		ldr	r4, [r3, #40]	@ float
 199 0156 7B68     		ldr	r3, [r7, #4]
 200 0158 1D6E     		ldr	r5, [r3, #96]	@ float
 201 015a 40F20003 		movw	r3, #:lower16:anapos_offset
 202 015e C0F20003 		movt	r3, #:upper16:anapos_offset
 203 0162 1B68     		ldr	r3, [r3, #0]
 204 0164 1846     		mov	r0, r3
 205 0166 FFF7FEFF 		bl	__aeabi_i2f
 206 016a 0346     		mov	r3, r0
 207 016c 2846     		mov	r0, r5
 208 016e 1946     		mov	r1, r3
 209 0170 FFF7FEFF 		bl	__aeabi_fsub
 210 0174 0346     		mov	r3, r0
 211 0176 2046     		mov	r0, r4
 212 0178 1946     		mov	r1, r3
 213 017a FFF7FEFF 		bl	__aeabi_fmul
 214 017e 0346     		mov	r3, r0
 215 0180 1A46     		mov	r2, r3
 216 0182 40F20003 		movw	r3, #:lower16:anapos
 217 0186 C0F20003 		movt	r3, #:upper16:anapos
 218 018a 1A60     		str	r2, [r3, #0]	@ float
 219 018c 41E0     		b	.L3
 220              	.L8:
  97:.\motor_CTRL.c **** 	}
  98:.\motor_CTRL.c **** 	else if ((*paxis).param.color == CTRL_CV)
 221              		.loc 1 98 0
 222 018e 7B68     		ldr	r3, [r7, #4]
 223 0190 93F82C30 		ldrb	r3, [r3, #44]	@ zero_extendqisi2
 224 0194 082B     		cmp	r3, #8
 225 0196 14D1     		bne	.L9
  99:.\motor_CTRL.c **** 	{
 100:.\motor_CTRL.c **** 		anapos = (*paxis).mc.ctrl_var * 128/MOTOR_PWM_PERIOD_HALF;	//fixed 4Vpp Output at PWM MAX	
 226              		.loc 1 100 0
 227 0198 7B68     		ldr	r3, [r7, #4]
 228 019a 1B6F     		ldr	r3, [r3, #112]	@ float
 229 019c 1846     		mov	r0, r3
 230 019e 4FF08641 		mov	r1, #1124073472
 231 01a2 FFF7FEFF 		bl	__aeabi_fmul
 232 01a6 0346     		mov	r3, r0
 233 01a8 1846     		mov	r0, r3
 234 01aa 4FF08841 		mov	r1, #1140850688
 235 01ae FFF7FEFF 		bl	__aeabi_fdiv
 236 01b2 0346     		mov	r3, r0
 237 01b4 1A46     		mov	r2, r3
 238 01b6 40F20003 		movw	r3, #:lower16:anapos
 239 01ba C0F20003 		movt	r3, #:upper16:anapos
 240 01be 1A60     		str	r2, [r3, #0]	@ float
 241 01c0 27E0     		b	.L3
 242              	.L9:
ARM GAS  C:\Users\GRAZIA~1.RAV\AppData\Local\Temp\ccLYRwwS.s 			page 7


 101:.\motor_CTRL.c **** 	}	
 102:.\motor_CTRL.c **** 	else if ((*paxis).param.color == CTRL_AZIERROR)
 243              		.loc 1 102 0
 244 01c2 7B68     		ldr	r3, [r7, #4]
 245 01c4 93F82C30 		ldrb	r3, [r3, #44]	@ zero_extendqisi2
 246 01c8 072B     		cmp	r3, #7
 247 01ca 1BD1     		bne	.L10
 103:.\motor_CTRL.c **** 	{
 104:.\motor_CTRL.c **** 		anapos = (*paxis).param.Kif.fnum * (*paxis).mc.ierror * 128/MOTOR_PWM_PERIOD_HALF;	//fixed 4Vpp O
 248              		.loc 1 104 0
 249 01cc 7B68     		ldr	r3, [r7, #4]
 250 01ce DA69     		ldr	r2, [r3, #28]	@ float
 251 01d0 7B68     		ldr	r3, [r7, #4]
 252 01d2 1B6E     		ldr	r3, [r3, #96]	@ float
 253 01d4 1046     		mov	r0, r2
 254 01d6 1946     		mov	r1, r3
 255 01d8 FFF7FEFF 		bl	__aeabi_fmul
 256 01dc 0346     		mov	r3, r0
 257 01de 1846     		mov	r0, r3
 258 01e0 4FF08641 		mov	r1, #1124073472
 259 01e4 FFF7FEFF 		bl	__aeabi_fmul
 260 01e8 0346     		mov	r3, r0
 261 01ea 1846     		mov	r0, r3
 262 01ec 4FF08841 		mov	r1, #1140850688
 263 01f0 FFF7FEFF 		bl	__aeabi_fdiv
 264 01f4 0346     		mov	r3, r0
 265 01f6 1A46     		mov	r2, r3
 266 01f8 40F20003 		movw	r3, #:lower16:anapos
 267 01fc C0F20003 		movt	r3, #:upper16:anapos
 268 0200 1A60     		str	r2, [r3, #0]	@ float
 269 0202 06E0     		b	.L3
 270              	.L10:
 105:.\motor_CTRL.c **** 	}		
 106:.\motor_CTRL.c **** 
 107:.\motor_CTRL.c **** 	else
 108:.\motor_CTRL.c **** 	{
 109:.\motor_CTRL.c **** 		anapos = 0;	/* Internal Firmware Error */
 271              		.loc 1 109 0
 272 0204 40F20003 		movw	r3, #:lower16:anapos
 273 0208 C0F20003 		movt	r3, #:upper16:anapos
 274 020c 4FF00002 		mov	r2, #0
 275 0210 1A60     		str	r2, [r3, #0]	@ float
 276              	.L3:
 110:.\motor_CTRL.c **** 	}
 111:.\motor_CTRL.c **** 			
 112:.\motor_CTRL.c **** 		/* anapos 8 bit saturation */
 113:.\motor_CTRL.c **** 		if (anapos>127)
 277              		.loc 1 113 0
 278 0212 40F20003 		movw	r3, #:lower16:anapos
 279 0216 C0F20003 		movt	r3, #:upper16:anapos
 280 021a 1B68     		ldr	r3, [r3, #0]	@ float
 281 021c 1846     		mov	r0, r3
 282 021e 4FF00001 		mov	r1, #0
 283 0222 C4F2FE21 		movt	r1, 17150
 284 0226 FFF7FEFF 		bl	__aeabi_fcmpgt
 285 022a 0346     		mov	r3, r0
 286 022c 002B     		cmp	r3, #0
ARM GAS  C:\Users\GRAZIA~1.RAV\AppData\Local\Temp\ccLYRwwS.s 			page 8


 287 022e 08D0     		beq	.L11
 288              	.L15:
 114:.\motor_CTRL.c **** 		{
 115:.\motor_CTRL.c **** 			anapos = 127;
 289              		.loc 1 115 0
 290 0230 40F20003 		movw	r3, #:lower16:anapos
 291 0234 C0F20003 		movt	r3, #:upper16:anapos
 292 0238 4FF00002 		mov	r2, #0
 293 023c C4F2FE22 		movt	r2, 17150
 294 0240 1A60     		str	r2, [r3, #0]	@ float
 295              	.L11:
 116:.\motor_CTRL.c **** 		}
 117:.\motor_CTRL.c **** 		if (anapos < -127)
 296              		.loc 1 117 0
 297 0242 40F20003 		movw	r3, #:lower16:anapos
 298 0246 C0F20003 		movt	r3, #:upper16:anapos
 299 024a 1B68     		ldr	r3, [r3, #0]	@ float
 300 024c 1846     		mov	r0, r3
 301 024e 4FF00001 		mov	r1, #0
 302 0252 CCF2FE21 		movt	r1, 49918
 303 0256 FFF7FEFF 		bl	__aeabi_fcmplt
 304 025a 0346     		mov	r3, r0
 305 025c 002B     		cmp	r3, #0
 306 025e 08D0     		beq	.L13
 307              	.L16:
 118:.\motor_CTRL.c **** 		{
 119:.\motor_CTRL.c **** 			anapos = -127;
 308              		.loc 1 119 0
 309 0260 40F20003 		movw	r3, #:lower16:anapos
 310 0264 C0F20003 		movt	r3, #:upper16:anapos
 311 0268 4FF00002 		mov	r2, #0
 312 026c CCF2FE22 		movt	r2, 49918
 313 0270 1A60     		str	r2, [r3, #0]	@ float
 314              	.L13:
 120:.\motor_CTRL.c **** 		}
 121:.\motor_CTRL.c **** 		
 122:.\motor_CTRL.c **** 		VDAC8_ANAPOS_SetValue((uint8)(anapos+128));		/* Anapos DAC Refresh <-- position(t)		*/	
 315              		.loc 1 122 0
 316 0272 40F20003 		movw	r3, #:lower16:anapos
 317 0276 C0F20003 		movt	r3, #:upper16:anapos
 318 027a 1B68     		ldr	r3, [r3, #0]	@ float
 319 027c 1846     		mov	r0, r3
 320 027e 4FF08641 		mov	r1, #1124073472
 321 0282 FFF7FEFF 		bl	__aeabi_fadd
 322 0286 0346     		mov	r3, r0
 323 0288 1846     		mov	r0, r3
 324 028a FFF7FEFF 		bl	__aeabi_f2uiz
 325 028e 0346     		mov	r3, r0
 326 0290 DBB2     		uxtb	r3, r3
 327 0292 1846     		mov	r0, r3
 328 0294 FFF7FEFF 		bl	VDAC8_ANAPOS_SetValue
 123:.\motor_CTRL.c **** }
 329              		.loc 1 123 0
 330 0298 07F10807 		add	r7, r7, #8
 331 029c BD46     		mov	sp, r7
 332 029e B0BD     		pop	{r4, r5, r7, pc}
 333              		.cfi_endproc
ARM GAS  C:\Users\GRAZIA~1.RAV\AppData\Local\Temp\ccLYRwwS.s 			page 9


 334              	.LFE56:
 335              		.size	AnalogShow, .-AnalogShow
 336              		.section	.text.Axis_limit_control_init,"ax",%progbits
 337              		.align	2
 338              		.global	Axis_limit_control_init
 339              		.thumb
 340              		.thumb_func
 341              		.type	Axis_limit_control_init, %function
 342              	Axis_limit_control_init:
 343              	.LFB57:
 124:.\motor_CTRL.c **** 
 125:.\motor_CTRL.c **** 
 126:.\motor_CTRL.c **** /****************************/
 127:.\motor_CTRL.c **** /* Axis Limit Control CODE  */
 128:.\motor_CTRL.c **** /****************************/
 129:.\motor_CTRL.c **** void Axis_limit_control_init(void)
 130:.\motor_CTRL.c **** {
 344              		.loc 1 130 0
 345              		.cfi_startproc
 346              		@ args = 0, pretend = 0, frame = 0
 347              		@ frame_needed = 1, uses_anonymous_args = 0
 348              		@ link register save eliminated.
 349 0000 80B4     		push	{r7}
 350              	.LCFI3:
 351              		.cfi_def_cfa_offset 4
 352              		.cfi_offset 7, -4
 353 0002 00AF     		add	r7, sp, #0
 354              	.LCFI4:
 355              		.cfi_def_cfa_register 7
 131:.\motor_CTRL.c **** 	pan_axis.lc.status  = COARSE_BETWEEN_LIMITS_OK;	/* PAN  COARSE BETWEEN LIMITS	*/
 356              		.loc 1 131 0
 357 0004 40F20003 		movw	r3, #:lower16:pan_axis
 358 0008 C0F20003 		movt	r3, #:upper16:pan_axis
 359 000c 4FF00002 		mov	r2, #0
 360 0010 83F88420 		strb	r2, [r3, #132]
 132:.\motor_CTRL.c **** 	tilt_axis.lc.status = COARSE_BETWEEN_LIMITS_OK;	/* TILT COARSE BETWEEN LIMITS	*/
 361              		.loc 1 132 0
 362 0014 40F20003 		movw	r3, #:lower16:tilt_axis
 363 0018 C0F20003 		movt	r3, #:upper16:tilt_axis
 364 001c 4FF00002 		mov	r2, #0
 365 0020 83F88420 		strb	r2, [r3, #132]
 133:.\motor_CTRL.c **** }
 366              		.loc 1 133 0
 367 0024 BD46     		mov	sp, r7
 368 0026 80BC     		pop	{r7}
 369 0028 7047     		bx	lr
 370              		.cfi_endproc
 371              	.LFE57:
 372              		.size	Axis_limit_control_init, .-Axis_limit_control_init
 373 002a 00BF     		.section	.text.Axis_limit_control,"ax",%progbits
 374              		.align	2
 375              		.global	Axis_limit_control
 376              		.thumb
 377              		.thumb_func
 378              		.type	Axis_limit_control, %function
 379              	Axis_limit_control:
 380              	.LFB58:
ARM GAS  C:\Users\GRAZIA~1.RAV\AppData\Local\Temp\ccLYRwwS.s 			page 10


 134:.\motor_CTRL.c **** 
 135:.\motor_CTRL.c **** void Axis_limit_control(struct MOTOR_AXIS *paxis, struct ABSPOS_SENSOR *abs_sens)
 136:.\motor_CTRL.c **** {
 381              		.loc 1 136 0
 382              		.cfi_startproc
 383              		@ args = 0, pretend = 0, frame = 8
 384              		@ frame_needed = 1, uses_anonymous_args = 0
 385              		@ link register save eliminated.
 386 0000 80B4     		push	{r7}
 387              	.LCFI5:
 388              		.cfi_def_cfa_offset 4
 389              		.cfi_offset 7, -4
 390 0002 83B0     		sub	sp, sp, #12
 391              	.LCFI6:
 392              		.cfi_def_cfa_offset 16
 393 0004 00AF     		add	r7, sp, #0
 394              	.LCFI7:
 395              		.cfi_def_cfa_register 7
 396 0006 7860     		str	r0, [r7, #4]
 397 0008 3960     		str	r1, [r7, #0]
 137:.\motor_CTRL.c **** 	/* absolute limits check & Hysteresys Logic */
 138:.\motor_CTRL.c **** 	if ((*paxis).param.limit_control == LIMIT_CONTROL_ENABLED)
 398              		.loc 1 138 0
 399 000a 7B68     		ldr	r3, [r7, #4]
 400 000c 93F82D30 		ldrb	r3, [r3, #45]	@ zero_extendqisi2
 401 0010 012B     		cmp	r3, #1
 402 0012 4FD1     		bne	.L19
 139:.\motor_CTRL.c **** 	{
 140:.\motor_CTRL.c **** 		if ((*abs_sens).raw >= ((*abs_sens).param.raw_limit_max + (*abs_sens).param.raw_limit_hysteresis)
 403              		.loc 1 140 0
 404 0014 3B68     		ldr	r3, [r7, #0]
 405 0016 1B88     		ldrh	r3, [r3, #0]
 406 0018 1AB2     		sxth	r2, r3
 407 001a 3B68     		ldr	r3, [r7, #0]
 408 001c 1B8E     		ldrh	r3, [r3, #48]
 409 001e 19B2     		sxth	r1, r3
 410 0020 3B68     		ldr	r3, [r7, #0]
 411 0022 9B8E     		ldrh	r3, [r3, #52]
 412 0024 1BB2     		sxth	r3, r3
 413 0026 CB18     		adds	r3, r1, r3
 414 0028 9A42     		cmp	r2, r3
 415 002a 05DB     		blt	.L20
 141:.\motor_CTRL.c **** 		{
 142:.\motor_CTRL.c **** 			(*paxis).lc.status = POSITIVE_LIMIT_REACHED;		/* ASSERT POSITIVE LIMIT!!! 	*/
 416              		.loc 1 142 0
 417 002c 7B68     		ldr	r3, [r7, #4]
 418 002e 4FF00202 		mov	r2, #2
 419 0032 83F88420 		strb	r2, [r3, #132]
 420 0036 10E0     		b	.L21
 421              	.L20:
 143:.\motor_CTRL.c **** 		}
 144:.\motor_CTRL.c **** 		else
 145:.\motor_CTRL.c **** 		if ((*abs_sens).raw <= ((*abs_sens).param.raw_limit_min - (*abs_sens).param.raw_limit_hysteresis)
 422              		.loc 1 145 0
 423 0038 3B68     		ldr	r3, [r7, #0]
 424 003a 1B88     		ldrh	r3, [r3, #0]
 425 003c 1AB2     		sxth	r2, r3
ARM GAS  C:\Users\GRAZIA~1.RAV\AppData\Local\Temp\ccLYRwwS.s 			page 11


 426 003e 3B68     		ldr	r3, [r7, #0]
 427 0040 5B8E     		ldrh	r3, [r3, #50]
 428 0042 19B2     		sxth	r1, r3
 429 0044 3B68     		ldr	r3, [r7, #0]
 430 0046 9B8E     		ldrh	r3, [r3, #52]
 431 0048 1BB2     		sxth	r3, r3
 432 004a CB1A     		subs	r3, r1, r3
 433 004c 9A42     		cmp	r2, r3
 434 004e 04DC     		bgt	.L21
 146:.\motor_CTRL.c **** 		{
 147:.\motor_CTRL.c **** 			(*paxis).lc.status = NEGATIVE_LIMIT_REACHED;		/* ASSERT NEGATIVE LIMIT!!! 	*/			
 435              		.loc 1 147 0
 436 0050 7B68     		ldr	r3, [r7, #4]
 437 0052 4FF00102 		mov	r2, #1
 438 0056 83F88420 		strb	r2, [r3, #132]
 439              	.L21:
 148:.\motor_CTRL.c **** 		}
 149:.\motor_CTRL.c **** 
 150:.\motor_CTRL.c **** 		if (((*paxis).lc.status == POSITIVE_LIMIT_REACHED) &&
 440              		.loc 1 150 0
 441 005a 7B68     		ldr	r3, [r7, #4]
 442 005c 93F88430 		ldrb	r3, [r3, #132]	@ zero_extendqisi2
 443 0060 022B     		cmp	r3, #2
 444 0062 10D1     		bne	.L22
 151:.\motor_CTRL.c **** 		   ((*abs_sens).raw <= ((*abs_sens).param.raw_limit_max - (*abs_sens).param.raw_limit_hysteresis)
 445              		.loc 1 151 0 discriminator 1
 446 0064 3B68     		ldr	r3, [r7, #0]
 447 0066 1B88     		ldrh	r3, [r3, #0]
 448 0068 1AB2     		sxth	r2, r3
 449 006a 3B68     		ldr	r3, [r7, #0]
 450 006c 1B8E     		ldrh	r3, [r3, #48]
 451 006e 19B2     		sxth	r1, r3
 452 0070 3B68     		ldr	r3, [r7, #0]
 453 0072 9B8E     		ldrh	r3, [r3, #52]
 454 0074 1BB2     		sxth	r3, r3
 455 0076 CB1A     		subs	r3, r1, r3
 150:.\motor_CTRL.c **** 		if (((*paxis).lc.status == POSITIVE_LIMIT_REACHED) &&
 456              		.loc 1 150 0 discriminator 1
 457 0078 9A42     		cmp	r2, r3
 458 007a 04DC     		bgt	.L22
 152:.\motor_CTRL.c **** 		{
 153:.\motor_CTRL.c **** 			(*paxis).lc.status = COARSE_BETWEEN_LIMITS_OK;		/* ASSERT COARSE BETWEEN LIMITS */
 459              		.loc 1 153 0
 460 007c 7B68     		ldr	r3, [r7, #4]
 461 007e 4FF00002 		mov	r2, #0
 462 0082 83F88420 		strb	r2, [r3, #132]
 463              	.L22:
 154:.\motor_CTRL.c **** 		}
 155:.\motor_CTRL.c **** 
 156:.\motor_CTRL.c **** 		if (((*paxis).lc.status == NEGATIVE_LIMIT_REACHED) &&
 464              		.loc 1 156 0
 465 0086 7B68     		ldr	r3, [r7, #4]
 466 0088 93F88430 		ldrb	r3, [r3, #132]	@ zero_extendqisi2
 467 008c 012B     		cmp	r3, #1
 468 008e 16D1     		bne	.L18
 157:.\motor_CTRL.c **** 		   ((*abs_sens).raw >= ((*abs_sens).param.raw_limit_min - (*abs_sens).param.raw_limit_hysteresis)
 469              		.loc 1 157 0 discriminator 1
ARM GAS  C:\Users\GRAZIA~1.RAV\AppData\Local\Temp\ccLYRwwS.s 			page 12


 470 0090 3B68     		ldr	r3, [r7, #0]
 471 0092 1B88     		ldrh	r3, [r3, #0]
 472 0094 1AB2     		sxth	r2, r3
 473 0096 3B68     		ldr	r3, [r7, #0]
 474 0098 5B8E     		ldrh	r3, [r3, #50]
 475 009a 19B2     		sxth	r1, r3
 476 009c 3B68     		ldr	r3, [r7, #0]
 477 009e 9B8E     		ldrh	r3, [r3, #52]
 478 00a0 1BB2     		sxth	r3, r3
 479 00a2 CB1A     		subs	r3, r1, r3
 156:.\motor_CTRL.c **** 		if (((*paxis).lc.status == NEGATIVE_LIMIT_REACHED) &&
 480              		.loc 1 156 0 discriminator 1
 481 00a4 9A42     		cmp	r2, r3
 482 00a6 0ADB     		blt	.L18
 158:.\motor_CTRL.c **** 		{
 159:.\motor_CTRL.c **** 			(*paxis).lc.status = COARSE_BETWEEN_LIMITS_OK;		/* ASSERT COARSE BETWEEN LIMITS */
 483              		.loc 1 159 0
 484 00a8 7B68     		ldr	r3, [r7, #4]
 485 00aa 4FF00002 		mov	r2, #0
 486 00ae 83F88420 		strb	r2, [r3, #132]
 487 00b2 04E0     		b	.L18
 488              	.L19:
 160:.\motor_CTRL.c **** 		}		
 161:.\motor_CTRL.c **** 	}
 162:.\motor_CTRL.c **** 	else
 163:.\motor_CTRL.c **** 	{
 164:.\motor_CTRL.c **** 		(*paxis).lc.status = COARSE_BETWEEN_LIMITS_OK;			/* UNLIMITED CASE: ASSERT COARSE BETWEEN LIMITS 
 489              		.loc 1 164 0
 490 00b4 7B68     		ldr	r3, [r7, #4]
 491 00b6 4FF00002 		mov	r2, #0
 492 00ba 83F88420 		strb	r2, [r3, #132]
 493              	.L18:
 165:.\motor_CTRL.c **** 	}
 166:.\motor_CTRL.c **** }
 494              		.loc 1 166 0
 495 00be 07F10C07 		add	r7, r7, #12
 496 00c2 BD46     		mov	sp, r7
 497 00c4 80BC     		pop	{r7}
 498 00c6 7047     		bx	lr
 499              		.cfi_endproc
 500              	.LFE58:
 501              		.size	Axis_limit_control, .-Axis_limit_control
 502              		.section	.text.All_Axes_limit_control,"ax",%progbits
 503              		.align	2
 504              		.global	All_Axes_limit_control
 505              		.thumb
 506              		.thumb_func
 507              		.type	All_Axes_limit_control, %function
 508              	All_Axes_limit_control:
 509              	.LFB59:
 167:.\motor_CTRL.c **** 
 168:.\motor_CTRL.c **** void All_Axes_limit_control(void)
 169:.\motor_CTRL.c **** {
 510              		.loc 1 169 0
 511              		.cfi_startproc
 512              		@ args = 0, pretend = 0, frame = 0
 513              		@ frame_needed = 1, uses_anonymous_args = 0
ARM GAS  C:\Users\GRAZIA~1.RAV\AppData\Local\Temp\ccLYRwwS.s 			page 13


 514 0000 80B5     		push	{r7, lr}
 515              	.LCFI8:
 516              		.cfi_def_cfa_offset 8
 517              		.cfi_offset 7, -8
 518              		.cfi_offset 14, -4
 519 0002 00AF     		add	r7, sp, #0
 520              	.LCFI9:
 521              		.cfi_def_cfa_register 7
 170:.\motor_CTRL.c **** 	Axis_limit_control(&pan_axis, &pan_absolute_sensor);	/* pan_axis.lc.status  <-- LIMIT STATUS	(posi
 522              		.loc 1 170 0
 523 0004 40F20000 		movw	r0, #:lower16:pan_axis
 524 0008 C0F20000 		movt	r0, #:upper16:pan_axis
 525 000c 40F20001 		movw	r1, #:lower16:pan_absolute_sensor
 526 0010 C0F20001 		movt	r1, #:upper16:pan_absolute_sensor
 527 0014 FFF7FEFF 		bl	Axis_limit_control
 171:.\motor_CTRL.c **** 	Axis_limit_control(&tilt_axis, &tilt_absolute_sensor);	/* tilt_axis.lc.status <-- LIMIT STATUS	(po
 528              		.loc 1 171 0
 529 0018 40F20000 		movw	r0, #:lower16:tilt_axis
 530 001c C0F20000 		movt	r0, #:upper16:tilt_axis
 531 0020 40F20001 		movw	r1, #:lower16:tilt_absolute_sensor
 532 0024 C0F20001 		movt	r1, #:upper16:tilt_absolute_sensor
 533 0028 FFF7FEFF 		bl	Axis_limit_control
 172:.\motor_CTRL.c **** }
 534              		.loc 1 172 0
 535 002c 80BD     		pop	{r7, pc}
 536              		.cfi_endproc
 537              	.LFE59:
 538              		.size	All_Axes_limit_control, .-All_Axes_limit_control
 539              		.global	__aeabi_f2d
 540              		.global	__aeabi_dmul
 541              		.global	__aeabi_d2f
 542              		.global	__aeabi_f2iz
 543              		.global	__aeabi_fcmpge
 544              		.global	__aeabi_fcmple
 545 002e 00BF     		.section	.text.motor_control,"ax",%progbits
 546              		.align	2
 547              		.global	motor_control
 548              		.thumb
 549              		.thumb_func
 550              		.type	motor_control, %function
 551              	motor_control:
 552              	.LFB60:
 173:.\motor_CTRL.c **** 
 174:.\motor_CTRL.c **** /************************************************/
 175:.\motor_CTRL.c **** /*** AXIS MOTOR CONTROL CODE       			  ***/
 176:.\motor_CTRL.c **** /************************************************/
 177:.\motor_CTRL.c **** /* *paxis = [&pan_axis, &tilt_axis]				*/
 178:.\motor_CTRL.c **** /* *mover = [&mover_pan, &mover_tilt]			*/
 179:.\motor_CTRL.c **** /************************************************/
 180:.\motor_CTRL.c **** void motor_control(struct MOTOR_AXIS *paxis, mover_type *mover)
 181:.\motor_CTRL.c **** {
 553              		.loc 1 181 0
 554              		.cfi_startproc
 555              		@ args = 0, pretend = 0, frame = 8
 556              		@ frame_needed = 1, uses_anonymous_args = 0
 557 0000 90B5     		push	{r4, r7, lr}
 558              	.LCFI10:
ARM GAS  C:\Users\GRAZIA~1.RAV\AppData\Local\Temp\ccLYRwwS.s 			page 14


 559              		.cfi_def_cfa_offset 12
 560              		.cfi_offset 4, -12
 561              		.cfi_offset 7, -8
 562              		.cfi_offset 14, -4
 563 0002 83B0     		sub	sp, sp, #12
 564              	.LCFI11:
 565              		.cfi_def_cfa_offset 24
 566 0004 00AF     		add	r7, sp, #0
 567              	.LCFI12:
 568              		.cfi_def_cfa_register 7
 569 0006 7860     		str	r0, [r7, #4]
 570 0008 3960     		str	r1, [r7, #0]
 182:.\motor_CTRL.c **** 	/****************************************************************/
 183:.\motor_CTRL.c **** 	/* Current(t), SlaveEncoder(t) & Absolute_Sensor(t) Sampling	*/
 184:.\motor_CTRL.c **** 	/****************************************************************/
 185:.\motor_CTRL.c **** 	if (paxis == &pan_axis)
 571              		.loc 1 185 0
 572 000a 7A68     		ldr	r2, [r7, #4]
 573 000c 40F20003 		movw	r3, #:lower16:pan_axis
 574 0010 C0F20003 		movt	r3, #:upper16:pan_axis
 575 0014 9A42     		cmp	r2, r3
 576 0016 40F09280 		bne	.L26
 186:.\motor_CTRL.c **** 	{
 187:.\motor_CTRL.c **** 		// Rsense = 0,39[Ohm]; Analog Gain = 25,9; --> V[ADC] = 0,39[Ohm] * 0,5 [A] * 25,9 = 5,05[V] (abo
 188:.\motor_CTRL.c **** 		pan_axis.mc.current = (float)(AdcValue[SENSE_IPAN] + ADC_CURR_ZERO_OFFSET) * AMPERE_OVER_ADC_CONS
 577              		.loc 1 188 0
 578 001a 40F20003 		movw	r3, #:lower16:AdcValue
 579 001e C0F20003 		movt	r3, #:upper16:AdcValue
 580 0022 1B88     		ldrh	r3, [r3, #0]
 581 0024 1BB2     		sxth	r3, r3
 582 0026 03F50063 		add	r3, r3, #2048
 583 002a 1846     		mov	r0, r3
 584 002c FFF7FEFF 		bl	__aeabi_i2f
 585 0030 0346     		mov	r3, r0
 586 0032 1846     		mov	r0, r3
 587 0034 FFF7FEFF 		bl	__aeabi_f2d
 588 0038 0246     		mov	r2, r0
 589 003a 0B46     		mov	r3, r1
 590 003c 1046     		mov	r0, r2
 591 003e 1946     		mov	r1, r3
 592 0040 B5A3     		adr	r3, .L57
 593 0042 D3E90023 		ldrd	r2, [r3]
 594 0046 FFF7FEFF 		bl	__aeabi_dmul
 595 004a 0246     		mov	r2, r0
 596 004c 0B46     		mov	r3, r1
 597 004e 1046     		mov	r0, r2
 598 0050 1946     		mov	r1, r3
 599 0052 FFF7FEFF 		bl	__aeabi_d2f
 600 0056 0246     		mov	r2, r0
 601 0058 40F20003 		movw	r3, #:lower16:pan_axis
 602 005c C0F20003 		movt	r3, #:upper16:pan_axis
 603 0060 9A67     		str	r2, [r3, #120]	@ float
 189:.\motor_CTRL.c **** 		
 190:.\motor_CTRL.c **** 		/* PAN Feedback Encoder PositionSampling						*/	
 191:.\motor_CTRL.c **** 		(*paxis).mc.slave_enc.position = QuadDec_PAN_GetCounter();												/* Incremental Position(t) 
 604              		.loc 1 191 0
 605 0062 FFF7FEFF 		bl	QuadDec_PAN_GetCounter
ARM GAS  C:\Users\GRAZIA~1.RAV\AppData\Local\Temp\ccLYRwwS.s 			page 15


 606 0066 0246     		mov	r2, r0
 607 0068 7B68     		ldr	r3, [r7, #4]
 608 006a 5A64     		str	r2, [r3, #68]
 192:.\motor_CTRL.c **** 		
 193:.\motor_CTRL.c **** 		/* PAN Analog Absolute Position Sensor ADC Sampling (12bit) 	*/		
 194:.\motor_CTRL.c **** 		pan_absolute_sensor.raw = AdcValue[HOME_PAN_ABSV];														/* [ADC lsb] */
 609              		.loc 1 194 0
 610 006c 40F20003 		movw	r3, #:lower16:AdcValue
 611 0070 C0F20003 		movt	r3, #:upper16:AdcValue
 612 0074 9A89     		ldrh	r2, [r3, #12]
 613 0076 40F20003 		movw	r3, #:lower16:pan_absolute_sensor
 614 007a C0F20003 		movt	r3, #:upper16:pan_absolute_sensor
 615 007e 1A80     		strh	r2, [r3, #0]	@ movhi
 195:.\motor_CTRL.c **** 		
 196:.\motor_CTRL.c **** 		/*  PAN Analog Absolute Position Sensor raw invertion 			*/
 197:.\motor_CTRL.c **** 		if (pan_absolute_sensor.param.raw_invertion == ABS_SENSOR_INVERTED)
 616              		.loc 1 197 0
 617 0080 40F20003 		movw	r3, #:lower16:pan_absolute_sensor
 618 0084 C0F20003 		movt	r3, #:upper16:pan_absolute_sensor
 619 0088 93F82C30 		ldrb	r3, [r3, #44]	@ zero_extendqisi2
 620 008c 012B     		cmp	r3, #1
 621 008e 0ED1     		bne	.L27
 198:.\motor_CTRL.c **** 		{
 199:.\motor_CTRL.c **** 			pan_absolute_sensor.raw = -pan_absolute_sensor.raw;													/* [ADC lsb] */
 622              		.loc 1 199 0
 623 0090 40F20003 		movw	r3, #:lower16:pan_absolute_sensor
 624 0094 C0F20003 		movt	r3, #:upper16:pan_absolute_sensor
 625 0098 1B88     		ldrh	r3, [r3, #0]
 626 009a 9BB2     		uxth	r3, r3
 627 009c C3F10003 		rsb	r3, r3, #0
 628 00a0 9BB2     		uxth	r3, r3
 629 00a2 9AB2     		uxth	r2, r3
 630 00a4 40F20003 		movw	r3, #:lower16:pan_absolute_sensor
 631 00a8 C0F20003 		movt	r3, #:upper16:pan_absolute_sensor
 632 00ac 1A80     		strh	r2, [r3, #0]	@ movhi
 633              	.L27:
 200:.\motor_CTRL.c **** 		}	
 201:.\motor_CTRL.c **** 				
 202:.\motor_CTRL.c **** 		/********************************************************************************************/
 203:.\motor_CTRL.c **** 		/* Pan Absolute Position Sensor Statistics Iterative Calculus								*/
 204:.\motor_CTRL.c **** 		/* iteration >= 2																			*/
 205:.\motor_CTRL.c **** 		/* Calcola il valor medio e altre variabili statistiche										*/
 206:.\motor_CTRL.c **** 		/* Fonte: http://www.cs.berkeley.edu/~mhoemmen/cs194/Tutorials/variance.pdf					*/
 207:.\motor_CTRL.c **** 		/* vedi anche \Study\Statistica\variance(Computing the standard deviation efficiently).pdf	*/
 208:.\motor_CTRL.c **** 		/********************************************************************************************/
 209:.\motor_CTRL.c **** 		statistics_elab_step(&pan_absolute_sensor_stat,  (float)pan_absolute_sensor.raw);
 634              		.loc 1 209 0
 635 00ae 40F20003 		movw	r3, #:lower16:pan_absolute_sensor
 636 00b2 C0F20003 		movt	r3, #:upper16:pan_absolute_sensor
 637 00b6 1B88     		ldrh	r3, [r3, #0]
 638 00b8 1BB2     		sxth	r3, r3
 639 00ba 1846     		mov	r0, r3
 640 00bc FFF7FEFF 		bl	__aeabi_i2f
 641 00c0 0346     		mov	r3, r0
 642 00c2 40F20000 		movw	r0, #:lower16:pan_absolute_sensor_stat
 643 00c6 C0F20000 		movt	r0, #:upper16:pan_absolute_sensor_stat
 644 00ca 1946     		mov	r1, r3
ARM GAS  C:\Users\GRAZIA~1.RAV\AppData\Local\Temp\ccLYRwwS.s 			page 16


 645 00cc FFF7FEFF 		bl	statistics_elab_step
 210:.\motor_CTRL.c **** 
 211:.\motor_CTRL.c **** #if PAN_PSEUDOABS
 212:.\motor_CTRL.c **** 		/* PAN Pseudo-Absolute Position Steps Calculation 	*/	
 213:.\motor_CTRL.c **** 		if (pan_axis.mc.slave_enc.position >= 0)
 214:.\motor_CTRL.c **** 		{
 215:.\motor_CTRL.c **** 			pan_absolute_sensor.position = 	(float)((int32)pan_axis.mc.slave_enc.position % (int32)pan_axis.
 216:.\motor_CTRL.c **** 		}
 217:.\motor_CTRL.c **** 		else
 218:.\motor_CTRL.c **** 		{
 219:.\motor_CTRL.c **** 			pan_absolute_sensor.position = 	pan_axis.param.resolution.fnum - 
 220:.\motor_CTRL.c **** 											(float)((int32)-pan_axis.mc.slave_enc.position % (int32)pan_axis.param.resolution.fnum);
 221:.\motor_CTRL.c **** 		}		
 222:.\motor_CTRL.c **** #else		
 223:.\motor_CTRL.c **** 		/* PAN Absolute Position Steps Calculation 			*/		
 224:.\motor_CTRL.c **** 		pan_absolute_sensor.position = (float)(pan_absolute_sensor.raw - pan_absolute_sensor.param.raw_ho
 646              		.loc 1 224 0
 647 00d0 40F20003 		movw	r3, #:lower16:pan_absolute_sensor
 648 00d4 C0F20003 		movt	r3, #:upper16:pan_absolute_sensor
 649 00d8 1B88     		ldrh	r3, [r3, #0]
 650 00da 1AB2     		sxth	r2, r3
 651 00dc 40F20003 		movw	r3, #:lower16:pan_absolute_sensor
 652 00e0 C0F20003 		movt	r3, #:upper16:pan_absolute_sensor
 653 00e4 DB8D     		ldrh	r3, [r3, #46]
 654 00e6 1BB2     		sxth	r3, r3
 655 00e8 D31A     		subs	r3, r2, r3
 656 00ea 1846     		mov	r0, r3
 657 00ec FFF7FEFF 		bl	__aeabi_i2f
 658 00f0 0246     		mov	r2, r0
 225:.\motor_CTRL.c **** 									 * pan_absolute_sensor.param.step_over_abs_ratio.fnum;					   	/* referred to HOME positio
 659              		.loc 1 225 0
 660 00f2 40F20003 		movw	r3, #:lower16:pan_absolute_sensor
 661 00f6 C0F20003 		movt	r3, #:upper16:pan_absolute_sensor
 662 00fa 9B6B     		ldr	r3, [r3, #56]	@ float
 663 00fc 1046     		mov	r0, r2
 664 00fe 1946     		mov	r1, r3
 665 0100 FFF7FEFF 		bl	__aeabi_fmul
 666 0104 0346     		mov	r3, r0
 667 0106 1A46     		mov	r2, r3
 224:.\motor_CTRL.c **** 		pan_absolute_sensor.position = (float)(pan_absolute_sensor.raw - pan_absolute_sensor.param.raw_ho
 668              		.loc 1 224 0
 669 0108 40F20003 		movw	r3, #:lower16:pan_absolute_sensor
 670 010c C0F20003 		movt	r3, #:upper16:pan_absolute_sensor
 671 0110 5A60     		str	r2, [r3, #4]	@ float
 226:.\motor_CTRL.c **** #endif
 227:.\motor_CTRL.c **** 		
 228:.\motor_CTRL.c **** 		pan_absolute_sensor.angle_rad = (float)pan_absolute_sensor.position * pan_axis.vparam.resolution_
 672              		.loc 1 228 0
 673 0112 40F20003 		movw	r3, #:lower16:pan_absolute_sensor
 674 0116 C0F20003 		movt	r3, #:upper16:pan_absolute_sensor
 675 011a 5A68     		ldr	r2, [r3, #4]	@ float
 676 011c 40F20003 		movw	r3, #:lower16:pan_axis
 677 0120 C0F20003 		movt	r3, #:upper16:pan_axis
 678 0124 9B68     		ldr	r3, [r3, #8]	@ float
 679 0126 1046     		mov	r0, r2
 680 0128 1946     		mov	r1, r3
 681 012a FFF7FEFF 		bl	__aeabi_fmul
ARM GAS  C:\Users\GRAZIA~1.RAV\AppData\Local\Temp\ccLYRwwS.s 			page 17


 682 012e 0346     		mov	r3, r0
 683 0130 1A46     		mov	r2, r3
 684 0132 40F20003 		movw	r3, #:lower16:pan_absolute_sensor
 685 0136 C0F20003 		movt	r3, #:upper16:pan_absolute_sensor
 686 013a 1A61     		str	r2, [r3, #16]	@ float
 687 013c 82E0     		b	.L28
 688              	.L26:
 229:.\motor_CTRL.c **** 	}	
 230:.\motor_CTRL.c ****     else if (paxis == &tilt_axis)
 689              		.loc 1 230 0
 690 013e 7A68     		ldr	r2, [r7, #4]
 691 0140 40F20003 		movw	r3, #:lower16:tilt_axis
 692 0144 C0F20003 		movt	r3, #:upper16:tilt_axis
 693 0148 9A42     		cmp	r2, r3
 694 014a 7BD1     		bne	.L28
 231:.\motor_CTRL.c ****     {
 232:.\motor_CTRL.c **** 		// Rsense = 0,39[Ohm]; Analog Gain = 25,9; --> V[ADC] = 0,39[Ohm] * 0,5 [A] * 25,9 = 5,05[V] (abo
 233:.\motor_CTRL.c **** 		tilt_axis.mc.current = (float)(AdcValue[SENSE_ITILT] + ADC_CURR_ZERO_OFFSET) * AMPERE_OVER_ADC_CO
 695              		.loc 1 233 0
 696 014c 40F20003 		movw	r3, #:lower16:AdcValue
 697 0150 C0F20003 		movt	r3, #:upper16:AdcValue
 698 0154 5B88     		ldrh	r3, [r3, #2]
 699 0156 1BB2     		sxth	r3, r3
 700 0158 03F50063 		add	r3, r3, #2048
 701 015c 1846     		mov	r0, r3
 702 015e FFF7FEFF 		bl	__aeabi_i2f
 703 0162 0346     		mov	r3, r0
 704 0164 1846     		mov	r0, r3
 705 0166 FFF7FEFF 		bl	__aeabi_f2d
 706 016a 0246     		mov	r2, r0
 707 016c 0B46     		mov	r3, r1
 708 016e 1046     		mov	r0, r2
 709 0170 1946     		mov	r1, r3
 710 0172 69A3     		adr	r3, .L57
 711 0174 D3E90023 		ldrd	r2, [r3]
 712 0178 FFF7FEFF 		bl	__aeabi_dmul
 713 017c 0246     		mov	r2, r0
 714 017e 0B46     		mov	r3, r1
 715 0180 1046     		mov	r0, r2
 716 0182 1946     		mov	r1, r3
 717 0184 FFF7FEFF 		bl	__aeabi_d2f
 718 0188 0246     		mov	r2, r0
 719 018a 40F20003 		movw	r3, #:lower16:tilt_axis
 720 018e C0F20003 		movt	r3, #:upper16:tilt_axis
 721 0192 9A67     		str	r2, [r3, #120]	@ float
 234:.\motor_CTRL.c **** 		
 235:.\motor_CTRL.c ****  		/* TILT Feedback Encoder PositionSampling						 */	
 236:.\motor_CTRL.c **** 		(*paxis).mc.slave_enc.position = QuadDec_TILT_GetCounter();												/* Incremental Position(t)
 722              		.loc 1 236 0
 723 0194 FFF7FEFF 		bl	QuadDec_TILT_GetCounter
 724 0198 0246     		mov	r2, r0
 725 019a 7B68     		ldr	r3, [r7, #4]
 726 019c 5A64     		str	r2, [r3, #68]
 237:.\motor_CTRL.c **** 		
 238:.\motor_CTRL.c **** 		/* TILT Analog Absolute Position SensorRaw Data Sampling (12bit) */		
 239:.\motor_CTRL.c **** 		tilt_absolute_sensor.raw = AdcValue[HOME_TILT_ABSV];													/* [ADC lsb] */
 727              		.loc 1 239 0
ARM GAS  C:\Users\GRAZIA~1.RAV\AppData\Local\Temp\ccLYRwwS.s 			page 18


 728 019e 40F20003 		movw	r3, #:lower16:AdcValue
 729 01a2 C0F20003 		movt	r3, #:upper16:AdcValue
 730 01a6 DA89     		ldrh	r2, [r3, #14]
 731 01a8 40F20003 		movw	r3, #:lower16:tilt_absolute_sensor
 732 01ac C0F20003 		movt	r3, #:upper16:tilt_absolute_sensor
 733 01b0 1A80     		strh	r2, [r3, #0]	@ movhi
 240:.\motor_CTRL.c **** 
 241:.\motor_CTRL.c **** 		/*  TILT Analog Absolute Position Sensor raw invertion 			 */
 242:.\motor_CTRL.c **** 		if (tilt_absolute_sensor.param.raw_invertion == ABS_SENSOR_INVERTED)
 734              		.loc 1 242 0
 735 01b2 40F20003 		movw	r3, #:lower16:tilt_absolute_sensor
 736 01b6 C0F20003 		movt	r3, #:upper16:tilt_absolute_sensor
 737 01ba 93F82C30 		ldrb	r3, [r3, #44]	@ zero_extendqisi2
 738 01be 012B     		cmp	r3, #1
 739 01c0 0ED1     		bne	.L29
 243:.\motor_CTRL.c **** 		{
 244:.\motor_CTRL.c **** 			tilt_absolute_sensor.raw = -tilt_absolute_sensor.raw;												/* [ADC lsb] */
 740              		.loc 1 244 0
 741 01c2 40F20003 		movw	r3, #:lower16:tilt_absolute_sensor
 742 01c6 C0F20003 		movt	r3, #:upper16:tilt_absolute_sensor
 743 01ca 1B88     		ldrh	r3, [r3, #0]
 744 01cc 9BB2     		uxth	r3, r3
 745 01ce C3F10003 		rsb	r3, r3, #0
 746 01d2 9BB2     		uxth	r3, r3
 747 01d4 9AB2     		uxth	r2, r3
 748 01d6 40F20003 		movw	r3, #:lower16:tilt_absolute_sensor
 749 01da C0F20003 		movt	r3, #:upper16:tilt_absolute_sensor
 750 01de 1A80     		strh	r2, [r3, #0]	@ movhi
 751              	.L29:
 245:.\motor_CTRL.c **** 		}
 246:.\motor_CTRL.c **** 
 247:.\motor_CTRL.c **** 		/********************************************************************************************/
 248:.\motor_CTRL.c **** 		/* Tilt Absolute Position Sensor Statistics Iterative Calculus								*/
 249:.\motor_CTRL.c **** 		/* iteration >= 2																			*/
 250:.\motor_CTRL.c **** 		/* Calcola il valor medio e altre variabili statistiche										*/
 251:.\motor_CTRL.c **** 		/* Fonte: http://www.cs.berkeley.edu/~mhoemmen/cs194/Tutorials/variance.pdf					*/
 252:.\motor_CTRL.c **** 		/* vedi anche \Study\Statistica\variance(Computing the standard deviation efficiently).pdf	*/
 253:.\motor_CTRL.c **** 		/********************************************************************************************/
 254:.\motor_CTRL.c **** 		statistics_elab_step(&tilt_absolute_sensor_stat, (float)tilt_absolute_sensor.raw);
 752              		.loc 1 254 0
 753 01e0 40F20003 		movw	r3, #:lower16:tilt_absolute_sensor
 754 01e4 C0F20003 		movt	r3, #:upper16:tilt_absolute_sensor
 755 01e8 1B88     		ldrh	r3, [r3, #0]
 756 01ea 1BB2     		sxth	r3, r3
 757 01ec 1846     		mov	r0, r3
 758 01ee FFF7FEFF 		bl	__aeabi_i2f
 759 01f2 0346     		mov	r3, r0
 760 01f4 40F20000 		movw	r0, #:lower16:tilt_absolute_sensor_stat
 761 01f8 C0F20000 		movt	r0, #:upper16:tilt_absolute_sensor_stat
 762 01fc 1946     		mov	r1, r3
 763 01fe FFF7FEFF 		bl	statistics_elab_step
 255:.\motor_CTRL.c **** 		
 256:.\motor_CTRL.c **** 		/* TILT Absolute Position Steps Calculation 					 */		
 257:.\motor_CTRL.c **** 		tilt_absolute_sensor.position = (float)(tilt_absolute_sensor.raw - tilt_absolute_sensor.param.raw
 764              		.loc 1 257 0
 765 0202 40F20003 		movw	r3, #:lower16:tilt_absolute_sensor
 766 0206 C0F20003 		movt	r3, #:upper16:tilt_absolute_sensor
ARM GAS  C:\Users\GRAZIA~1.RAV\AppData\Local\Temp\ccLYRwwS.s 			page 19


 767 020a 1B88     		ldrh	r3, [r3, #0]
 768 020c 1AB2     		sxth	r2, r3
 769 020e 40F20003 		movw	r3, #:lower16:tilt_absolute_sensor
 770 0212 C0F20003 		movt	r3, #:upper16:tilt_absolute_sensor
 771 0216 DB8D     		ldrh	r3, [r3, #46]
 772 0218 1BB2     		sxth	r3, r3
 773 021a D31A     		subs	r3, r2, r3
 774 021c 1846     		mov	r0, r3
 775 021e FFF7FEFF 		bl	__aeabi_i2f
 776 0222 0246     		mov	r2, r0
 258:.\motor_CTRL.c **** 									 * tilt_absolute_sensor.param.step_over_abs_ratio.fnum;						/* referred to HOME position 
 777              		.loc 1 258 0
 778 0224 40F20003 		movw	r3, #:lower16:tilt_absolute_sensor
 779 0228 C0F20003 		movt	r3, #:upper16:tilt_absolute_sensor
 780 022c 9B6B     		ldr	r3, [r3, #56]	@ float
 781 022e 1046     		mov	r0, r2
 782 0230 1946     		mov	r1, r3
 783 0232 FFF7FEFF 		bl	__aeabi_fmul
 784 0236 0346     		mov	r3, r0
 785 0238 1A46     		mov	r2, r3
 257:.\motor_CTRL.c **** 		tilt_absolute_sensor.position = (float)(tilt_absolute_sensor.raw - tilt_absolute_sensor.param.raw
 786              		.loc 1 257 0
 787 023a 40F20003 		movw	r3, #:lower16:tilt_absolute_sensor
 788 023e C0F20003 		movt	r3, #:upper16:tilt_absolute_sensor
 789 0242 5A60     		str	r2, [r3, #4]	@ float
 790              	.L28:
 259:.\motor_CTRL.c ****     }
 260:.\motor_CTRL.c **** 	
 261:.\motor_CTRL.c **** 	/****************************************************************************/
 262:.\motor_CTRL.c **** 	/* MASTER Encoder: Delta Mover Input										*/
 263:.\motor_CTRL.c **** 	/****************************************************************************/
 264:.\motor_CTRL.c **** 	if ((*mover).status == MOVER_STARTED)
 791              		.loc 1 264 0
 792 0244 3B68     		ldr	r3, [r7, #0]
 793 0246 1B78     		ldrb	r3, [r3, #0]	@ zero_extendqisi2
 794 0248 012B     		cmp	r3, #1
 795 024a 1FD1     		bne	.L30
 265:.\motor_CTRL.c **** 	{	
 266:.\motor_CTRL.c **** 		/* Mover Generated Steps 	*/
 267:.\motor_CTRL.c **** 		(*mover).steps = MoverGeneratedSteps(mover, &path[(*mover).path_to_move], (*mover).ticks);		/* [i
 796              		.loc 1 267 0
 797 024c 3B68     		ldr	r3, [r7, #0]
 798 024e 93F82830 		ldrb	r3, [r3, #40]	@ zero_extendqisi2
 799 0252 4FF43C72 		mov	r2, #752
 800 0256 02FB03F2 		mul	r2, r2, r3
 801 025a 40F20003 		movw	r3, #:lower16:path
 802 025e C0F20003 		movt	r3, #:upper16:path
 803 0262 D218     		adds	r2, r2, r3
 804 0264 3B68     		ldr	r3, [r7, #0]
 805 0266 5B68     		ldr	r3, [r3, #4]
 806 0268 3868     		ldr	r0, [r7, #0]
 807 026a 1146     		mov	r1, r2
 808 026c 1A46     		mov	r2, r3
 809 026e FFF7FEFF 		bl	MoverGeneratedSteps
 810 0272 0246     		mov	r2, r0
 811 0274 3B68     		ldr	r3, [r7, #0]
 812 0276 1A61     		str	r2, [r3, #16]
ARM GAS  C:\Users\GRAZIA~1.RAV\AppData\Local\Temp\ccLYRwwS.s 			page 20


 268:.\motor_CTRL.c **** 		(*paxis).mc.master_enc_sample_delta = (*mover).steps;											/* [int32 steps] */
 813              		.loc 1 268 0
 814 0278 3B68     		ldr	r3, [r7, #0]
 815 027a 1A69     		ldr	r2, [r3, #16]
 816 027c 7B68     		ldr	r3, [r7, #4]
 817 027e 9A63     		str	r2, [r3, #56]
 269:.\motor_CTRL.c **** 		
 270:.\motor_CTRL.c **** 		(*mover).ticks++;																				/* Mover ticks Increment	*/
 818              		.loc 1 270 0
 819 0280 3B68     		ldr	r3, [r7, #0]
 820 0282 5B68     		ldr	r3, [r3, #4]
 821 0284 03F10102 		add	r2, r3, #1
 822 0288 3B68     		ldr	r3, [r7, #0]
 823 028a 5A60     		str	r2, [r3, #4]
 824              	.L30:
 271:.\motor_CTRL.c **** 	}  
 272:.\motor_CTRL.c **** 
 273:.\motor_CTRL.c **** 
 274:.\motor_CTRL.c **** 	/********************************/
 275:.\motor_CTRL.c **** 	/* CONDITIONAL DELTA LIMITING	*/
 276:.\motor_CTRL.c **** 	/********************************/
 277:.\motor_CTRL.c **** 	if ((*paxis).lc.status == COARSE_BETWEEN_LIMITS_OK)
 825              		.loc 1 277 0
 826 028c 7B68     		ldr	r3, [r7, #4]
 827 028e 93F88430 		ldrb	r3, [r3, #132]	@ zero_extendqisi2
 828 0292 002B     		cmp	r3, #0
 829 0294 05D1     		bne	.L31
 278:.\motor_CTRL.c **** 	{		
 279:.\motor_CTRL.c **** 		(*paxis).lc.deceleration_factor = 1; /* reset Limit deceleration factor */		
 830              		.loc 1 279 0
 831 0296 7B68     		ldr	r3, [r7, #4]
 832 0298 4FF07E52 		mov	r2, #1065353216
 833 029c C3F88C20 		str	r2, [r3, #140]	@ float
 834 02a0 74E0     		b	.L32
 835              	.L31:
 280:.\motor_CTRL.c **** 	}
 281:.\motor_CTRL.c **** 	else
 282:.\motor_CTRL.c **** 	{
 283:.\motor_CTRL.c **** 		(*paxis).lc.master_limit_delta = (float)(*paxis).mc.master_enc_sample_delta +
 836              		.loc 1 283 0
 837 02a2 7B68     		ldr	r3, [r7, #4]
 838 02a4 9B6B     		ldr	r3, [r3, #56]
 839 02a6 1846     		mov	r0, r3
 840 02a8 FFF7FEFF 		bl	__aeabi_i2f
 841 02ac 0446     		mov	r4, r0
 284:.\motor_CTRL.c **** 										 (float)(*paxis).mc.master_joy_sample_delta;  /* [float delta steps] */
 842              		.loc 1 284 0
 843 02ae 7B68     		ldr	r3, [r7, #4]
 844 02b0 1B6C     		ldr	r3, [r3, #64]
 845 02b2 1846     		mov	r0, r3
 846 02b4 FFF7FEFF 		bl	__aeabi_i2f
 847 02b8 0346     		mov	r3, r0
 283:.\motor_CTRL.c **** 		(*paxis).lc.master_limit_delta = (float)(*paxis).mc.master_enc_sample_delta +
 848              		.loc 1 283 0
 849 02ba 2046     		mov	r0, r4
 850 02bc 1946     		mov	r1, r3
 851 02be FFF7FEFF 		bl	__aeabi_fadd
ARM GAS  C:\Users\GRAZIA~1.RAV\AppData\Local\Temp\ccLYRwwS.s 			page 21


 852 02c2 0346     		mov	r3, r0
 853 02c4 1A46     		mov	r2, r3
 854 02c6 7B68     		ldr	r3, [r7, #4]
 855 02c8 C3F88820 		str	r2, [r3, #136]	@ float
 285:.\motor_CTRL.c **** 									
 286:.\motor_CTRL.c **** 		/*  Re-enter into limits allowed al full speed */
 287:.\motor_CTRL.c **** 		if ((((*paxis).lc.status == POSITIVE_LIMIT_REACHED) && ((*paxis).lc.master_limit_delta < 0)) ||
 856              		.loc 1 287 0
 857 02cc 7B68     		ldr	r3, [r7, #4]
 858 02ce 93F88430 		ldrb	r3, [r3, #132]	@ zero_extendqisi2
 859 02d2 022B     		cmp	r3, #2
 860 02d4 0AD1     		bne	.L33
 861              		.loc 1 287 0 is_stmt 0 discriminator 1
 862 02d6 7B68     		ldr	r3, [r7, #4]
 863 02d8 D3F88830 		ldr	r3, [r3, #136]	@ float
 864 02dc 1846     		mov	r0, r3
 865 02de 4FF00001 		mov	r1, #0
 866 02e2 FFF7FEFF 		bl	__aeabi_fcmplt
 867 02e6 0346     		mov	r3, r0
 868 02e8 002B     		cmp	r3, #0
 869 02ea 0FD1     		bne	.L34
 870              	.L33:
 288:.\motor_CTRL.c **** 			(((*paxis).lc.status == NEGATIVE_LIMIT_REACHED) && ((*paxis).lc.master_limit_delta > 0)))
 871              		.loc 1 288 0 is_stmt 1 discriminator 2
 872 02ec 7B68     		ldr	r3, [r7, #4]
 873 02ee 93F88430 		ldrb	r3, [r3, #132]	@ zero_extendqisi2
 287:.\motor_CTRL.c **** 		if ((((*paxis).lc.status == POSITIVE_LIMIT_REACHED) && ((*paxis).lc.master_limit_delta < 0)) ||
 874              		.loc 1 287 0 discriminator 2
 875 02f2 012B     		cmp	r3, #1
 876 02f4 14D1     		bne	.L35
 877              		.loc 1 288 0
 878 02f6 7B68     		ldr	r3, [r7, #4]
 879 02f8 D3F88830 		ldr	r3, [r3, #136]	@ float
 880 02fc 1846     		mov	r0, r3
 881 02fe 4FF00001 		mov	r1, #0
 882 0302 FFF7FEFF 		bl	__aeabi_fcmpgt
 883 0306 0346     		mov	r3, r0
 884 0308 002B     		cmp	r3, #0
 885 030a 09D0     		beq	.L35
 886              	.L34:
 289:.\motor_CTRL.c **** 		{		
 290:.\motor_CTRL.c **** 			(*paxis).lc.deceleration_factor = 1; /* reset Limit deceleration factor */				
 887              		.loc 1 290 0
 888 030c 7B68     		ldr	r3, [r7, #4]
 889 030e 4FF07E52 		mov	r2, #1065353216
 890 0312 C3F88C20 		str	r2, [r3, #140]	@ float
 891 0316 39E0     		b	.L32
 892              	.L58:
 893              		.align	3
 894              	.L57:
 895 0318 4B233942 		.word	1111040843
 896 031c 60E5463F 		.word	1061610848
 897              	.L35:
 291:.\motor_CTRL.c **** 		}
 292:.\motor_CTRL.c **** 		else	/* fixed deceleration to zero speed */
 293:.\motor_CTRL.c **** 		{
 294:.\motor_CTRL.c **** 			/* 0.97^250 = 0.05% --> speed limiting to 0.05% after 0.1 sec */			
ARM GAS  C:\Users\GRAZIA~1.RAV\AppData\Local\Temp\ccLYRwwS.s 			page 22


 295:.\motor_CTRL.c **** 			(*paxis).lc.deceleration_factor = (*paxis).lc.deceleration_factor * (*paxis).param.limit_deceler
 898              		.loc 1 295 0
 899 0320 7B68     		ldr	r3, [r7, #4]
 900 0322 D3F88C20 		ldr	r2, [r3, #140]	@ float
 901 0326 7B68     		ldr	r3, [r7, #4]
 902 0328 1B6B     		ldr	r3, [r3, #48]	@ float
 903 032a 1046     		mov	r0, r2
 904 032c 1946     		mov	r1, r3
 905 032e FFF7FEFF 		bl	__aeabi_fmul
 906 0332 0346     		mov	r3, r0
 907 0334 1A46     		mov	r2, r3
 908 0336 7B68     		ldr	r3, [r7, #4]
 909 0338 C3F88C20 		str	r2, [r3, #140]	@ float
 296:.\motor_CTRL.c **** 
 297:.\motor_CTRL.c **** 			(*paxis).mc.master_enc_sample_delta = (int32)((float)(*paxis).mc.master_enc_sample_delta * (*pax
 910              		.loc 1 297 0
 911 033c 7B68     		ldr	r3, [r7, #4]
 912 033e 9B6B     		ldr	r3, [r3, #56]
 913 0340 1846     		mov	r0, r3
 914 0342 FFF7FEFF 		bl	__aeabi_i2f
 915 0346 0246     		mov	r2, r0
 916 0348 7B68     		ldr	r3, [r7, #4]
 917 034a D3F88C30 		ldr	r3, [r3, #140]	@ float
 918 034e 1046     		mov	r0, r2
 919 0350 1946     		mov	r1, r3
 920 0352 FFF7FEFF 		bl	__aeabi_fmul
 921 0356 0346     		mov	r3, r0
 922 0358 1846     		mov	r0, r3
 923 035a FFF7FEFF 		bl	__aeabi_f2iz
 924 035e 0246     		mov	r2, r0
 925 0360 7B68     		ldr	r3, [r7, #4]
 926 0362 9A63     		str	r2, [r3, #56]
 298:.\motor_CTRL.c **** 			
 299:.\motor_CTRL.c **** 			(*paxis).mc.master_joy_sample_delta = (int32)((float)(*paxis).mc.master_joy_sample_delta * (*pax
 927              		.loc 1 299 0
 928 0364 7B68     		ldr	r3, [r7, #4]
 929 0366 1B6C     		ldr	r3, [r3, #64]
 930 0368 1846     		mov	r0, r3
 931 036a FFF7FEFF 		bl	__aeabi_i2f
 932 036e 0246     		mov	r2, r0
 933 0370 7B68     		ldr	r3, [r7, #4]
 934 0372 D3F88C30 		ldr	r3, [r3, #140]	@ float
 935 0376 1046     		mov	r0, r2
 936 0378 1946     		mov	r1, r3
 937 037a FFF7FEFF 		bl	__aeabi_fmul
 938 037e 0346     		mov	r3, r0
 939 0380 1846     		mov	r0, r3
 940 0382 FFF7FEFF 		bl	__aeabi_f2iz
 941 0386 0246     		mov	r2, r0
 942 0388 7B68     		ldr	r3, [r7, #4]
 943 038a 1A64     		str	r2, [r3, #64]
 944              	.L32:
 300:.\motor_CTRL.c **** 		}		
 301:.\motor_CTRL.c **** 	}	
 302:.\motor_CTRL.c **** 	
 303:.\motor_CTRL.c **** 
 304:.\motor_CTRL.c **** 	//////////////////////////////////////////////
ARM GAS  C:\Users\GRAZIA~1.RAV\AppData\Local\Temp\ccLYRwwS.s 			page 23


 305:.\motor_CTRL.c **** 	// MASTER ENCODER & JOYSTICK INTEGRATION	//
 306:.\motor_CTRL.c **** 	//////////////////////////////////////////////
 307:.\motor_CTRL.c **** 	(*paxis).mc.master_enc_position = (*paxis).mc.master_enc_position + (*paxis).mc.master_enc_sample_
 945              		.loc 1 307 0
 946 038c 7B68     		ldr	r3, [r7, #4]
 947 038e 5A6B     		ldr	r2, [r3, #52]
 948 0390 7B68     		ldr	r3, [r7, #4]
 949 0392 9B6B     		ldr	r3, [r3, #56]
 950 0394 D218     		adds	r2, r2, r3
 951 0396 7B68     		ldr	r3, [r7, #4]
 952 0398 5A63     		str	r2, [r3, #52]
 308:.\motor_CTRL.c **** 	(*paxis).mc.master_joy_position = (*paxis).mc.master_joy_position + (*paxis).mc.master_joy_sample_
 953              		.loc 1 308 0
 954 039a 7B68     		ldr	r3, [r7, #4]
 955 039c DA6B     		ldr	r2, [r3, #60]
 956 039e 7B68     		ldr	r3, [r7, #4]
 957 03a0 1B6C     		ldr	r3, [r3, #64]
 958 03a2 D218     		adds	r2, r2, r3
 959 03a4 7B68     		ldr	r3, [r7, #4]
 960 03a6 DA63     		str	r2, [r3, #60]
 309:.\motor_CTRL.c **** 
 310:.\motor_CTRL.c **** 	
 311:.\motor_CTRL.c **** 	/****************************************************************************/
 312:.\motor_CTRL.c **** 	/* If DEENERGIZE by Software (OR Hardware)									*/
 313:.\motor_CTRL.c **** 	/* then GALIL TRICK!!!														*/
 314:.\motor_CTRL.c **** 	/****************************************************************************/
 315:.\motor_CTRL.c **** 	if (machine_state == GOBEE_DEENERGIZED)
 961              		.loc 1 315 0
 962 03a8 40F20003 		movw	r3, #:lower16:machine_state
 963 03ac C0F20003 		movt	r3, #:upper16:machine_state
 964 03b0 1B78     		ldrb	r3, [r3, #0]	@ zero_extendqisi2
 965 03b2 062B     		cmp	r3, #6
 966 03b4 02D1     		bne	.L37
 316:.\motor_CTRL.c **** 	{
 317:.\motor_CTRL.c **** 		GalilTrick(paxis);
 967              		.loc 1 317 0
 968 03b6 7868     		ldr	r0, [r7, #4]
 969 03b8 FFF7FEFF 		bl	GalilTrick
 970              	.L37:
 318:.\motor_CTRL.c **** 	}	
 319:.\motor_CTRL.c **** 	
 320:.\motor_CTRL.c **** 	
 321:.\motor_CTRL.c **** 	/****************************************************************************/
 322:.\motor_CTRL.c **** 	/* e(t) Calculus										   					*/
 323:.\motor_CTRL.c **** 	/****************************************************************************/
 324:.\motor_CTRL.c **** 	(*paxis).mc.error = (float)((*paxis).mc.master_enc_position + (*paxis).mc.master_joy_position - (*
 971              		.loc 1 324 0
 972 03bc 7B68     		ldr	r3, [r7, #4]
 973 03be 5A6B     		ldr	r2, [r3, #52]
 974 03c0 7B68     		ldr	r3, [r7, #4]
 975 03c2 DB6B     		ldr	r3, [r3, #60]
 976 03c4 D218     		adds	r2, r2, r3
 977 03c6 7B68     		ldr	r3, [r7, #4]
 978 03c8 5B6C     		ldr	r3, [r3, #68]
 979 03ca D31A     		subs	r3, r2, r3
 980 03cc 1846     		mov	r0, r3
 981 03ce FFF7FEFF 		bl	__aeabi_i2f
ARM GAS  C:\Users\GRAZIA~1.RAV\AppData\Local\Temp\ccLYRwwS.s 			page 24


 982 03d2 0246     		mov	r2, r0
 983 03d4 7B68     		ldr	r3, [r7, #4]
 984 03d6 9A65     		str	r2, [r3, #88]	@ float
 325:.\motor_CTRL.c **** 		
 326:.\motor_CTRL.c **** 
 327:.\motor_CTRL.c **** 	/************************************************************************/
 328:.\motor_CTRL.c **** 	/* d/dt(error)  Calculus												*/
 329:.\motor_CTRL.c **** 	/*   d/dt(error) = error(t) - error(t-1)       							*/
 330:.\motor_CTRL.c **** 	/************************************************************************/	
 331:.\motor_CTRL.c **** 	(*paxis).mc.derror = (*paxis).mc.error - (*paxis).mc.error_bef;
 985              		.loc 1 331 0
 986 03d8 7B68     		ldr	r3, [r7, #4]
 987 03da 9A6D     		ldr	r2, [r3, #88]	@ float
 988 03dc 7B68     		ldr	r3, [r7, #4]
 989 03de DB6D     		ldr	r3, [r3, #92]	@ float
 990 03e0 1046     		mov	r0, r2
 991 03e2 1946     		mov	r1, r3
 992 03e4 FFF7FEFF 		bl	__aeabi_fsub
 993 03e8 0346     		mov	r3, r0
 994 03ea 1A46     		mov	r2, r3
 995 03ec 7B68     		ldr	r3, [r7, #4]
 996 03ee 5A66     		str	r2, [r3, #100]	@ float
 332:.\motor_CTRL.c **** 	(*paxis).mc.error_bef = (*paxis).mc.error;	
 997              		.loc 1 332 0
 998 03f0 7B68     		ldr	r3, [r7, #4]
 999 03f2 9A6D     		ldr	r2, [r3, #88]	@ float
 1000 03f4 7B68     		ldr	r3, [r7, #4]
 1001 03f6 DA65     		str	r2, [r3, #92]	@ float
 333:.\motor_CTRL.c **** 	
 334:.\motor_CTRL.c **** 	
 335:.\motor_CTRL.c **** #if ASTIM_CALC_INLOOP
 336:.\motor_CTRL.c **** 	/********************************************************************************************/
 337:.\motor_CTRL.c **** 	/* WARNING!!!: AUTOSTIM VELOCITY (CONTROLLER INPUT)   										*/
 338:.\motor_CTRL.c **** 	/********************************************************************************************/
 339:.\motor_CTRL.c **** 	/*																							*/
 340:.\motor_CTRL.c **** 	/*							          -----------------------	  -------    				*/
 341:.\motor_CTRL.c **** 	/*   (0..4V)  CTRL_IN [V] --> (+) --> |* 4096[lsb]*4[V]/5[V]| --> |*Kopf| --> Float_ASTIM	*/
 342:.\motor_CTRL.c **** 	/*							   ^       ----------------------	  -------					*/
 343:.\motor_CTRL.c **** 	/*							   |															*/
 344:.\motor_CTRL.c **** 	/* 							  410 (offset)													*/
 345:.\motor_CTRL.c **** 	/* 																							*/
 346:.\motor_CTRL.c **** 	/* 	 Float_ASTIM(t) --->(+)---> e(t)														*/
 347:.\motor_CTRL.c **** 	/*					     ^																	*/
 348:.\motor_CTRL.c **** 	/*					     |																	*/
 349:.\motor_CTRL.c **** 	/*				         |------ -(gyro feedback(t))										*/
 350:.\motor_CTRL.c **** 	/*																							*/
 351:.\motor_CTRL.c **** 	/*   (Float_ASTIM)peak = Vinpp[V] * 410[lsb/V] * Kopf										*/
 352:.\motor_CTRL.c **** 	/*																							*/
 353:.\motor_CTRL.c **** 	/********************************************************************************************/	
 354:.\motor_CTRL.c **** 	(*paxis).mc.Float_ASTIM = ((float)(AdcValue[CTRL_IN_ASTIM]) + ADC_ASTIM_ZERO_OFFSET) * (*paxis).pa
 1002              		.loc 1 354 0
 1003 03f8 40F20003 		movw	r3, #:lower16:AdcValue
 1004 03fc C0F20003 		movt	r3, #:upper16:AdcValue
 1005 0400 1B8A     		ldrh	r3, [r3, #16]
 1006 0402 1BB2     		sxth	r3, r3
 1007 0404 1846     		mov	r0, r3
 1008 0406 FFF7FEFF 		bl	__aeabi_i2f
ARM GAS  C:\Users\GRAZIA~1.RAV\AppData\Local\Temp\ccLYRwwS.s 			page 25


 1009 040a 0346     		mov	r3, r0
 1010 040c 1846     		mov	r0, r3
 1011 040e 4FF00001 		mov	r1, #0
 1012 0412 C4F2CD31 		movt	r1, 17357
 1013 0416 FFF7FEFF 		bl	__aeabi_fadd
 1014 041a 0346     		mov	r3, r0
 1015 041c 1A46     		mov	r2, r3
 1016 041e 7B68     		ldr	r3, [r7, #4]
 1017 0420 5B6A     		ldr	r3, [r3, #36]	@ float
 1018 0422 1046     		mov	r0, r2
 1019 0424 1946     		mov	r1, r3
 1020 0426 FFF7FEFF 		bl	__aeabi_fmul
 1021 042a 0346     		mov	r3, r0
 1022 042c 1A46     		mov	r2, r3
 1023 042e 7B68     		ldr	r3, [r7, #4]
 1024 0430 DA67     		str	r2, [r3, #124]	@ float
 355:.\motor_CTRL.c **** 
 356:.\motor_CTRL.c **** 	/* Sgancio Zero Cross dall'autostimolo */
 357:.\motor_CTRL.c **** 	if ((*paxis).vparam.astim_enable == ASTIM_DISABLED)									//ASTIM IS DISABLED
 1025              		.loc 1 357 0
 1026 0432 7B68     		ldr	r3, [r7, #4]
 1027 0434 1B78     		ldrb	r3, [r3, #0]	@ zero_extendqisi2
 1028 0436 002B     		cmp	r3, #0
 1029 0438 2FD1     		bne	.L38
 358:.\motor_CTRL.c **** 	{
 359:.\motor_CTRL.c **** 		if ((*paxis).mc.astim_ZCsync == ASTIM_ZC_SYNC_OK)
 1030              		.loc 1 359 0
 1031 043a 7B68     		ldr	r3, [r7, #4]
 1032 043c 93F88030 		ldrb	r3, [r3, #128]	@ zero_extendqisi2
 1033 0440 052B     		cmp	r3, #5
 1034 0442 6FD1     		bne	.L56
 360:.\motor_CTRL.c **** 		{
 361:.\motor_CTRL.c **** 			if (((*paxis).mc.Float_ASTIM >= 50) || ((*paxis).mc.Float_ASTIM <= -50))
 1035              		.loc 1 361 0
 1036 0444 7B68     		ldr	r3, [r7, #4]
 1037 0446 DB6F     		ldr	r3, [r3, #124]	@ float
 1038 0448 1846     		mov	r0, r3
 1039 044a 4FF00001 		mov	r1, #0
 1040 044e C4F24821 		movt	r1, 16968
 1041 0452 FFF7FEFF 		bl	__aeabi_fcmpge
 1042 0456 0346     		mov	r3, r0
 1043 0458 002B     		cmp	r3, #0
 1044 045a 0BD1     		bne	.L40
 1045              		.loc 1 361 0 is_stmt 0 discriminator 1
 1046 045c 7B68     		ldr	r3, [r7, #4]
 1047 045e DB6F     		ldr	r3, [r3, #124]	@ float
 1048 0460 1846     		mov	r0, r3
 1049 0462 4FF00001 		mov	r1, #0
 1050 0466 CCF24821 		movt	r1, 49736
 1051 046a FFF7FEFF 		bl	__aeabi_fcmple
 1052 046e 0346     		mov	r3, r0
 1053 0470 002B     		cmp	r3, #0
 1054 0472 0CD0     		beq	.L55
 1055              	.L40:
 362:.\motor_CTRL.c **** 			{
 363:.\motor_CTRL.c **** 				(*paxis).mc.error = (*paxis).mc.error + (*paxis).mc.Float_ASTIM;		/* Position Stimulus Input */
 1056              		.loc 1 363 0 is_stmt 1
ARM GAS  C:\Users\GRAZIA~1.RAV\AppData\Local\Temp\ccLYRwwS.s 			page 26


 1057 0474 7B68     		ldr	r3, [r7, #4]
 1058 0476 9A6D     		ldr	r2, [r3, #88]	@ float
 1059 0478 7B68     		ldr	r3, [r7, #4]
 1060 047a DB6F     		ldr	r3, [r3, #124]	@ float
 1061 047c 1046     		mov	r0, r2
 1062 047e 1946     		mov	r1, r3
 1063 0480 FFF7FEFF 		bl	__aeabi_fadd
 1064 0484 0346     		mov	r3, r0
 1065 0486 1A46     		mov	r2, r3
 1066 0488 7B68     		ldr	r3, [r7, #4]
 1067 048a 9A65     		str	r2, [r3, #88]	@ float
 1068 048c 4BE0     		b	.L43
 1069              	.L55:
 364:.\motor_CTRL.c **** 			}
 365:.\motor_CTRL.c **** 			else
 366:.\motor_CTRL.c **** 			{
 367:.\motor_CTRL.c **** 				(*paxis).mc.astim_ZCsync = ASTIM_ZC_SYNC_TODO;
 1070              		.loc 1 367 0
 1071 048e 7B68     		ldr	r3, [r7, #4]
 1072 0490 4FF00002 		mov	r2, #0
 1073 0494 83F88020 		strb	r2, [r3, #128]
 1074 0498 44E0     		b	.L56
 1075              	.L38:
 368:.\motor_CTRL.c **** 			}
 369:.\motor_CTRL.c **** 		}
 370:.\motor_CTRL.c **** 	}
 371:.\motor_CTRL.c **** 	else																				//ASTIM is enabled
 372:.\motor_CTRL.c **** 	{
 373:.\motor_CTRL.c **** 		/* Aggancio Zero Cross all'autostimolo (sine e tria) */
 374:.\motor_CTRL.c **** 		if (((*paxis).vparam.astim_type == SINE_ASTIM) || ((*paxis).vparam.astim_type == TRIANGLE_ASTIM))
 1076              		.loc 1 374 0
 1077 049a 7B68     		ldr	r3, [r7, #4]
 1078 049c 5B78     		ldrb	r3, [r3, #1]	@ zero_extendqisi2
 1079 049e 012B     		cmp	r3, #1
 1080 04a0 03D0     		beq	.L44
 1081              		.loc 1 374 0 is_stmt 0 discriminator 1
 1082 04a2 7B68     		ldr	r3, [r7, #4]
 1083 04a4 5B78     		ldrb	r3, [r3, #1]	@ zero_extendqisi2
 1084 04a6 022B     		cmp	r3, #2
 1085 04a8 2BD1     		bne	.L45
 1086              	.L44:
 375:.\motor_CTRL.c **** 		{
 376:.\motor_CTRL.c **** 			if ((((*paxis).mc.Float_ASTIM > 0) && ((*paxis).mc.Float_ASTIM <= 10)) || ((*paxis).mc.astim_ZCs
 1087              		.loc 1 376 0 is_stmt 1
 1088 04aa 7B68     		ldr	r3, [r7, #4]
 1089 04ac DB6F     		ldr	r3, [r3, #124]	@ float
 1090 04ae 1846     		mov	r0, r3
 1091 04b0 4FF00001 		mov	r1, #0
 1092 04b4 FFF7FEFF 		bl	__aeabi_fcmpgt
 1093 04b8 0346     		mov	r3, r0
 1094 04ba 002B     		cmp	r3, #0
 1095 04bc 0BD0     		beq	.L46
 1096              	.L54:
 1097              		.loc 1 376 0 is_stmt 0 discriminator 1
 1098 04be 7B68     		ldr	r3, [r7, #4]
 1099 04c0 DB6F     		ldr	r3, [r3, #124]	@ float
 1100 04c2 1846     		mov	r0, r3
ARM GAS  C:\Users\GRAZIA~1.RAV\AppData\Local\Temp\ccLYRwwS.s 			page 27


 1101 04c4 4FF00001 		mov	r1, #0
 1102 04c8 C4F22011 		movt	r1, 16672
 1103 04cc FFF7FEFF 		bl	__aeabi_fcmple
 1104 04d0 0346     		mov	r3, r0
 1105 04d2 002B     		cmp	r3, #0
 1106 04d4 04D1     		bne	.L48
 1107              	.L46:
 1108              		.loc 1 376 0 discriminator 2
 1109 04d6 7B68     		ldr	r3, [r7, #4]
 1110 04d8 93F88030 		ldrb	r3, [r3, #128]	@ zero_extendqisi2
 1111 04dc 052B     		cmp	r3, #5
 1112 04de 10D1     		bne	.L45
 1113              	.L48:
 377:.\motor_CTRL.c **** 			{
 378:.\motor_CTRL.c **** 				(*paxis).mc.error = (*paxis).mc.error + (*paxis).mc.Float_ASTIM;		/* Position Stimulus Input 		
 1114              		.loc 1 378 0 is_stmt 1
 1115 04e0 7B68     		ldr	r3, [r7, #4]
 1116 04e2 9A6D     		ldr	r2, [r3, #88]	@ float
 1117 04e4 7B68     		ldr	r3, [r7, #4]
 1118 04e6 DB6F     		ldr	r3, [r3, #124]	@ float
 1119 04e8 1046     		mov	r0, r2
 1120 04ea 1946     		mov	r1, r3
 1121 04ec FFF7FEFF 		bl	__aeabi_fadd
 1122 04f0 0346     		mov	r3, r0
 1123 04f2 1A46     		mov	r2, r3
 1124 04f4 7B68     		ldr	r3, [r7, #4]
 1125 04f6 9A65     		str	r2, [r3, #88]	@ float
 379:.\motor_CTRL.c **** 				(*paxis).mc.astim_ZCsync = ASTIM_ZC_SYNC_OK;
 1126              		.loc 1 379 0
 1127 04f8 7B68     		ldr	r3, [r7, #4]
 1128 04fa 4FF00502 		mov	r2, #5
 1129 04fe 83F88020 		strb	r2, [r3, #128]
 1130              	.L45:
 380:.\motor_CTRL.c **** 			}
 381:.\motor_CTRL.c **** 		}
 382:.\motor_CTRL.c **** 
 383:.\motor_CTRL.c **** 		/* Aggancio immediato all'autostimolo (square) */		
 384:.\motor_CTRL.c **** 		if ((*paxis).vparam.astim_type == SQUARE_ASTIM)
 1131              		.loc 1 384 0
 1132 0502 7B68     		ldr	r3, [r7, #4]
 1133 0504 5B78     		ldrb	r3, [r3, #1]	@ zero_extendqisi2
 1134 0506 032B     		cmp	r3, #3
 1135 0508 0DD1     		bne	.L43
 385:.\motor_CTRL.c **** 		{
 386:.\motor_CTRL.c **** 			(*paxis).mc.error = (*paxis).mc.error + (*paxis).mc.Float_ASTIM;			/* Position Stimulus Input 		
 1136              		.loc 1 386 0
 1137 050a 7B68     		ldr	r3, [r7, #4]
 1138 050c 9A6D     		ldr	r2, [r3, #88]	@ float
 1139 050e 7B68     		ldr	r3, [r7, #4]
 1140 0510 DB6F     		ldr	r3, [r3, #124]	@ float
 1141 0512 1046     		mov	r0, r2
 1142 0514 1946     		mov	r1, r3
 1143 0516 FFF7FEFF 		bl	__aeabi_fadd
 1144 051a 0346     		mov	r3, r0
 1145 051c 1A46     		mov	r2, r3
 1146 051e 7B68     		ldr	r3, [r7, #4]
 1147 0520 9A65     		str	r2, [r3, #88]	@ float
ARM GAS  C:\Users\GRAZIA~1.RAV\AppData\Local\Temp\ccLYRwwS.s 			page 28


 1148 0522 00E0     		b	.L43
 1149              	.L56:
 367:.\motor_CTRL.c **** 				(*paxis).mc.astim_ZCsync = ASTIM_ZC_SYNC_TODO;
 1150              		.loc 1 367 0
 1151 0524 00BF     		nop
 1152              	.L43:
 387:.\motor_CTRL.c **** 		}
 388:.\motor_CTRL.c **** 	}
 389:.\motor_CTRL.c **** #endif	
 390:.\motor_CTRL.c **** 
 391:.\motor_CTRL.c **** 	/****************************************************************************/
 392:.\motor_CTRL.c **** 	/* PID Calculus										   						*/
 393:.\motor_CTRL.c **** 	/* 	  cv(t) =   PID(e(t)) + Autostimulus									*/
 394:.\motor_CTRL.c **** 	/****************************************************************************/
 395:.\motor_CTRL.c **** 	/* cv(t) = SAT_cvS(Kp * e(t) + Kd * (e(t) - e(t-1)) + Ki * Ksi_Saturated(integral(e(t))) 	*/
 396:.\motor_CTRL.c **** 	/* 11 bit saturation --> cvS=MOTOR_PWM_PERIOD_HALF											*/	
 397:.\motor_CTRL.c **** 	(*paxis).mc.ctrl_var = fpSpid_k2(paxis, MOTOR_PWM_PERIOD_HALF);
 1153              		.loc 1 397 0
 1154 0526 7868     		ldr	r0, [r7, #4]
 1155 0528 4FF40071 		mov	r1, #512
 1156 052c FFF7FEFF 		bl	fpSpid_k2
 1157 0530 0246     		mov	r2, r0
 1158 0532 7B68     		ldr	r3, [r7, #4]
 1159 0534 1A67     		str	r2, [r3, #112]	@ float
 398:.\motor_CTRL.c **** 	
 399:.\motor_CTRL.c **** 	
 400:.\motor_CTRL.c **** 	/****************************************************************************/
 401:.\motor_CTRL.c **** 	/* CONTROL VAR PWM refreshing: BASED ON POLARITY							*/
 402:.\motor_CTRL.c **** 	/****************************************************************************/
 403:.\motor_CTRL.c **** 	if ((*paxis).param.polarity == 0)
 1160              		.loc 1 403 0
 1161 0536 7B68     		ldr	r3, [r7, #4]
 1162 0538 1B7C     		ldrb	r3, [r3, #16]	@ zero_extendqisi2
 1163 053a 002B     		cmp	r3, #0
 1164 053c 11D1     		bne	.L49
 404:.\motor_CTRL.c **** 	{
 405:.\motor_CTRL.c **** 		(*paxis).mc.pwm_var = (uint16)((*paxis).mc.ctrl_var + MOTOR_PWM_PERIOD_HALF);			
 1165              		.loc 1 405 0
 1166 053e 7B68     		ldr	r3, [r7, #4]
 1167 0540 1B6F     		ldr	r3, [r3, #112]	@ float
 1168 0542 1846     		mov	r0, r3
 1169 0544 4FF08841 		mov	r1, #1140850688
 1170 0548 FFF7FEFF 		bl	__aeabi_fadd
 1171 054c 0346     		mov	r3, r0
 1172 054e 1846     		mov	r0, r3
 1173 0550 FFF7FEFF 		bl	__aeabi_f2uiz
 1174 0554 0346     		mov	r3, r0
 1175 0556 9BB2     		uxth	r3, r3
 1176 0558 9AB2     		uxth	r2, r3
 1177 055a 7B68     		ldr	r3, [r7, #4]
 1178 055c A3F87420 		strh	r2, [r3, #116]	@ movhi
 1179 0560 10E0     		b	.L50
 1180              	.L49:
 406:.\motor_CTRL.c **** 	}
 407:.\motor_CTRL.c **** 	else
 408:.\motor_CTRL.c **** 	{			
 409:.\motor_CTRL.c **** 		(*paxis).mc.pwm_var = (uint16)(MOTOR_PWM_PERIOD_HALF - (*paxis).mc.ctrl_var);
ARM GAS  C:\Users\GRAZIA~1.RAV\AppData\Local\Temp\ccLYRwwS.s 			page 29


 1181              		.loc 1 409 0
 1182 0562 7B68     		ldr	r3, [r7, #4]
 1183 0564 1B6F     		ldr	r3, [r3, #112]	@ float
 1184 0566 4FF08840 		mov	r0, #1140850688
 1185 056a 1946     		mov	r1, r3
 1186 056c FFF7FEFF 		bl	__aeabi_fsub
 1187 0570 0346     		mov	r3, r0
 1188 0572 1846     		mov	r0, r3
 1189 0574 FFF7FEFF 		bl	__aeabi_f2uiz
 1190 0578 0346     		mov	r3, r0
 1191 057a 9BB2     		uxth	r3, r3
 1192 057c 9AB2     		uxth	r2, r3
 1193 057e 7B68     		ldr	r3, [r7, #4]
 1194 0580 A3F87420 		strh	r2, [r3, #116]	@ movhi
 1195              	.L50:
 410:.\motor_CTRL.c **** 	}
 411:.\motor_CTRL.c **** 	
 412:.\motor_CTRL.c **** 	
 413:.\motor_CTRL.c **** 	/****************************************************************************/
 414:.\motor_CTRL.c **** 	/* PWM MOTOR Output (11.5bit)												*/
 415:.\motor_CTRL.c **** 	/****************************************************************************/
 416:.\motor_CTRL.c **** 	if (paxis == &pan_axis)
 1196              		.loc 1 416 0
 1197 0584 7A68     		ldr	r2, [r7, #4]
 1198 0586 40F20003 		movw	r3, #:lower16:pan_axis
 1199 058a C0F20003 		movt	r3, #:upper16:pan_axis
 1200 058e 9A42     		cmp	r2, r3
 1201 0590 0AD1     		bne	.L51
 417:.\motor_CTRL.c **** 	{
 418:.\motor_CTRL.c **** 		PWM_MOTOR_PAN_WriteCompare((int16)pan_axis.mc.pwm_var);
 1202              		.loc 1 418 0
 1203 0592 40F20003 		movw	r3, #:lower16:pan_axis
 1204 0596 C0F20003 		movt	r3, #:upper16:pan_axis
 1205 059a B3F87430 		ldrh	r3, [r3, #116]
 1206 059e 9BB2     		uxth	r3, r3
 1207 05a0 1846     		mov	r0, r3
 1208 05a2 FFF7FEFF 		bl	PWM_MOTOR_PAN_WriteCompare
 1209 05a6 19E0     		b	.L25
 1210              	.L51:
 419:.\motor_CTRL.c **** 	}
 420:.\motor_CTRL.c ****     else if (paxis == &tilt_axis)
 1211              		.loc 1 420 0
 1212 05a8 7A68     		ldr	r2, [r7, #4]
 1213 05aa 40F20003 		movw	r3, #:lower16:tilt_axis
 1214 05ae C0F20003 		movt	r3, #:upper16:tilt_axis
 1215 05b2 9A42     		cmp	r2, r3
 1216 05b4 0AD1     		bne	.L53
 421:.\motor_CTRL.c **** 	{
 422:.\motor_CTRL.c **** 		PWM_MOTOR_TILT_WriteCompare((int16)tilt_axis.mc.pwm_var);
 1217              		.loc 1 422 0
 1218 05b6 40F20003 		movw	r3, #:lower16:tilt_axis
 1219 05ba C0F20003 		movt	r3, #:upper16:tilt_axis
 1220 05be B3F87430 		ldrh	r3, [r3, #116]
 1221 05c2 9BB2     		uxth	r3, r3
 1222 05c4 1846     		mov	r0, r3
 1223 05c6 FFF7FEFF 		bl	PWM_MOTOR_TILT_WriteCompare
 1224 05ca 07E0     		b	.L25
ARM GAS  C:\Users\GRAZIA~1.RAV\AppData\Local\Temp\ccLYRwwS.s 			page 30


 1225              	.L53:
 423:.\motor_CTRL.c **** 	}
 424:.\motor_CTRL.c **** 	else		/* Firmware Internal Error */
 425:.\motor_CTRL.c **** 	{
 426:.\motor_CTRL.c **** 		PWM_MOTOR_PAN_WriteCompare(MOTOR_PWM_PERIOD_HALF);
 1226              		.loc 1 426 0
 1227 05cc 4FF40070 		mov	r0, #512
 1228 05d0 FFF7FEFF 		bl	PWM_MOTOR_PAN_WriteCompare
 427:.\motor_CTRL.c **** 		PWM_MOTOR_TILT_WriteCompare(MOTOR_PWM_PERIOD_HALF);
 1229              		.loc 1 427 0
 1230 05d4 4FF40070 		mov	r0, #512
 1231 05d8 FFF7FEFF 		bl	PWM_MOTOR_TILT_WriteCompare
 1232              	.L25:
 428:.\motor_CTRL.c **** 	}			
 429:.\motor_CTRL.c **** }
 1233              		.loc 1 429 0
 1234 05dc 07F10C07 		add	r7, r7, #12
 1235 05e0 BD46     		mov	sp, r7
 1236 05e2 90BD     		pop	{r4, r7, pc}
 1237              		.cfi_endproc
 1238              	.LFE60:
 1239              		.size	motor_control, .-motor_control
 1240 05e4 AFF30080 		.section	.text.GalilTrick,"ax",%progbits
 1241              		.align	2
 1242              		.global	GalilTrick
 1243              		.thumb
 1244              		.thumb_func
 1245              		.type	GalilTrick, %function
 1246              	GalilTrick:
 1247              	.LFB61:
 430:.\motor_CTRL.c **** 	
 431:.\motor_CTRL.c **** 
 432:.\motor_CTRL.c **** /********************************************************************/
 433:.\motor_CTRL.c **** /* GALIL TRICK														*/
 434:.\motor_CTRL.c **** /********************************************************************/
 435:.\motor_CTRL.c **** void GalilTrick(struct MOTOR_AXIS *paxis)
 436:.\motor_CTRL.c **** 
 437:.\motor_CTRL.c **** {    /*------------------------------*/
 1248              		.loc 1 437 0
 1249              		.cfi_startproc
 1250              		@ args = 0, pretend = 0, frame = 8
 1251              		@ frame_needed = 1, uses_anonymous_args = 0
 1252 0000 80B5     		push	{r7, lr}
 1253              	.LCFI13:
 1254              		.cfi_def_cfa_offset 8
 1255              		.cfi_offset 7, -8
 1256              		.cfi_offset 14, -4
 1257 0002 82B0     		sub	sp, sp, #8
 1258              	.LCFI14:
 1259              		.cfi_def_cfa_offset 16
 1260 0004 00AF     		add	r7, sp, #0
 1261              	.LCFI15:
 1262              		.cfi_def_cfa_register 7
 1263 0006 7860     		str	r0, [r7, #4]
 438:.\motor_CTRL.c **** 	/* Clear all PID(t) RT Datas    */
 439:.\motor_CTRL.c ****     /*------------------------------*/
 440:.\motor_CTRL.c **** 	/* e(t) = 0, LPF(e(t)) = 0	    */
ARM GAS  C:\Users\GRAZIA~1.RAV\AppData\Local\Temp\ccLYRwwS.s 			page 31


 441:.\motor_CTRL.c **** 	/* e(t-1) = 0		   		    */
 442:.\motor_CTRL.c **** 	/* integral(e(t)) = 0  		    */
 443:.\motor_CTRL.c **** 	/* d/dt(e(t)), LPF(d/dt(e(t)))	*/
 444:.\motor_CTRL.c ****     /*------------------------------*/
 445:.\motor_CTRL.c **** 	PIDs_DataClear(paxis);
 1264              		.loc 1 445 0
 1265 0008 7868     		ldr	r0, [r7, #4]
 1266 000a FFF7FEFF 		bl	PIDs_DataClear
 446:.\motor_CTRL.c **** 	
 447:.\motor_CTRL.c **** 	if (paxis == &pan_axis)
 1267              		.loc 1 447 0
 1268 000e 7A68     		ldr	r2, [r7, #4]
 1269 0010 40F20003 		movw	r3, #:lower16:pan_axis
 1270 0014 C0F20003 		movt	r3, #:upper16:pan_axis
 1271 0018 9A42     		cmp	r2, r3
 1272 001a 1ED1     		bne	.L60
 448:.\motor_CTRL.c **** 	{
 449:.\motor_CTRL.c **** 		/* Azzera anche e(t+1) caricando nel registro di feedback slave(t)...                            
 450:.\motor_CTRL.c ****         /*-----------------------------------------------------------------------------------------
 451:.\motor_CTRL.c ****         /* slave(t) = master(t) - Gyro(t) + GYRO_MASTER_OFFSET(t)                                  
 452:.\motor_CTRL.c ****         /* e(t+1) = master(t+1) - slave(t) - Gyro(t) + GYRO_MASTER_OFFSET(t) = 0                   
 453:.\motor_CTRL.c **** //		QuadDec_PAN_SetCounter((int32)(pan_axis.mc.master_enc_steps_lowpass
 454:.\motor_CTRL.c **** //                                   - pan_axis.gyrodata.Gyro_FLOAT_lowpass
 455:.\motor_CTRL.c **** //                                   + pan_axis.gyrodata.GyroMOffset_FLOAT_lowpass)); //[steps]	
 456:.\motor_CTRL.c **** #if PAN_PSEUDOABS
 457:.\motor_CTRL.c **** #else
 458:.\motor_CTRL.c **** 		QuadDec_PAN_SetCounter(          (int32)(pan_axis.mc.master_enc_position + pan_axis.mc.master_joy
 1273              		.loc 1 458 0
 1274 001c 40F20003 		movw	r3, #:lower16:pan_axis
 1275 0020 C0F20003 		movt	r3, #:upper16:pan_axis
 1276 0024 5A6B     		ldr	r2, [r3, #52]
 1277 0026 40F20003 		movw	r3, #:lower16:pan_axis
 1278 002a C0F20003 		movt	r3, #:upper16:pan_axis
 1279 002e DB6B     		ldr	r3, [r3, #60]
 1280 0030 D318     		adds	r3, r2, r3
 1281 0032 1846     		mov	r0, r3
 1282 0034 FFF7FEFF 		bl	QuadDec_PAN_SetCounter
 459:.\motor_CTRL.c **** 		pan_axis.mc.slave_enc.position = (int32)(pan_axis.mc.master_enc_position + pan_axis.mc.master_joy
 1283              		.loc 1 459 0
 1284 0038 40F20003 		movw	r3, #:lower16:pan_axis
 1285 003c C0F20003 		movt	r3, #:upper16:pan_axis
 1286 0040 5A6B     		ldr	r2, [r3, #52]
 1287 0042 40F20003 		movw	r3, #:lower16:pan_axis
 1288 0046 C0F20003 		movt	r3, #:upper16:pan_axis
 1289 004a DB6B     		ldr	r3, [r3, #60]
 1290 004c D218     		adds	r2, r2, r3
 1291 004e 40F20003 		movw	r3, #:lower16:pan_axis
 1292 0052 C0F20003 		movt	r3, #:upper16:pan_axis
 1293 0056 5A64     		str	r2, [r3, #68]
 1294 0058 24E0     		b	.L59
 1295              	.L60:
 460:.\motor_CTRL.c **** #endif		
 461:.\motor_CTRL.c **** 	}
 462:.\motor_CTRL.c **** 	else if (paxis == &tilt_axis)
 1296              		.loc 1 462 0
 1297 005a 7A68     		ldr	r2, [r7, #4]
 1298 005c 40F20003 		movw	r3, #:lower16:tilt_axis
ARM GAS  C:\Users\GRAZIA~1.RAV\AppData\Local\Temp\ccLYRwwS.s 			page 32


 1299 0060 C0F20003 		movt	r3, #:upper16:tilt_axis
 1300 0064 9A42     		cmp	r2, r3
 1301 0066 1DD1     		bne	.L59
 463:.\motor_CTRL.c **** 	{
 464:.\motor_CTRL.c **** 		/* Azzera anche e(t+1) caricando nel registro di feedback slave(t)...                            
 465:.\motor_CTRL.c ****         /*-----------------------------------------------------------------------------------------
 466:.\motor_CTRL.c ****         /* slave(t) = master(t) - Gyro(t) + GYRO_MASTER_OFFSET(t)                                  
 467:.\motor_CTRL.c ****         /* e(t+1) = master(t+1) - slave(t) - Gyro(t) + GYRO_MASTER_OFFSET(t) = 0                   
 468:.\motor_CTRL.c **** //		QuadDec_TILT_SetCounter((int32)(tilt_axis.mc.master_enc_steps_lowpass
 469:.\motor_CTRL.c **** //                                   - tilt_axis.gyrodata.Gyro_FLOAT_lowpass
 470:.\motor_CTRL.c **** //                                   + tilt_axis.gyrodata.GyroMOffset_FLOAT_lowpass)); //[steps]	
 471:.\motor_CTRL.c **** 		QuadDec_TILT_SetCounter(          (int32)(tilt_axis.mc.master_enc_position + tilt_axis.mc.master_
 1302              		.loc 1 471 0
 1303 0068 40F20003 		movw	r3, #:lower16:tilt_axis
 1304 006c C0F20003 		movt	r3, #:upper16:tilt_axis
 1305 0070 5A6B     		ldr	r2, [r3, #52]
 1306 0072 40F20003 		movw	r3, #:lower16:tilt_axis
 1307 0076 C0F20003 		movt	r3, #:upper16:tilt_axis
 1308 007a DB6B     		ldr	r3, [r3, #60]
 1309 007c D318     		adds	r3, r2, r3
 1310 007e 1846     		mov	r0, r3
 1311 0080 FFF7FEFF 		bl	QuadDec_TILT_SetCounter
 472:.\motor_CTRL.c **** 		tilt_axis.mc.slave_enc.position = (int32)(tilt_axis.mc.master_enc_position + tilt_axis.mc.master_
 1312              		.loc 1 472 0
 1313 0084 40F20003 		movw	r3, #:lower16:tilt_axis
 1314 0088 C0F20003 		movt	r3, #:upper16:tilt_axis
 1315 008c 5A6B     		ldr	r2, [r3, #52]
 1316 008e 40F20003 		movw	r3, #:lower16:tilt_axis
 1317 0092 C0F20003 		movt	r3, #:upper16:tilt_axis
 1318 0096 DB6B     		ldr	r3, [r3, #60]
 1319 0098 D218     		adds	r2, r2, r3
 1320 009a 40F20003 		movw	r3, #:lower16:tilt_axis
 1321 009e C0F20003 		movt	r3, #:upper16:tilt_axis
 1322 00a2 5A64     		str	r2, [r3, #68]
 1323              	.L59:
 473:.\motor_CTRL.c **** 		
 474:.\motor_CTRL.c **** 	}	
 475:.\motor_CTRL.c **** }
 1324              		.loc 1 475 0
 1325 00a4 07F10807 		add	r7, r7, #8
 1326 00a8 BD46     		mov	sp, r7
 1327 00aa 80BD     		pop	{r7, pc}
 1328              		.cfi_endproc
 1329              	.LFE61:
 1330              		.size	GalilTrick, .-GalilTrick
 1331              		.section	.text.motor_init,"ax",%progbits
 1332              		.align	2
 1333              		.global	motor_init
 1334              		.thumb
 1335              		.thumb_func
 1336              		.type	motor_init, %function
 1337              	motor_init:
 1338              	.LFB62:
 476:.\motor_CTRL.c **** 
 477:.\motor_CTRL.c **** //////////////////////////////////////
 478:.\motor_CTRL.c **** //motors initialization function	//
 479:.\motor_CTRL.c **** //////////////////////////////////////
ARM GAS  C:\Users\GRAZIA~1.RAV\AppData\Local\Temp\ccLYRwwS.s 			page 33


 480:.\motor_CTRL.c **** void motor_init(struct MOTOR_AXIS *paxis)
 481:.\motor_CTRL.c **** {
 1339              		.loc 1 481 0
 1340              		.cfi_startproc
 1341              		@ args = 0, pretend = 0, frame = 8
 1342              		@ frame_needed = 1, uses_anonymous_args = 0
 1343 0000 80B5     		push	{r7, lr}
 1344              	.LCFI16:
 1345              		.cfi_def_cfa_offset 8
 1346              		.cfi_offset 7, -8
 1347              		.cfi_offset 14, -4
 1348 0002 82B0     		sub	sp, sp, #8
 1349              	.LCFI17:
 1350              		.cfi_def_cfa_offset 16
 1351 0004 00AF     		add	r7, sp, #0
 1352              	.LCFI18:
 1353              		.cfi_def_cfa_register 7
 1354 0006 7860     		str	r0, [r7, #4]
 482:.\motor_CTRL.c ****     /*------------------------------*/
 483:.\motor_CTRL.c **** 	/* Clear all PID(t) RT Datas    */
 484:.\motor_CTRL.c ****     /*------------------------------*/
 485:.\motor_CTRL.c **** 	/* e(t) = 0, LPF(e(t)) = 0	    */
 486:.\motor_CTRL.c **** 	/* e(t-1) = 0		   		    */
 487:.\motor_CTRL.c **** 	/* integral(e(t)) = 0  		    */
 488:.\motor_CTRL.c **** 	/* d/dt(e(t)), LPF(d/dt(e(t)))	*/
 489:.\motor_CTRL.c ****     /*------------------------------*/
 490:.\motor_CTRL.c **** 	PIDs_DataClear(paxis);
 1355              		.loc 1 490 0
 1356 0008 7868     		ldr	r0, [r7, #4]
 1357 000a FFF7FEFF 		bl	PIDs_DataClear
 491:.\motor_CTRL.c **** 	
 492:.\motor_CTRL.c **** 	//clears master integrated positions
 493:.\motor_CTRL.c **** 	(*paxis).mc.master_enc_position = 0;
 1358              		.loc 1 493 0
 1359 000e 7B68     		ldr	r3, [r7, #4]
 1360 0010 4FF00002 		mov	r2, #0
 1361 0014 5A63     		str	r2, [r3, #52]
 494:.\motor_CTRL.c **** 	(*paxis).mc.master_joy_position = 0;
 1362              		.loc 1 494 0
 1363 0016 7B68     		ldr	r3, [r7, #4]
 1364 0018 4FF00002 		mov	r2, #0
 1365 001c DA63     		str	r2, [r3, #60]
 495:.\motor_CTRL.c **** 	
 496:.\motor_CTRL.c **** 	//clears feedback encoders
 497:.\motor_CTRL.c **** 	if (paxis == &pan_axis)
 1366              		.loc 1 497 0
 1367 001e 7A68     		ldr	r2, [r7, #4]
 1368 0020 40F20003 		movw	r3, #:lower16:pan_axis
 1369 0024 C0F20003 		movt	r3, #:upper16:pan_axis
 1370 0028 9A42     		cmp	r2, r3
 1371 002a 04D1     		bne	.L63
 498:.\motor_CTRL.c **** 	{
 499:.\motor_CTRL.c **** 		QuadDec_PAN_SetCounter(0);
 1372              		.loc 1 499 0
 1373 002c 4FF00000 		mov	r0, #0
 1374 0030 FFF7FEFF 		bl	QuadDec_PAN_SetCounter
 1375 0034 0AE0     		b	.L62
ARM GAS  C:\Users\GRAZIA~1.RAV\AppData\Local\Temp\ccLYRwwS.s 			page 34


 1376              	.L63:
 500:.\motor_CTRL.c **** 	}
 501:.\motor_CTRL.c **** 	else if (paxis == &tilt_axis)
 1377              		.loc 1 501 0
 1378 0036 7A68     		ldr	r2, [r7, #4]
 1379 0038 40F20003 		movw	r3, #:lower16:tilt_axis
 1380 003c C0F20003 		movt	r3, #:upper16:tilt_axis
 1381 0040 9A42     		cmp	r2, r3
 1382 0042 03D1     		bne	.L62
 502:.\motor_CTRL.c **** 	{
 503:.\motor_CTRL.c **** 		QuadDec_TILT_SetCounter(0);
 1383              		.loc 1 503 0
 1384 0044 4FF00000 		mov	r0, #0
 1385 0048 FFF7FEFF 		bl	QuadDec_TILT_SetCounter
 1386              	.L62:
 504:.\motor_CTRL.c **** 	}
 505:.\motor_CTRL.c **** //	else if (paxis == &roll_axis)
 506:.\motor_CTRL.c **** //	{
 507:.\motor_CTRL.c **** //		QuadDec_ROLL_SetCounter(0);
 508:.\motor_CTRL.c **** //	}	
 509:.\motor_CTRL.c **** }
 1387              		.loc 1 509 0
 1388 004c 07F10807 		add	r7, r7, #8
 1389 0050 BD46     		mov	sp, r7
 1390 0052 80BD     		pop	{r7, pc}
 1391              		.cfi_endproc
 1392              	.LFE62:
 1393              		.size	motor_init, .-motor_init
 1394              		.section	.text.motor_energize,"ax",%progbits
 1395              		.align	2
 1396              		.global	motor_energize
 1397              		.thumb
 1398              		.thumb_func
 1399              		.type	motor_energize, %function
 1400              	motor_energize:
 1401              	.LFB63:
 510:.\motor_CTRL.c **** 
 511:.\motor_CTRL.c **** void motor_energize(struct MOTOR_AXIS *paxis)
 512:.\motor_CTRL.c **** {
 1402              		.loc 1 512 0
 1403              		.cfi_startproc
 1404              		@ args = 0, pretend = 0, frame = 8
 1405              		@ frame_needed = 1, uses_anonymous_args = 0
 1406 0000 80B5     		push	{r7, lr}
 1407              	.LCFI19:
 1408              		.cfi_def_cfa_offset 8
 1409              		.cfi_offset 7, -8
 1410              		.cfi_offset 14, -4
 1411 0002 82B0     		sub	sp, sp, #8
 1412              	.LCFI20:
 1413              		.cfi_def_cfa_offset 16
 1414 0004 00AF     		add	r7, sp, #0
 1415              	.LCFI21:
 1416              		.cfi_def_cfa_register 7
 1417 0006 7860     		str	r0, [r7, #4]
 513:.\motor_CTRL.c **** 	if ((paxis == &pan_axis) || (paxis == &tilt_axis))
 1418              		.loc 1 513 0
ARM GAS  C:\Users\GRAZIA~1.RAV\AppData\Local\Temp\ccLYRwwS.s 			page 35


 1419 0008 7A68     		ldr	r2, [r7, #4]
 1420 000a 40F20003 		movw	r3, #:lower16:pan_axis
 1421 000e C0F20003 		movt	r3, #:upper16:pan_axis
 1422 0012 9A42     		cmp	r2, r3
 1423 0014 06D0     		beq	.L66
 1424              		.loc 1 513 0 is_stmt 0 discriminator 1
 1425 0016 7A68     		ldr	r2, [r7, #4]
 1426 0018 40F20003 		movw	r3, #:lower16:tilt_axis
 1427 001c C0F20003 		movt	r3, #:upper16:tilt_axis
 1428 0020 9A42     		cmp	r2, r3
 1429 0022 03D1     		bne	.L65
 1430              	.L66:
 514:.\motor_CTRL.c **** 	{
 515:.\motor_CTRL.c **** 		Control_Reg_MOTOR_Write(0x01);
 1431              		.loc 1 515 0 is_stmt 1
 1432 0024 4FF00100 		mov	r0, #1
 1433 0028 FFF7FEFF 		bl	Control_Reg_MOTOR_Write
 1434              	.L65:
 516:.\motor_CTRL.c **** 	}
 517:.\motor_CTRL.c **** }
 1435              		.loc 1 517 0
 1436 002c 07F10807 		add	r7, r7, #8
 1437 0030 BD46     		mov	sp, r7
 1438 0032 80BD     		pop	{r7, pc}
 1439              		.cfi_endproc
 1440              	.LFE63:
 1441              		.size	motor_energize, .-motor_energize
 1442              		.section	.text.motor_sleep,"ax",%progbits
 1443              		.align	2
 1444              		.global	motor_sleep
 1445              		.thumb
 1446              		.thumb_func
 1447              		.type	motor_sleep, %function
 1448              	motor_sleep:
 1449              	.LFB64:
 518:.\motor_CTRL.c **** 
 519:.\motor_CTRL.c **** 
 520:.\motor_CTRL.c **** void motor_sleep(struct MOTOR_AXIS *paxis)
 521:.\motor_CTRL.c **** {
 1450              		.loc 1 521 0
 1451              		.cfi_startproc
 1452              		@ args = 0, pretend = 0, frame = 8
 1453              		@ frame_needed = 1, uses_anonymous_args = 0
 1454 0000 80B5     		push	{r7, lr}
 1455              	.LCFI22:
 1456              		.cfi_def_cfa_offset 8
 1457              		.cfi_offset 7, -8
 1458              		.cfi_offset 14, -4
 1459 0002 82B0     		sub	sp, sp, #8
 1460              	.LCFI23:
 1461              		.cfi_def_cfa_offset 16
 1462 0004 00AF     		add	r7, sp, #0
 1463              	.LCFI24:
 1464              		.cfi_def_cfa_register 7
 1465 0006 7860     		str	r0, [r7, #4]
 522:.\motor_CTRL.c **** 	if ((paxis == &pan_axis) || (paxis == &tilt_axis))
 1466              		.loc 1 522 0
ARM GAS  C:\Users\GRAZIA~1.RAV\AppData\Local\Temp\ccLYRwwS.s 			page 36


 1467 0008 7A68     		ldr	r2, [r7, #4]
 1468 000a 40F20003 		movw	r3, #:lower16:pan_axis
 1469 000e C0F20003 		movt	r3, #:upper16:pan_axis
 1470 0012 9A42     		cmp	r2, r3
 1471 0014 06D0     		beq	.L69
 1472              		.loc 1 522 0 is_stmt 0 discriminator 1
 1473 0016 7A68     		ldr	r2, [r7, #4]
 1474 0018 40F20003 		movw	r3, #:lower16:tilt_axis
 1475 001c C0F20003 		movt	r3, #:upper16:tilt_axis
 1476 0020 9A42     		cmp	r2, r3
 1477 0022 03D1     		bne	.L68
 1478              	.L69:
 523:.\motor_CTRL.c **** 	{
 524:.\motor_CTRL.c **** 		Control_Reg_MOTOR_Write(0x00);
 1479              		.loc 1 524 0 is_stmt 1
 1480 0024 4FF00000 		mov	r0, #0
 1481 0028 FFF7FEFF 		bl	Control_Reg_MOTOR_Write
 1482              	.L68:
 525:.\motor_CTRL.c **** 	}
 526:.\motor_CTRL.c **** }
 1483              		.loc 1 526 0
 1484 002c 07F10807 		add	r7, r7, #8
 1485 0030 BD46     		mov	sp, r7
 1486 0032 80BD     		pop	{r7, pc}
 1487              		.cfi_endproc
 1488              	.LFE64:
 1489              		.size	motor_sleep, .-motor_sleep
 1490              		.text
 1491              	.Letext0:
 1492              		.file 2 "c:\\program files (x86)\\cypress\\psoc creator\\3.0\\psoc creator\\import\\gnu_cs\\arm\\4
 1493              		.file 3 "./Generated_Source/PSoC5/cytypes.h"
 1494              		.file 4 "./gobee.h"
 1495              		.file 5 "./statistics.h"
 1496              		.file 6 "./mover.h"
 1497              		.file 7 "./Generated_Source/PSoC5/core_cm3.h"
 1498              		.section	.debug_info,"",%progbits
 1499              	.Ldebug_info0:
 1500 0000 990A0000 		.4byte	0xa99
 1501 0004 0200     		.2byte	0x2
 1502 0006 00000000 		.4byte	.Ldebug_abbrev0
 1503 000a 04       		.byte	0x4
 1504 000b 01       		.uleb128 0x1
 1505 000c 18070000 		.4byte	.LASF152
 1506 0010 01       		.byte	0x1
 1507 0011 3D030000 		.4byte	.LASF153
 1508 0015 DF050000 		.4byte	.LASF154
 1509 0019 00000000 		.4byte	.Ldebug_ranges0+0
 1510 001d 00000000 		.4byte	0
 1511 0021 00000000 		.4byte	0
 1512 0025 00000000 		.4byte	.Ldebug_line0
 1513 0029 02       		.uleb128 0x2
 1514 002a 01       		.byte	0x1
 1515 002b 06       		.byte	0x6
 1516 002c D1060000 		.4byte	.LASF0
 1517 0030 02       		.uleb128 0x2
 1518 0031 01       		.byte	0x1
 1519 0032 08       		.byte	0x8
ARM GAS  C:\Users\GRAZIA~1.RAV\AppData\Local\Temp\ccLYRwwS.s 			page 37


 1520 0033 5E060000 		.4byte	.LASF1
 1521 0037 02       		.uleb128 0x2
 1522 0038 02       		.byte	0x2
 1523 0039 05       		.byte	0x5
 1524 003a AC040000 		.4byte	.LASF2
 1525 003e 02       		.uleb128 0x2
 1526 003f 02       		.byte	0x2
 1527 0040 07       		.byte	0x7
 1528 0041 DD060000 		.4byte	.LASF3
 1529 0045 03       		.uleb128 0x3
 1530 0046 85050000 		.4byte	.LASF9
 1531 004a 02       		.byte	0x2
 1532 004b 4F       		.byte	0x4f
 1533 004c 50000000 		.4byte	0x50
 1534 0050 02       		.uleb128 0x2
 1535 0051 04       		.byte	0x4
 1536 0052 05       		.byte	0x5
 1537 0053 E1040000 		.4byte	.LASF4
 1538 0057 02       		.uleb128 0x2
 1539 0058 04       		.byte	0x4
 1540 0059 07       		.byte	0x7
 1541 005a 69050000 		.4byte	.LASF5
 1542 005e 02       		.uleb128 0x2
 1543 005f 08       		.byte	0x8
 1544 0060 05       		.byte	0x5
 1545 0061 5A030000 		.4byte	.LASF6
 1546 0065 02       		.uleb128 0x2
 1547 0066 08       		.byte	0x8
 1548 0067 07       		.byte	0x7
 1549 0068 83010000 		.4byte	.LASF7
 1550 006c 04       		.uleb128 0x4
 1551 006d 04       		.byte	0x4
 1552 006e 05       		.byte	0x5
 1553 006f 696E7400 		.ascii	"int\000"
 1554 0073 02       		.uleb128 0x2
 1555 0074 04       		.byte	0x4
 1556 0075 07       		.byte	0x7
 1557 0076 8E000000 		.4byte	.LASF8
 1558 007a 03       		.uleb128 0x3
 1559 007b 79070000 		.4byte	.LASF10
 1560 007f 03       		.byte	0x3
 1561 0080 5B       		.byte	0x5b
 1562 0081 30000000 		.4byte	0x30
 1563 0085 03       		.uleb128 0x3
 1564 0086 BD020000 		.4byte	.LASF11
 1565 008a 03       		.byte	0x3
 1566 008b 5C       		.byte	0x5c
 1567 008c 3E000000 		.4byte	0x3e
 1568 0090 03       		.uleb128 0x3
 1569 0091 E2030000 		.4byte	.LASF12
 1570 0095 03       		.byte	0x3
 1571 0096 5D       		.byte	0x5d
 1572 0097 57000000 		.4byte	0x57
 1573 009b 03       		.uleb128 0x3
 1574 009c B7000000 		.4byte	.LASF13
 1575 00a0 03       		.byte	0x3
 1576 00a1 5F       		.byte	0x5f
ARM GAS  C:\Users\GRAZIA~1.RAV\AppData\Local\Temp\ccLYRwwS.s 			page 38


 1577 00a2 37000000 		.4byte	0x37
 1578 00a6 03       		.uleb128 0x3
 1579 00a7 76010000 		.4byte	.LASF14
 1580 00ab 03       		.byte	0x3
 1581 00ac 60       		.byte	0x60
 1582 00ad 50000000 		.4byte	0x50
 1583 00b1 02       		.uleb128 0x2
 1584 00b2 04       		.byte	0x4
 1585 00b3 04       		.byte	0x4
 1586 00b4 70010000 		.4byte	.LASF15
 1587 00b8 02       		.uleb128 0x2
 1588 00b9 08       		.byte	0x8
 1589 00ba 04       		.byte	0x4
 1590 00bb 7F070000 		.4byte	.LASF16
 1591 00bf 03       		.uleb128 0x3
 1592 00c0 17030000 		.4byte	.LASF17
 1593 00c4 03       		.byte	0x3
 1594 00c5 6C       		.byte	0x6c
 1595 00c6 CA000000 		.4byte	0xca
 1596 00ca 02       		.uleb128 0x2
 1597 00cb 01       		.byte	0x1
 1598 00cc 08       		.byte	0x8
 1599 00cd B0020000 		.4byte	.LASF18
 1600 00d1 02       		.uleb128 0x2
 1601 00d2 04       		.byte	0x4
 1602 00d3 07       		.byte	0x7
 1603 00d4 60050000 		.4byte	.LASF19
 1604 00d8 05       		.uleb128 0x5
 1605 00d9 04       		.byte	0x4
 1606 00da 04       		.byte	0x4
 1607 00db 1B01     		.2byte	0x11b
 1608 00dd FA000000 		.4byte	0xfa
 1609 00e1 06       		.uleb128 0x6
 1610 00e2 5D040000 		.4byte	.LASF20
 1611 00e6 04       		.byte	0x4
 1612 00e7 1D01     		.2byte	0x11d
 1613 00e9 FA000000 		.4byte	0xfa
 1614 00ed 06       		.uleb128 0x6
 1615 00ee 59060000 		.4byte	.LASF21
 1616 00f2 04       		.byte	0x4
 1617 00f3 1E01     		.2byte	0x11e
 1618 00f5 B1000000 		.4byte	0xb1
 1619 00f9 00       		.byte	0
 1620 00fa 07       		.uleb128 0x7
 1621 00fb BF000000 		.4byte	0xbf
 1622 00ff 0A010000 		.4byte	0x10a
 1623 0103 08       		.uleb128 0x8
 1624 0104 D1000000 		.4byte	0xd1
 1625 0108 03       		.byte	0x3
 1626 0109 00       		.byte	0
 1627 010a 09       		.uleb128 0x9
 1628 010b 55040000 		.4byte	.LASF22
 1629 010f 04       		.byte	0x4
 1630 0110 1F01     		.2byte	0x11f
 1631 0112 D8000000 		.4byte	0xd8
 1632 0116 0A       		.uleb128 0xa
 1633 0117 01030000 		.4byte	.LASF23
ARM GAS  C:\Users\GRAZIA~1.RAV\AppData\Local\Temp\ccLYRwwS.s 			page 39


 1634 011b 04       		.byte	0x4
 1635 011c 04       		.byte	0x4
 1636 011d A001     		.2byte	0x1a0
 1637 011f 33010000 		.4byte	0x133
 1638 0123 0B       		.uleb128 0xb
 1639 0124 E9020000 		.4byte	.LASF25
 1640 0128 04       		.byte	0x4
 1641 0129 A201     		.2byte	0x1a2
 1642 012b A6000000 		.4byte	0xa6
 1643 012f 02       		.byte	0x2
 1644 0130 23       		.byte	0x23
 1645 0131 00       		.uleb128 0
 1646 0132 00       		.byte	0
 1647 0133 0A       		.uleb128 0xa
 1648 0134 94070000 		.4byte	.LASF24
 1649 0138 14       		.byte	0x14
 1650 0139 04       		.byte	0x4
 1651 013a 9901     		.2byte	0x199
 1652 013c 8C010000 		.4byte	0x18c
 1653 0140 0B       		.uleb128 0xb
 1654 0141 CD070000 		.4byte	.LASF26
 1655 0145 04       		.byte	0x4
 1656 0146 9B01     		.2byte	0x19b
 1657 0148 A6000000 		.4byte	0xa6
 1658 014c 02       		.byte	0x2
 1659 014d 23       		.byte	0x23
 1660 014e 00       		.uleb128 0
 1661 014f 0B       		.uleb128 0xb
 1662 0150 49050000 		.4byte	.LASF27
 1663 0154 04       		.byte	0x4
 1664 0155 9C01     		.2byte	0x19c
 1665 0157 B1000000 		.4byte	0xb1
 1666 015b 02       		.byte	0x2
 1667 015c 23       		.byte	0x23
 1668 015d 04       		.uleb128 0x4
 1669 015e 0B       		.uleb128 0xb
 1670 015f 63040000 		.4byte	.LASF28
 1671 0163 04       		.byte	0x4
 1672 0164 9D01     		.2byte	0x19d
 1673 0166 B1000000 		.4byte	0xb1
 1674 016a 02       		.byte	0x2
 1675 016b 23       		.byte	0x23
 1676 016c 08       		.uleb128 0x8
 1677 016d 0B       		.uleb128 0xb
 1678 016e CC010000 		.4byte	.LASF29
 1679 0172 04       		.byte	0x4
 1680 0173 9E01     		.2byte	0x19e
 1681 0175 B1000000 		.4byte	0xb1
 1682 0179 02       		.byte	0x2
 1683 017a 23       		.byte	0x23
 1684 017b 0C       		.uleb128 0xc
 1685 017c 0B       		.uleb128 0xb
 1686 017d 87030000 		.4byte	.LASF30
 1687 0181 04       		.byte	0x4
 1688 0182 A601     		.2byte	0x1a6
 1689 0184 16010000 		.4byte	0x116
 1690 0188 02       		.byte	0x2
ARM GAS  C:\Users\GRAZIA~1.RAV\AppData\Local\Temp\ccLYRwwS.s 			page 40


 1691 0189 23       		.byte	0x23
 1692 018a 10       		.uleb128 0x10
 1693 018b 00       		.byte	0
 1694 018c 0A       		.uleb128 0xa
 1695 018d B9030000 		.4byte	.LASF31
 1696 0191 10       		.byte	0x10
 1697 0192 04       		.byte	0x4
 1698 0193 BF01     		.2byte	0x1bf
 1699 0195 F4010000 		.4byte	0x1f4
 1700 0199 0B       		.uleb128 0xb
 1701 019a C3050000 		.4byte	.LASF32
 1702 019e 04       		.byte	0x4
 1703 019f C101     		.2byte	0x1c1
 1704 01a1 7A000000 		.4byte	0x7a
 1705 01a5 02       		.byte	0x2
 1706 01a6 23       		.byte	0x23
 1707 01a7 00       		.uleb128 0
 1708 01a8 0B       		.uleb128 0xb
 1709 01a9 56010000 		.4byte	.LASF33
 1710 01ad 04       		.byte	0x4
 1711 01ae C201     		.2byte	0x1c2
 1712 01b0 9B000000 		.4byte	0x9b
 1713 01b4 02       		.byte	0x2
 1714 01b5 23       		.byte	0x23
 1715 01b6 02       		.uleb128 0x2
 1716 01b7 0B       		.uleb128 0xb
 1717 01b8 2D010000 		.4byte	.LASF34
 1718 01bc 04       		.byte	0x4
 1719 01bd C301     		.2byte	0x1c3
 1720 01bf 9B000000 		.4byte	0x9b
 1721 01c3 02       		.byte	0x2
 1722 01c4 23       		.byte	0x23
 1723 01c5 04       		.uleb128 0x4
 1724 01c6 0B       		.uleb128 0xb
 1725 01c7 7E040000 		.4byte	.LASF35
 1726 01cb 04       		.byte	0x4
 1727 01cc C401     		.2byte	0x1c4
 1728 01ce 9B000000 		.4byte	0x9b
 1729 01d2 02       		.byte	0x2
 1730 01d3 23       		.byte	0x23
 1731 01d4 06       		.uleb128 0x6
 1732 01d5 0B       		.uleb128 0xb
 1733 01d6 A8060000 		.4byte	.LASF36
 1734 01da 04       		.byte	0x4
 1735 01db C501     		.2byte	0x1c5
 1736 01dd 9B000000 		.4byte	0x9b
 1737 01e1 02       		.byte	0x2
 1738 01e2 23       		.byte	0x23
 1739 01e3 08       		.uleb128 0x8
 1740 01e4 0B       		.uleb128 0xb
 1741 01e5 57000000 		.4byte	.LASF37
 1742 01e9 04       		.byte	0x4
 1743 01ea C601     		.2byte	0x1c6
 1744 01ec 0A010000 		.4byte	0x10a
 1745 01f0 02       		.byte	0x2
 1746 01f1 23       		.byte	0x23
 1747 01f2 0C       		.uleb128 0xc
ARM GAS  C:\Users\GRAZIA~1.RAV\AppData\Local\Temp\ccLYRwwS.s 			page 41


 1748 01f3 00       		.byte	0
 1749 01f4 0A       		.uleb128 0xa
 1750 01f5 D4030000 		.4byte	.LASF38
 1751 01f9 3C       		.byte	0x3c
 1752 01fa 04       		.byte	0x4
 1753 01fb AB01     		.2byte	0x1ab
 1754 01fd B6020000 		.4byte	0x2b6
 1755 0201 0C       		.uleb128 0xc
 1756 0202 72617700 		.ascii	"raw\000"
 1757 0206 04       		.byte	0x4
 1758 0207 AE01     		.2byte	0x1ae
 1759 0209 9B000000 		.4byte	0x9b
 1760 020d 02       		.byte	0x2
 1761 020e 23       		.byte	0x23
 1762 020f 00       		.uleb128 0
 1763 0210 0B       		.uleb128 0xb
 1764 0211 CD070000 		.4byte	.LASF26
 1765 0215 04       		.byte	0x4
 1766 0216 B101     		.2byte	0x1b1
 1767 0218 B1000000 		.4byte	0xb1
 1768 021c 02       		.byte	0x2
 1769 021d 23       		.byte	0x23
 1770 021e 04       		.uleb128 0x4
 1771 021f 0B       		.uleb128 0xb
 1772 0220 49050000 		.4byte	.LASF27
 1773 0224 04       		.byte	0x4
 1774 0225 B201     		.2byte	0x1b2
 1775 0227 B1000000 		.4byte	0xb1
 1776 022b 02       		.byte	0x2
 1777 022c 23       		.byte	0x23
 1778 022d 08       		.uleb128 0x8
 1779 022e 0B       		.uleb128 0xb
 1780 022f 63040000 		.4byte	.LASF28
 1781 0233 04       		.byte	0x4
 1782 0234 B301     		.2byte	0x1b3
 1783 0236 B1000000 		.4byte	0xb1
 1784 023a 02       		.byte	0x2
 1785 023b 23       		.byte	0x23
 1786 023c 0C       		.uleb128 0xc
 1787 023d 0B       		.uleb128 0xb
 1788 023e BD060000 		.4byte	.LASF39
 1789 0242 04       		.byte	0x4
 1790 0243 B401     		.2byte	0x1b4
 1791 0245 B1000000 		.4byte	0xb1
 1792 0249 02       		.byte	0x2
 1793 024a 23       		.byte	0x23
 1794 024b 10       		.uleb128 0x10
 1795 024c 0B       		.uleb128 0xb
 1796 024d CC010000 		.4byte	.LASF29
 1797 0251 04       		.byte	0x4
 1798 0252 B501     		.2byte	0x1b5
 1799 0254 B1000000 		.4byte	0xb1
 1800 0258 02       		.byte	0x2
 1801 0259 23       		.byte	0x23
 1802 025a 14       		.uleb128 0x14
 1803 025b 0B       		.uleb128 0xb
 1804 025c 17010000 		.4byte	.LASF40
ARM GAS  C:\Users\GRAZIA~1.RAV\AppData\Local\Temp\ccLYRwwS.s 			page 42


 1805 0260 04       		.byte	0x4
 1806 0261 B801     		.2byte	0x1b8
 1807 0263 A6000000 		.4byte	0xa6
 1808 0267 02       		.byte	0x2
 1809 0268 23       		.byte	0x23
 1810 0269 18       		.uleb128 0x18
 1811 026a 0B       		.uleb128 0xb
 1812 026b 2D020000 		.4byte	.LASF41
 1813 026f 04       		.byte	0x4
 1814 0270 B901     		.2byte	0x1b9
 1815 0272 A6000000 		.4byte	0xa6
 1816 0276 02       		.byte	0x2
 1817 0277 23       		.byte	0x23
 1818 0278 1C       		.uleb128 0x1c
 1819 0279 0B       		.uleb128 0xb
 1820 027a 2B050000 		.4byte	.LASF42
 1821 027e 04       		.byte	0x4
 1822 027f BA01     		.2byte	0x1ba
 1823 0281 B1000000 		.4byte	0xb1
 1824 0285 02       		.byte	0x2
 1825 0286 23       		.byte	0x23
 1826 0287 20       		.uleb128 0x20
 1827 0288 0B       		.uleb128 0xb
 1828 0289 35050000 		.4byte	.LASF43
 1829 028d 04       		.byte	0x4
 1830 028e BB01     		.2byte	0x1bb
 1831 0290 B1000000 		.4byte	0xb1
 1832 0294 02       		.byte	0x2
 1833 0295 23       		.byte	0x23
 1834 0296 24       		.uleb128 0x24
 1835 0297 0B       		.uleb128 0xb
 1836 0298 4B040000 		.4byte	.LASF44
 1837 029c 04       		.byte	0x4
 1838 029d BC01     		.2byte	0x1bc
 1839 029f B1000000 		.4byte	0xb1
 1840 02a3 02       		.byte	0x2
 1841 02a4 23       		.byte	0x23
 1842 02a5 28       		.uleb128 0x28
 1843 02a6 0B       		.uleb128 0xb
 1844 02a7 87030000 		.4byte	.LASF30
 1845 02ab 04       		.byte	0x4
 1846 02ac C701     		.2byte	0x1c7
 1847 02ae 8C010000 		.4byte	0x18c
 1848 02b2 02       		.byte	0x2
 1849 02b3 23       		.byte	0x23
 1850 02b4 2C       		.uleb128 0x2c
 1851 02b5 00       		.byte	0
 1852 02b6 0A       		.uleb128 0xa
 1853 02b7 4C030000 		.4byte	.LASF45
 1854 02bb 0C       		.byte	0xc
 1855 02bc 04       		.byte	0x4
 1856 02bd EE01     		.2byte	0x1ee
 1857 02bf 00030000 		.4byte	0x300
 1858 02c3 0B       		.uleb128 0xb
 1859 02c4 B5010000 		.4byte	.LASF46
 1860 02c8 04       		.byte	0x4
 1861 02c9 F001     		.2byte	0x1f0
ARM GAS  C:\Users\GRAZIA~1.RAV\AppData\Local\Temp\ccLYRwwS.s 			page 43


 1862 02cb 7A000000 		.4byte	0x7a
 1863 02cf 02       		.byte	0x2
 1864 02d0 23       		.byte	0x23
 1865 02d1 00       		.uleb128 0
 1866 02d2 0B       		.uleb128 0xb
 1867 02d3 5F010000 		.4byte	.LASF47
 1868 02d7 04       		.byte	0x4
 1869 02d8 F401     		.2byte	0x1f4
 1870 02da 7A000000 		.4byte	0x7a
 1871 02de 02       		.byte	0x2
 1872 02df 23       		.byte	0x23
 1873 02e0 01       		.uleb128 0x1
 1874 02e1 0B       		.uleb128 0xb
 1875 02e2 17050000 		.4byte	.LASF48
 1876 02e6 04       		.byte	0x4
 1877 02e7 FA01     		.2byte	0x1fa
 1878 02e9 B1000000 		.4byte	0xb1
 1879 02ed 02       		.byte	0x2
 1880 02ee 23       		.byte	0x23
 1881 02ef 04       		.uleb128 0x4
 1882 02f0 0B       		.uleb128 0xb
 1883 02f1 6B000000 		.4byte	.LASF49
 1884 02f5 04       		.byte	0x4
 1885 02f6 FB01     		.2byte	0x1fb
 1886 02f8 B1000000 		.4byte	0xb1
 1887 02fc 02       		.byte	0x2
 1888 02fd 23       		.byte	0x23
 1889 02fe 08       		.uleb128 0x8
 1890 02ff 00       		.byte	0
 1891 0300 0A       		.uleb128 0xa
 1892 0301 68030000 		.4byte	.LASF50
 1893 0305 28       		.byte	0x28
 1894 0306 04       		.byte	0x4
 1895 0307 0002     		.2byte	0x200
 1896 0309 B3030000 		.4byte	0x3b3
 1897 030d 0B       		.uleb128 0xb
 1898 030e E9020000 		.4byte	.LASF25
 1899 0312 04       		.byte	0x4
 1900 0313 0202     		.2byte	0x202
 1901 0315 0A010000 		.4byte	0x10a
 1902 0319 02       		.byte	0x2
 1903 031a 23       		.byte	0x23
 1904 031b 00       		.uleb128 0
 1905 031c 0B       		.uleb128 0xb
 1906 031d F7040000 		.4byte	.LASF51
 1907 0321 04       		.byte	0x4
 1908 0322 0802     		.2byte	0x208
 1909 0324 7A000000 		.4byte	0x7a
 1910 0328 02       		.byte	0x2
 1911 0329 23       		.byte	0x23
 1912 032a 04       		.uleb128 0x4
 1913 032b 0C       		.uleb128 0xc
 1914 032c 4B706600 		.ascii	"Kpf\000"
 1915 0330 04       		.byte	0x4
 1916 0331 0C02     		.2byte	0x20c
 1917 0333 0A010000 		.4byte	0x10a
 1918 0337 02       		.byte	0x2
ARM GAS  C:\Users\GRAZIA~1.RAV\AppData\Local\Temp\ccLYRwwS.s 			page 44


 1919 0338 23       		.byte	0x23
 1920 0339 08       		.uleb128 0x8
 1921 033a 0C       		.uleb128 0xc
 1922 033b 4B646600 		.ascii	"Kdf\000"
 1923 033f 04       		.byte	0x4
 1924 0340 0E02     		.2byte	0x20e
 1925 0342 0A010000 		.4byte	0x10a
 1926 0346 02       		.byte	0x2
 1927 0347 23       		.byte	0x23
 1928 0348 0C       		.uleb128 0xc
 1929 0349 0C       		.uleb128 0xc
 1930 034a 4B696600 		.ascii	"Kif\000"
 1931 034e 04       		.byte	0x4
 1932 034f 1002     		.2byte	0x210
 1933 0351 0A010000 		.4byte	0x10a
 1934 0355 02       		.byte	0x2
 1935 0356 23       		.byte	0x23
 1936 0357 10       		.uleb128 0x10
 1937 0358 0B       		.uleb128 0xb
 1938 0359 CD020000 		.4byte	.LASF52
 1939 035d 04       		.byte	0x4
 1940 035e 1202     		.2byte	0x212
 1941 0360 0A010000 		.4byte	0x10a
 1942 0364 02       		.byte	0x2
 1943 0365 23       		.byte	0x23
 1944 0366 14       		.uleb128 0x14
 1945 0367 0B       		.uleb128 0xb
 1946 0368 17020000 		.4byte	.LASF53
 1947 036c 04       		.byte	0x4
 1948 036d 1602     		.2byte	0x216
 1949 036f 0A010000 		.4byte	0x10a
 1950 0373 02       		.byte	0x2
 1951 0374 23       		.byte	0x23
 1952 0375 18       		.uleb128 0x18
 1953 0376 0B       		.uleb128 0xb
 1954 0377 02020000 		.4byte	.LASF54
 1955 037b 04       		.byte	0x4
 1956 037c 1802     		.2byte	0x218
 1957 037e 0A010000 		.4byte	0x10a
 1958 0382 02       		.byte	0x2
 1959 0383 23       		.byte	0x23
 1960 0384 1C       		.uleb128 0x1c
 1961 0385 0B       		.uleb128 0xb
 1962 0386 11050000 		.4byte	.LASF55
 1963 038a 04       		.byte	0x4
 1964 038b 1A02     		.2byte	0x21a
 1965 038d 7A000000 		.4byte	0x7a
 1966 0391 02       		.byte	0x2
 1967 0392 23       		.byte	0x23
 1968 0393 20       		.uleb128 0x20
 1969 0394 0B       		.uleb128 0xb
 1970 0395 86070000 		.4byte	.LASF56
 1971 0399 04       		.byte	0x4
 1972 039a 1E02     		.2byte	0x21e
 1973 039c 7A000000 		.4byte	0x7a
 1974 03a0 02       		.byte	0x2
 1975 03a1 23       		.byte	0x23
ARM GAS  C:\Users\GRAZIA~1.RAV\AppData\Local\Temp\ccLYRwwS.s 			page 45


 1976 03a2 21       		.uleb128 0x21
 1977 03a3 0B       		.uleb128 0xb
 1978 03a4 9A050000 		.4byte	.LASF57
 1979 03a8 04       		.byte	0x4
 1980 03a9 2202     		.2byte	0x222
 1981 03ab 0A010000 		.4byte	0x10a
 1982 03af 02       		.byte	0x2
 1983 03b0 23       		.byte	0x23
 1984 03b1 24       		.uleb128 0x24
 1985 03b2 00       		.byte	0
 1986 03b3 0A       		.uleb128 0xa
 1987 03b4 B5020000 		.4byte	.LASF58
 1988 03b8 50       		.byte	0x50
 1989 03b9 04       		.byte	0x4
 1990 03ba 2802     		.2byte	0x228
 1991 03bc C0040000 		.4byte	0x4c0
 1992 03c0 0B       		.uleb128 0xb
 1993 03c1 8D030000 		.4byte	.LASF59
 1994 03c5 04       		.byte	0x4
 1995 03c6 2A02     		.2byte	0x22a
 1996 03c8 A6000000 		.4byte	0xa6
 1997 03cc 02       		.byte	0x2
 1998 03cd 23       		.byte	0x23
 1999 03ce 00       		.uleb128 0
 2000 03cf 0B       		.uleb128 0xb
 2001 03d0 DD010000 		.4byte	.LASF60
 2002 03d4 04       		.byte	0x4
 2003 03d5 2B02     		.2byte	0x22b
 2004 03d7 A6000000 		.4byte	0xa6
 2005 03db 02       		.byte	0x2
 2006 03dc 23       		.byte	0x23
 2007 03dd 04       		.uleb128 0x4
 2008 03de 0B       		.uleb128 0xb
 2009 03df 63020000 		.4byte	.LASF61
 2010 03e3 04       		.byte	0x4
 2011 03e4 3002     		.2byte	0x230
 2012 03e6 A6000000 		.4byte	0xa6
 2013 03ea 02       		.byte	0x2
 2014 03eb 23       		.byte	0x23
 2015 03ec 08       		.uleb128 0x8
 2016 03ed 0B       		.uleb128 0xb
 2017 03ee E6000000 		.4byte	.LASF62
 2018 03f2 04       		.byte	0x4
 2019 03f3 3102     		.2byte	0x231
 2020 03f5 A6000000 		.4byte	0xa6
 2021 03f9 02       		.byte	0x2
 2022 03fa 23       		.byte	0x23
 2023 03fb 0C       		.uleb128 0xc
 2024 03fc 0B       		.uleb128 0xb
 2025 03fd 7B050000 		.4byte	.LASF63
 2026 0401 04       		.byte	0x4
 2027 0402 3602     		.2byte	0x236
 2028 0404 33010000 		.4byte	0x133
 2029 0408 02       		.byte	0x2
 2030 0409 23       		.byte	0x23
 2031 040a 10       		.uleb128 0x10
 2032 040b 0B       		.uleb128 0xb
ARM GAS  C:\Users\GRAZIA~1.RAV\AppData\Local\Temp\ccLYRwwS.s 			page 46


 2033 040c 11010000 		.4byte	.LASF64
 2034 0410 04       		.byte	0x4
 2035 0411 3802     		.2byte	0x238
 2036 0413 B1000000 		.4byte	0xb1
 2037 0417 02       		.byte	0x2
 2038 0418 23       		.byte	0x23
 2039 0419 24       		.uleb128 0x24
 2040 041a 0B       		.uleb128 0xb
 2041 041b 7D060000 		.4byte	.LASF65
 2042 041f 04       		.byte	0x4
 2043 0420 3902     		.2byte	0x239
 2044 0422 B1000000 		.4byte	0xb1
 2045 0426 02       		.byte	0x2
 2046 0427 23       		.byte	0x23
 2047 0428 28       		.uleb128 0x28
 2048 0429 0B       		.uleb128 0xb
 2049 042a 7C010000 		.4byte	.LASF66
 2050 042e 04       		.byte	0x4
 2051 042f 3A02     		.2byte	0x23a
 2052 0431 B1000000 		.4byte	0xb1
 2053 0435 02       		.byte	0x2
 2054 0436 23       		.byte	0x23
 2055 0437 2C       		.uleb128 0x2c
 2056 0438 0B       		.uleb128 0xb
 2057 0439 9A010000 		.4byte	.LASF67
 2058 043d 04       		.byte	0x4
 2059 043e 3B02     		.2byte	0x23b
 2060 0440 B1000000 		.4byte	0xb1
 2061 0444 02       		.byte	0x2
 2062 0445 23       		.byte	0x23
 2063 0446 30       		.uleb128 0x30
 2064 0447 0B       		.uleb128 0xb
 2065 0448 FE000000 		.4byte	.LASF68
 2066 044c 04       		.byte	0x4
 2067 044d 3C02     		.2byte	0x23c
 2068 044f B1000000 		.4byte	0xb1
 2069 0453 02       		.byte	0x2
 2070 0454 23       		.byte	0x23
 2071 0455 34       		.uleb128 0x34
 2072 0456 0B       		.uleb128 0xb
 2073 0457 B6040000 		.4byte	.LASF69
 2074 045b 04       		.byte	0x4
 2075 045c 3D02     		.2byte	0x23d
 2076 045e B1000000 		.4byte	0xb1
 2077 0462 02       		.byte	0x2
 2078 0463 23       		.byte	0x23
 2079 0464 38       		.uleb128 0x38
 2080 0465 0B       		.uleb128 0xb
 2081 0466 E9030000 		.4byte	.LASF70
 2082 046a 04       		.byte	0x4
 2083 046b 3F02     		.2byte	0x23f
 2084 046d B1000000 		.4byte	0xb1
 2085 0471 02       		.byte	0x2
 2086 0472 23       		.byte	0x23
 2087 0473 3C       		.uleb128 0x3c
 2088 0474 0B       		.uleb128 0xb
 2089 0475 D4000000 		.4byte	.LASF71
ARM GAS  C:\Users\GRAZIA~1.RAV\AppData\Local\Temp\ccLYRwwS.s 			page 47


 2090 0479 04       		.byte	0x4
 2091 047a 4002     		.2byte	0x240
 2092 047c 9B000000 		.4byte	0x9b
 2093 0480 02       		.byte	0x2
 2094 0481 23       		.byte	0x23
 2095 0482 40       		.uleb128 0x40
 2096 0483 0B       		.uleb128 0xb
 2097 0484 C6040000 		.4byte	.LASF72
 2098 0488 04       		.byte	0x4
 2099 0489 4102     		.2byte	0x241
 2100 048b 9B000000 		.4byte	0x9b
 2101 048f 02       		.byte	0x2
 2102 0490 23       		.byte	0x23
 2103 0491 42       		.uleb128 0x42
 2104 0492 0B       		.uleb128 0xb
 2105 0493 69070000 		.4byte	.LASF73
 2106 0497 04       		.byte	0x4
 2107 0498 4302     		.2byte	0x243
 2108 049a B1000000 		.4byte	0xb1
 2109 049e 02       		.byte	0x2
 2110 049f 23       		.byte	0x23
 2111 04a0 44       		.uleb128 0x44
 2112 04a1 0B       		.uleb128 0xb
 2113 04a2 4B000000 		.4byte	.LASF74
 2114 04a6 04       		.byte	0x4
 2115 04a7 4502     		.2byte	0x245
 2116 04a9 B1000000 		.4byte	0xb1
 2117 04ad 02       		.byte	0x2
 2118 04ae 23       		.byte	0x23
 2119 04af 48       		.uleb128 0x48
 2120 04b0 0B       		.uleb128 0xb
 2121 04b1 F5010000 		.4byte	.LASF75
 2122 04b5 04       		.byte	0x4
 2123 04b6 4602     		.2byte	0x246
 2124 04b8 7A000000 		.4byte	0x7a
 2125 04bc 02       		.byte	0x2
 2126 04bd 23       		.byte	0x23
 2127 04be 4C       		.uleb128 0x4c
 2128 04bf 00       		.byte	0
 2129 04c0 0A       		.uleb128 0xa
 2130 04c1 49010000 		.4byte	.LASF76
 2131 04c5 0C       		.byte	0xc
 2132 04c6 04       		.byte	0x4
 2133 04c7 4A02     		.2byte	0x24a
 2134 04c9 FB040000 		.4byte	0x4fb
 2135 04cd 0B       		.uleb128 0xb
 2136 04ce FA020000 		.4byte	.LASF77
 2137 04d2 04       		.byte	0x4
 2138 04d3 4C02     		.2byte	0x24c
 2139 04d5 7A000000 		.4byte	0x7a
 2140 04d9 02       		.byte	0x2
 2141 04da 23       		.byte	0x23
 2142 04db 00       		.uleb128 0
 2143 04dc 0B       		.uleb128 0xb
 2144 04dd 07000000 		.4byte	.LASF78
 2145 04e1 04       		.byte	0x4
 2146 04e2 4D02     		.2byte	0x24d
ARM GAS  C:\Users\GRAZIA~1.RAV\AppData\Local\Temp\ccLYRwwS.s 			page 48


 2147 04e4 B1000000 		.4byte	0xb1
 2148 04e8 02       		.byte	0x2
 2149 04e9 23       		.byte	0x23
 2150 04ea 04       		.uleb128 0x4
 2151 04eb 0B       		.uleb128 0xb
 2152 04ec A6070000 		.4byte	.LASF79
 2153 04f0 04       		.byte	0x4
 2154 04f1 4E02     		.2byte	0x24e
 2155 04f3 B1000000 		.4byte	0xb1
 2156 04f7 02       		.byte	0x2
 2157 04f8 23       		.byte	0x23
 2158 04f9 08       		.uleb128 0x8
 2159 04fa 00       		.byte	0
 2160 04fb 0A       		.uleb128 0xa
 2161 04fc 10040000 		.4byte	.LASF80
 2162 0500 90       		.byte	0x90
 2163 0501 04       		.byte	0x4
 2164 0502 EB01     		.2byte	0x1eb
 2165 0504 44050000 		.4byte	0x544
 2166 0508 0B       		.uleb128 0xb
 2167 0509 B2030000 		.4byte	.LASF81
 2168 050d 04       		.byte	0x4
 2169 050e FD01     		.2byte	0x1fd
 2170 0510 B6020000 		.4byte	0x2b6
 2171 0514 02       		.byte	0x2
 2172 0515 23       		.byte	0x23
 2173 0516 00       		.uleb128 0
 2174 0517 0B       		.uleb128 0xb
 2175 0518 87030000 		.4byte	.LASF30
 2176 051c 04       		.byte	0x4
 2177 051d 2402     		.2byte	0x224
 2178 051f 00030000 		.4byte	0x300
 2179 0523 02       		.byte	0x2
 2180 0524 23       		.byte	0x23
 2181 0525 0C       		.uleb128 0xc
 2182 0526 0C       		.uleb128 0xc
 2183 0527 6D6300   		.ascii	"mc\000"
 2184 052a 04       		.byte	0x4
 2185 052b 4702     		.2byte	0x247
 2186 052d B3030000 		.4byte	0x3b3
 2187 0531 02       		.byte	0x2
 2188 0532 23       		.byte	0x23
 2189 0533 34       		.uleb128 0x34
 2190 0534 0C       		.uleb128 0xc
 2191 0535 6C6300   		.ascii	"lc\000"
 2192 0538 04       		.byte	0x4
 2193 0539 4F02     		.2byte	0x24f
 2194 053b C0040000 		.4byte	0x4c0
 2195 053f 03       		.byte	0x3
 2196 0540 23       		.byte	0x23
 2197 0541 8401     		.uleb128 0x84
 2198 0543 00       		.byte	0
 2199 0544 02       		.uleb128 0x2
 2200 0545 08       		.byte	0x8
 2201 0546 04       		.byte	0x4
 2202 0547 2E040000 		.4byte	.LASF82
 2203 054b 0D       		.uleb128 0xd
ARM GAS  C:\Users\GRAZIA~1.RAV\AppData\Local\Temp\ccLYRwwS.s 			page 49


 2204 054c A1040000 		.4byte	.LASF83
 2205 0550 30       		.byte	0x30
 2206 0551 05       		.byte	0x5
 2207 0552 18       		.byte	0x18
 2208 0553 FF050000 		.4byte	0x5ff
 2209 0557 0E       		.uleb128 0xe
 2210 0558 54030000 		.4byte	.LASF84
 2211 055c 05       		.byte	0x5
 2212 055d 1A       		.byte	0x1a
 2213 055e 7A000000 		.4byte	0x7a
 2214 0562 02       		.byte	0x2
 2215 0563 23       		.byte	0x23
 2216 0564 00       		.uleb128 0
 2217 0565 0E       		.uleb128 0xe
 2218 0566 C8070000 		.4byte	.LASF85
 2219 056a 05       		.byte	0x5
 2220 056b 1C       		.byte	0x1c
 2221 056c B1000000 		.4byte	0xb1
 2222 0570 02       		.byte	0x2
 2223 0571 23       		.byte	0x23
 2224 0572 04       		.uleb128 0x4
 2225 0573 0E       		.uleb128 0xe
 2226 0574 D1050000 		.4byte	.LASF86
 2227 0578 05       		.byte	0x5
 2228 0579 1D       		.byte	0x1d
 2229 057a B1000000 		.4byte	0xb1
 2230 057e 02       		.byte	0x2
 2231 057f 23       		.byte	0x23
 2232 0580 08       		.uleb128 0x8
 2233 0581 0F       		.uleb128 0xf
 2234 0582 6D696E00 		.ascii	"min\000"
 2235 0586 05       		.byte	0x5
 2236 0587 1E       		.byte	0x1e
 2237 0588 B1000000 		.4byte	0xb1
 2238 058c 02       		.byte	0x2
 2239 058d 23       		.byte	0x23
 2240 058e 0C       		.uleb128 0xc
 2241 058f 0F       		.uleb128 0xf
 2242 0590 6D617800 		.ascii	"max\000"
 2243 0594 05       		.byte	0x5
 2244 0595 1F       		.byte	0x1f
 2245 0596 B1000000 		.4byte	0xb1
 2246 059a 02       		.byte	0x2
 2247 059b 23       		.byte	0x23
 2248 059c 10       		.uleb128 0x10
 2249 059d 0E       		.uleb128 0xe
 2250 059e CE030000 		.4byte	.LASF87
 2251 05a2 05       		.byte	0x5
 2252 05a3 20       		.byte	0x20
 2253 05a4 B1000000 		.4byte	0xb1
 2254 05a8 02       		.byte	0x2
 2255 05a9 23       		.byte	0x23
 2256 05aa 14       		.uleb128 0x14
 2257 05ab 0E       		.uleb128 0xe
 2258 05ac 80030000 		.4byte	.LASF88
 2259 05b0 05       		.byte	0x5
 2260 05b1 21       		.byte	0x21
ARM GAS  C:\Users\GRAZIA~1.RAV\AppData\Local\Temp\ccLYRwwS.s 			page 50


 2261 05b2 B1000000 		.4byte	0xb1
 2262 05b6 02       		.byte	0x2
 2263 05b7 23       		.byte	0x23
 2264 05b8 18       		.uleb128 0x18
 2265 05b9 0F       		.uleb128 0xf
 2266 05ba 516B00   		.ascii	"Qk\000"
 2267 05bd 05       		.byte	0x5
 2268 05be 22       		.byte	0x22
 2269 05bf B1000000 		.4byte	0xb1
 2270 05c3 02       		.byte	0x2
 2271 05c4 23       		.byte	0x23
 2272 05c5 1C       		.uleb128 0x1c
 2273 05c6 0E       		.uleb128 0xe
 2274 05c7 C8000000 		.4byte	.LASF89
 2275 05cb 05       		.byte	0x5
 2276 05cc 23       		.byte	0x23
 2277 05cd B1000000 		.4byte	0xb1
 2278 05d1 02       		.byte	0x2
 2279 05d2 23       		.byte	0x23
 2280 05d3 20       		.uleb128 0x20
 2281 05d4 0E       		.uleb128 0xe
 2282 05d5 42000000 		.4byte	.LASF90
 2283 05d9 05       		.byte	0x5
 2284 05da 24       		.byte	0x24
 2285 05db B1000000 		.4byte	0xb1
 2286 05df 02       		.byte	0x2
 2287 05e0 23       		.byte	0x23
 2288 05e1 24       		.uleb128 0x24
 2289 05e2 0E       		.uleb128 0xe
 2290 05e3 A9000000 		.4byte	.LASF91
 2291 05e7 05       		.byte	0x5
 2292 05e8 26       		.byte	0x26
 2293 05e9 90000000 		.4byte	0x90
 2294 05ed 02       		.byte	0x2
 2295 05ee 23       		.byte	0x23
 2296 05ef 28       		.uleb128 0x28
 2297 05f0 0E       		.uleb128 0xe
 2298 05f1 46040000 		.4byte	.LASF92
 2299 05f5 05       		.byte	0x5
 2300 05f6 28       		.byte	0x28
 2301 05f7 90000000 		.4byte	0x90
 2302 05fb 02       		.byte	0x2
 2303 05fc 23       		.byte	0x23
 2304 05fd 2C       		.uleb128 0x2c
 2305 05fe 00       		.byte	0
 2306 05ff 0D       		.uleb128 0xd
 2307 0600 7F000000 		.4byte	.LASF93
 2308 0604 14       		.byte	0x14
 2309 0605 06       		.byte	0x6
 2310 0606 41       		.byte	0x41
 2311 0607 52060000 		.4byte	0x652
 2312 060b 0E       		.uleb128 0xe
 2313 060c 00000000 		.4byte	.LASF94
 2314 0610 06       		.byte	0x6
 2315 0611 43       		.byte	0x43
 2316 0612 0A010000 		.4byte	0x10a
 2317 0616 02       		.byte	0x2
ARM GAS  C:\Users\GRAZIA~1.RAV\AppData\Local\Temp\ccLYRwwS.s 			page 51


 2318 0617 23       		.byte	0x23
 2319 0618 00       		.uleb128 0
 2320 0619 0E       		.uleb128 0xe
 2321 061a A1060000 		.4byte	.LASF95
 2322 061e 06       		.byte	0x6
 2323 061f 45       		.byte	0x45
 2324 0620 0A010000 		.4byte	0x10a
 2325 0624 02       		.byte	0x2
 2326 0625 23       		.byte	0x23
 2327 0626 04       		.uleb128 0x4
 2328 0627 0E       		.uleb128 0xe
 2329 0628 85000000 		.4byte	.LASF96
 2330 062c 06       		.byte	0x6
 2331 062d 47       		.byte	0x47
 2332 062e 0A010000 		.4byte	0x10a
 2333 0632 02       		.byte	0x2
 2334 0633 23       		.byte	0x23
 2335 0634 08       		.uleb128 0x8
 2336 0635 0E       		.uleb128 0xe
 2337 0636 6A010000 		.4byte	.LASF97
 2338 063a 06       		.byte	0x6
 2339 063b 49       		.byte	0x49
 2340 063c A6000000 		.4byte	0xa6
 2341 0640 02       		.byte	0x2
 2342 0641 23       		.byte	0x23
 2343 0642 0C       		.uleb128 0xc
 2344 0643 0E       		.uleb128 0xe
 2345 0644 38020000 		.4byte	.LASF98
 2346 0648 06       		.byte	0x6
 2347 0649 4B       		.byte	0x4b
 2348 064a 7A000000 		.4byte	0x7a
 2349 064e 02       		.byte	0x2
 2350 064f 23       		.byte	0x23
 2351 0650 10       		.uleb128 0x10
 2352 0651 00       		.byte	0
 2353 0652 0D       		.uleb128 0xd
 2354 0653 61070000 		.4byte	.LASF99
 2355 0657 50       		.byte	0x50
 2356 0658 06       		.byte	0x6
 2357 0659 50       		.byte	0x50
 2358 065a 15070000 		.4byte	0x715
 2359 065e 0E       		.uleb128 0xe
 2360 065f DC000000 		.4byte	.LASF100
 2361 0663 06       		.byte	0x6
 2362 0664 52       		.byte	0x52
 2363 0665 B8000000 		.4byte	0xb8
 2364 0669 02       		.byte	0x2
 2365 066a 23       		.byte	0x23
 2366 066b 00       		.uleb128 0
 2367 066c 0E       		.uleb128 0xe
 2368 066d 24040000 		.4byte	.LASF101
 2369 0671 06       		.byte	0x6
 2370 0672 53       		.byte	0x53
 2371 0673 B8000000 		.4byte	0xb8
 2372 0677 02       		.byte	0x2
 2373 0678 23       		.byte	0x23
 2374 0679 08       		.uleb128 0x8
ARM GAS  C:\Users\GRAZIA~1.RAV\AppData\Local\Temp\ccLYRwwS.s 			page 52


 2375 067a 0E       		.uleb128 0xe
 2376 067b 8D050000 		.4byte	.LASF102
 2377 067f 06       		.byte	0x6
 2378 0680 54       		.byte	0x54
 2379 0681 B8000000 		.4byte	0xb8
 2380 0685 02       		.byte	0x2
 2381 0686 23       		.byte	0x23
 2382 0687 10       		.uleb128 0x10
 2383 0688 0E       		.uleb128 0xe
 2384 0689 87060000 		.4byte	.LASF103
 2385 068d 06       		.byte	0x6
 2386 068e 56       		.byte	0x56
 2387 068f A6000000 		.4byte	0xa6
 2388 0693 02       		.byte	0x2
 2389 0694 23       		.byte	0x23
 2390 0695 18       		.uleb128 0x18
 2391 0696 0E       		.uleb128 0xe
 2392 0697 1C020000 		.4byte	.LASF104
 2393 069b 06       		.byte	0x6
 2394 069c 57       		.byte	0x57
 2395 069d A6000000 		.4byte	0xa6
 2396 06a1 02       		.byte	0x2
 2397 06a2 23       		.byte	0x23
 2398 06a3 1C       		.uleb128 0x1c
 2399 06a4 0E       		.uleb128 0xe
 2400 06a5 B4050000 		.4byte	.LASF105
 2401 06a9 06       		.byte	0x6
 2402 06aa 58       		.byte	0x58
 2403 06ab A6000000 		.4byte	0xa6
 2404 06af 02       		.byte	0x2
 2405 06b0 23       		.byte	0x23
 2406 06b1 20       		.uleb128 0x20
 2407 06b2 0E       		.uleb128 0xe
 2408 06b3 52050000 		.4byte	.LASF106
 2409 06b7 06       		.byte	0x6
 2410 06b8 5A       		.byte	0x5a
 2411 06b9 A6000000 		.4byte	0xa6
 2412 06bd 02       		.byte	0x2
 2413 06be 23       		.byte	0x23
 2414 06bf 24       		.uleb128 0x24
 2415 06c0 0E       		.uleb128 0xe
 2416 06c1 3A040000 		.4byte	.LASF107
 2417 06c5 06       		.byte	0x6
 2418 06c6 5B       		.byte	0x5b
 2419 06c7 A6000000 		.4byte	0xa6
 2420 06cb 02       		.byte	0x2
 2421 06cc 23       		.byte	0x23
 2422 06cd 28       		.uleb128 0x28
 2423 06ce 0E       		.uleb128 0xe
 2424 06cf 0F030000 		.4byte	.LASF108
 2425 06d3 06       		.byte	0x6
 2426 06d4 5D       		.byte	0x5d
 2427 06d5 B8000000 		.4byte	0xb8
 2428 06d9 02       		.byte	0x2
 2429 06da 23       		.byte	0x23
 2430 06db 30       		.uleb128 0x30
 2431 06dc 0E       		.uleb128 0xe
ARM GAS  C:\Users\GRAZIA~1.RAV\AppData\Local\Temp\ccLYRwwS.s 			page 53


 2432 06dd 9C070000 		.4byte	.LASF109
 2433 06e1 06       		.byte	0x6
 2434 06e2 5E       		.byte	0x5e
 2435 06e3 B8000000 		.4byte	0xb8
 2436 06e7 02       		.byte	0x2
 2437 06e8 23       		.byte	0x23
 2438 06e9 38       		.uleb128 0x38
 2439 06ea 0E       		.uleb128 0xe
 2440 06eb 71070000 		.4byte	.LASF110
 2441 06ef 06       		.byte	0x6
 2442 06f0 5F       		.byte	0x5f
 2443 06f1 B8000000 		.4byte	0xb8
 2444 06f5 02       		.byte	0x2
 2445 06f6 23       		.byte	0x23
 2446 06f7 40       		.uleb128 0x40
 2447 06f8 0E       		.uleb128 0xe
 2448 06f9 C2010000 		.4byte	.LASF111
 2449 06fd 06       		.byte	0x6
 2450 06fe 61       		.byte	0x61
 2451 06ff B1000000 		.4byte	0xb1
 2452 0703 02       		.byte	0x2
 2453 0704 23       		.byte	0x23
 2454 0705 48       		.uleb128 0x48
 2455 0706 0E       		.uleb128 0xe
 2456 0707 3F050000 		.4byte	.LASF112
 2457 070b 06       		.byte	0x6
 2458 070c 62       		.byte	0x62
 2459 070d B1000000 		.4byte	0xb1
 2460 0711 02       		.byte	0x2
 2461 0712 23       		.byte	0x23
 2462 0713 4C       		.uleb128 0x4c
 2463 0714 00       		.byte	0
 2464 0715 0D       		.uleb128 0xd
 2465 0716 07050000 		.4byte	.LASF113
 2466 071a 68       		.byte	0x68
 2467 071b 06       		.byte	0x6
 2468 071c 3E       		.byte	0x3e
 2469 071d 3E070000 		.4byte	0x73e
 2470 0721 0E       		.uleb128 0xe
 2471 0722 87030000 		.4byte	.LASF30
 2472 0726 06       		.byte	0x6
 2473 0727 4D       		.byte	0x4d
 2474 0728 FF050000 		.4byte	0x5ff
 2475 072c 02       		.byte	0x2
 2476 072d 23       		.byte	0x23
 2477 072e 00       		.uleb128 0
 2478 072f 0E       		.uleb128 0xe
 2479 0730 A1030000 		.4byte	.LASF114
 2480 0734 06       		.byte	0x6
 2481 0735 64       		.byte	0x64
 2482 0736 52060000 		.4byte	0x652
 2483 073a 02       		.byte	0x2
 2484 073b 23       		.byte	0x23
 2485 073c 18       		.uleb128 0x18
 2486 073d 00       		.byte	0
 2487 073e 0D       		.uleb128 0xd
 2488 073f F4020000 		.4byte	.LASF115
ARM GAS  C:\Users\GRAZIA~1.RAV\AppData\Local\Temp\ccLYRwwS.s 			page 54


 2489 0743 01       		.byte	0x1
 2490 0744 06       		.byte	0x6
 2491 0745 6C       		.byte	0x6c
 2492 0746 59070000 		.4byte	0x759
 2493 074a 0E       		.uleb128 0xe
 2494 074b 6C060000 		.4byte	.LASF116
 2495 074f 06       		.byte	0x6
 2496 0750 6E       		.byte	0x6e
 2497 0751 7A000000 		.4byte	0x7a
 2498 0755 02       		.byte	0x2
 2499 0756 23       		.byte	0x23
 2500 0757 00       		.uleb128 0
 2501 0758 00       		.byte	0
 2502 0759 10       		.uleb128 0x10
 2503 075a F002     		.2byte	0x2f0
 2504 075c 06       		.byte	0x6
 2505 075d 69       		.byte	0x69
 2506 075e AC070000 		.4byte	0x7ac
 2507 0762 0E       		.uleb128 0xe
 2508 0763 87030000 		.4byte	.LASF30
 2509 0767 06       		.byte	0x6
 2510 0768 6F       		.byte	0x6f
 2511 0769 3E070000 		.4byte	0x73e
 2512 076d 02       		.byte	0x2
 2513 076e 23       		.byte	0x23
 2514 076f 00       		.uleb128 0
 2515 0770 0E       		.uleb128 0xe
 2516 0771 4F060000 		.4byte	.LASF117
 2517 0775 06       		.byte	0x6
 2518 0776 71       		.byte	0x71
 2519 0777 AC070000 		.4byte	0x7ac
 2520 077b 02       		.byte	0x2
 2521 077c 23       		.byte	0x23
 2522 077d 08       		.uleb128 0x8
 2523 077e 0E       		.uleb128 0xe
 2524 077f AA020000 		.4byte	.LASF118
 2525 0783 06       		.byte	0x6
 2526 0784 73       		.byte	0x73
 2527 0785 A6000000 		.4byte	0xa6
 2528 0789 03       		.byte	0x3
 2529 078a 23       		.byte	0x23
 2530 078b E005     		.uleb128 0x2e0
 2531 078d 0E       		.uleb128 0xe
 2532 078e F2030000 		.4byte	.LASF119
 2533 0792 06       		.byte	0x6
 2534 0793 74       		.byte	0x74
 2535 0794 A6000000 		.4byte	0xa6
 2536 0798 03       		.byte	0x3
 2537 0799 23       		.byte	0x23
 2538 079a E405     		.uleb128 0x2e4
 2539 079c 0E       		.uleb128 0xe
 2540 079d 33000000 		.4byte	.LASF120
 2541 07a1 06       		.byte	0x6
 2542 07a2 76       		.byte	0x76
 2543 07a3 A6000000 		.4byte	0xa6
 2544 07a7 03       		.byte	0x3
 2545 07a8 23       		.byte	0x23
ARM GAS  C:\Users\GRAZIA~1.RAV\AppData\Local\Temp\ccLYRwwS.s 			page 55


 2546 07a9 E805     		.uleb128 0x2e8
 2547 07ab 00       		.byte	0
 2548 07ac 07       		.uleb128 0x7
 2549 07ad 15070000 		.4byte	0x715
 2550 07b1 BC070000 		.4byte	0x7bc
 2551 07b5 08       		.uleb128 0x8
 2552 07b6 D1000000 		.4byte	0xd1
 2553 07ba 06       		.byte	0x6
 2554 07bb 00       		.byte	0
 2555 07bc 03       		.uleb128 0x3
 2556 07bd C7060000 		.4byte	.LASF121
 2557 07c1 06       		.byte	0x6
 2558 07c2 77       		.byte	0x77
 2559 07c3 59070000 		.4byte	0x759
 2560 07c7 11       		.uleb128 0x11
 2561 07c8 30       		.byte	0x30
 2562 07c9 06       		.byte	0x6
 2563 07ca 7B       		.byte	0x7b
 2564 07cb 4E080000 		.4byte	0x84e
 2565 07cf 0E       		.uleb128 0xe
 2566 07d0 FA020000 		.4byte	.LASF77
 2567 07d4 06       		.byte	0x6
 2568 07d5 7D       		.byte	0x7d
 2569 07d6 7A000000 		.4byte	0x7a
 2570 07da 02       		.byte	0x2
 2571 07db 23       		.byte	0x23
 2572 07dc 00       		.uleb128 0
 2573 07dd 0E       		.uleb128 0xe
 2574 07de 87020000 		.4byte	.LASF122
 2575 07e2 06       		.byte	0x6
 2576 07e3 7E       		.byte	0x7e
 2577 07e4 7A000000 		.4byte	0x7a
 2578 07e8 02       		.byte	0x2
 2579 07e9 23       		.byte	0x23
 2580 07ea 01       		.uleb128 0x1
 2581 07eb 0E       		.uleb128 0xe
 2582 07ec AA020000 		.4byte	.LASF118
 2583 07f0 06       		.byte	0x6
 2584 07f1 7F       		.byte	0x7f
 2585 07f2 90000000 		.4byte	0x90
 2586 07f6 02       		.byte	0x2
 2587 07f7 23       		.byte	0x23
 2588 07f8 04       		.uleb128 0x4
 2589 07f9 0E       		.uleb128 0xe
 2590 07fa 6F030000 		.4byte	.LASF123
 2591 07fe 06       		.byte	0x6
 2592 07ff 80       		.byte	0x80
 2593 0800 B8000000 		.4byte	0xb8
 2594 0804 02       		.byte	0x2
 2595 0805 23       		.byte	0x23
 2596 0806 08       		.uleb128 0x8
 2597 0807 0E       		.uleb128 0xe
 2598 0808 6A010000 		.4byte	.LASF97
 2599 080c 06       		.byte	0x6
 2600 080d 81       		.byte	0x81
 2601 080e A6000000 		.4byte	0xa6
 2602 0812 02       		.byte	0x2
ARM GAS  C:\Users\GRAZIA~1.RAV\AppData\Local\Temp\ccLYRwwS.s 			page 56


 2603 0813 23       		.byte	0x23
 2604 0814 10       		.uleb128 0x10
 2605 0815 0E       		.uleb128 0xe
 2606 0816 69040000 		.4byte	.LASF124
 2607 081a 06       		.byte	0x6
 2608 081b 82       		.byte	0x82
 2609 081c B8000000 		.4byte	0xb8
 2610 0820 02       		.byte	0x2
 2611 0821 23       		.byte	0x23
 2612 0822 18       		.uleb128 0x18
 2613 0823 0E       		.uleb128 0xe
 2614 0824 BA070000 		.4byte	.LASF125
 2615 0828 06       		.byte	0x6
 2616 0829 83       		.byte	0x83
 2617 082a A6000000 		.4byte	0xa6
 2618 082e 02       		.byte	0x2
 2619 082f 23       		.byte	0x23
 2620 0830 20       		.uleb128 0x20
 2621 0831 0E       		.uleb128 0xe
 2622 0832 09070000 		.4byte	.LASF126
 2623 0836 06       		.byte	0x6
 2624 0837 84       		.byte	0x84
 2625 0838 A6000000 		.4byte	0xa6
 2626 083c 02       		.byte	0x2
 2627 083d 23       		.byte	0x23
 2628 083e 24       		.uleb128 0x24
 2629 083f 0E       		.uleb128 0xe
 2630 0840 26000000 		.4byte	.LASF127
 2631 0844 06       		.byte	0x6
 2632 0845 85       		.byte	0x85
 2633 0846 7A000000 		.4byte	0x7a
 2634 084a 02       		.byte	0x2
 2635 084b 23       		.byte	0x23
 2636 084c 28       		.uleb128 0x28
 2637 084d 00       		.byte	0
 2638 084e 03       		.uleb128 0x3
 2639 084f 77020000 		.4byte	.LASF128
 2640 0853 06       		.byte	0x6
 2641 0854 87       		.byte	0x87
 2642 0855 C7070000 		.4byte	0x7c7
 2643 0859 12       		.uleb128 0x12
 2644 085a 01       		.byte	0x1
 2645 085b A7030000 		.4byte	.LASF129
 2646 085f 01       		.byte	0x1
 2647 0860 44       		.byte	0x44
 2648 0861 01       		.byte	0x1
 2649 0862 00000000 		.4byte	.LFB56
 2650 0866 A0020000 		.4byte	.LFE56
 2651 086a 00000000 		.4byte	.LLST0
 2652 086e 01       		.byte	0x1
 2653 086f 82080000 		.4byte	0x882
 2654 0873 13       		.uleb128 0x13
 2655 0874 37030000 		.4byte	.LASF131
 2656 0878 01       		.byte	0x1
 2657 0879 44       		.byte	0x44
 2658 087a 82080000 		.4byte	0x882
 2659 087e 02       		.byte	0x2
ARM GAS  C:\Users\GRAZIA~1.RAV\AppData\Local\Temp\ccLYRwwS.s 			page 57


 2660 087f 91       		.byte	0x91
 2661 0880 6C       		.sleb128 -20
 2662 0881 00       		.byte	0
 2663 0882 14       		.uleb128 0x14
 2664 0883 04       		.byte	0x4
 2665 0884 FB040000 		.4byte	0x4fb
 2666 0888 15       		.uleb128 0x15
 2667 0889 01       		.byte	0x1
 2668 088a 4B020000 		.4byte	.LASF133
 2669 088e 01       		.byte	0x1
 2670 088f 81       		.byte	0x81
 2671 0890 01       		.byte	0x1
 2672 0891 00000000 		.4byte	.LFB57
 2673 0895 2A000000 		.4byte	.LFE57
 2674 0899 38000000 		.4byte	.LLST1
 2675 089d 01       		.byte	0x1
 2676 089e 16       		.uleb128 0x16
 2677 089f 01       		.byte	0x1
 2678 08a0 97020000 		.4byte	.LASF130
 2679 08a4 01       		.byte	0x1
 2680 08a5 87       		.byte	0x87
 2681 08a6 01       		.byte	0x1
 2682 08a7 00000000 		.4byte	.LFB58
 2683 08ab C8000000 		.4byte	.LFE58
 2684 08af 64000000 		.4byte	.LLST2
 2685 08b3 01       		.byte	0x1
 2686 08b4 D5080000 		.4byte	0x8d5
 2687 08b8 13       		.uleb128 0x13
 2688 08b9 37030000 		.4byte	.LASF131
 2689 08bd 01       		.byte	0x1
 2690 08be 87       		.byte	0x87
 2691 08bf 82080000 		.4byte	0x882
 2692 08c3 02       		.byte	0x2
 2693 08c4 91       		.byte	0x91
 2694 08c5 74       		.sleb128 -12
 2695 08c6 13       		.uleb128 0x13
 2696 08c7 1B040000 		.4byte	.LASF132
 2697 08cb 01       		.byte	0x1
 2698 08cc 87       		.byte	0x87
 2699 08cd D5080000 		.4byte	0x8d5
 2700 08d1 02       		.byte	0x2
 2701 08d2 91       		.byte	0x91
 2702 08d3 70       		.sleb128 -16
 2703 08d4 00       		.byte	0
 2704 08d5 14       		.uleb128 0x14
 2705 08d6 04       		.byte	0x4
 2706 08d7 F4010000 		.4byte	0x1f4
 2707 08db 17       		.uleb128 0x17
 2708 08dc 01       		.byte	0x1
 2709 08dd D2020000 		.4byte	.LASF134
 2710 08e1 01       		.byte	0x1
 2711 08e2 A8       		.byte	0xa8
 2712 08e3 01       		.byte	0x1
 2713 08e4 00000000 		.4byte	.LFB59
 2714 08e8 2E000000 		.4byte	.LFE59
 2715 08ec 9C000000 		.4byte	.LLST3
 2716 08f0 01       		.byte	0x1
ARM GAS  C:\Users\GRAZIA~1.RAV\AppData\Local\Temp\ccLYRwwS.s 			page 58


 2717 08f1 12       		.uleb128 0x12
 2718 08f2 01       		.byte	0x1
 2719 08f3 3B010000 		.4byte	.LASF135
 2720 08f7 01       		.byte	0x1
 2721 08f8 B4       		.byte	0xb4
 2722 08f9 01       		.byte	0x1
 2723 08fa 00000000 		.4byte	.LFB60
 2724 08fe E4050000 		.4byte	.LFE60
 2725 0902 C8000000 		.4byte	.LLST4
 2726 0906 01       		.byte	0x1
 2727 0907 28090000 		.4byte	0x928
 2728 090b 13       		.uleb128 0x13
 2729 090c 37030000 		.4byte	.LASF131
 2730 0910 01       		.byte	0x1
 2731 0911 B4       		.byte	0xb4
 2732 0912 82080000 		.4byte	0x882
 2733 0916 02       		.byte	0x2
 2734 0917 91       		.byte	0x91
 2735 0918 6C       		.sleb128 -20
 2736 0919 13       		.uleb128 0x13
 2737 091a A1030000 		.4byte	.LASF114
 2738 091e 01       		.byte	0x1
 2739 091f B4       		.byte	0xb4
 2740 0920 28090000 		.4byte	0x928
 2741 0924 02       		.byte	0x2
 2742 0925 91       		.byte	0x91
 2743 0926 68       		.sleb128 -24
 2744 0927 00       		.byte	0
 2745 0928 14       		.uleb128 0x14
 2746 0929 04       		.byte	0x4
 2747 092a 4E080000 		.4byte	0x84e
 2748 092e 18       		.uleb128 0x18
 2749 092f 01       		.byte	0x1
 2750 0930 96060000 		.4byte	.LASF136
 2751 0934 01       		.byte	0x1
 2752 0935 B301     		.2byte	0x1b3
 2753 0937 01       		.byte	0x1
 2754 0938 00000000 		.4byte	.LFB61
 2755 093c AC000000 		.4byte	.LFE61
 2756 0940 00010000 		.4byte	.LLST5
 2757 0944 01       		.byte	0x1
 2758 0945 59090000 		.4byte	0x959
 2759 0949 19       		.uleb128 0x19
 2760 094a 37030000 		.4byte	.LASF131
 2761 094e 01       		.byte	0x1
 2762 094f B301     		.2byte	0x1b3
 2763 0951 82080000 		.4byte	0x882
 2764 0955 02       		.byte	0x2
 2765 0956 91       		.byte	0x91
 2766 0957 74       		.sleb128 -12
 2767 0958 00       		.byte	0
 2768 0959 18       		.uleb128 0x18
 2769 095a 01       		.byte	0x1
 2770 095b BD000000 		.4byte	.LASF137
 2771 095f 01       		.byte	0x1
 2772 0960 E001     		.2byte	0x1e0
 2773 0962 01       		.byte	0x1
ARM GAS  C:\Users\GRAZIA~1.RAV\AppData\Local\Temp\ccLYRwwS.s 			page 59


 2774 0963 00000000 		.4byte	.LFB62
 2775 0967 54000000 		.4byte	.LFE62
 2776 096b 38010000 		.4byte	.LLST6
 2777 096f 01       		.byte	0x1
 2778 0970 84090000 		.4byte	0x984
 2779 0974 19       		.uleb128 0x19
 2780 0975 37030000 		.4byte	.LASF131
 2781 0979 01       		.byte	0x1
 2782 097a E001     		.2byte	0x1e0
 2783 097c 82080000 		.4byte	0x882
 2784 0980 02       		.byte	0x2
 2785 0981 91       		.byte	0x91
 2786 0982 74       		.sleb128 -12
 2787 0983 00       		.byte	0
 2788 0984 18       		.uleb128 0x18
 2789 0985 01       		.byte	0x1
 2790 0986 01040000 		.4byte	.LASF138
 2791 098a 01       		.byte	0x1
 2792 098b FF01     		.2byte	0x1ff
 2793 098d 01       		.byte	0x1
 2794 098e 00000000 		.4byte	.LFB63
 2795 0992 34000000 		.4byte	.LFE63
 2796 0996 70010000 		.4byte	.LLST7
 2797 099a 01       		.byte	0x1
 2798 099b AF090000 		.4byte	0x9af
 2799 099f 19       		.uleb128 0x19
 2800 09a0 37030000 		.4byte	.LASF131
 2801 09a4 01       		.byte	0x1
 2802 09a5 FF01     		.2byte	0x1ff
 2803 09a7 82080000 		.4byte	0x882
 2804 09ab 02       		.byte	0x2
 2805 09ac 91       		.byte	0x91
 2806 09ad 74       		.sleb128 -12
 2807 09ae 00       		.byte	0
 2808 09af 18       		.uleb128 0x18
 2809 09b0 01       		.byte	0x1
 2810 09b1 1A000000 		.4byte	.LASF139
 2811 09b5 01       		.byte	0x1
 2812 09b6 0802     		.2byte	0x208
 2813 09b8 01       		.byte	0x1
 2814 09b9 00000000 		.4byte	.LFB64
 2815 09bd 34000000 		.4byte	.LFE64
 2816 09c1 A8010000 		.4byte	.LLST8
 2817 09c5 01       		.byte	0x1
 2818 09c6 DA090000 		.4byte	0x9da
 2819 09ca 19       		.uleb128 0x19
 2820 09cb 37030000 		.4byte	.LASF131
 2821 09cf 01       		.byte	0x1
 2822 09d0 0802     		.2byte	0x208
 2823 09d2 82080000 		.4byte	0x882
 2824 09d6 02       		.byte	0x2
 2825 09d7 91       		.byte	0x91
 2826 09d8 74       		.sleb128 -12
 2827 09d9 00       		.byte	0
 2828 09da 1A       		.uleb128 0x1a
 2829 09db EA040000 		.4byte	.LASF140
 2830 09df 07       		.byte	0x7
ARM GAS  C:\Users\GRAZIA~1.RAV\AppData\Local\Temp\ccLYRwwS.s 			page 60


 2831 09e0 1606     		.2byte	0x616
 2832 09e2 E8090000 		.4byte	0x9e8
 2833 09e6 01       		.byte	0x1
 2834 09e7 01       		.byte	0x1
 2835 09e8 1B       		.uleb128 0x1b
 2836 09e9 45000000 		.4byte	0x45
 2837 09ed 1C       		.uleb128 0x1c
 2838 09ee D3040000 		.4byte	.LASF141
 2839 09f2 01       		.byte	0x1
 2840 09f3 18       		.byte	0x18
 2841 09f4 7A000000 		.4byte	0x7a
 2842 09f8 01       		.byte	0x1
 2843 09f9 01       		.byte	0x1
 2844 09fa 1C       		.uleb128 0x1c
 2845 09fb A1010000 		.4byte	.LASF142
 2846 09ff 01       		.byte	0x1
 2847 0a00 22       		.byte	0x22
 2848 0a01 F4010000 		.4byte	0x1f4
 2849 0a05 01       		.byte	0x1
 2850 0a06 01       		.byte	0x1
 2851 0a07 1C       		.uleb128 0x1c
 2852 0a08 8C040000 		.4byte	.LASF143
 2853 0a0c 01       		.byte	0x1
 2854 0a0d 23       		.byte	0x23
 2855 0a0e F4010000 		.4byte	0x1f4
 2856 0a12 01       		.byte	0x1
 2857 0a13 01       		.byte	0x1
 2858 0a14 1C       		.uleb128 0x1c
 2859 0a15 F0060000 		.4byte	.LASF144
 2860 0a19 01       		.byte	0x1
 2861 0a1a 26       		.byte	0x26
 2862 0a1b 4B050000 		.4byte	0x54b
 2863 0a1f 01       		.byte	0x1
 2864 0a20 01       		.byte	0x1
 2865 0a21 1C       		.uleb128 0x1c
 2866 0a22 1D030000 		.4byte	.LASF145
 2867 0a26 01       		.byte	0x1
 2868 0a27 27       		.byte	0x27
 2869 0a28 4B050000 		.4byte	0x54b
 2870 0a2c 01       		.byte	0x1
 2871 0a2d 01       		.byte	0x1
 2872 0a2e 1C       		.uleb128 0x1c
 2873 0a2f 0E020000 		.4byte	.LASF146
 2874 0a33 01       		.byte	0x1
 2875 0a34 2A       		.byte	0x2a
 2876 0a35 FB040000 		.4byte	0x4fb
 2877 0a39 01       		.byte	0x1
 2878 0a3a 01       		.byte	0x1
 2879 0a3b 1C       		.uleb128 0x1c
 2880 0a3c 41020000 		.4byte	.LASF147
 2881 0a40 01       		.byte	0x1
 2882 0a41 2B       		.byte	0x2b
 2883 0a42 FB040000 		.4byte	0x4fb
 2884 0a46 01       		.byte	0x1
 2885 0a47 01       		.byte	0x1
 2886 0a48 07       		.uleb128 0x7
 2887 0a49 BC070000 		.4byte	0x7bc
ARM GAS  C:\Users\GRAZIA~1.RAV\AppData\Local\Temp\ccLYRwwS.s 			page 61


 2888 0a4d 580A0000 		.4byte	0xa58
 2889 0a51 08       		.uleb128 0x8
 2890 0a52 D1000000 		.4byte	0xd1
 2891 0a56 06       		.byte	0x6
 2892 0a57 00       		.byte	0
 2893 0a58 1C       		.uleb128 0x1c
 2894 0a59 82020000 		.4byte	.LASF148
 2895 0a5d 01       		.byte	0x1
 2896 0a5e 32       		.byte	0x32
 2897 0a5f 480A0000 		.4byte	0xa48
 2898 0a63 01       		.byte	0x1
 2899 0a64 01       		.byte	0x1
 2900 0a65 07       		.uleb128 0x7
 2901 0a66 9B000000 		.4byte	0x9b
 2902 0a6a 750A0000 		.4byte	0xa75
 2903 0a6e 08       		.uleb128 0x8
 2904 0a6f D1000000 		.4byte	0xd1
 2905 0a73 08       		.byte	0x8
 2906 0a74 00       		.byte	0
 2907 0a75 1C       		.uleb128 0x1c
 2908 0a76 C4020000 		.4byte	.LASF149
 2909 0a7a 01       		.byte	0x1
 2910 0a7b 38       		.byte	0x38
 2911 0a7c 650A0000 		.4byte	0xa65
 2912 0a80 01       		.byte	0x1
 2913 0a81 01       		.byte	0x1
 2914 0a82 1C       		.uleb128 0x1c
 2915 0a83 00050000 		.4byte	.LASF150
 2916 0a87 01       		.byte	0x1
 2917 0a88 3B       		.byte	0x3b
 2918 0a89 B1000000 		.4byte	0xb1
 2919 0a8d 01       		.byte	0x1
 2920 0a8e 01       		.byte	0x1
 2921 0a8f 1C       		.uleb128 0x1c
 2922 0a90 9B000000 		.4byte	.LASF151
 2923 0a94 01       		.byte	0x1
 2924 0a95 3C       		.byte	0x3c
 2925 0a96 A6000000 		.4byte	0xa6
 2926 0a9a 01       		.byte	0x1
 2927 0a9b 01       		.byte	0x1
 2928 0a9c 00       		.byte	0
 2929              		.section	.debug_abbrev,"",%progbits
 2930              	.Ldebug_abbrev0:
 2931 0000 01       		.uleb128 0x1
 2932 0001 11       		.uleb128 0x11
 2933 0002 01       		.byte	0x1
 2934 0003 25       		.uleb128 0x25
 2935 0004 0E       		.uleb128 0xe
 2936 0005 13       		.uleb128 0x13
 2937 0006 0B       		.uleb128 0xb
 2938 0007 03       		.uleb128 0x3
 2939 0008 0E       		.uleb128 0xe
 2940 0009 1B       		.uleb128 0x1b
 2941 000a 0E       		.uleb128 0xe
 2942 000b 55       		.uleb128 0x55
 2943 000c 06       		.uleb128 0x6
 2944 000d 11       		.uleb128 0x11
ARM GAS  C:\Users\GRAZIA~1.RAV\AppData\Local\Temp\ccLYRwwS.s 			page 62


 2945 000e 01       		.uleb128 0x1
 2946 000f 52       		.uleb128 0x52
 2947 0010 01       		.uleb128 0x1
 2948 0011 10       		.uleb128 0x10
 2949 0012 06       		.uleb128 0x6
 2950 0013 00       		.byte	0
 2951 0014 00       		.byte	0
 2952 0015 02       		.uleb128 0x2
 2953 0016 24       		.uleb128 0x24
 2954 0017 00       		.byte	0
 2955 0018 0B       		.uleb128 0xb
 2956 0019 0B       		.uleb128 0xb
 2957 001a 3E       		.uleb128 0x3e
 2958 001b 0B       		.uleb128 0xb
 2959 001c 03       		.uleb128 0x3
 2960 001d 0E       		.uleb128 0xe
 2961 001e 00       		.byte	0
 2962 001f 00       		.byte	0
 2963 0020 03       		.uleb128 0x3
 2964 0021 16       		.uleb128 0x16
 2965 0022 00       		.byte	0
 2966 0023 03       		.uleb128 0x3
 2967 0024 0E       		.uleb128 0xe
 2968 0025 3A       		.uleb128 0x3a
 2969 0026 0B       		.uleb128 0xb
 2970 0027 3B       		.uleb128 0x3b
 2971 0028 0B       		.uleb128 0xb
 2972 0029 49       		.uleb128 0x49
 2973 002a 13       		.uleb128 0x13
 2974 002b 00       		.byte	0
 2975 002c 00       		.byte	0
 2976 002d 04       		.uleb128 0x4
 2977 002e 24       		.uleb128 0x24
 2978 002f 00       		.byte	0
 2979 0030 0B       		.uleb128 0xb
 2980 0031 0B       		.uleb128 0xb
 2981 0032 3E       		.uleb128 0x3e
 2982 0033 0B       		.uleb128 0xb
 2983 0034 03       		.uleb128 0x3
 2984 0035 08       		.uleb128 0x8
 2985 0036 00       		.byte	0
 2986 0037 00       		.byte	0
 2987 0038 05       		.uleb128 0x5
 2988 0039 17       		.uleb128 0x17
 2989 003a 01       		.byte	0x1
 2990 003b 0B       		.uleb128 0xb
 2991 003c 0B       		.uleb128 0xb
 2992 003d 3A       		.uleb128 0x3a
 2993 003e 0B       		.uleb128 0xb
 2994 003f 3B       		.uleb128 0x3b
 2995 0040 05       		.uleb128 0x5
 2996 0041 01       		.uleb128 0x1
 2997 0042 13       		.uleb128 0x13
 2998 0043 00       		.byte	0
 2999 0044 00       		.byte	0
 3000 0045 06       		.uleb128 0x6
 3001 0046 0D       		.uleb128 0xd
ARM GAS  C:\Users\GRAZIA~1.RAV\AppData\Local\Temp\ccLYRwwS.s 			page 63


 3002 0047 00       		.byte	0
 3003 0048 03       		.uleb128 0x3
 3004 0049 0E       		.uleb128 0xe
 3005 004a 3A       		.uleb128 0x3a
 3006 004b 0B       		.uleb128 0xb
 3007 004c 3B       		.uleb128 0x3b
 3008 004d 05       		.uleb128 0x5
 3009 004e 49       		.uleb128 0x49
 3010 004f 13       		.uleb128 0x13
 3011 0050 00       		.byte	0
 3012 0051 00       		.byte	0
 3013 0052 07       		.uleb128 0x7
 3014 0053 01       		.uleb128 0x1
 3015 0054 01       		.byte	0x1
 3016 0055 49       		.uleb128 0x49
 3017 0056 13       		.uleb128 0x13
 3018 0057 01       		.uleb128 0x1
 3019 0058 13       		.uleb128 0x13
 3020 0059 00       		.byte	0
 3021 005a 00       		.byte	0
 3022 005b 08       		.uleb128 0x8
 3023 005c 21       		.uleb128 0x21
 3024 005d 00       		.byte	0
 3025 005e 49       		.uleb128 0x49
 3026 005f 13       		.uleb128 0x13
 3027 0060 2F       		.uleb128 0x2f
 3028 0061 0B       		.uleb128 0xb
 3029 0062 00       		.byte	0
 3030 0063 00       		.byte	0
 3031 0064 09       		.uleb128 0x9
 3032 0065 16       		.uleb128 0x16
 3033 0066 00       		.byte	0
 3034 0067 03       		.uleb128 0x3
 3035 0068 0E       		.uleb128 0xe
 3036 0069 3A       		.uleb128 0x3a
 3037 006a 0B       		.uleb128 0xb
 3038 006b 3B       		.uleb128 0x3b
 3039 006c 05       		.uleb128 0x5
 3040 006d 49       		.uleb128 0x49
 3041 006e 13       		.uleb128 0x13
 3042 006f 00       		.byte	0
 3043 0070 00       		.byte	0
 3044 0071 0A       		.uleb128 0xa
 3045 0072 13       		.uleb128 0x13
 3046 0073 01       		.byte	0x1
 3047 0074 03       		.uleb128 0x3
 3048 0075 0E       		.uleb128 0xe
 3049 0076 0B       		.uleb128 0xb
 3050 0077 0B       		.uleb128 0xb
 3051 0078 3A       		.uleb128 0x3a
 3052 0079 0B       		.uleb128 0xb
 3053 007a 3B       		.uleb128 0x3b
 3054 007b 05       		.uleb128 0x5
 3055 007c 01       		.uleb128 0x1
 3056 007d 13       		.uleb128 0x13
 3057 007e 00       		.byte	0
 3058 007f 00       		.byte	0
ARM GAS  C:\Users\GRAZIA~1.RAV\AppData\Local\Temp\ccLYRwwS.s 			page 64


 3059 0080 0B       		.uleb128 0xb
 3060 0081 0D       		.uleb128 0xd
 3061 0082 00       		.byte	0
 3062 0083 03       		.uleb128 0x3
 3063 0084 0E       		.uleb128 0xe
 3064 0085 3A       		.uleb128 0x3a
 3065 0086 0B       		.uleb128 0xb
 3066 0087 3B       		.uleb128 0x3b
 3067 0088 05       		.uleb128 0x5
 3068 0089 49       		.uleb128 0x49
 3069 008a 13       		.uleb128 0x13
 3070 008b 38       		.uleb128 0x38
 3071 008c 0A       		.uleb128 0xa
 3072 008d 00       		.byte	0
 3073 008e 00       		.byte	0
 3074 008f 0C       		.uleb128 0xc
 3075 0090 0D       		.uleb128 0xd
 3076 0091 00       		.byte	0
 3077 0092 03       		.uleb128 0x3
 3078 0093 08       		.uleb128 0x8
 3079 0094 3A       		.uleb128 0x3a
 3080 0095 0B       		.uleb128 0xb
 3081 0096 3B       		.uleb128 0x3b
 3082 0097 05       		.uleb128 0x5
 3083 0098 49       		.uleb128 0x49
 3084 0099 13       		.uleb128 0x13
 3085 009a 38       		.uleb128 0x38
 3086 009b 0A       		.uleb128 0xa
 3087 009c 00       		.byte	0
 3088 009d 00       		.byte	0
 3089 009e 0D       		.uleb128 0xd
 3090 009f 13       		.uleb128 0x13
 3091 00a0 01       		.byte	0x1
 3092 00a1 03       		.uleb128 0x3
 3093 00a2 0E       		.uleb128 0xe
 3094 00a3 0B       		.uleb128 0xb
 3095 00a4 0B       		.uleb128 0xb
 3096 00a5 3A       		.uleb128 0x3a
 3097 00a6 0B       		.uleb128 0xb
 3098 00a7 3B       		.uleb128 0x3b
 3099 00a8 0B       		.uleb128 0xb
 3100 00a9 01       		.uleb128 0x1
 3101 00aa 13       		.uleb128 0x13
 3102 00ab 00       		.byte	0
 3103 00ac 00       		.byte	0
 3104 00ad 0E       		.uleb128 0xe
 3105 00ae 0D       		.uleb128 0xd
 3106 00af 00       		.byte	0
 3107 00b0 03       		.uleb128 0x3
 3108 00b1 0E       		.uleb128 0xe
 3109 00b2 3A       		.uleb128 0x3a
 3110 00b3 0B       		.uleb128 0xb
 3111 00b4 3B       		.uleb128 0x3b
 3112 00b5 0B       		.uleb128 0xb
 3113 00b6 49       		.uleb128 0x49
 3114 00b7 13       		.uleb128 0x13
 3115 00b8 38       		.uleb128 0x38
ARM GAS  C:\Users\GRAZIA~1.RAV\AppData\Local\Temp\ccLYRwwS.s 			page 65


 3116 00b9 0A       		.uleb128 0xa
 3117 00ba 00       		.byte	0
 3118 00bb 00       		.byte	0
 3119 00bc 0F       		.uleb128 0xf
 3120 00bd 0D       		.uleb128 0xd
 3121 00be 00       		.byte	0
 3122 00bf 03       		.uleb128 0x3
 3123 00c0 08       		.uleb128 0x8
 3124 00c1 3A       		.uleb128 0x3a
 3125 00c2 0B       		.uleb128 0xb
 3126 00c3 3B       		.uleb128 0x3b
 3127 00c4 0B       		.uleb128 0xb
 3128 00c5 49       		.uleb128 0x49
 3129 00c6 13       		.uleb128 0x13
 3130 00c7 38       		.uleb128 0x38
 3131 00c8 0A       		.uleb128 0xa
 3132 00c9 00       		.byte	0
 3133 00ca 00       		.byte	0
 3134 00cb 10       		.uleb128 0x10
 3135 00cc 13       		.uleb128 0x13
 3136 00cd 01       		.byte	0x1
 3137 00ce 0B       		.uleb128 0xb
 3138 00cf 05       		.uleb128 0x5
 3139 00d0 3A       		.uleb128 0x3a
 3140 00d1 0B       		.uleb128 0xb
 3141 00d2 3B       		.uleb128 0x3b
 3142 00d3 0B       		.uleb128 0xb
 3143 00d4 01       		.uleb128 0x1
 3144 00d5 13       		.uleb128 0x13
 3145 00d6 00       		.byte	0
 3146 00d7 00       		.byte	0
 3147 00d8 11       		.uleb128 0x11
 3148 00d9 13       		.uleb128 0x13
 3149 00da 01       		.byte	0x1
 3150 00db 0B       		.uleb128 0xb
 3151 00dc 0B       		.uleb128 0xb
 3152 00dd 3A       		.uleb128 0x3a
 3153 00de 0B       		.uleb128 0xb
 3154 00df 3B       		.uleb128 0x3b
 3155 00e0 0B       		.uleb128 0xb
 3156 00e1 01       		.uleb128 0x1
 3157 00e2 13       		.uleb128 0x13
 3158 00e3 00       		.byte	0
 3159 00e4 00       		.byte	0
 3160 00e5 12       		.uleb128 0x12
 3161 00e6 2E       		.uleb128 0x2e
 3162 00e7 01       		.byte	0x1
 3163 00e8 3F       		.uleb128 0x3f
 3164 00e9 0C       		.uleb128 0xc
 3165 00ea 03       		.uleb128 0x3
 3166 00eb 0E       		.uleb128 0xe
 3167 00ec 3A       		.uleb128 0x3a
 3168 00ed 0B       		.uleb128 0xb
 3169 00ee 3B       		.uleb128 0x3b
 3170 00ef 0B       		.uleb128 0xb
 3171 00f0 27       		.uleb128 0x27
 3172 00f1 0C       		.uleb128 0xc
ARM GAS  C:\Users\GRAZIA~1.RAV\AppData\Local\Temp\ccLYRwwS.s 			page 66


 3173 00f2 11       		.uleb128 0x11
 3174 00f3 01       		.uleb128 0x1
 3175 00f4 12       		.uleb128 0x12
 3176 00f5 01       		.uleb128 0x1
 3177 00f6 40       		.uleb128 0x40
 3178 00f7 06       		.uleb128 0x6
 3179 00f8 9642     		.uleb128 0x2116
 3180 00fa 0C       		.uleb128 0xc
 3181 00fb 01       		.uleb128 0x1
 3182 00fc 13       		.uleb128 0x13
 3183 00fd 00       		.byte	0
 3184 00fe 00       		.byte	0
 3185 00ff 13       		.uleb128 0x13
 3186 0100 05       		.uleb128 0x5
 3187 0101 00       		.byte	0
 3188 0102 03       		.uleb128 0x3
 3189 0103 0E       		.uleb128 0xe
 3190 0104 3A       		.uleb128 0x3a
 3191 0105 0B       		.uleb128 0xb
 3192 0106 3B       		.uleb128 0x3b
 3193 0107 0B       		.uleb128 0xb
 3194 0108 49       		.uleb128 0x49
 3195 0109 13       		.uleb128 0x13
 3196 010a 02       		.uleb128 0x2
 3197 010b 0A       		.uleb128 0xa
 3198 010c 00       		.byte	0
 3199 010d 00       		.byte	0
 3200 010e 14       		.uleb128 0x14
 3201 010f 0F       		.uleb128 0xf
 3202 0110 00       		.byte	0
 3203 0111 0B       		.uleb128 0xb
 3204 0112 0B       		.uleb128 0xb
 3205 0113 49       		.uleb128 0x49
 3206 0114 13       		.uleb128 0x13
 3207 0115 00       		.byte	0
 3208 0116 00       		.byte	0
 3209 0117 15       		.uleb128 0x15
 3210 0118 2E       		.uleb128 0x2e
 3211 0119 00       		.byte	0
 3212 011a 3F       		.uleb128 0x3f
 3213 011b 0C       		.uleb128 0xc
 3214 011c 03       		.uleb128 0x3
 3215 011d 0E       		.uleb128 0xe
 3216 011e 3A       		.uleb128 0x3a
 3217 011f 0B       		.uleb128 0xb
 3218 0120 3B       		.uleb128 0x3b
 3219 0121 0B       		.uleb128 0xb
 3220 0122 27       		.uleb128 0x27
 3221 0123 0C       		.uleb128 0xc
 3222 0124 11       		.uleb128 0x11
 3223 0125 01       		.uleb128 0x1
 3224 0126 12       		.uleb128 0x12
 3225 0127 01       		.uleb128 0x1
 3226 0128 40       		.uleb128 0x40
 3227 0129 06       		.uleb128 0x6
 3228 012a 9742     		.uleb128 0x2117
 3229 012c 0C       		.uleb128 0xc
ARM GAS  C:\Users\GRAZIA~1.RAV\AppData\Local\Temp\ccLYRwwS.s 			page 67


 3230 012d 00       		.byte	0
 3231 012e 00       		.byte	0
 3232 012f 16       		.uleb128 0x16
 3233 0130 2E       		.uleb128 0x2e
 3234 0131 01       		.byte	0x1
 3235 0132 3F       		.uleb128 0x3f
 3236 0133 0C       		.uleb128 0xc
 3237 0134 03       		.uleb128 0x3
 3238 0135 0E       		.uleb128 0xe
 3239 0136 3A       		.uleb128 0x3a
 3240 0137 0B       		.uleb128 0xb
 3241 0138 3B       		.uleb128 0x3b
 3242 0139 0B       		.uleb128 0xb
 3243 013a 27       		.uleb128 0x27
 3244 013b 0C       		.uleb128 0xc
 3245 013c 11       		.uleb128 0x11
 3246 013d 01       		.uleb128 0x1
 3247 013e 12       		.uleb128 0x12
 3248 013f 01       		.uleb128 0x1
 3249 0140 40       		.uleb128 0x40
 3250 0141 06       		.uleb128 0x6
 3251 0142 9742     		.uleb128 0x2117
 3252 0144 0C       		.uleb128 0xc
 3253 0145 01       		.uleb128 0x1
 3254 0146 13       		.uleb128 0x13
 3255 0147 00       		.byte	0
 3256 0148 00       		.byte	0
 3257 0149 17       		.uleb128 0x17
 3258 014a 2E       		.uleb128 0x2e
 3259 014b 00       		.byte	0
 3260 014c 3F       		.uleb128 0x3f
 3261 014d 0C       		.uleb128 0xc
 3262 014e 03       		.uleb128 0x3
 3263 014f 0E       		.uleb128 0xe
 3264 0150 3A       		.uleb128 0x3a
 3265 0151 0B       		.uleb128 0xb
 3266 0152 3B       		.uleb128 0x3b
 3267 0153 0B       		.uleb128 0xb
 3268 0154 27       		.uleb128 0x27
 3269 0155 0C       		.uleb128 0xc
 3270 0156 11       		.uleb128 0x11
 3271 0157 01       		.uleb128 0x1
 3272 0158 12       		.uleb128 0x12
 3273 0159 01       		.uleb128 0x1
 3274 015a 40       		.uleb128 0x40
 3275 015b 06       		.uleb128 0x6
 3276 015c 9642     		.uleb128 0x2116
 3277 015e 0C       		.uleb128 0xc
 3278 015f 00       		.byte	0
 3279 0160 00       		.byte	0
 3280 0161 18       		.uleb128 0x18
 3281 0162 2E       		.uleb128 0x2e
 3282 0163 01       		.byte	0x1
 3283 0164 3F       		.uleb128 0x3f
 3284 0165 0C       		.uleb128 0xc
 3285 0166 03       		.uleb128 0x3
 3286 0167 0E       		.uleb128 0xe
ARM GAS  C:\Users\GRAZIA~1.RAV\AppData\Local\Temp\ccLYRwwS.s 			page 68


 3287 0168 3A       		.uleb128 0x3a
 3288 0169 0B       		.uleb128 0xb
 3289 016a 3B       		.uleb128 0x3b
 3290 016b 05       		.uleb128 0x5
 3291 016c 27       		.uleb128 0x27
 3292 016d 0C       		.uleb128 0xc
 3293 016e 11       		.uleb128 0x11
 3294 016f 01       		.uleb128 0x1
 3295 0170 12       		.uleb128 0x12
 3296 0171 01       		.uleb128 0x1
 3297 0172 40       		.uleb128 0x40
 3298 0173 06       		.uleb128 0x6
 3299 0174 9642     		.uleb128 0x2116
 3300 0176 0C       		.uleb128 0xc
 3301 0177 01       		.uleb128 0x1
 3302 0178 13       		.uleb128 0x13
 3303 0179 00       		.byte	0
 3304 017a 00       		.byte	0
 3305 017b 19       		.uleb128 0x19
 3306 017c 05       		.uleb128 0x5
 3307 017d 00       		.byte	0
 3308 017e 03       		.uleb128 0x3
 3309 017f 0E       		.uleb128 0xe
 3310 0180 3A       		.uleb128 0x3a
 3311 0181 0B       		.uleb128 0xb
 3312 0182 3B       		.uleb128 0x3b
 3313 0183 05       		.uleb128 0x5
 3314 0184 49       		.uleb128 0x49
 3315 0185 13       		.uleb128 0x13
 3316 0186 02       		.uleb128 0x2
 3317 0187 0A       		.uleb128 0xa
 3318 0188 00       		.byte	0
 3319 0189 00       		.byte	0
 3320 018a 1A       		.uleb128 0x1a
 3321 018b 34       		.uleb128 0x34
 3322 018c 00       		.byte	0
 3323 018d 03       		.uleb128 0x3
 3324 018e 0E       		.uleb128 0xe
 3325 018f 3A       		.uleb128 0x3a
 3326 0190 0B       		.uleb128 0xb
 3327 0191 3B       		.uleb128 0x3b
 3328 0192 05       		.uleb128 0x5
 3329 0193 49       		.uleb128 0x49
 3330 0194 13       		.uleb128 0x13
 3331 0195 3F       		.uleb128 0x3f
 3332 0196 0C       		.uleb128 0xc
 3333 0197 3C       		.uleb128 0x3c
 3334 0198 0C       		.uleb128 0xc
 3335 0199 00       		.byte	0
 3336 019a 00       		.byte	0
 3337 019b 1B       		.uleb128 0x1b
 3338 019c 35       		.uleb128 0x35
 3339 019d 00       		.byte	0
 3340 019e 49       		.uleb128 0x49
 3341 019f 13       		.uleb128 0x13
 3342 01a0 00       		.byte	0
 3343 01a1 00       		.byte	0
ARM GAS  C:\Users\GRAZIA~1.RAV\AppData\Local\Temp\ccLYRwwS.s 			page 69


 3344 01a2 1C       		.uleb128 0x1c
 3345 01a3 34       		.uleb128 0x34
 3346 01a4 00       		.byte	0
 3347 01a5 03       		.uleb128 0x3
 3348 01a6 0E       		.uleb128 0xe
 3349 01a7 3A       		.uleb128 0x3a
 3350 01a8 0B       		.uleb128 0xb
 3351 01a9 3B       		.uleb128 0x3b
 3352 01aa 0B       		.uleb128 0xb
 3353 01ab 49       		.uleb128 0x49
 3354 01ac 13       		.uleb128 0x13
 3355 01ad 3F       		.uleb128 0x3f
 3356 01ae 0C       		.uleb128 0xc
 3357 01af 3C       		.uleb128 0x3c
 3358 01b0 0C       		.uleb128 0xc
 3359 01b1 00       		.byte	0
 3360 01b2 00       		.byte	0
 3361 01b3 00       		.byte	0
 3362              		.section	.debug_loc,"",%progbits
 3363              	.Ldebug_loc0:
 3364              	.LLST0:
 3365 0000 00000000 		.4byte	.LFB56
 3366 0004 02000000 		.4byte	.LCFI0
 3367 0008 0200     		.2byte	0x2
 3368 000a 7D       		.byte	0x7d
 3369 000b 00       		.sleb128 0
 3370 000c 02000000 		.4byte	.LCFI0
 3371 0010 04000000 		.4byte	.LCFI1
 3372 0014 0200     		.2byte	0x2
 3373 0016 7D       		.byte	0x7d
 3374 0017 10       		.sleb128 16
 3375 0018 04000000 		.4byte	.LCFI1
 3376 001c 06000000 		.4byte	.LCFI2
 3377 0020 0200     		.2byte	0x2
 3378 0022 7D       		.byte	0x7d
 3379 0023 18       		.sleb128 24
 3380 0024 06000000 		.4byte	.LCFI2
 3381 0028 A0020000 		.4byte	.LFE56
 3382 002c 0200     		.2byte	0x2
 3383 002e 77       		.byte	0x77
 3384 002f 18       		.sleb128 24
 3385 0030 00000000 		.4byte	0
 3386 0034 00000000 		.4byte	0
 3387              	.LLST1:
 3388 0038 00000000 		.4byte	.LFB57
 3389 003c 02000000 		.4byte	.LCFI3
 3390 0040 0200     		.2byte	0x2
 3391 0042 7D       		.byte	0x7d
 3392 0043 00       		.sleb128 0
 3393 0044 02000000 		.4byte	.LCFI3
 3394 0048 04000000 		.4byte	.LCFI4
 3395 004c 0200     		.2byte	0x2
 3396 004e 7D       		.byte	0x7d
 3397 004f 04       		.sleb128 4
 3398 0050 04000000 		.4byte	.LCFI4
 3399 0054 2A000000 		.4byte	.LFE57
 3400 0058 0200     		.2byte	0x2
ARM GAS  C:\Users\GRAZIA~1.RAV\AppData\Local\Temp\ccLYRwwS.s 			page 70


 3401 005a 77       		.byte	0x77
 3402 005b 04       		.sleb128 4
 3403 005c 00000000 		.4byte	0
 3404 0060 00000000 		.4byte	0
 3405              	.LLST2:
 3406 0064 00000000 		.4byte	.LFB58
 3407 0068 02000000 		.4byte	.LCFI5
 3408 006c 0200     		.2byte	0x2
 3409 006e 7D       		.byte	0x7d
 3410 006f 00       		.sleb128 0
 3411 0070 02000000 		.4byte	.LCFI5
 3412 0074 04000000 		.4byte	.LCFI6
 3413 0078 0200     		.2byte	0x2
 3414 007a 7D       		.byte	0x7d
 3415 007b 04       		.sleb128 4
 3416 007c 04000000 		.4byte	.LCFI6
 3417 0080 06000000 		.4byte	.LCFI7
 3418 0084 0200     		.2byte	0x2
 3419 0086 7D       		.byte	0x7d
 3420 0087 10       		.sleb128 16
 3421 0088 06000000 		.4byte	.LCFI7
 3422 008c C8000000 		.4byte	.LFE58
 3423 0090 0200     		.2byte	0x2
 3424 0092 77       		.byte	0x77
 3425 0093 10       		.sleb128 16
 3426 0094 00000000 		.4byte	0
 3427 0098 00000000 		.4byte	0
 3428              	.LLST3:
 3429 009c 00000000 		.4byte	.LFB59
 3430 00a0 02000000 		.4byte	.LCFI8
 3431 00a4 0200     		.2byte	0x2
 3432 00a6 7D       		.byte	0x7d
 3433 00a7 00       		.sleb128 0
 3434 00a8 02000000 		.4byte	.LCFI8
 3435 00ac 04000000 		.4byte	.LCFI9
 3436 00b0 0200     		.2byte	0x2
 3437 00b2 7D       		.byte	0x7d
 3438 00b3 08       		.sleb128 8
 3439 00b4 04000000 		.4byte	.LCFI9
 3440 00b8 2E000000 		.4byte	.LFE59
 3441 00bc 0200     		.2byte	0x2
 3442 00be 77       		.byte	0x77
 3443 00bf 08       		.sleb128 8
 3444 00c0 00000000 		.4byte	0
 3445 00c4 00000000 		.4byte	0
 3446              	.LLST4:
 3447 00c8 00000000 		.4byte	.LFB60
 3448 00cc 02000000 		.4byte	.LCFI10
 3449 00d0 0200     		.2byte	0x2
 3450 00d2 7D       		.byte	0x7d
 3451 00d3 00       		.sleb128 0
 3452 00d4 02000000 		.4byte	.LCFI10
 3453 00d8 04000000 		.4byte	.LCFI11
 3454 00dc 0200     		.2byte	0x2
 3455 00de 7D       		.byte	0x7d
 3456 00df 0C       		.sleb128 12
 3457 00e0 04000000 		.4byte	.LCFI11
ARM GAS  C:\Users\GRAZIA~1.RAV\AppData\Local\Temp\ccLYRwwS.s 			page 71


 3458 00e4 06000000 		.4byte	.LCFI12
 3459 00e8 0200     		.2byte	0x2
 3460 00ea 7D       		.byte	0x7d
 3461 00eb 18       		.sleb128 24
 3462 00ec 06000000 		.4byte	.LCFI12
 3463 00f0 E4050000 		.4byte	.LFE60
 3464 00f4 0200     		.2byte	0x2
 3465 00f6 77       		.byte	0x77
 3466 00f7 18       		.sleb128 24
 3467 00f8 00000000 		.4byte	0
 3468 00fc 00000000 		.4byte	0
 3469              	.LLST5:
 3470 0100 00000000 		.4byte	.LFB61
 3471 0104 02000000 		.4byte	.LCFI13
 3472 0108 0200     		.2byte	0x2
 3473 010a 7D       		.byte	0x7d
 3474 010b 00       		.sleb128 0
 3475 010c 02000000 		.4byte	.LCFI13
 3476 0110 04000000 		.4byte	.LCFI14
 3477 0114 0200     		.2byte	0x2
 3478 0116 7D       		.byte	0x7d
 3479 0117 08       		.sleb128 8
 3480 0118 04000000 		.4byte	.LCFI14
 3481 011c 06000000 		.4byte	.LCFI15
 3482 0120 0200     		.2byte	0x2
 3483 0122 7D       		.byte	0x7d
 3484 0123 10       		.sleb128 16
 3485 0124 06000000 		.4byte	.LCFI15
 3486 0128 AC000000 		.4byte	.LFE61
 3487 012c 0200     		.2byte	0x2
 3488 012e 77       		.byte	0x77
 3489 012f 10       		.sleb128 16
 3490 0130 00000000 		.4byte	0
 3491 0134 00000000 		.4byte	0
 3492              	.LLST6:
 3493 0138 00000000 		.4byte	.LFB62
 3494 013c 02000000 		.4byte	.LCFI16
 3495 0140 0200     		.2byte	0x2
 3496 0142 7D       		.byte	0x7d
 3497 0143 00       		.sleb128 0
 3498 0144 02000000 		.4byte	.LCFI16
 3499 0148 04000000 		.4byte	.LCFI17
 3500 014c 0200     		.2byte	0x2
 3501 014e 7D       		.byte	0x7d
 3502 014f 08       		.sleb128 8
 3503 0150 04000000 		.4byte	.LCFI17
 3504 0154 06000000 		.4byte	.LCFI18
 3505 0158 0200     		.2byte	0x2
 3506 015a 7D       		.byte	0x7d
 3507 015b 10       		.sleb128 16
 3508 015c 06000000 		.4byte	.LCFI18
 3509 0160 54000000 		.4byte	.LFE62
 3510 0164 0200     		.2byte	0x2
 3511 0166 77       		.byte	0x77
 3512 0167 10       		.sleb128 16
 3513 0168 00000000 		.4byte	0
 3514 016c 00000000 		.4byte	0
ARM GAS  C:\Users\GRAZIA~1.RAV\AppData\Local\Temp\ccLYRwwS.s 			page 72


 3515              	.LLST7:
 3516 0170 00000000 		.4byte	.LFB63
 3517 0174 02000000 		.4byte	.LCFI19
 3518 0178 0200     		.2byte	0x2
 3519 017a 7D       		.byte	0x7d
 3520 017b 00       		.sleb128 0
 3521 017c 02000000 		.4byte	.LCFI19
 3522 0180 04000000 		.4byte	.LCFI20
 3523 0184 0200     		.2byte	0x2
 3524 0186 7D       		.byte	0x7d
 3525 0187 08       		.sleb128 8
 3526 0188 04000000 		.4byte	.LCFI20
 3527 018c 06000000 		.4byte	.LCFI21
 3528 0190 0200     		.2byte	0x2
 3529 0192 7D       		.byte	0x7d
 3530 0193 10       		.sleb128 16
 3531 0194 06000000 		.4byte	.LCFI21
 3532 0198 34000000 		.4byte	.LFE63
 3533 019c 0200     		.2byte	0x2
 3534 019e 77       		.byte	0x77
 3535 019f 10       		.sleb128 16
 3536 01a0 00000000 		.4byte	0
 3537 01a4 00000000 		.4byte	0
 3538              	.LLST8:
 3539 01a8 00000000 		.4byte	.LFB64
 3540 01ac 02000000 		.4byte	.LCFI22
 3541 01b0 0200     		.2byte	0x2
 3542 01b2 7D       		.byte	0x7d
 3543 01b3 00       		.sleb128 0
 3544 01b4 02000000 		.4byte	.LCFI22
 3545 01b8 04000000 		.4byte	.LCFI23
 3546 01bc 0200     		.2byte	0x2
 3547 01be 7D       		.byte	0x7d
 3548 01bf 08       		.sleb128 8
 3549 01c0 04000000 		.4byte	.LCFI23
 3550 01c4 06000000 		.4byte	.LCFI24
 3551 01c8 0200     		.2byte	0x2
 3552 01ca 7D       		.byte	0x7d
 3553 01cb 10       		.sleb128 16
 3554 01cc 06000000 		.4byte	.LCFI24
 3555 01d0 34000000 		.4byte	.LFE64
 3556 01d4 0200     		.2byte	0x2
 3557 01d6 77       		.byte	0x77
 3558 01d7 10       		.sleb128 16
 3559 01d8 00000000 		.4byte	0
 3560 01dc 00000000 		.4byte	0
 3561              		.section	.debug_aranges,"",%progbits
 3562 0000 5C000000 		.4byte	0x5c
 3563 0004 0200     		.2byte	0x2
 3564 0006 00000000 		.4byte	.Ldebug_info0
 3565 000a 04       		.byte	0x4
 3566 000b 00       		.byte	0
 3567 000c 0000     		.2byte	0
 3568 000e 0000     		.2byte	0
 3569 0010 00000000 		.4byte	.LFB56
 3570 0014 A0020000 		.4byte	.LFE56-.LFB56
 3571 0018 00000000 		.4byte	.LFB57
ARM GAS  C:\Users\GRAZIA~1.RAV\AppData\Local\Temp\ccLYRwwS.s 			page 73


 3572 001c 2A000000 		.4byte	.LFE57-.LFB57
 3573 0020 00000000 		.4byte	.LFB58
 3574 0024 C8000000 		.4byte	.LFE58-.LFB58
 3575 0028 00000000 		.4byte	.LFB59
 3576 002c 2E000000 		.4byte	.LFE59-.LFB59
 3577 0030 00000000 		.4byte	.LFB60
 3578 0034 E4050000 		.4byte	.LFE60-.LFB60
 3579 0038 00000000 		.4byte	.LFB61
 3580 003c AC000000 		.4byte	.LFE61-.LFB61
 3581 0040 00000000 		.4byte	.LFB62
 3582 0044 54000000 		.4byte	.LFE62-.LFB62
 3583 0048 00000000 		.4byte	.LFB63
 3584 004c 34000000 		.4byte	.LFE63-.LFB63
 3585 0050 00000000 		.4byte	.LFB64
 3586 0054 34000000 		.4byte	.LFE64-.LFB64
 3587 0058 00000000 		.4byte	0
 3588 005c 00000000 		.4byte	0
 3589              		.section	.debug_ranges,"",%progbits
 3590              	.Ldebug_ranges0:
 3591 0000 00000000 		.4byte	.LFB56
 3592 0004 A0020000 		.4byte	.LFE56
 3593 0008 00000000 		.4byte	.LFB57
 3594 000c 2A000000 		.4byte	.LFE57
 3595 0010 00000000 		.4byte	.LFB58
 3596 0014 C8000000 		.4byte	.LFE58
 3597 0018 00000000 		.4byte	.LFB59
 3598 001c 2E000000 		.4byte	.LFE59
 3599 0020 00000000 		.4byte	.LFB60
 3600 0024 E4050000 		.4byte	.LFE60
 3601 0028 00000000 		.4byte	.LFB61
 3602 002c AC000000 		.4byte	.LFE61
 3603 0030 00000000 		.4byte	.LFB62
 3604 0034 54000000 		.4byte	.LFE62
 3605 0038 00000000 		.4byte	.LFB63
 3606 003c 34000000 		.4byte	.LFE63
 3607 0040 00000000 		.4byte	.LFB64
 3608 0044 34000000 		.4byte	.LFE64
 3609 0048 00000000 		.4byte	0
 3610 004c 00000000 		.4byte	0
 3611              		.section	.debug_line,"",%progbits
 3612              	.Ldebug_line0:
 3613 0000 BA020000 		.section	.debug_str,"MS",%progbits,1
 3613      02002B01 
 3613      00000201 
 3613      FB0E0D00 
 3613      01010101 
 3614              	.LASF94:
 3615 0000 6163635F 		.ascii	"acc_pc\000"
 3615      706300
 3616              	.LASF78:
 3617 0007 6D617374 		.ascii	"master_limit_delta\000"
 3617      65725F6C 
 3617      696D6974 
 3617      5F64656C 
 3617      746100
 3618              	.LASF139:
 3619 001a 6D6F746F 		.ascii	"motor_sleep\000"
ARM GAS  C:\Users\GRAZIA~1.RAV\AppData\Local\Temp\ccLYRwwS.s 			page 74


 3619      725F736C 
 3619      65657000 
 3620              	.LASF127:
 3621 0026 70617468 		.ascii	"path_to_move\000"
 3621      5F746F5F 
 3621      6D6F7665 
 3621      00
 3622              	.LASF120:
 3623 0033 64656C74 		.ascii	"delta_position\000"
 3623      615F706F 
 3623      73697469 
 3623      6F6E00
 3624              	.LASF90:
 3625 0042 76617269 		.ascii	"variance\000"
 3625      616E6365 
 3625      00
 3626              	.LASF74:
 3627 004b 466C6F61 		.ascii	"Float_ASTIM\000"
 3627      745F4153 
 3627      54494D00 
 3628              	.LASF37:
 3629 0057 73746570 		.ascii	"step_over_abs_ratio\000"
 3629      5F6F7665 
 3629      725F6162 
 3629      735F7261 
 3629      74696F00 
 3630              	.LASF49:
 3631 006b 7265736F 		.ascii	"resolution_rad_step\000"
 3631      6C757469 
 3631      6F6E5F72 
 3631      61645F73 
 3631      74657000 
 3632              	.LASF93:
 3633 007f 54504152 		.ascii	"TPARA\000"
 3633      4100
 3634              	.LASF96:
 3635 0085 74696D65 		.ascii	"time_sec\000"
 3635      5F736563 
 3635      00
 3636              	.LASF8:
 3637 008e 756E7369 		.ascii	"unsigned int\000"
 3637      676E6564 
 3637      20696E74 
 3637      00
 3638              	.LASF151:
 3639 009b 616E6170 		.ascii	"anapos_offset\000"
 3639      6F735F6F 
 3639      66667365 
 3639      7400
 3640              	.LASF91:
 3641 00a9 69746572 		.ascii	"iteration_num\000"
 3641      6174696F 
 3641      6E5F6E75 
 3641      6D00
 3642              	.LASF13:
 3643 00b7 696E7431 		.ascii	"int16\000"
 3643      3600
ARM GAS  C:\Users\GRAZIA~1.RAV\AppData\Local\Temp\ccLYRwwS.s 			page 75


 3644              	.LASF137:
 3645 00bd 6D6F746F 		.ascii	"motor_init\000"
 3645      725F696E 
 3645      697400
 3646              	.LASF89:
 3647 00c8 516B5F70 		.ascii	"Qk_previous\000"
 3647      72657669 
 3647      6F757300 
 3648              	.LASF71:
 3649 00d4 70776D5F 		.ascii	"pwm_var\000"
 3649      76617200 
 3650              	.LASF100:
 3651 00dc 6163635F 		.ascii	"acc_ticks\000"
 3651      7469636B 
 3651      7300
 3652              	.LASF62:
 3653 00e6 6D617374 		.ascii	"master_joy_sample_delta\000"
 3653      65725F6A 
 3653      6F795F73 
 3653      616D706C 
 3653      655F6465 
 3654              	.LASF68:
 3655 00fe 64657269 		.ascii	"derivative_lowpass\000"
 3655      76617469 
 3655      76655F6C 
 3655      6F777061 
 3655      737300
 3656              	.LASF64:
 3657 0111 6572726F 		.ascii	"error\000"
 3657      7200
 3658              	.LASF40:
 3659 0117 736C6176 		.ascii	"slave_encoder_step_p0\000"
 3659      655F656E 
 3659      636F6465 
 3659      725F7374 
 3659      65705F70 
 3660              	.LASF34:
 3661 012d 7261775F 		.ascii	"raw_limit_max\000"
 3661      6C696D69 
 3661      745F6D61 
 3661      7800
 3662              	.LASF135:
 3663 013b 6D6F746F 		.ascii	"motor_control\000"
 3663      725F636F 
 3663      6E74726F 
 3663      6C00
 3664              	.LASF76:
 3665 0149 4C494D49 		.ascii	"LIMITCONTROL\000"
 3665      54434F4E 
 3665      54524F4C 
 3665      00
 3666              	.LASF33:
 3667 0156 7261775F 		.ascii	"raw_home\000"
 3667      686F6D65 
 3667      00
 3668              	.LASF47:
 3669 015f 61737469 		.ascii	"astim_type\000"
ARM GAS  C:\Users\GRAZIA~1.RAV\AppData\Local\Temp\ccLYRwwS.s 			page 76


 3669      6D5F7479 
 3669      706500
 3670              	.LASF97:
 3671 016a 73746570 		.ascii	"steps\000"
 3671      7300
 3672              	.LASF15:
 3673 0170 666C6F61 		.ascii	"float\000"
 3673      7400
 3674              	.LASF14:
 3675 0176 696E7433 		.ascii	"int32\000"
 3675      3200
 3676              	.LASF66:
 3677 017c 69657272 		.ascii	"ierror\000"
 3677      6F7200
 3678              	.LASF7:
 3679 0183 6C6F6E67 		.ascii	"long long unsigned int\000"
 3679      206C6F6E 
 3679      6720756E 
 3679      7369676E 
 3679      65642069 
 3680              	.LASF67:
 3681 019a 64657272 		.ascii	"derror\000"
 3681      6F7200
 3682              	.LASF142:
 3683 01a1 70616E5F 		.ascii	"pan_absolute_sensor\000"
 3683      6162736F 
 3683      6C757465 
 3683      5F73656E 
 3683      736F7200 
 3684              	.LASF46:
 3685 01b5 61737469 		.ascii	"astim_enable\000"
 3685      6D5F656E 
 3685      61626C65 
 3685      00
 3686              	.LASF111:
 3687 01c2 6163635F 		.ascii	"acc_slope\000"
 3687      736C6F70 
 3687      6500
 3688              	.LASF29:
 3689 01cc 616E6775 		.ascii	"angular_velocity\000"
 3689      6C61725F 
 3689      76656C6F 
 3689      63697479 
 3689      00
 3690              	.LASF60:
 3691 01dd 6D617374 		.ascii	"master_enc_sample_delta\000"
 3691      65725F65 
 3691      6E635F73 
 3691      616D706C 
 3691      655F6465 
 3692              	.LASF75:
 3693 01f5 61737469 		.ascii	"astim_ZCsync\000"
 3693      6D5F5A43 
 3693      73796E63 
 3693      00
 3694              	.LASF54:
 3695 0202 4761696E 		.ascii	"Gain_ANAOUT\000"
ARM GAS  C:\Users\GRAZIA~1.RAV\AppData\Local\Temp\ccLYRwwS.s 			page 77


 3695      5F414E41 
 3695      4F555400 
 3696              	.LASF146:
 3697 020e 70616E5F 		.ascii	"pan_axis\000"
 3697      61786973 
 3697      00
 3698              	.LASF53:
 3699 0217 4B6F7066 		.ascii	"Kopf\000"
 3699      00
 3700              	.LASF104:
 3701 021c 6465635F 		.ascii	"dec_start_tpoint\000"
 3701      73746172 
 3701      745F7470 
 3701      6F696E74 
 3701      00
 3702              	.LASF41:
 3703 022d 7261775F 		.ascii	"raw_adc_p0\000"
 3703      6164635F 
 3703      703000
 3704              	.LASF98:
 3705 0238 6C617374 		.ascii	"last_flg\000"
 3705      5F666C67 
 3705      00
 3706              	.LASF147:
 3707 0241 74696C74 		.ascii	"tilt_axis\000"
 3707      5F617869 
 3707      7300
 3708              	.LASF133:
 3709 024b 41786973 		.ascii	"Axis_limit_control_init\000"
 3709      5F6C696D 
 3709      69745F63 
 3709      6F6E7472 
 3709      6F6C5F69 
 3710              	.LASF61:
 3711 0263 6D617374 		.ascii	"master_joy_position\000"
 3711      65725F6A 
 3711      6F795F70 
 3711      6F736974 
 3711      696F6E00 
 3712              	.LASF128:
 3713 0277 6D6F7665 		.ascii	"mover_type\000"
 3713      725F7479 
 3713      706500
 3714              	.LASF148:
 3715 0282 70617468 		.ascii	"path\000"
 3715      00
 3716              	.LASF122:
 3717 0287 74726170 		.ascii	"trapezoid_index\000"
 3717      657A6F69 
 3717      645F696E 
 3717      64657800 
 3718              	.LASF130:
 3719 0297 41786973 		.ascii	"Axis_limit_control\000"
 3719      5F6C696D 
 3719      69745F63 
 3719      6F6E7472 
 3719      6F6C00
ARM GAS  C:\Users\GRAZIA~1.RAV\AppData\Local\Temp\ccLYRwwS.s 			page 78


 3720              	.LASF118:
 3721 02aa 7469636B 		.ascii	"ticks\000"
 3721      7300
 3722              	.LASF18:
 3723 02b0 63686172 		.ascii	"char\000"
 3723      00
 3724              	.LASF58:
 3725 02b5 4D434441 		.ascii	"MCDATAS\000"
 3725      54415300 
 3726              	.LASF11:
 3727 02bd 75696E74 		.ascii	"uint16\000"
 3727      313600
 3728              	.LASF149:
 3729 02c4 41646356 		.ascii	"AdcValue\000"
 3729      616C7565 
 3729      00
 3730              	.LASF52:
 3731 02cd 4B736966 		.ascii	"Ksif\000"
 3731      00
 3732              	.LASF134:
 3733 02d2 416C6C5F 		.ascii	"All_Axes_limit_control\000"
 3733      41786573 
 3733      5F6C696D 
 3733      69745F63 
 3733      6F6E7472 
 3734              	.LASF25:
 3735 02e9 7265736F 		.ascii	"resolution\000"
 3735      6C757469 
 3735      6F6E00
 3736              	.LASF115:
 3737 02f4 50504152 		.ascii	"PPARA\000"
 3737      4100
 3738              	.LASF77:
 3739 02fa 73746174 		.ascii	"status\000"
 3739      757300
 3740              	.LASF23:
 3741 0301 454E435F 		.ascii	"ENC_PARAMETER\000"
 3741      50415241 
 3741      4D455445 
 3741      5200
 3742              	.LASF108:
 3743 030f 765F636F 		.ascii	"v_const\000"
 3743      6E737400 
 3744              	.LASF17:
 3745 0317 63686172 		.ascii	"char8\000"
 3745      3800
 3746              	.LASF145:
 3747 031d 74696C74 		.ascii	"tilt_absolute_sensor_stat\000"
 3747      5F616273 
 3747      6F6C7574 
 3747      655F7365 
 3747      6E736F72 
 3748              	.LASF131:
 3749 0337 70617869 		.ascii	"paxis\000"
 3749      7300
 3750              	.LASF153:
 3751 033d 2E5C6D6F 		.ascii	".\\motor_CTRL.c\000"
ARM GAS  C:\Users\GRAZIA~1.RAV\AppData\Local\Temp\ccLYRwwS.s 			page 79


 3751      746F725F 
 3751      4354524C 
 3751      2E6300
 3752              	.LASF45:
 3753 034c 56504152 		.ascii	"VPARAMS\000"
 3753      414D5300 
 3754              	.LASF84:
 3755 0354 6D657373 		.ascii	"messg\000"
 3755      6700
 3756              	.LASF6:
 3757 035a 6C6F6E67 		.ascii	"long long int\000"
 3757      206C6F6E 
 3757      6720696E 
 3757      7400
 3758              	.LASF50:
 3759 0368 50415241 		.ascii	"PARAMS\000"
 3759      4D5300
 3760              	.LASF123:
 3761 036f 72656D61 		.ascii	"remainder_double\000"
 3761      696E6465 
 3761      725F646F 
 3761      75626C65 
 3761      00
 3762              	.LASF88:
 3763 0380 73636172 		.ascii	"scarto\000"
 3763      746F00
 3764              	.LASF30:
 3765 0387 70617261 		.ascii	"param\000"
 3765      6D00
 3766              	.LASF59:
 3767 038d 6D617374 		.ascii	"master_enc_position\000"
 3767      65725F65 
 3767      6E635F70 
 3767      6F736974 
 3767      696F6E00 
 3768              	.LASF114:
 3769 03a1 6D6F7665 		.ascii	"mover\000"
 3769      7200
 3770              	.LASF129:
 3771 03a7 416E616C 		.ascii	"AnalogShow\000"
 3771      6F675368 
 3771      6F7700
 3772              	.LASF81:
 3773 03b2 76706172 		.ascii	"vparam\000"
 3773      616D00
 3774              	.LASF31:
 3775 03b9 4142504F 		.ascii	"ABPOS_SENS_PARAMETER\000"
 3775      535F5345 
 3775      4E535F50 
 3775      4152414D 
 3775      45544552 
 3776              	.LASF87:
 3777 03ce 72616E67 		.ascii	"range\000"
 3777      6500
 3778              	.LASF38:
 3779 03d4 41425350 		.ascii	"ABSPOS_SENSOR\000"
 3779      4F535F53 
ARM GAS  C:\Users\GRAZIA~1.RAV\AppData\Local\Temp\ccLYRwwS.s 			page 80


 3779      454E534F 
 3779      5200
 3780              	.LASF12:
 3781 03e2 75696E74 		.ascii	"uint32\000"
 3781      333200
 3782              	.LASF70:
 3783 03e9 6374726C 		.ascii	"ctrl_var\000"
 3783      5F766172 
 3783      00
 3784              	.LASF119:
 3785 03f2 70617468 		.ascii	"path_ticks_MAX\000"
 3785      5F746963 
 3785      6B735F4D 
 3785      415800
 3786              	.LASF138:
 3787 0401 6D6F746F 		.ascii	"motor_energize\000"
 3787      725F656E 
 3787      65726769 
 3787      7A6500
 3788              	.LASF80:
 3789 0410 4D4F544F 		.ascii	"MOTOR_AXIS\000"
 3789      525F4158 
 3789      495300
 3790              	.LASF132:
 3791 041b 6162735F 		.ascii	"abs_sens\000"
 3791      73656E73 
 3791      00
 3792              	.LASF101:
 3793 0424 6465635F 		.ascii	"dec_ticks\000"
 3793      7469636B 
 3793      7300
 3794              	.LASF82:
 3795 042e 6C6F6E67 		.ascii	"long double\000"
 3795      20646F75 
 3795      626C6500 
 3796              	.LASF107:
 3797 043a 7469636B 		.ascii	"ticks_final\000"
 3797      735F6669 
 3797      6E616C00 
 3798              	.LASF92:
 3799 0446 7469636B 		.ascii	"tick\000"
 3799      00
 3800              	.LASF44:
 3801 044b 72617469 		.ascii	"ratio_tmp\000"
 3801      6F5F746D 
 3801      7000
 3802              	.LASF22:
 3803 0455 666C6F61 		.ascii	"floatEE\000"
 3803      74454500 
 3804              	.LASF20:
 3805 045d 66627974 		.ascii	"fbyte\000"
 3805      6500
 3806              	.LASF28:
 3807 0463 616E676C 		.ascii	"angle\000"
 3807      6500
 3808              	.LASF124:
 3809 0469 73746570 		.ascii	"steps_to_move_double\000"
ARM GAS  C:\Users\GRAZIA~1.RAV\AppData\Local\Temp\ccLYRwwS.s 			page 81


 3809      735F746F 
 3809      5F6D6F76 
 3809      655F646F 
 3809      75626C65 
 3810              	.LASF35:
 3811 047e 7261775F 		.ascii	"raw_limit_min\000"
 3811      6C696D69 
 3811      745F6D69 
 3811      6E00
 3812              	.LASF143:
 3813 048c 74696C74 		.ascii	"tilt_absolute_sensor\000"
 3813      5F616273 
 3813      6F6C7574 
 3813      655F7365 
 3813      6E736F72 
 3814              	.LASF83:
 3815 04a1 53544154 		.ascii	"STATISTICS\000"
 3815      49535449 
 3815      435300
 3816              	.LASF2:
 3817 04ac 73686F72 		.ascii	"short int\000"
 3817      7420696E 
 3817      7400
 3818              	.LASF69:
 3819 04b6 64656164 		.ascii	"deadband_factor\000"
 3819      62616E64 
 3819      5F666163 
 3819      746F7200 
 3820              	.LASF72:
 3821 04c6 70776D5F 		.ascii	"pwm_test_var\000"
 3821      74657374 
 3821      5F766172 
 3821      00
 3822              	.LASF141:
 3823 04d3 6D616368 		.ascii	"machine_state\000"
 3823      696E655F 
 3823      73746174 
 3823      6500
 3824              	.LASF4:
 3825 04e1 6C6F6E67 		.ascii	"long int\000"
 3825      20696E74 
 3825      00
 3826              	.LASF140:
 3827 04ea 49544D5F 		.ascii	"ITM_RxBuffer\000"
 3827      52784275 
 3827      66666572 
 3827      00
 3828              	.LASF51:
 3829 04f7 706F6C61 		.ascii	"polarity\000"
 3829      72697479 
 3829      00
 3830              	.LASF150:
 3831 0500 616E6170 		.ascii	"anapos\000"
 3831      6F7300
 3832              	.LASF113:
 3833 0507 54524150 		.ascii	"TRAPEZOID\000"
 3833      455A4F49 
ARM GAS  C:\Users\GRAZIA~1.RAV\AppData\Local\Temp\ccLYRwwS.s 			page 82


 3833      4400
 3834              	.LASF55:
 3835 0511 636F6C6F 		.ascii	"color\000"
 3835      7200
 3836              	.LASF48:
 3837 0517 7265736F 		.ascii	"resolution_step_deg\000"
 3837      6C757469 
 3837      6F6E5F73 
 3837      7465705F 
 3837      64656700 
 3838              	.LASF42:
 3839 052b 73616D70 		.ascii	"sample_d1\000"
 3839      6C655F64 
 3839      3100
 3840              	.LASF43:
 3841 0535 73616D70 		.ascii	"sample_d2\000"
 3841      6C655F64 
 3841      3200
 3842              	.LASF112:
 3843 053f 6465635F 		.ascii	"dec_slope\000"
 3843      736C6F70 
 3843      6500
 3844              	.LASF27:
 3845 0549 76656C6F 		.ascii	"velocity\000"
 3845      63697479 
 3845      00
 3846              	.LASF106:
 3847 0552 7469636B 		.ascii	"ticks_initial\000"
 3847      735F696E 
 3847      69746961 
 3847      6C00
 3848              	.LASF19:
 3849 0560 73697A65 		.ascii	"sizetype\000"
 3849      74797065 
 3849      00
 3850              	.LASF5:
 3851 0569 6C6F6E67 		.ascii	"long unsigned int\000"
 3851      20756E73 
 3851      69676E65 
 3851      6420696E 
 3851      7400
 3852              	.LASF63:
 3853 057b 736C6176 		.ascii	"slave_enc\000"
 3853      655F656E 
 3853      6300
 3854              	.LASF9:
 3855 0585 696E7433 		.ascii	"int32_t\000"
 3855      325F7400 
 3856              	.LASF102:
 3857 058d 76636F6E 		.ascii	"vconst_ticks\000"
 3857      73745F74 
 3857      69636B73 
 3857      00
 3858              	.LASF57:
 3859 059a 6C696D69 		.ascii	"limit_deceleration_factor\000"
 3859      745F6465 
 3859      63656C65 
ARM GAS  C:\Users\GRAZIA~1.RAV\AppData\Local\Temp\ccLYRwwS.s 			page 83


 3859      72617469 
 3859      6F6E5F66 
 3860              	.LASF105:
 3861 05b4 6465635F 		.ascii	"dec_end_tpoint\000"
 3861      656E645F 
 3861      74706F69 
 3861      6E7400
 3862              	.LASF32:
 3863 05c3 7261775F 		.ascii	"raw_invertion\000"
 3863      696E7665 
 3863      7274696F 
 3863      6E00
 3864              	.LASF86:
 3865 05d1 6D65616E 		.ascii	"mean_previous\000"
 3865      5F707265 
 3865      76696F75 
 3865      7300
 3866              	.LASF154:
 3867 05df 433A5C55 		.ascii	"C:\\Users\\Graziano G. Ravizza\\Documents\\PSoC Cre"
 3867      73657273 
 3867      5C477261 
 3867      7A69616E 
 3867      6F20472E 
 3868 060e 61746F72 		.ascii	"ator\\SQUIT\\Vers.0.0-T00 2019-0208 C3.0 (start)\\S"
 3868      5C535155 
 3868      49545C56 
 3868      6572732E 
 3868      302E302D 
 3869 063e 71756974 		.ascii	"quit-Proto.cydsn\000"
 3869      2D50726F 
 3869      746F2E63 
 3869      7964736E 
 3869      00
 3870              	.LASF117:
 3871 064f 74726170 		.ascii	"trapezoid\000"
 3871      657A6F69 
 3871      6400
 3872              	.LASF21:
 3873 0659 666E756D 		.ascii	"fnum\000"
 3873      00
 3874              	.LASF1:
 3875 065e 756E7369 		.ascii	"unsigned char\000"
 3875      676E6564 
 3875      20636861 
 3875      7200
 3876              	.LASF116:
 3877 066c 54726170 		.ascii	"Trapezoid_Number\000"
 3877      657A6F69 
 3877      645F4E75 
 3877      6D626572 
 3877      00
 3878              	.LASF65:
 3879 067d 6572726F 		.ascii	"error_bef\000"
 3879      725F6265 
 3879      6600
 3880              	.LASF103:
 3881 0687 6163635F 		.ascii	"acc_end_tpoint\000"
ARM GAS  C:\Users\GRAZIA~1.RAV\AppData\Local\Temp\ccLYRwwS.s 			page 84


 3881      656E645F 
 3881      74706F69 
 3881      6E7400
 3882              	.LASF136:
 3883 0696 47616C69 		.ascii	"GalilTrick\000"
 3883      6C547269 
 3883      636B00
 3884              	.LASF95:
 3885 06a1 6465635F 		.ascii	"dec_pc\000"
 3885      706300
 3886              	.LASF36:
 3887 06a8 7261775F 		.ascii	"raw_limit_hysteresis\000"
 3887      6C696D69 
 3887      745F6879 
 3887      73746572 
 3887      65736973 
 3888              	.LASF39:
 3889 06bd 616E676C 		.ascii	"angle_rad\000"
 3889      655F7261 
 3889      6400
 3890              	.LASF121:
 3891 06c7 70617468 		.ascii	"path_type\000"
 3891      5F747970 
 3891      6500
 3892              	.LASF0:
 3893 06d1 7369676E 		.ascii	"signed char\000"
 3893      65642063 
 3893      68617200 
 3894              	.LASF3:
 3895 06dd 73686F72 		.ascii	"short unsigned int\000"
 3895      7420756E 
 3895      7369676E 
 3895      65642069 
 3895      6E7400
 3896              	.LASF144:
 3897 06f0 70616E5F 		.ascii	"pan_absolute_sensor_stat\000"
 3897      6162736F 
 3897      6C757465 
 3897      5F73656E 
 3897      736F725F 
 3898              	.LASF126:
 3899 0709 73746570 		.ascii	"steps_integral\000"
 3899      735F696E 
 3899      74656772 
 3899      616C00
 3900              	.LASF152:
 3901 0718 474E5520 		.ascii	"GNU C 4.7.3 20130312 (release) [ARM/embedded-4_7-br"
 3901      4320342E 
 3901      372E3320 
 3901      32303133 
 3901      30333132 
 3902 074b 616E6368 		.ascii	"anch revision 196615]\000"
 3902      20726576 
 3902      6973696F 
 3902      6E203139 
 3902      36363135 
 3903              	.LASF99:
ARM GAS  C:\Users\GRAZIA~1.RAV\AppData\Local\Temp\ccLYRwwS.s 			page 85


 3904 0761 4D564441 		.ascii	"MVDATAS\000"
 3904      54415300 
 3905              	.LASF73:
 3906 0769 63757272 		.ascii	"current\000"
 3906      656E7400 
 3907              	.LASF110:
 3908 0771 765F6669 		.ascii	"v_final\000"
 3908      6E616C00 
 3909              	.LASF10:
 3910 0779 75696E74 		.ascii	"uint8\000"
 3910      3800
 3911              	.LASF16:
 3912 077f 646F7562 		.ascii	"double\000"
 3912      6C6500
 3913              	.LASF56:
 3914 0786 6C696D69 		.ascii	"limit_control\000"
 3914      745F636F 
 3914      6E74726F 
 3914      6C00
 3915              	.LASF24:
 3916 0794 454E434F 		.ascii	"ENCODER\000"
 3916      44455200 
 3917              	.LASF109:
 3918 079c 765F696E 		.ascii	"v_initial\000"
 3918      69746961 
 3918      6C00
 3919              	.LASF79:
 3920 07a6 64656365 		.ascii	"deceleration_factor\000"
 3920      6C657261 
 3920      74696F6E 
 3920      5F666163 
 3920      746F7200 
 3921              	.LASF125:
 3922 07ba 73746570 		.ascii	"steps_to_move\000"
 3922      735F746F 
 3922      5F6D6F76 
 3922      6500
 3923              	.LASF85:
 3924 07c8 6D65616E 		.ascii	"mean\000"
 3924      00
 3925              	.LASF26:
 3926 07cd 706F7369 		.ascii	"position\000"
 3926      74696F6E 
 3926      00
 3927              		.ident	"GCC: (GNU Tools for ARM Embedded Processors) 4.7.3 20130312 (release) [ARM/embedded-4_7-br
