ARM GAS  C:\Users\GRAZIA~1.RAV\AppData\Local\Temp\ccLYRwwS.s 			page 1


   1              		.syntax unified
   2              		.cpu cortex-m3
   3              		.fpu softvfp
   4              		.eabi_attribute 20, 1
   5              		.eabi_attribute 21, 1
   6              		.eabi_attribute 23, 3
   7              		.eabi_attribute 24, 1
   8              		.eabi_attribute 25, 1
   9              		.eabi_attribute 26, 1
  10              		.eabi_attribute 30, 6
  11              		.eabi_attribute 34, 1
  12              		.eabi_attribute 18, 4
  13              		.thumb
  14              		.file	"motor_CTRL.c"
  15              		.text
  16              	.Ltext0:
  17              		.cfi_sections	.debug_frame
  18              		.global	__aeabi_i2f
  19              		.global	__aeabi_fmul
  20              		.global	__aeabi_fsub
  21              		.global	__aeabi_fdiv
  22              		.global	__aeabi_fcmpgt
  23              		.global	__aeabi_fcmplt
  24              		.global	__aeabi_fadd
  25              		.global	__aeabi_f2uiz
  26              		.section	.text.AnalogShow,"ax",%progbits
  27              		.align	2
  28              		.global	AnalogShow
  29              		.thumb
  30              		.thumb_func
  31              		.type	AnalogShow, %function
  32              	AnalogShow:
  33              	.LFB56:
  34              		.file 1 ".\\motor_CTRL.c"
   1:.\motor_CTRL.c **** /* ========================================
   2:.\motor_CTRL.c ****  *
   3:.\motor_CTRL.c ****  * Copyright Logic brainstorm, 2015
   4:.\motor_CTRL.c ****  * All Rights Reserved
   5:.\motor_CTRL.c ****  * UNPUBLISHED, LICENSED SOFTWARE.
   6:.\motor_CTRL.c ****  *
   7:.\motor_CTRL.c ****  * CONFIDENTIAL AND PROPRIETARY INFORMATION
   8:.\motor_CTRL.c ****  * WHICH IS THE PROPERTY OF your company.
   9:.\motor_CTRL.c ****  *
  10:.\motor_CTRL.c ****  * ========================================
  11:.\motor_CTRL.c **** */
  12:.\motor_CTRL.c **** 
  13:.\motor_CTRL.c **** #include <device.h>
  14:.\motor_CTRL.c **** #include <gobee.h>
  15:.\motor_CTRL.c **** #include <gobeelib.h>
  16:.\motor_CTRL.c **** #include <math.h>
  17:.\motor_CTRL.c **** #include <statistics.h>
  18:.\motor_CTRL.c **** #include <estimators.h>
  19:.\motor_CTRL.c **** #include <pid_lib.h>
  20:.\motor_CTRL.c **** #include <mover.h>
  21:.\motor_CTRL.c **** #include <motor_CTRL.h>
  22:.\motor_CTRL.c **** 
  23:.\motor_CTRL.c **** /* External Gobee Machine State */
ARM GAS  C:\Users\GRAZIA~1.RAV\AppData\Local\Temp\ccLYRwwS.s 			page 2


  24:.\motor_CTRL.c **** extern uint8 machine_state;			/* Initial Machine State = POWERON 					*/
  25:.\motor_CTRL.c **** 									/* Machine States = [POWERON | OPERATIVE | FAULT]	*/
  26:.\motor_CTRL.c **** 
  27:.\motor_CTRL.c **** extern uint8 machine_state_backup;	/* machine state backup var for test mode			*/
  28:.\motor_CTRL.c **** 
  29:.\motor_CTRL.c **** 
  30:.\motor_CTRL.c **** /* External GoBee Parameters */
  31:.\motor_CTRL.c **** extern struct GOBEE_PARAMS gobee_param;
  32:.\motor_CTRL.c **** 
  33:.\motor_CTRL.c **** /* EXTERNAL Absolute Position Sensor */
  34:.\motor_CTRL.c **** extern struct ABSPOS_SENSOR	pan_absolute_sensor;	/* PAN  Absolute Position Sensor Parameters & RT D
  35:.\motor_CTRL.c **** extern struct ABSPOS_SENSOR	tilt_absolute_sensor;	/* TILT Absolute Position Sensor Parameters & RT 
  36:.\motor_CTRL.c **** 
  37:.\motor_CTRL.c **** /* extern axis absolute sensor STATISTICS	*/
  38:.\motor_CTRL.c **** extern struct STATISTICS pan_absolute_sensor_stat;	/* PAN  Absolute Position Sensor Statistics Data
  39:.\motor_CTRL.c **** extern struct STATISTICS tilt_absolute_sensor_stat;	/* TILT Absolute Position Sensor Statistics Dat
  40:.\motor_CTRL.c **** 
  41:.\motor_CTRL.c **** /* EXTERNAL Motor Axis */
  42:.\motor_CTRL.c **** extern struct MOTOR_AXIS pan_axis; 			/* PAN Motor Axis Parameters & RT Datas	    */
  43:.\motor_CTRL.c **** extern struct MOTOR_AXIS tilt_axis; 		/* TILT Motor Axis Parameters & RT Datas	*/
  44:.\motor_CTRL.c **** 
  45:.\motor_CTRL.c **** /* EXTERN MOVER PAN&TILT  */
  46:.\motor_CTRL.c **** extern mover_type mover_pan;			/* mover PAN structure 		*/
  47:.\motor_CTRL.c **** extern mover_type mover_tilt;			/* mover TILT structure 	*/
  48:.\motor_CTRL.c **** 
  49:.\motor_CTRL.c **** /* EXTERN MOVER PATH Array */
  50:.\motor_CTRL.c **** extern path_type path[PATH_N_MAX];		/* path array structure 	*/
  51:.\motor_CTRL.c **** 
  52:.\motor_CTRL.c **** extern mover_type mover_pan;			/* mover PAN structure 		*/
  53:.\motor_CTRL.c **** extern mover_type mover_tilt;			/* mover TILT structure 	*/
  54:.\motor_CTRL.c **** 
  55:.\motor_CTRL.c **** /* extern Sensor ADC array */
  56:.\motor_CTRL.c **** extern int16 AdcValue[ADC_MUX_LENGHT];
  57:.\motor_CTRL.c **** 
  58:.\motor_CTRL.c **** /* extern anapos vars */
  59:.\motor_CTRL.c **** extern float anapos;					/* Analog Position Output(t) 				*/
  60:.\motor_CTRL.c **** extern int32 anapos_offset;				/* Analog Position Output Offset			*/
  61:.\motor_CTRL.c **** 
  62:.\motor_CTRL.c **** 
  63:.\motor_CTRL.c **** /********************************************************************/
  64:.\motor_CTRL.c **** /* ANAPOS OR ANAVEL SHOW											*/
  65:.\motor_CTRL.c **** /* DAC_ANAOUT <-- Selected ENCODER	* Gain_ANAOUT					*/
  66:.\motor_CTRL.c **** /*			  <-- d/dt(Selected ENCODER) * Gain_ANAOUT				*/
  67:.\motor_CTRL.c **** /********************************************************************/
  68:.\motor_CTRL.c **** void AnalogShow(struct MOTOR_AXIS *paxis)
  69:.\motor_CTRL.c **** {
  35              		.loc 1 69 0
  36              		.cfi_startproc
  37              		@ args = 0, pretend = 0, frame = 8
  38              		@ frame_needed = 1, uses_anonymous_args = 0
  39 0000 B0B5     		push	{r4, r5, r7, lr}
  40              	.LCFI0:
  41              		.cfi_def_cfa_offset 16
  42              		.cfi_offset 4, -16
  43              		.cfi_offset 5, -12
  44              		.cfi_offset 7, -8
  45              		.cfi_offset 14, -4
ARM GAS  C:\Users\GRAZIA~1.RAV\AppData\Local\Temp\ccLYRwwS.s 			page 3


  46 0002 82B0     		sub	sp, sp, #8
  47              	.LCFI1:
  48              		.cfi_def_cfa_offset 24
  49 0004 00AF     		add	r7, sp, #0
  50              	.LCFI2:
  51              		.cfi_def_cfa_register 7
  52 0006 7860     		str	r0, [r7, #4]
  70:.\motor_CTRL.c **** 	/* ANAPOS Selection based on *paxis (pan, tilt or roll?) and color (backslash or slave?)	*/
  71:.\motor_CTRL.c **** 
  72:.\motor_CTRL.c **** 	if ((*paxis).param.color == SLAVE_ENC_POS)
  53              		.loc 1 72 0
  54 0008 7B68     		ldr	r3, [r7, #4]
  55 000a 93F82C30 		ldrb	r3, [r3, #44]	@ zero_extendqisi2
  56 000e 012B     		cmp	r3, #1
  57 0010 19D1     		bne	.L2
  73:.\motor_CTRL.c **** 	{
  74:.\motor_CTRL.c **** 		anapos = (*paxis).param.Gain_ANAOUT.fnum*(float)((*paxis).mc.slave_enc.position - anapos_offset);
  58              		.loc 1 74 0
  59 0012 7B68     		ldr	r3, [r7, #4]
  60 0014 9C6A     		ldr	r4, [r3, #40]	@ float
  61 0016 7B68     		ldr	r3, [r7, #4]
  62 0018 5A6C     		ldr	r2, [r3, #68]
  63 001a 40F20003 		movw	r3, #:lower16:anapos_offset
  64 001e C0F20003 		movt	r3, #:upper16:anapos_offset
  65 0022 1B68     		ldr	r3, [r3, #0]
  66 0024 D31A     		subs	r3, r2, r3
  67 0026 1846     		mov	r0, r3
  68 0028 FFF7FEFF 		bl	__aeabi_i2f
  69 002c 0346     		mov	r3, r0
  70 002e 2046     		mov	r0, r4
  71 0030 1946     		mov	r1, r3
  72 0032 FFF7FEFF 		bl	__aeabi_fmul
  73 0036 0346     		mov	r3, r0
  74 0038 1A46     		mov	r2, r3
  75 003a 40F20003 		movw	r3, #:lower16:anapos
  76 003e C0F20003 		movt	r3, #:upper16:anapos
  77 0042 1A60     		str	r2, [r3, #0]	@ float
  78 0044 E5E0     		b	.L3
  79              	.L2:
  75:.\motor_CTRL.c **** 	}
  76:.\motor_CTRL.c **** 	else if ((*paxis).param.color == SLAVE_ENC_VEL)
  80              		.loc 1 76 0
  81 0046 7B68     		ldr	r3, [r7, #4]
  82 0048 93F82C30 		ldrb	r3, [r3, #44]	@ zero_extendqisi2
  83 004c 022B     		cmp	r3, #2
  84 004e 1DD1     		bne	.L4
  77:.\motor_CTRL.c **** 	{
  78:.\motor_CTRL.c **** 		anapos = (*paxis).param.Gain_ANAOUT.fnum*(float)((*paxis).mc.slave_enc.velocity - anapos_offset);
  85              		.loc 1 78 0
  86 0050 7B68     		ldr	r3, [r7, #4]
  87 0052 9C6A     		ldr	r4, [r3, #40]	@ float
  88 0054 7B68     		ldr	r3, [r7, #4]
  89 0056 9D6C     		ldr	r5, [r3, #72]	@ float
  90 0058 40F20003 		movw	r3, #:lower16:anapos_offset
  91 005c C0F20003 		movt	r3, #:upper16:anapos_offset
  92 0060 1B68     		ldr	r3, [r3, #0]
  93 0062 1846     		mov	r0, r3
ARM GAS  C:\Users\GRAZIA~1.RAV\AppData\Local\Temp\ccLYRwwS.s 			page 4


  94 0064 FFF7FEFF 		bl	__aeabi_i2f
  95 0068 0346     		mov	r3, r0
  96 006a 2846     		mov	r0, r5
  97 006c 1946     		mov	r1, r3
  98 006e FFF7FEFF 		bl	__aeabi_fsub
  99 0072 0346     		mov	r3, r0
 100 0074 2046     		mov	r0, r4
 101 0076 1946     		mov	r1, r3
 102 0078 FFF7FEFF 		bl	__aeabi_fmul
 103 007c 0346     		mov	r3, r0
 104 007e 1A46     		mov	r2, r3
 105 0080 40F20003 		movw	r3, #:lower16:anapos
 106 0084 C0F20003 		movt	r3, #:upper16:anapos
 107 0088 1A60     		str	r2, [r3, #0]	@ float
 108 008a C2E0     		b	.L3
 109              	.L4:
  79:.\motor_CTRL.c **** 	}	
  80:.\motor_CTRL.c **** 	else if ((*paxis).param.color == ASTIM_IN)
 110              		.loc 1 80 0
 111 008c 7B68     		ldr	r3, [r7, #4]
 112 008e 93F82C30 		ldrb	r3, [r3, #44]	@ zero_extendqisi2
 113 0092 032B     		cmp	r3, #3
 114 0094 12D1     		bne	.L5
  81:.\motor_CTRL.c **** 	{
  82:.\motor_CTRL.c **** 		//anapos = pan_axis.param.Gain_ANAOUT.fnum*(pan_axis.mc.Float_ASTIM - (float)anapos_offset);
  83:.\motor_CTRL.c **** 		anapos = (*paxis).param.Gain_ANAOUT.fnum*pan_axis.mc.Float_ASTIM;
 115              		.loc 1 83 0
 116 0096 7B68     		ldr	r3, [r7, #4]
 117 0098 9A6A     		ldr	r2, [r3, #40]	@ float
 118 009a 40F20003 		movw	r3, #:lower16:pan_axis
 119 009e C0F20003 		movt	r3, #:upper16:pan_axis
 120 00a2 DB6F     		ldr	r3, [r3, #124]	@ float
 121 00a4 1046     		mov	r0, r2
 122 00a6 1946     		mov	r1, r3
 123 00a8 FFF7FEFF 		bl	__aeabi_fmul
 124 00ac 0346     		mov	r3, r0
 125 00ae 1A46     		mov	r2, r3
 126 00b0 40F20003 		movw	r3, #:lower16:anapos
 127 00b4 C0F20003 		movt	r3, #:upper16:anapos
 128 00b8 1A60     		str	r2, [r3, #0]	@ float
 129 00ba AAE0     		b	.L3
 130              	.L5:
  84:.\motor_CTRL.c **** 		
  85:.\motor_CTRL.c **** 	}
  86:.\motor_CTRL.c **** 	else if ((*paxis).param.color == CTRL_ERROR)
 131              		.loc 1 86 0
 132 00bc 7B68     		ldr	r3, [r7, #4]
 133 00be 93F82C30 		ldrb	r3, [r3, #44]	@ zero_extendqisi2
 134 00c2 042B     		cmp	r3, #4
 135 00c4 1DD1     		bne	.L6
  87:.\motor_CTRL.c **** 	{
  88:.\motor_CTRL.c **** 		anapos = (*paxis).param.Gain_ANAOUT.fnum*((*paxis).mc.error - (float)anapos_offset);	
 136              		.loc 1 88 0
 137 00c6 7B68     		ldr	r3, [r7, #4]
 138 00c8 9C6A     		ldr	r4, [r3, #40]	@ float
 139 00ca 7B68     		ldr	r3, [r7, #4]
 140 00cc 9D6D     		ldr	r5, [r3, #88]	@ float
ARM GAS  C:\Users\GRAZIA~1.RAV\AppData\Local\Temp\ccLYRwwS.s 			page 5


 141 00ce 40F20003 		movw	r3, #:lower16:anapos_offset
 142 00d2 C0F20003 		movt	r3, #:upper16:anapos_offset
 143 00d6 1B68     		ldr	r3, [r3, #0]
 144 00d8 1846     		mov	r0, r3
 145 00da FFF7FEFF 		bl	__aeabi_i2f
 146 00de 0346     		mov	r3, r0
 147 00e0 2846     		mov	r0, r5
 148 00e2 1946     		mov	r1, r3
 149 00e4 FFF7FEFF 		bl	__aeabi_fsub
 150 00e8 0346     		mov	r3, r0
 151 00ea 2046     		mov	r0, r4
 152 00ec 1946     		mov	r1, r3
 153 00ee FFF7FEFF 		bl	__aeabi_fmul
 154 00f2 0346     		mov	r3, r0
 155 00f4 1A46     		mov	r2, r3
 156 00f6 40F20003 		movw	r3, #:lower16:anapos
 157 00fa C0F20003 		movt	r3, #:upper16:anapos
 158 00fe 1A60     		str	r2, [r3, #0]	@ float
 159 0100 87E0     		b	.L3
 160              	.L6:
  89:.\motor_CTRL.c **** 	}
  90:.\motor_CTRL.c **** 	else if ((*paxis).param.color == CTRL_DERROR)
 161              		.loc 1 90 0
 162 0102 7B68     		ldr	r3, [r7, #4]
 163 0104 93F82C30 		ldrb	r3, [r3, #44]	@ zero_extendqisi2
 164 0108 052B     		cmp	r3, #5
 165 010a 1DD1     		bne	.L7
  91:.\motor_CTRL.c **** 	{
  92:.\motor_CTRL.c **** 		anapos = (*paxis).param.Gain_ANAOUT.fnum*((*paxis).mc.derror - (float)anapos_offset);	
 166              		.loc 1 92 0
 167 010c 7B68     		ldr	r3, [r7, #4]
 168 010e 9C6A     		ldr	r4, [r3, #40]	@ float
 169 0110 7B68     		ldr	r3, [r7, #4]
 170 0112 5D6E     		ldr	r5, [r3, #100]	@ float
 171 0114 40F20003 		movw	r3, #:lower16:anapos_offset
 172 0118 C0F20003 		movt	r3, #:upper16:anapos_offset
 173 011c 1B68     		ldr	r3, [r3, #0]
 174 011e 1846     		mov	r0, r3
 175 0120 FFF7FEFF 		bl	__aeabi_i2f
 176 0124 0346     		mov	r3, r0
 177 0126 2846     		mov	r0, r5
 178 0128 1946     		mov	r1, r3
 179 012a FFF7FEFF 		bl	__aeabi_fsub
 180 012e 0346     		mov	r3, r0
 181 0130 2046     		mov	r0, r4
 182 0132 1946     		mov	r1, r3
 183 0134 FFF7FEFF 		bl	__aeabi_fmul
 184 0138 0346     		mov	r3, r0
 185 013a 1A46     		mov	r2, r3
 186 013c 40F20003 		movw	r3, #:lower16:anapos
 187 0140 C0F20003 		movt	r3, #:upper16:anapos
 188 0144 1A60     		str	r2, [r3, #0]	@ float
 189 0146 64E0     		b	.L3
 190              	.L7:
  93:.\motor_CTRL.c **** 	}
  94:.\motor_CTRL.c **** 	else if ((*paxis).param.color == CTRL_IERROR)
 191              		.loc 1 94 0
ARM GAS  C:\Users\GRAZIA~1.RAV\AppData\Local\Temp\ccLYRwwS.s 			page 6


 192 0148 7B68     		ldr	r3, [r7, #4]
 193 014a 93F82C30 		ldrb	r3, [r3, #44]	@ zero_extendqisi2
 194 014e 062B     		cmp	r3, #6
 195 0150 1DD1     		bne	.L8
  95:.\motor_CTRL.c **** 	{
  96:.\motor_CTRL.c **** 		anapos = (*paxis).param.Gain_ANAOUT.fnum*((*paxis).mc.ierror - (float)anapos_offset);	
 196              		.loc 1 96 0
 197 0152 7B68     		ldr	r3, [r7, #4]
 198 0154 9C6A     		ldr	r4, [r3, #40]	@ float
 199 0156 7B68     		ldr	r3, [r7, #4]
 200 0158 1D6E     		ldr	r5, [r3, #96]	@ float
 201 015a 40F20003 		movw	r3, #:lower16:anapos_offset
 202 015e C0F20003 		movt	r3, #:upper16:anapos_offset
 203 0162 1B68     		ldr	r3, [r3, #0]
 204 0164 1846     		mov	r0, r3
 205 0166 FFF7FEFF 		bl	__aeabi_i2f
 206 016a 0346     		mov	r3, r0
 207 016c 2846     		mov	r0, r5
 208 016e 1946     		mov	r1, r3
 209 0170 FFF7FEFF 		bl	__aeabi_fsub
 210 0174 0346     		mov	r3, r0
 211 0176 2046     		mov	r0, r4
 212 0178 1946     		mov	r1, r3
 213 017a FFF7FEFF 		bl	__aeabi_fmul
 214 017e 0346     		mov	r3, r0
 215 0180 1A46     		mov	r2, r3
 216 0182 40F20003 		movw	r3, #:lower16:anapos
 217 0186 C0F20003 		movt	r3, #:upper16:anapos
 218 018a 1A60     		str	r2, [r3, #0]	@ float
 219 018c 41E0     		b	.L3
 220              	.L8:
  97:.\motor_CTRL.c **** 	}
  98:.\motor_CTRL.c **** 	else if ((*paxis).param.color == CTRL_CV)
 221              		.loc 1 98 0
 222 018e 7B68     		ldr	r3, [r7, #4]
 223 0190 93F82C30 		ldrb	r3, [r3, #44]	@ zero_extendqisi2
 224 0194 082B     		cmp	r3, #8
 225 0196 14D1     		bne	.L9
  99:.\motor_CTRL.c **** 	{
 100:.\motor_CTRL.c **** 		anapos = (*paxis).mc.ctrl_var * 128/MOTOR_PWM_PERIOD_HALF;	//fixed 4Vpp Output at PWM MAX	
 226              		.loc 1 100 0
 227 0198 7B68     		ldr	r3, [r7, #4]
 228 019a 1B6F     		ldr	r3, [r3, #112]	@ float
 229 019c 1846     		mov	r0, r3
 230 019e 4FF08641 		mov	r1, #1124073472
 231 01a2 FFF7FEFF 		bl	__aeabi_fmul
 232 01a6 0346     		mov	r3, r0
 233 01a8 1846     		mov	r0, r3
 234 01aa 4FF08841 		mov	r1, #1140850688
 235 01ae FFF7FEFF 		bl	__aeabi_fdiv
 236 01b2 0346     		mov	r3, r0
 237 01b4 1A46     		mov	r2, r3
 238 01b6 40F20003 		movw	r3, #:lower16:anapos
 239 01ba C0F20003 		movt	r3, #:upper16:anapos
 240 01be 1A60     		str	r2, [r3, #0]	@ float
 241 01c0 27E0     		b	.L3
 242              	.L9:
ARM GAS  C:\Users\GRAZIA~1.RAV\AppData\Local\Temp\ccLYRwwS.s 			page 7


 101:.\motor_CTRL.c **** 	}	
 102:.\motor_CTRL.c **** 	else if ((*paxis).param.color == CTRL_AZIERROR)
 243              		.loc 1 102 0
 244 01c2 7B68     		ldr	r3, [r7, #4]
 245 01c4 93F82C30 		ldrb	r3, [r3, #44]	@ zero_extendqisi2
 246 01c8 072B     		cmp	r3, #7
 247 01ca 1BD1     		bne	.L10
 103:.\motor_CTRL.c **** 	{
 104:.\motor_CTRL.c **** 		anapos = (*paxis).param.Kif.fnum * (*paxis).mc.ierror * 128/MOTOR_PWM_PERIOD_HALF;	//fixed 4Vpp O
 248              		.loc 1 104 0
 249 01cc 7B68     		ldr	r3, [r7, #4]
 250 01ce DA69     		ldr	r2, [r3, #28]	@ float
 251 01d0 7B68     		ldr	r3, [r7, #4]
 252 01d2 1B6E     		ldr	r3, [r3, #96]	@ float
 253 01d4 1046     		mov	r0, r2
 254 01d6 1946     		mov	r1, r3
 255 01d8 FFF7FEFF 		bl	__aeabi_fmul
 256 01dc 0346     		mov	r3, r0
 257 01de 1846     		mov	r0, r3
 258 01e0 4FF08641 		mov	r1, #1124073472
 259 01e4 FFF7FEFF 		bl	__aeabi_fmul
 260 01e8 0346     		mov	r3, r0
 261 01ea 1846     		mov	r0, r3
 262 01ec 4FF08841 		mov	r1, #1140850688
 263 01f0 FFF7FEFF 		bl	__aeabi_fdiv
 264 01f4 0346     		mov	r3, r0
 265 01f6 1A46     		mov	r2, r3
 266 01f8 40F20003 		movw	r3, #:lower16:anapos
 267 01fc C0F20003 		movt	r3, #:upper16:anapos
 268 0200 1A60     		str	r2, [r3, #0]	@ float
 269 0202 06E0     		b	.L3
 270              	.L10:
 105:.\motor_CTRL.c **** 	}		
 106:.\motor_CTRL.c **** 
 107:.\motor_CTRL.c **** 	else
 108:.\motor_CTRL.c **** 	{
 109:.\motor_CTRL.c **** 		anapos = 0;	/* Internal Firmware Error */
 271              		.loc 1 109 0
 272 0204 40F20003 		movw	r3, #:lower16:anapos
 273 0208 C0F20003 		movt	r3, #:upper16:anapos
 274 020c 4FF00002 		mov	r2, #0
 275 0210 1A60     		str	r2, [r3, #0]	@ float
 276              	.L3:
 110:.\motor_CTRL.c **** 	}
 111:.\motor_CTRL.c **** 			
 112:.\motor_CTRL.c **** 		/* anapos 8 bit saturation */
 113:.\motor_CTRL.c **** 		if (anapos>127)
 277              		.loc 1 113 0
 278 0212 40F20003 		movw	r3, #:lower16:anapos
 279 0216 C0F20003 		movt	r3, #:upper16:anapos
 280 021a 1B68     		ldr	r3, [r3, #0]	@ float
 281 021c 1846     		mov	r0, r3
 282 021e 4FF00001 		mov	r1, #0
 283 0222 C4F2FE21 		movt	r1, 17150
 284 0226 FFF7FEFF 		bl	__aeabi_fcmpgt
 285 022a 0346     		mov	r3, r0
 286 022c 002B     		cmp	r3, #0
ARM GAS  C:\Users\GRAZIA~1.RAV\AppData\Local\Temp\ccLYRwwS.s 			page 8


 287 022e 08D0     		beq	.L11
 288              	.L15:
 114:.\motor_CTRL.c **** 		{
 115:.\motor_CTRL.c **** 			anapos = 127;
 289              		.loc 1 115 0
 290 0230 40F20003 		movw	r3, #:lower16:anapos
 291 0234 C0F20003 		movt	r3, #:upper16:anapos
 292 0238 4FF00002 		mov	r2, #0
 293 023c C4F2FE22 		movt	r2, 17150
 294 0240 1A60     		str	r2, [r3, #0]	@ float
 295              	.L11:
 116:.\motor_CTRL.c **** 		}
 117:.\motor_CTRL.c **** 		if (anapos < -127)
 296              		.loc 1 117 0
 297 0242 40F20003 		movw	r3, #:lower16:anapos
 298 0246 C0F20003 		movt	r3, #:upper16:anapos
 299 024a 1B68     		ldr	r3, [r3, #0]	@ float
 300 024c 1846     		mov	r0, r3
 301 024e 4FF00001 		mov	r1, #0
 302 0252 CCF2FE21 		movt	r1, 49918
 303 0256 FFF7FEFF 		bl	__aeabi_fcmplt
 304 025a 0346     		mov	r3, r0
 305 025c 002B     		cmp	r3, #0
 306 025e 08D0     		beq	.L13
 307              	.L16:
 118:.\motor_CTRL.c **** 		{
 119:.\motor_CTRL.c **** 			anapos = -127;
 308              		.loc 1 119 0
 309 0260 40F20003 		movw	r3, #:lower16:anapos
 310 0264 C0F20003 		movt	r3, #:upper16:anapos
 311 0268 4FF00002 		mov	r2, #0
 312 026c CCF2FE22 		movt	r2, 49918
 313 0270 1A60     		str	r2, [r3, #0]	@ float
 314              	.L13:
 120:.\motor_CTRL.c **** 		}
 121:.\motor_CTRL.c **** 		
 122:.\motor_CTRL.c **** 		VDAC8_ANAPOS_SetValue((uint8)(anapos+128));		/* Anapos DAC Refresh <-- position(t)		*/	
 315              		.loc 1 122 0
 316 0272 40F20003 		movw	r3, #:lower16:anapos
 317 0276 C0F20003 		movt	r3, #:upper16:anapos
 318 027a 1B68     		ldr	r3, [r3, #0]	@ float
 319 027c 1846     		mov	r0, r3
 320 027e 4FF08641 		mov	r1, #1124073472
 321 0282 FFF7FEFF 		bl	__aeabi_fadd
 322 0286 0346     		mov	r3, r0
 323 0288 1846     		mov	r0, r3
 324 028a FFF7FEFF 		bl	__aeabi_f2uiz
 325 028e 0346     		mov	r3, r0
 326 0290 DBB2     		uxtb	r3, r3
 327 0292 1846     		mov	r0, r3
 328 0294 FFF7FEFF 		bl	VDAC8_ANAPOS_SetValue
 123:.\motor_CTRL.c **** }
 329              		.loc 1 123 0
 330 0298 07F10807 		add	r7, r7, #8
 331 029c BD46     		mov	sp, r7
 332 029e B0BD     		pop	{r4, r5, r7, pc}
 333              		.cfi_endproc
ARM GAS  C:\Users\GRAZIA~1.RAV\AppData\Local\Temp\ccLYRwwS.s 			page 9


 334              	.LFE56:
 335              		.size	AnalogShow, .-AnalogShow
 336              		.section	.text.Axis_limit_control_init,"ax",%progbits
 337              		.align	2
 338              		.global	Axis_limit_control_init
 339              		.thumb
 340              		.thumb_func
 341              		.type	Axis_limit_control_init, %function
 342              	Axis_limit_control_init:
 343              	.LFB57:
 124:.\motor_CTRL.c **** 
 125:.\motor_CTRL.c **** 
 126:.\motor_CTRL.c **** /****************************/
 127:.\motor_CTRL.c **** /* Axis Limit Control CODE  */
 128:.\motor_CTRL.c **** /****************************/
 129:.\motor_CTRL.c **** void Axis_limit_control_init(void)
 130:.\motor_CTRL.c **** {
 344              		.loc 1 130 0
 345              		.cfi_startproc
 346              		@ args = 0, pretend = 0, frame = 0
 347              		@ frame_needed = 1, uses_anonymous_args = 0
 348              		@ link register save eliminated.
 349 0000 80B4     		push	{r7}
 350              	.LCFI3:
 351              		.cfi_def_cfa_offset 4
 352              		.cfi_offset 7, -4
 353 0002 00AF     		add	r7, sp, #0
 354              	.LCFI4:
 355              		.cfi_def_cfa_register 7
 131:.\motor_CTRL.c **** 	pan_axis.lc.status  = COARSE_BETWEEN_LIMITS_OK;	/* PAN  COARSE BETWEEN LIMITS	*/
 356              		.loc 1 131 0
 357 0004 40F20003 		movw	r3, #:lower16:pan_axis
 358 0008 C0F20003 		movt	r3, #:upper16:pan_axis
 359 000c 4FF00002 		mov	r2, #0
 360 0010 83F88420 		strb	r2, [r3, #132]
 132:.\motor_CTRL.c **** 	tilt_axis.lc.status = COARSE_BETWEEN_LIMITS_OK;	/* TILT COARSE BETWEEN LIMITS	*/
 361              		.loc 1 132 0
 362 0014 40F20003 		movw	r3, #:lower16:tilt_axis
 363 0018 C0F20003 		movt	r3, #:upper16:tilt_axis
 364 001c 4FF00002 		mov	r2, #0
 365 0020 83F88420 		strb	r2, [r3, #132]
 133:.\motor_CTRL.c **** }
 366              		.loc 1 133 0
 367 0024 BD46     		mov	sp, r7
 368 0026 80BC     		pop	{r7}
 369 0028 7047     		bx	lr
 370              		.cfi_endproc
 371              	.LFE57:
 372              		.size	Axis_limit_control_init, .-Axis_limit_control_init
 373 002a 00BF     		.section	.text.Axis_limit_control,"ax",%progbits
 374              		.align	2
 375              		.global	Axis_limit_control
 376              		.thumb
 377              		.thumb_func
 378              		.type	Axis_limit_control, %function
 379              	Axis_limit_control:
 380              	.LFB58:
ARM GAS  C:\Users\GRAZIA~1.RAV\AppData\Local\Temp\ccLYRwwS.s 			page 10


 134:.\motor_CTRL.c **** 
 135:.\motor_CTRL.c **** void Axis_limit_control(struct MOTOR_AXIS *paxis, struct ABSPOS_SENSOR *abs_sens)
 136:.\motor_CTRL.c **** {
 381              		.loc 1 136 0
 382              		.cfi_startproc
 383              		@ args = 0, pretend = 0, frame = 8
 384              		@ frame_needed = 1, uses_anonymous_args = 0
 385              		@ link register save eliminated.
 386 0000 80B4     		push	{r7}
 387              	.LCFI5:
 388              		.cfi_def_cfa_offset 4
 389              		.cfi_offset 7, -4
 390 0002 83B0     		sub	sp, sp, #12
 391              	.LCFI6:
 392              		.cfi_def_cfa_offset 16
 393 0004 00AF     		add	r7, sp, #0
 394              	.LCFI7:
 395              		.cfi_def_cfa_register 7
 396 0006 7860     		str	r0, [r7, #4]
 397 0008 3960     		str	r1, [r7, #0]
 137:.\motor_CTRL.c **** 	/* absolute limits check & Hysteresys Logic */
 138:.\motor_CTRL.c **** 	if ((*paxis).param.limit_control == LIMIT_CONTROL_ENABLED)
 398              		.loc 1 138 0
 399 000a 7B68     		ldr	r3, [r7, #4]
 400 000c 93F82D30 		ldrb	r3, [r3, #45]	@ zero_extendqisi2
 401 0010 012B     		cmp	r3, #1
 402 0012 4FD1     		bne	.L19
 139:.\motor_CTRL.c **** 	{
 140:.\motor_CTRL.c **** 		if ((*abs_sens).raw >= ((*abs_sens).param.raw_limit_max + (*abs_sens).param.raw_limit_hysteresis)
 403              		.loc 1 140 0
 404 0014 3B68     		ldr	r3, [r7, #0]
 405 0016 1B88     		ldrh	r3, [r3, #0]
 406 0018 1AB2     		sxth	r2, r3
 407 001a 3B68     		ldr	r3, [r7, #0]
 408 001c 1B8E     		ldrh	r3, [r3, #48]
 409 001e 19B2     		sxth	r1, r3
 410 0020 3B68     		ldr	r3, [r7, #0]
 411 0022 9B8E     		ldrh	r3, [r3, #52]
 412 0024 1BB2     		sxth	r3, r3
 413 0026 CB18     		adds	r3, r1, r3
 414 0028 9A42     		cmp	r2, r3
 415 002a 05DB     		blt	.L20
 141:.\motor_CTRL.c **** 		{
 142:.\motor_CTRL.c **** 			(*paxis).lc.status = POSITIVE_LIMIT_REACHED;		/* ASSERT POSITIVE LIMIT!!! 	*/
 416              		.loc 1 142 0
 417 002c 7B68     		ldr	r3, [r7, #4]
 418 002e 4FF00202 		mov	r2, #2
 419 0032 83F88420 		strb	r2, [r3, #132]
 420 0036 10E0     		b	.L21
 421              	.L20:
 143:.\motor_CTRL.c **** 		}
 144:.\motor_CTRL.c **** 		else
 145:.\motor_CTRL.c **** 		if ((*abs_sens).raw <= ((*abs_sens).param.raw_limit_min - (*abs_sens).param.raw_limit_hysteresis)
 422              		.loc 1 145 0
 423 0038 3B68     		ldr	r3, [r7, #0]
 424 003a 1B88     		ldrh	r3, [r3, #0]
 425 003c 1AB2     		sxth	r2, r3
ARM GAS  C:\Users\GRAZIA~1.RAV\AppData\Local\Temp\ccLYRwwS.s 			page 11


 426 003e 3B68     		ldr	r3, [r7, #0]
 427 0040 5B8E     		ldrh	r3, [r3, #50]
 428 0042 19B2     		sxth	r1, r3
 429 0044 3B68     		ldr	r3, [r7, #0]
 430 0046 9B8E     		ldrh	r3, [r3, #52]
 431 0048 1BB2     		sxth	r3, r3
 432 004a CB1A     		subs	r3, r1, r3
 433 004c 9A42     		cmp	r2, r3
 434 004e 04DC     		bgt	.L21
 146:.\motor_CTRL.c **** 		{
 147:.\motor_CTRL.c **** 			(*paxis).lc.status = NEGATIVE_LIMIT_REACHED;		/* ASSERT NEGATIVE LIMIT!!! 	*/			
 435              		.loc 1 147 0
 436 0050 7B68     		ldr	r3, [r7, #4]
 437 0052 4FF00102 		mov	r2, #1
 438 0056 83F88420 		strb	r2, [r3, #132]
 439              	.L21:
 148:.\motor_CTRL.c **** 		}
 149:.\motor_CTRL.c **** 
 150:.\motor_CTRL.c **** 		if (((*paxis).lc.status == POSITIVE_LIMIT_REACHED) &&
 440              		.loc 1 150 0
 441 005a 7B68     		ldr	r3, [r7, #4]
 442 005c 93F88430 		ldrb	r3, [r3, #132]	@ zero_extendqisi2
 443 0060 022B     		cmp	r3, #2
 444 0062 10D1     		bne	.L22
 151:.\motor_CTRL.c **** 		   ((*abs_sens).raw <= ((*abs_sens).param.raw_limit_max - (*abs_sens).param.raw_limit_hysteresis)
 445              		.loc 1 151 0 discriminator 1
 446 0064 3B68     		ldr	r3, [r7, #0]
 447 0066 1B88     		ldrh	r3, [r3, #0]
 448 0068 1AB2     		sxth	r2, r3
 449 006a 3B68     		ldr	r3, [r7, #0]
 450 006c 1B8E     		ldrh	r3, [r3, #48]
 451 006e 19B2     		sxth	r1, r3
 452 0070 3B68     		ldr	r3, [r7, #0]
 453 0072 9B8E     		ldrh	r3, [r3, #52]
 454 0074 1BB2     		sxth	r3, r3
 455 0076 CB1A     		subs	r3, r1, r3
 150:.\motor_CTRL.c **** 		if (((*paxis).lc.status == POSITIVE_LIMIT_REACHED) &&
 456              		.loc 1 150 0 discriminator 1
 457 0078 9A42     		cmp	r2, r3
 458 007a 04DC     		bgt	.L22
 152:.\motor_CTRL.c **** 		{
 153:.\motor_CTRL.c **** 			(*paxis).lc.status = COARSE_BETWEEN_LIMITS_OK;		/* ASSERT COARSE BETWEEN LIMITS */
 459              		.loc 1 153 0
 460 007c 7B68     		ldr	r3, [r7, #4]
 461 007e 4FF00002 		mov	r2, #0
 462 0082 83F88420 		strb	r2, [r3, #132]
 463              	.L22:
 154:.\motor_CTRL.c **** 		}
 155:.\motor_CTRL.c **** 
 156:.\motor_CTRL.c **** 		if (((*paxis).lc.status == NEGATIVE_LIMIT_REACHED) &&
 464              		.loc 1 156 0
 465 0086 7B68     		ldr	r3, [r7, #4]
 466 0088 93F88430 		ldrb	r3, [r3, #132]	@ zero_extendqisi2
 467 008c 012B     		cmp	r3, #1
 468 008e 16D1     		bne	.L18
 157:.\motor_CTRL.c **** 		   ((*abs_sens).raw >= ((*abs_sens).param.raw_limit_min - (*abs_sens).param.raw_limit_hysteresis)
 469              		.loc 1 157 0 discriminator 1
ARM GAS  C:\Users\GRAZIA~1.RAV\AppData\Local\Temp\ccLYRwwS.s 			page 12


 470 0090 3B68     		ldr	r3, [r7, #0]
 471 0092 1B88     		ldrh	r3, [r3, #0]
 472 0094 1AB2     		sxth	r2, r3
 473 0096 3B68     		ldr	r3, [r7, #0]
 474 0098 5B8E     		ldrh	r3, [r3, #50]
 475 009a 19B2     		sxth	r1, r3
 476 009c 3B68     		ldr	r3, [r7, #0]
 477 009e 9B8E     		ldrh	r3, [r3, #52]
 478 00a0 1BB2     		sxth	r3, r3
 479 00a2 CB1A     		subs	r3, r1, r3
 156:.\motor_CTRL.c **** 		if (((*paxis).lc.status == NEGATIVE_LIMIT_REACHED) &&
 480              		.loc 1 156 0 discriminator 1
 481 00a4 9A42     		cmp	r2, r3
 482 00a6 0ADB     		blt	.L18
 158:.\motor_CTRL.c **** 		{
 159:.\motor_CTRL.c **** 			(*paxis).lc.status = COARSE_BETWEEN_LIMITS_OK;		/* ASSERT COARSE BETWEEN LIMITS */
 483              		.loc 1 159 0
 484 00a8 7B68     		ldr	r3, [r7, #4]
 485 00aa 4FF00002 		mov	r2, #0
 486 00ae 83F88420 		strb	r2, [r3, #132]
 487 00b2 04E0     		b	.L18
 488              	.L19:
 160:.\motor_CTRL.c **** 		}		
 161:.\motor_CTRL.c **** 	}
 162:.\motor_CTRL.c **** 	else
 163:.\motor_CTRL.c **** 	{
 164:.\motor_CTRL.c **** 		(*paxis).lc.status = COARSE_BETWEEN_LIMITS_OK;			/* UNLIMITED CASE: ASSERT COARSE BETWEEN LIMITS 
 489              		.loc 1 164 0
 490 00b4 7B68     		ldr	r3, [r7, #4]
 491 00b6 4FF00002 		mov	r2, #0
 492 00ba 83F88420 		strb	r2, [r3, #132]
 493              	.L18:
 165:.\motor_CTRL.c **** 	}
 166:.\motor_CTRL.c **** }
 494              		.loc 1 166 0
 495 00be 07F10C07 		add	r7, r7, #12
 496 00c2 BD46     		mov	sp, r7
 497 00c4 80BC     		pop	{r7}
 498 00c6 7047     		bx	lr
 499              		.cfi_endproc
 500              	.LFE58:
 501              		.size	Axis_limit_control, .-Axis_limit_control
 502              		.section	.text.All_Axes_limit_control,"ax",%progbits
 503              		.align	2
 504              		.global	All_Axes_limit_control
 505              		.thumb
 506              		.thumb_func
 507              		.type	All_Axes_limit_control, %function
 508              	All_Axes_limit_control:
 509              	.LFB59:
 167:.\motor_CTRL.c **** 
 168:.\motor_CTRL.c **** void All_Axes_limit_control(void)
 169:.\motor_CTRL.c **** {
 510              		.loc 1 169 0
 511              		.cfi_startproc
 512              		@ args = 0, pretend = 0, frame = 0
 513              		@ frame_needed = 1, uses_anonymous_args = 0
ARM GAS  C:\Users\GRAZIA~1.RAV\AppData\Local\Temp\ccLYRwwS.s 			page 13


 514 0000 80B5     		push	{r7, lr}
 515              	.LCFI8:
 516              		.cfi_def_cfa_offset 8
 517              		.cfi_offset 7, -8
 518              		.cfi_offset 14, -4
 519 0002 00AF     		add	r7, sp, #0
 520              	.LCFI9:
 521              		.cfi_def_cfa_register 7
 170:.\motor_CTRL.c **** 	Axis_limit_control(&pan_axis, &pan_absolute_sensor);	/* pan_axis.lc.status  <-- LIMIT STATUS	(posi
 522              		.loc 1 170 0
 523 0004 40F20000 		movw	r0, #:lower16:pan_axis
 524 0008 C0F20000 		movt	r0, #:upper16:pan_axis
 525 000c 40F20001 		movw	r1, #:lower16:pan_absolute_sensor
 526 0010 C0F20001 		movt	r1, #:upper16:pan_absolute_sensor
 527 0014 FFF7FEFF 		bl	Axis_limit_control
 171:.\motor_CTRL.c **** 	Axis_limit_control(&tilt_axis, &tilt_absolute_sensor);	/* tilt_axis.lc.status <-- LIMIT STATUS	(po
 528              		.loc 1 171 0
 529 0018 40F20000 		movw	r0, #:lower16:tilt_axis
 530 001c C0F20000 		movt	r0, #:upper16:tilt_axis
 531 0020 40F20001 		movw	r1, #:lower16:tilt_absolute_sensor
 532 0024 C0F20001 		movt	r1, #:upper16:tilt_absolute_sensor
 533 0028 FFF7FEFF 		bl	Axis_limit_control
 172:.\motor_CTRL.c **** }
 534              		.loc 1 172 0
 535 002c 80BD     		pop	{r7, pc}
 536              		.cfi_endproc
 537              	.LFE59:
 538              		.size	All_Axes_limit_control, .-All_Axes_limit_control
 539              		.global	__aeabi_f2d
 540              		.global	__aeabi_dmul
 541              		.global	__aeabi_d2f
 542              		.global	__aeabi_f2iz
 543              		.global	__aeabi_fcmpge
 544              		.global	__aeabi_fcmple
 545 002e 00BF     		.section	.text.motor_control,"ax",%progbits
 546              		.align	2
 547              		.global	motor_control
 548              		.thumb
 549              		.thumb_func
 550              		.type	motor_control, %function
 551              	motor_control:
 552              	.LFB60:
 173:.\motor_CTRL.c **** 
 174:.\motor_CTRL.c **** /************************************************/
 175:.\motor_CTRL.c **** /*** AXIS MOTOR CONTROL CODE       			  ***/
 176:.\motor_CTRL.c **** /************************************************/
 177:.\motor_CTRL.c **** /* *paxis = [&pan_axis, &tilt_axis]				*/
 178:.\motor_CTRL.c **** /* *mover = [&mover_pan, &mover_tilt]			*/
 179:.\motor_CTRL.c **** /************************************************/
 180:.\motor_CTRL.c **** void motor_control(struct MOTOR_AXIS *paxis, mover_type *mover)
 181:.\motor_CTRL.c **** {
 553              		.loc 1 181 0
 554              		.cfi_startproc
 555              		@ args = 0, pretend = 0, frame = 8
 556              		@ frame_needed = 1, uses_anonymous_args = 0
 557 0000 90B5     		push	{r4, r7, lr}
 558              	.LCFI10:
ARM GAS  C:\Users\GRAZIA~1.RAV\AppData\Local\Temp\ccLYRwwS.s 			page 14


 559              		.cfi_def_cfa_offset 12
 560              		.cfi_offset 4, -12
 561              		.cfi_offset 7, -8
 562              		.cfi_offset 14, -4
 563 0002 83B0     		sub	sp, sp, #12
 564              	.LCFI11:
 565              		.cfi_def_cfa_offset 24
 566 0004 00AF     		add	r7, sp, #0
 567              	.LCFI12:
 568              		.cfi_def_cfa_register 7
 569 0006 7860     		str	r0, [r7, #4]
 570 0008 3960     		str	r1, [r7, #0]
 182:.\motor_CTRL.c **** 	/****************************************************************/
 183:.\motor_CTRL.c **** 	/* Current(t), SlaveEncoder(t) & Absolute_Sensor(t) Sampling	*/
 184:.\motor_CTRL.c **** 	/****************************************************************/
 185:.\motor_CTRL.c **** 	if (paxis == &pan_axis)
 571              		.loc 1 185 0
 572 000a 7A68     		ldr	r2, [r7, #4]
 573 000c 40F20003 		movw	r3, #:lower16:pan_axis
 574 0010 C0F20003 		movt	r3, #:upper16:pan_axis
 575 0014 9A42     		cmp	r2, r3
 576 0016 40F09280 		bne	.L26
 186:.\motor_CTRL.c **** 	{
 187:.\motor_CTRL.c **** 		// Rsense = 0,39[Ohm]; Analog Gain = 25,9; --> V[ADC] = 0,39[Ohm] * 0,5 [A] * 25,9 = 5,05[V] (abo
 188:.\motor_CTRL.c **** 		pan_axis.mc.current = (float)(AdcValue[SENSE_IPAN] + ADC_CURR_ZERO_OFFSET) * AMPERE_OVER_ADC_CONS
 577              		.loc 1 188 0
 578 001a 40F20003 		movw	r3, #:lower16:AdcValue
 579 001e C0F20003 		movt	r3, #:upper16:AdcValue
 580 0022 1B88     		ldrh	r3, [r3, #0]
 581 0024 1BB2     		sxth	r3, r3
 582 0026 03F50063 		add	r3, r3, #2048
 583 002a 1846     		mov	r0, r3
 584 002c FFF7FEFF 		bl	__aeabi_i2f
 585 0030 0346     		mov	r3, r0
 586 0032 1846     		mov	r0, r3
 587 0034 FFF7FEFF 		bl	__aeabi_f2d
 588 0038 0246     		mov	r2, r0
 589 003a 0B46     		mov	r3, r1
 590 003c 1046     		mov	r0, r2
 591 003e 1946     		mov	r1, r3
 592 0040 B5A3     		adr	r3, .L57
 593 0042 D3E90023 		ldrd	r2, [r3]
 594 0046 FFF7FEFF 		bl	__aeabi_dmul
 595 004a 0246     		mov	r2, r0
 596 004c 0B46     		mov	r3, r1
 597 004e 1046     		mov	r0, r2
 598 0050 1946     		mov	r1, r3
 599 0052 FFF7FEFF 		bl	__aeabi_d2f
 600 0056 0246     		mov	r2, r0
 601 0058 40F20003 		movw	r3, #:lower16:pan_axis
 602 005c C0F20003 		movt	r3, #:upper16:pan_axis
 603 0060 9A67     		str	r2, [r3, #120]	@ float
 189:.\motor_CTRL.c **** 		
 190:.\motor_CTRL.c **** 		/* PAN Feedback Encoder PositionSampling						*/	
 191:.\motor_CTRL.c **** 		(*paxis).mc.slave_enc.position = QuadDec_PAN_GetCounter();												/* Incremental Position(t) 
 604              		.loc 1 191 0
 605 0062 FFF7FEFF 		bl	QuadDec_PAN_GetCounter
ARM GAS  C:\Users\GRAZIA~1.RAV\AppData\Local\Temp\ccLYRwwS.s 			page 15


 606 0066 0246     		mov	r2, r0
 607 0068 7B68     		ldr	r3, [r7, #4]
 608 006a 5A64     		str	r2, [r3, #68]
 192:.\motor_CTRL.c **** 		
 193:.\motor_CTRL.c **** 		/* PAN Analog Absolute Position Sensor ADC Sampling (12bit) 	*/		
 194:.\motor_CTRL.c **** 		pan_absolute_sensor.raw = AdcValue[HOME_PAN_ABSV];														/* [ADC lsb] */
 609              		.loc 1 194 0
 610 006c 40F20003 		movw	r3, #:lower16:AdcValue
 611 0070 C0F20003 		movt	r3, #:upper16:AdcValue
 612 0074 9A89     		ldrh	r2, [r3, #12]
 613 0076 40F20003 		movw	r3, #:lower16:pan_absolute_sensor
 614 007a C0F20003 		movt	r3, #:upper16:pan_absolute_sensor
 615 007e 1A80     		strh	r2, [r3, #0]	@ movhi
 195:.\motor_CTRL.c **** 		
 196:.\motor_CTRL.c **** 		/*  PAN Analog Absolute Position Sensor raw invertion 			*/
 197:.\motor_CTRL.c **** 		if (pan_absolute_sensor.param.raw_invertion == ABS_SENSOR_INVERTED)
 616              		.loc 1 197 0
 617 0080 40F20003 		movw	r3, #:lower16:pan_absolute_sensor
 618 0084 C0F20003 		movt	r3, #:upper16:pan_absolute_sensor
 619 0088 93F82C30 		ldrb	r3, [r3, #44]	@ zero_extendqisi2
 620 008c 012B     		cmp	r3, #1
 621 008e 0ED1     		bne	.L27
 198:.\motor_CTRL.c **** 		{
 199:.\motor_CTRL.c **** 			pan_absolute_sensor.raw = -pan_absolute_sensor.raw;													/* [ADC lsb] */
 622              		.loc 1 199 0
 623 0090 40F20003 		movw	r3, #:lower16:pan_absolute_sensor
 624 0094 C0F20003 		movt	r3, #:upper16:pan_absolute_sensor
 625 0098 1B88     		ldrh	r3, [r3, #0]
 626 009a 9BB2     		uxth	r3, r3
 627 009c C3F10003 		rsb	r3, r3, #0
 628 00a0 9BB2     		uxth	r3, r3
 629 00a2 9AB2     		uxth	r2, r3
 630 00a4 40F20003 		movw	r3, #:lower16:pan_absolute_sensor
 631 00a8 C0F20003 		movt	r3, #:upper16:pan_absolute_sensor
 632 00ac 1A80     		strh	r2, [r3, #0]	@ movhi
 633              	.L27:
 200:.\motor_CTRL.c **** 		}	
 201:.\motor_CTRL.c **** 				
 202:.\motor_CTRL.c **** 		/********************************************************************************************/
 203:.\motor_CTRL.c **** 		/* Pan Absolute Position Sensor Statistics Iterative Calculus								*/
 204:.\motor_CTRL.c **** 		/* iteration >= 2																			*/
 205:.\motor_CTRL.c **** 		/* Calcola il valor medio e altre variabili statistiche										*/
 206:.\motor_CTRL.c **** 		/* Fonte: http://www.cs.berkeley.edu/~mhoemmen/cs194/Tutorials/variance.pdf					*/
 207:.\motor_CTRL.c **** 		/* vedi anche \Study\Statistica\variance(Computing the standard deviation efficiently).pdf	*/
 208:.\motor_CTRL.c **** 		/********************************************************************************************/
 209:.\motor_CTRL.c **** 		statistics_elab_step(&pan_absolute_sensor_stat,  (float)pan_absolute_sensor.raw);
 634              		.loc 1 209 0
 635 00ae 40F20003 		movw	r3, #:lower16:pan_absolute_sensor
 636 00b2 C0F20003 		movt	r3, #:upper16:pan_absolute_sensor
 637 00b6 1B88     		ldrh	r3, [r3, #0]
 638 00b8 1BB2     		sxth	r3, r3
 639 00ba 1846     		mov	r0, r3
 640 00bc FFF7FEFF 		bl	__aeabi_i2f
 641 00c0 0346     		mov	r3, r0
 642 00c2 40F20000 		movw	r0, #:lower16:pan_absolute_sensor_stat
 643 00c6 C0F20000 		movt	r0, #:upper16:pan_absolute_sensor_stat
 644 00ca 1946     		mov	r1, r3
ARM GAS  C:\Users\GRAZIA~1.RAV\AppData\Local\Temp\ccLYRwwS.s 			page 16


 645 00cc FFF7FEFF 		bl	statistics_elab_step
 210:.\motor_CTRL.c **** 
 211:.\motor_CTRL.c **** #if PAN_PSEUDOABS
 212:.\motor_CTRL.c **** 		/* PAN Pseudo-Absolute Position Steps Calculation 	*/	
 213:.\motor_CTRL.c **** 		if (pan_axis.mc.slave_enc.position >= 0)
 214:.\motor_CTRL.c **** 		{
 215:.\motor_CTRL.c **** 			pan_absolute_sensor.position = 	(float)((int32)pan_axis.mc.slave_enc.position % (int32)pan_axis.
 216:.\motor_CTRL.c **** 		}
 217:.\motor_CTRL.c **** 		else
 218:.\motor_CTRL.c **** 		{
 219:.\motor_CTRL.c **** 			pan_absolute_sensor.position = 	pan_axis.param.resolution.fnum - 
 220:.\motor_CTRL.c **** 											(float)((int32)-pan_axis.mc.slave_enc.position % (int32)pan_axis.param.resolution.fnum);
 221:.\motor_CTRL.c **** 		}		
 222:.\motor_CTRL.c **** #else		
 223:.\motor_CTRL.c **** 		/* PAN Absolute Position Steps Calculation 			*/		
 224:.\motor_CTRL.c **** 		pan_absolute_sensor.position = (float)(pan_absolute_sensor.raw - pan_absolute_sensor.param.raw_ho
 646              		.loc 1 224 0
 647 00d0 40F20003 		movw	r3, #:lower16:pan_absolute_sensor
 648 00d4 C0F20003 		movt	r3, #:upper16:pan_absolute_sensor
 649 00d8 1B88     		ldrh	r3, [r3, #0]
 650 00da 1AB2     		sxth	r2, r3
 651 00dc 40F20003 		movw	r3, #:lower16:pan_absolute_sensor
 652 00e0 C0F20003 		movt	r3, #:upper16:pan_absolute_sensor
 653 00e4 DB8D     		ldrh	r3, [r3, #46]
 654 00e6 1BB2     		sxth	r3, r3
 655 00e8 D31A     		subs	r3, r2, r3
 656 00ea 1846     		mov	r0, r3
 657 00ec FFF7FEFF 		bl	__aeabi_i2f
 658 00f0 0246     		mov	r2, r0
 225:.\motor_CTRL.c **** 									 * pan_absolute_sensor.param.step_over_abs_ratio.fnum;					   	/* referred to HOME positio
 659              		.loc 1 225 0
 660 00f2 40F20003 		movw	r3, #:lower16:pan_absolute_sensor
 661 00f6 C0F20003 		movt	r3, #:upper16:pan_absolute_sensor
 662 00fa 9B6B     		ldr	r3, [r3, #56]	@ float
 663 00fc 1046     		mov	r0, r2
 664 00fe 1946     		mov	r1, r3
 665 0100 FFF7FEFF 		bl	__aeabi_fmul
 666 0104 0346     		mov	r3, r0
 667 0106 1A46     		mov	r2, r3
 224:.\motor_CTRL.c **** 		pan_absolute_sensor.position = (float)(pan_absolute_sensor.raw - pan_absolute_sensor.param.raw_ho
 668              		.loc 1 224 0
 669 0108 40F20003 		movw	r3, #:lower16:pan_absolute_sensor
 670 010c C0F20003 		movt	r3, #:upper16:pan_absolute_sensor
 671 0110 5A60     		str	r2, [r3, #4]	@ float
 226:.\motor_CTRL.c **** #endif
 227:.\motor_CTRL.c **** 		
 228:.\motor_CTRL.c **** 		pan_absolute_sensor.angle_rad = (float)pan_absolute_sensor.position * pan_axis.vparam.resolution_
 672              		.loc 1 228 0
 673 0112 40F20003 		movw	r3, #:lower16:pan_absolute_sensor
 674 0116 C0F20003 		movt	r3, #:upper16:pan_absolute_sensor
 675 011a 5A68     		ldr	r2, [r3, #4]	@ float
 676 011c 40F20003 		movw	r3, #:lower16:pan_axis
 677 0120 C0F20003 		movt	r3, #:upper16:pan_axis
 678 0124 9B68     		ldr	r3, [r3, #8]	@ float
 679 0126 1046     		mov	r0, r2
 680 0128 1946     		mov	r1, r3
 681 012a FFF7FEFF 		bl	__aeabi_fmul
ARM GAS  C:\Users\GRAZIA~1.RAV\AppData\Local\Temp\ccLYRwwS.s 			page 17


 682 012e 0346     		mov	r3, r0
 683 0130 1A46     		mov	r2, r3
 684 0132 40F20003 		movw	r3, #:lower16:pan_absolute_sensor
 685 0136 C0F20003 		movt	r3, #:upper16:pan_absolute_sensor
 686 013a 1A61     		str	r2, [r3, #16]	@ float
 687 013c 82E0     		b	.L28
 688              	.L26:
 229:.\motor_CTRL.c **** 	}	
 230:.\motor_CTRL.c ****     else if (paxis == &tilt_axis)
 689              		.loc 1 230 0
 690 013e 7A68     		ldr	r2, [r7, #4]
 691 0140 40F20003 		movw	r3, #:lower16:tilt_axis
 692 0144 C0F20003 		movt	r3, #:upper16:tilt_axis
 693 0148 9A42     		cmp	r2, r3
 694 014a 7BD1     		bne	.L28
 231:.\motor_CTRL.c ****     {
 232:.\motor_CTRL.c **** 		// Rsense = 0,39[Ohm]; Analog Gain = 25,9; --> V[ADC] = 0,39[Ohm] * 0,5 [A] * 25,9 = 5,05[V] (abo
 233:.\motor_CTRL.c **** 		tilt_axis.mc.current = (float)(AdcValue[SENSE_ITILT] + ADC_CURR_ZERO_OFFSET) * AMPERE_OVER_ADC_CO
 695              		.loc 1 233 0
 696 014c 40F20003 		movw	r3, #:lower16:AdcValue
 697 0150 C0F20003 		movt	r3, #:upper16:AdcValue
 698 0154 5B88     		ldrh	r3, [r3, #2]
 699 0156 1BB2     		sxth	r3, r3
 700 0158 03F50063 		add	r3, r3, #2048
 701 015c 1846     		mov	r0, r3
 702 015e FFF7FEFF 		bl	__aeabi_i2f
 703 0162 0346     		mov	r3, r0
 704 0164 1846     		mov	r0, r3
 705 0166 FFF7FEFF 		bl	__aeabi_f2d
 706 016a 0246     		mov	r2, r0
 707 016c 0B46     		mov	r3, r1
 708 016e 1046     		mov	r0, r2
 709 0170 1946     		mov	r1, r3
 710 0172 69A3     		adr	r3, .L57
 711 0174 D3E90023 		ldrd	r2, [r3]
 712 0178 FFF7FEFF 		bl	__aeabi_dmul
 713 017c 0246     		mov	r2, r0
 714 017e 0B46     		mov	r3, r1
 715 0180 1046     		mov	r0, r2
 716 0182 1946     		mov	r1, r3
 717 0184 FFF7FEFF 		bl	__aeabi_d2f
 718 0188 0246     		mov	r2, r0
 719 018a 40F20003 		movw	r3, #:lower16:tilt_axis
 720 018e C0F20003 		movt	r3, #:upper16:tilt_axis
 721 0192 9A67     		str	r2, [r3, #120]	@ float
 234:.\motor_CTRL.c **** 		
 235:.\motor_CTRL.c ****  		/* TILT Feedback Encoder PositionSampling						 */	
 236:.\motor_CTRL.c **** 		(*paxis).mc.slave_enc.position = QuadDec_TILT_GetCounter();												/* Incremental Position(t)
 722              		.loc 1 236 0
 723 0194 FFF7FEFF 		bl	QuadDec_TILT_GetCounter
 724 0198 0246     		mov	r2, r0
 725 019a 7B68     		ldr	r3, [r7, #4]
 726 019c 5A64     		str	r2, [r3, #68]
 237:.\motor_CTRL.c **** 		
 238:.\motor_CTRL.c **** 		/* TILT Analog Absolute Position SensorRaw Data Sampling (12bit) */		
 239:.\motor_CTRL.c **** 		tilt_absolute_sensor.raw = AdcValue[HOME_TILT_ABSV];													/* [ADC lsb] */
 727              		.loc 1 239 0
ARM GAS  C:\Users\GRAZIA~1.RAV\AppData\Local\Temp\ccLYRwwS.s 			page 18


 728 019e 40F20003 		movw	r3, #:lower16:AdcValue
 729 01a2 C0F20003 		movt	r3, #:upper16:AdcValue
 730 01a6 DA89     		ldrh	r2, [r3, #14]
 731 01a8 40F20003 		movw	r3, #:lower16:tilt_absolute_sensor
 732 01ac C0F20003 		movt	r3, #:upper16:tilt_absolute_sensor
 733 01b0 1A80     		strh	r2, [r3, #0]	@ movhi
 240:.\motor_CTRL.c **** 
 241:.\motor_CTRL.c **** 		/*  TILT Analog Absolute Position Sensor raw invertion 			 */
 242:.\motor_CTRL.c **** 		if (tilt_absolute_sensor.param.raw_invertion == ABS_SENSOR_INVERTED)
 734              		.loc 1 242 0
 735 01b2 40F20003 		movw	r3, #:lower16:tilt_absolute_sensor
 736 01b6 C0F20003 		movt	r3, #:upper16:tilt_absolute_sensor
 737 01ba 93F82C30 		ldrb	r3, [r3, #44]	@ zero_extendqisi2
 738 01be 012B     		cmp	r3, #1
 739 01c0 0ED1     		bne	.L29
 243:.\motor_CTRL.c **** 		{
 244:.\motor_CTRL.c **** 			tilt_absolute_sensor.raw = -tilt_absolute_sensor.raw;												/* [ADC lsb] */
 740              		.loc 1 244 0
 741 01c2 40F20003 		movw	r3, #:lower16:tilt_absolute_sensor
 742 01c6 C0F20003 		movt	r3, #:upper16:tilt_absolute_sensor
 743 01ca 1B88     		ldrh	r3, [r3, #0]
 744 01cc 9BB2     		uxth	r3, r3
 745 01ce C3F10003 		rsb	r3, r3, #0
 746 01d2 9BB2     		uxth	r3, r3
 747 01d4 9AB2     		uxth	r2, r3
 748 01d6 40F20003 		movw	r3, #:lower16:tilt_absolute_sensor
 749 01da C0F20003 		movt	r3, #:upper16:tilt_absolute_sensor
 750 01de 1A80     		strh	r2, [r3, #0]	@ movhi
 751              	.L29:
 245:.\motor_CTRL.c **** 		}
 246:.\motor_CTRL.c **** 
 247:.\motor_CTRL.c **** 		/********************************************************************************************/
 248:.\motor_CTRL.c **** 		/* Tilt Absolute Position Sensor Statistics Iterative Calculus								*/
 249:.\motor_CTRL.c **** 		/* iteration >= 2																			*/
 250:.\motor_CTRL.c **** 		/* Calcola il valor medio e altre variabili statistiche										*/
 251:.\motor_CTRL.c **** 		/* Fonte: http://www.cs.berkeley.edu/~mhoemmen/cs194/Tutorials/variance.pdf					*/
 252:.\motor_CTRL.c **** 		/* vedi anche \Study\Statistica\variance(Computing the standard deviation efficiently).pdf	*/
 253:.\motor_CTRL.c **** 		/********************************************************************************************/
 254:.\motor_CTRL.c **** 		statistics_elab_step(&tilt_absolute_sensor_stat, (float)tilt_absolute_sensor.raw);
 752              		.loc 1 254 0
 753 01e0 40F20003 		movw	r3, #:lower16:tilt_absolute_sensor
 754 01e4 C0F20003 		movt	r3, #:upper16:tilt_absolute_sensor
 755 01e8 1B88     		ldrh	r3, [r3, #0]
 756 01ea 1BB2     		sxth	r3, r3
 757 01ec 1846     		mov	r0, r3
 758 01ee FFF7FEFF 		bl	__aeabi_i2f
 759 01f2 0346     		mov	r3, r0
 760 01f4 40F20000 		movw	r0, #:lower16:tilt_absolute_sensor_stat
 761 01f8 C0F20000 		movt	r0, #:upper16:tilt_absolute_sensor_stat
 762 01fc 1946     		mov	r1, r3
 763 01fe FFF7FEFF 		bl	statistics_elab_step
 255:.\motor_CTRL.c **** 		
 256:.\motor_CTRL.c **** 		/* TILT Absolute Position Steps Calculation 					 */		
 257:.\motor_CTRL.c **** 		tilt_absolute_sensor.position = (float)(tilt_absolute_sensor.raw - tilt_absolute_sensor.param.raw
 764              		.loc 1 257 0
 765 0202 40F20003 		movw	r3, #:lower16:tilt_absolute_sensor
 766 0206 C0F20003 		movt	r3, #:upper16:tilt_absolute_sensor
ARM GAS  C:\Users\GRAZIA~1.RAV\AppData\Local\Temp\ccLYRwwS.s 			page 19


 767 020a 1B88     		ldrh	r3, [r3, #0]
 768 020c 1AB2     		sxth	r2, r3
 769 020e 40F20003 		movw	r3, #:lower16:tilt_absolute_sensor
 770 0212 C0F20003 		movt	r3, #:upper16:tilt_absolute_sensor
 771 0216 DB8D     		ldrh	r3, [r3, #46]
 772 0218 1BB2     		sxth	r3, r3
 773 021a D31A     		subs	r3, r2, r3
 774 021c 1846     		mov	r0, r3
 775 021e FFF7FEFF 		bl	__aeabi_i2f
 776 0222 0246     		mov	r2, r0
 258:.\motor_CTRL.c **** 									 * tilt_absolute_sensor.param.step_over_abs_ratio.fnum;						/* referred to HOME position 
 777              		.loc 1 258 0
 778 0224 40F20003 		movw	r3, #:lower16:tilt_absolute_sensor
 779 0228 C0F20003 		movt	r3, #:upper16:tilt_absolute_sensor
 780 022c 9B6B     		ldr	r3, [r3, #56]	@ float
 781 022e 1046     		mov	r0, r2
 782 0230 1946     		mov	r1, r3
 783 0232 FFF7FEFF 		bl	__aeabi_fmul
 784 0236 0346     		mov	r3, r0
 785 0238 1A46     		mov	r2, r3
 257:.\motor_CTRL.c **** 		tilt_absolute_sensor.position = (float)(tilt_absolute_sensor.raw - tilt_absolute_sensor.param.raw
 786              		.loc 1 257 0
 787 023a 40F20003 		movw	r3, #:lower16:tilt_absolute_sensor
 788 023e C0F20003 		movt	r3, #:upper16:tilt_absolute_sensor
 789 0242 5A60     		str	r2, [r3, #4]	@ float
 790              	.L28:
 259:.\motor_CTRL.c ****     }
 260:.\motor_CTRL.c **** 	
 261:.\motor_CTRL.c **** 	/****************************************************************************/
 262:.\motor_CTRL.c **** 	/* MASTER Encoder: Delta Mover Input										*/
 263:.\motor_CTRL.c **** 	/****************************************************************************/
 264:.\motor_CTRL.c **** 	if ((*mover).status == MOVER_STARTED)
 791              		.loc 1 264 0
 792 0244 3B68     		ldr	r3, [r7, #0]
 793 0246 1B78     		ldrb	r3, [r3, #0]	@ zero_extendqisi2
 794 0248 012B     		cmp	r3, #1
 795 024a 1FD1     		bne	.L30
 265:.\motor_CTRL.c **** 	{	
 266:.\motor_CTRL.c **** 		/* Mover Generated Steps 	*/
 267:.\motor_CTRL.c **** 		(*mover).steps = MoverGeneratedSteps(mover, &path[(*mover).path_to_move], (*mover).ticks);		/* [i
 796              		.loc 1 267 0
 797 024c 3B68     		ldr	r3, [r7, #0]
 798 024e 93F82830 		ldrb	r3, [r3, #40]	@ zero_extendqisi2
 799 0252 4FF43C72 		mov	r2, #752
 800 0256 02FB03F2 		mul	r2, r2, r3
 801 025a 40F20003 		movw	r3, #:lower16:path
 802 025e C0F20003 		movt	r3, #:upper16:path
 803 0262 D218     		adds	r2, r2, r3
 804 0264 3B68     		ldr	r3, [r7, #0]
 805 0266 5B68     		ldr	r3, [r3, #4]
 806 0268 3868     		ldr	r0, [r7, #0]
 807 026a 1146     		mov	r1, r2
 808 026c 1A46     		mov	r2, r3
 809 026e FFF7FEFF 		bl	MoverGeneratedSteps
 810 0272 0246     		mov	r2, r0
 811 0274 3B68     		ldr	r3, [r7, #0]
 812 0276 1A61     		str	r2, [r3, #16]
ARM GAS  C:\Users\GRAZIA~1.RAV\AppData\Local\Temp\ccLYRwwS.s 			page 20


 268:.\motor_CTRL.c **** 		(*paxis).mc.master_enc_sample_delta = (*mover).steps;											/* [int32 steps] */
 813              		.loc 1 268 0
 814 0278 3B68     		ldr	r3, [r7, #0]
 815 027a 1A69     		ldr	r2, [r3, #16]
 816 027c 7B68     		ldr	r3, [r7, #4]
 817 027e 9A63     		str	r2, [r3, #56]
 269:.\motor_CTRL.c **** 		
 270:.\motor_CTRL.c **** 		(*mover).ticks++;																				/* Mover ticks Increment	*/
 818              		.loc 1 270 0
 819 0280 3B68     		ldr	r3, [r7, #0]
 820 0282 5B68     		ldr	r3, [r3, #4]
 821 0284 03F10102 		add	r2, r3, #1
 822 0288 3B68     		ldr	r3, [r7, #0]
 823 028a 5A60     		str	r2, [r3, #4]
 824              	.L30:
 271:.\motor_CTRL.c **** 	}  
 272:.\motor_CTRL.c **** 
 273:.\motor_CTRL.c **** 
 274:.\motor_CTRL.c **** 	/********************************/
 275:.\motor_CTRL.c **** 	/* CONDITIONAL DELTA LIMITING	*/
 276:.\motor_CTRL.c **** 	/********************************/
 277:.\motor_CTRL.c **** 	if ((*paxis).lc.status == COARSE_BETWEEN_LIMITS_OK)
 825              		.loc 1 277 0
 826 028c 7B68     		ldr	r3, [r7, #4]
 827 028e 93F88430 		ldrb	r3, [r3, #132]	@ zero_extendqisi2
 828 0292 002B     		cmp	r3, #0
 829 0294 05D1     		bne	.L31
 278:.\motor_CTRL.c **** 	{		
 279:.\motor_CTRL.c **** 		(*paxis).lc.deceleration_factor = 1; /* reset Limit deceleration factor */		
 830              		.loc 1 279 0
 831 0296 7B68     		ldr	r3, [r7, #4]
 832 0298 4FF07E52 		mov	r2, #1065353216
 833 029c C3F88C20 		str	r2, [r3, #140]	@ float
 834 02a0 74E0     		b	.L32
 835              	.L31:
 280:.\motor_CTRL.c **** 	}
 281:.\motor_CTRL.c **** 	else
 282:.\motor_CTRL.c **** 	{
 283:.\motor_CTRL.c **** 		(*paxis).lc.master_limit_delta = (float)(*paxis).mc.master_enc_sample_delta +
 836              		.loc 1 283 0
 837 02a2 7B68     		ldr	r3, [r7, #4]
 838 02a4 9B6B     		ldr	r3, [r3, #56]
 839 02a6 1846     		mov	r0, r3
 840 02a8 FFF7FEFF 		bl	__aeabi_i2f
 841 02ac 0446     		mov	r4, r0
 284:.\motor_CTRL.c **** 										 (float)(*paxis).mc.master_joy_sample_delta;  /* [float delta steps] */
 842              		.loc 1 284 0
 843 02ae 7B68     		ldr	r3, [r7, #4]
 844 02b0 1B6C     		ldr	r3, [r3, #64]
 845 02b2 1846     		mov	r0, r3
 846 02b4 FFF7FEFF 		bl	__aeabi_i2f
 847 02b8 0346     		mov	r3, r0
 283:.\motor_CTRL.c **** 		(*paxis).lc.master_limit_delta = (float)(*paxis).mc.master_enc_sample_delta +
 848              		.loc 1 283 0
 849 02ba 2046     		mov	r0, r4
 850 02bc 1946     		mov	r1, r3
 851 02be FFF7FEFF 		bl	__aeabi_fadd
ARM GAS  C:\Users\GRAZIA~1.RAV\AppData\Local\Temp\ccLYRwwS.s 			page 21


 852 02c2 0346     		mov	r3, r0
 853 02c4 1A46     		mov	r2, r3
 854 02c6 7B68     		ldr	r3, [r7, #4]
 855 02c8 C3F88820 		str	r2, [r3, #136]	@ float
 285:.\motor_CTRL.c **** 									
 286:.\motor_CTRL.c **** 		/*  Re-enter into limits allowed al full speed */
 287:.\motor_CTRL.c **** 		if ((((*paxis).lc.status == POSITIVE_LIMIT_REACHED) && ((*paxis).lc.master_limit_delta < 0)) ||
 856              		.loc 1 287 0
 857 02cc 7B68     		ldr	r3, [r7, #4]
 858 02ce 93F88430 		ldrb	r3, [r3, #132]	@ zero_extendqisi2
 859 02d2 022B     		cmp	r3, #2
 860 02d4 0AD1     		bne	.L33
 861              		.loc 1 287 0 is_stmt 0 discriminator 1
 862 02d6 7B68     		ldr	r3, [r7, #4]
 863 02d8 D3F88830 		ldr	r3, [r3, #136]	@ float
 864 02dc 1846     		mov	r0, r3
 865 02de 4FF00001 		mov	r1, #0
 866 02e2 FFF7FEFF 		bl	__aeabi_fcmplt
 867 02e6 0346     		mov	r3, r0
 868 02e8 002B     		cmp	r3, #0
 869 02ea 0FD1     		bne	.L34
 870              	.L33:
 288:.\motor_CTRL.c **** 			(((*paxis).lc.status == NEGATIVE_LIMIT_REACHED) && ((*paxis).lc.master_limit_delta > 0)))
 871              		.loc 1 288 0 is_stmt 1 discriminator 2
 872 02ec 7B68     		ldr	r3, [r7, #4]
 873 02ee 93F88430 		ldrb	r3, [r3, #132]	@ zero_extendqisi2
 287:.\motor_CTRL.c **** 		if ((((*paxis).lc.status == POSITIVE_LIMIT_REACHED) && ((*paxis).lc.master_limit_delta < 0)) ||
 874              		.loc 1 287 0 discriminator 2
 875 02f2 012B     		cmp	r3, #1
 876 02f4 14D1     		bne	.L35
 877              		.loc 1 288 0
 878 02f6 7B68     		ldr	r3, [r7, #4]
 879 02f8 D3F88830 		ldr	r3, [r3, #136]	@ float
 880 02fc 1846     		mov	r0, r3
 881 02fe 4FF00001 		mov	r1, #0
 882 0302 FFF7FEFF 		bl	__aeabi_fcmpgt
 883 0306 0346     		mov	r3, r0
 884 0308 002B     		cmp	r3, #0
 885 030a 09D0     		beq	.L35
 886              	.L34:
 289:.\motor_CTRL.c **** 		{		
 290:.\motor_CTRL.c **** 			(*paxis).lc.deceleration_factor = 1; /* reset Limit deceleration factor */				
 887              		.loc 1 290 0
 888 030c 7B68     		ldr	r3, [r7, #4]
 889 030e 4FF07E52 		mov	r2, #1065353216
 890 0312 C3F88C20 		str	r2, [r3, #140]	@ float
 891 0316 39E0     		b	.L32
 892              	.L58:
 893              		.align	3
 894              	.L57:
 895 0318 4B233942 		.word	1111040843
 896 031c 60E5463F 		.word	1061610848
 897              	.L35:
 291:.\motor_CTRL.c **** 		}
 292:.\motor_CTRL.c **** 		else	/* fixed deceleration to zero speed */
 293:.\motor_CTRL.c **** 		{
 294:.\motor_CTRL.c **** 			/* 0.97^250 = 0.05% --> speed limiting to 0.05% after 0.1 sec */			
ARM GAS  C:\Users\GRAZIA~1.RAV\AppData\Local\Temp\ccLYRwwS.s 			page 22


 295:.\motor_CTRL.c **** 			(*paxis).lc.deceleration_factor = (*paxis).lc.deceleration_factor * (*paxis).param.limit_deceler
 898              		.loc 1 295 0
 899 0320 7B68     		ldr	r3, [r7, #4]
 900 0322 D3F88C20 		ldr	r2, [r3, #140]	@ float
 901 0326 7B68     		ldr	r3, [r7, #4]
 902 0328 1B6B     		ldr	r3, [r3, #48]	@ float
 903 032a 1046     		mov	r0, r2
 904 032c 1946     		mov	r1, r3
 905 032e FFF7FEFF 		bl	__aeabi_fmul
 906 0332 0346     		mov	r3, r0
 907 0334 1A46     		mov	r2, r3
 908 0336 7B68     		ldr	r3, [r7, #4]
 909 0338 C3F88C20 		str	r2, [r3, #140]	@ float
 296:.\motor_CTRL.c **** 
 297:.\motor_CTRL.c **** 			(*paxis).mc.master_enc_sample_delta = (int32)((float)(*paxis).mc.master_enc_sample_delta * (*pax
 910              		.loc 1 297 0
 911 033c 7B68     		ldr	r3, [r7, #4]
 912 033e 9B6B     		ldr	r3, [r3, #56]
 913 0340 1846     		mov	r0, r3
 914 0342 FFF7FEFF 		bl	__aeabi_i2f
 915 0346 0246     		mov	r2, r0
 916 0348 7B68     		ldr	r3, [r7, #4]
 917 034a D3F88C30 		ldr	r3, [r3, #140]	@ float
 918 034e 1046     		mov	r0, r2
 919 0350 1946     		mov	r1, r3
 920 0352 FFF7FEFF 		bl	__aeabi_fmul
 921 0356 0346     		mov	r3, r0
 922 0358 1846     		mov	r0, r3
 923 035a FFF7FEFF 		bl	__aeabi_f2iz
 924 035e 0246     		mov	r2, r0
 925 0360 7B68     		ldr	r3, [r7, #4]
 926 0362 9A63     		str	r2, [r3, #56]
 298:.\motor_CTRL.c **** 			
 299:.\motor_CTRL.c **** 			(*paxis).mc.master_joy_sample_delta = (int32)((float)(*paxis).mc.master_joy_sample_delta * (*pax
 927              		.loc 1 299 0
 928 0364 7B68     		ldr	r3, [r7, #4]
 929 0366 1B6C     		ldr	r3, [r3, #64]
 930 0368 1846     		mov	r0, r3
 931 036a FFF7FEFF 		bl	__aeabi_i2f
 932 036e 0246     		mov	r2, r0
 933 0370 7B68     		ldr	r3, [r7, #4]
 934 0372 D3F88C30 		ldr	r3, [r3, #140]	@ float
 935 0376 1046     		mov	r0, r2
 936 0378 1946     		mov	r1, r3
 937 037a FFF7FEFF 		bl	__aeabi_fmul
 938 037e 0346     		mov	r3, r0
 939 0380 1846     		mov	r0, r3
 940 0382 FFF7FEFF 		bl	__aeabi_f2iz
 941 0386 0246     		mov	r2, r0
 942 0388 7B68     		ldr	r3, [r7, #4]
 943 038a 1A64     		str	r2, [r3, #64]
 944              	.L32:
 300:.\motor_CTRL.c **** 		}		
 301:.\motor_CTRL.c **** 	}	
 302:.\motor_CTRL.c **** 	
 303:.\motor_CTRL.c **** 
 304:.\motor_CTRL.c **** 	//////////////////////////////////////////////
ARM GAS  C:\Users\GRAZIA~1.RAV\AppData\Local\Temp\ccLYRwwS.s 			page 23


 305:.\motor_CTRL.c **** 	// MASTER ENCODER & JOYSTICK INTEGRATION	//
 306:.\motor_CTRL.c **** 	//////////////////////////////////////////////
 307:.\motor_CTRL.c **** 	(*paxis).mc.master_enc_position = (*paxis).mc.master_enc_position + (*paxis).mc.master_enc_sample_
 945              		.loc 1 307 0
 946 038c 7B68     		ldr	r3, [r7, #4]
 947 038e 5A6B     		ldr	r2, [r3, #52]
 948 0390 7B68     		ldr	r3, [r7, #4]
 949 0392 9B6B     		ldr	r3, [r3, #56]
 950 0394 D218     		adds	r2, r2, r3
 951 0396 7B68     		ldr	r3, [r7, #4]
 952 0398 5A63     		str	r2, [r3, #52]
 308:.\motor_CTRL.c **** 	(*paxis).mc.master_joy_position = (*paxis).mc.master_joy_position + (*paxis).mc.master_joy_sample_
 953              		.loc 1 308 0
 954 039a 7B68     		ldr	r3, [r7, #4]
 955 039c DA6B     		ldr	r2, [r3, #60]
 956 039e 7B68     		ldr	r3, [r7, #4]
 957 03a0 1B6C     		ldr	r3, [r3, #64]
 958 03a2 D218     		adds	r2, r2, r3
 959 03a4 7B68     		ldr	r3, [r7, #4]
 960 03a6 DA63     		str	r2, [r3, #60]
 309:.\motor_CTRL.c **** 
 310:.\motor_CTRL.c **** 	
 311:.\motor_CTRL.c **** 	/****************************************************************************/
 312:.\motor_CTRL.c **** 	/* If DEENERGIZE by Software (OR Hardware)									*/
 313:.\motor_CTRL.c **** 	/* then GALIL TRICK!!!														*/
 314:.\motor_CTRL.c **** 	/****************************************************************************/
 315:.\motor_CTRL.c **** 	if (machine_state == GOBEE_DEENERGIZED)
 961              		.loc 1 315 0
 962 03a8 40F20003 		movw	r3, #:lower16:machine_state
 963 03ac C0F20003 		movt	r3, #:upper16:machine_state
 964 03b0 1B78     		ldrb	r3, [r3, #0]	@ zero_extendqisi2
 965 03b2 062B     		cmp	r3, #6
 966 03b4 02D1     		bne	.L37
 316:.\motor_CTRL.c **** 	{
 317:.\motor_CTRL.c **** 		GalilTrick(paxis);
 967              		.loc 1 317 0
 968 03b6 7868     		ldr	r0, [r7, #4]
 969 03b8 FFF7FEFF 		bl	GalilTrick
 970              	.L37:
 318:.\motor_CTRL.c **** 	}	
 319:.\motor_CTRL.c **** 	
 320:.\motor_CTRL.c **** 	
 321:.\motor_CTRL.c **** 	/****************************************************************************/
 322:.\motor_CTRL.c **** 	/* e(t) Calculus										   					*/
 323:.\motor_CTRL.c **** 	/****************************************************************************/
 324:.\motor_CTRL.c **** 	(*paxis).mc.error = (float)((*paxis).mc.master_enc_position + (*paxis).mc.master_joy_position - (*
 971              		.loc 1 324 0
 972 03bc 7B68     		ldr	r3, [r7, #4]
 973 03be 5A6B     		ldr	r2, [r3, #52]
 974 03c0 7B68     		ldr	r3, [r7, #4]
 975 03c2 DB6B     		ldr	r3, [r3, #60]
 976 03c4 D218     		adds	r2, r2, r3
 977 03c6 7B68     		ldr	r3, [r7, #4]
 978 03c8 5B6C     		ldr	r3, [r3, #68]
 979 03ca D31A     		subs	r3, r2, r3
 980 03cc 1846     		mov	r0, r3
 981 03ce FFF7FEFF 		bl	__aeabi_i2f
ARM GAS  C:\Users\GRAZIA~1.RAV\AppData\Local\Temp\ccLYRwwS.s 			page 24


 982 03d2 0246     		mov	r2, r0
 983 03d4 7B68     		ldr	r3, [r7, #4]
 984 03d6 9A65     		str	r2, [r3, #88]	@ float
 325:.\motor_CTRL.c **** 		
 326:.\motor_CTRL.c **** 
 327:.\motor_CTRL.c **** 	/************************************************************************/
 328:.\motor_CTRL.c **** 	/* d/dt(error)  Calculus												*/
 329:.\motor_CTRL.c **** 	/*   d/dt(error) = error(t) - error(t-1)       							*/
 330:.\motor_CTRL.c **** 	/************************************************************************/	
 331:.\motor_CTRL.c **** 	(*paxis).mc.derror = (*paxis).mc.error - (*paxis).mc.error_bef;
 985              		.loc 1 331 0
 986 03d8 7B68     		ldr	r3, [r7, #4]
 987 03da 9A6D     		ldr	r2, [r3, #88]	@ float
 988 03dc 7B68     		ldr	r3, [r7, #4]
 989 03de DB6D     		ldr	r3, [r3, #92]	@ float
 990 03e0 1046     		mov	r0, r2
 991 03e2 1946     		mov	r1, r3
 992 03e4 FFF7FEFF 		bl	__aeabi_fsub
 993 03e8 0346     		mov	r3, r0
 994 03ea 1A46     		mov	r2, r3
 995 03ec 7B68     		ldr	r3, [r7, #4]
 996 03ee 5A66     		str	r2, [r3, #100]	@ float
 332:.\motor_CTRL.c **** 	(*paxis).mc.error_bef = (*paxis).mc.error;	
 997              		.loc 1 332 0
 998 03f0 7B68     		ldr	r3, [r7, #4]
 999 03f2 9A6D     		ldr	r2, [r3, #88]	@ float
 1000 03f4 7B68     		ldr	r3, [r7, #4]
 1001 03f6 DA65     		str	r2, [r3, #92]	@ float
 333:.\motor_CTRL.c **** 	
 334:.\motor_CTRL.c **** 	
 335:.\motor_CTRL.c **** #if ASTIM_CALC_INLOOP
 336:.\motor_CTRL.c **** 	/********************************************************************************************/
 337:.\motor_CTRL.c **** 	/* WARNING!!!: AUTOSTIM VELOCITY (CONTROLLER INPUT)   										*/
 338:.\motor_CTRL.c **** 	/********************************************************************************************/
 339:.\motor_CTRL.c **** 	/*																							*/
 340:.\motor_CTRL.c **** 	/*							          -----------------------	  -------    				*/
 341:.\motor_CTRL.c **** 	/*   (0..4V)  CTRL_IN [V] --> (+) --> |* 4096[lsb]*4[V]/5[V]| --> |*Kopf| --> Float_ASTIM	*/
 342:.\motor_CTRL.c **** 	/*							   ^       ----------------------	  -------					*/
 343:.\motor_CTRL.c **** 	/*							   |															*/
 344:.\motor_CTRL.c **** 	/* 							  410 (offset)													*/
 345:.\motor_CTRL.c **** 	/* 																							*/
 346:.\motor_CTRL.c **** 	/* 	 Float_ASTIM(t) --->(+)---> e(t)														*/
 347:.\motor_CTRL.c **** 	/*					     ^																	*/
 348:.\motor_CTRL.c **** 	/*					     |																	*/
 349:.\motor_CTRL.c **** 	/*				         |------ -(gyro feedback(t))										*/
 350:.\motor_CTRL.c **** 	/*																							*/
 351:.\motor_CTRL.c **** 	/*   (Float_ASTIM)peak = Vinpp[V] * 410[lsb/V] * Kopf										*/
 352:.\motor_CTRL.c **** 	/*																							*/
 353:.\motor_CTRL.c **** 	/********************************************************************************************/	
 354:.\motor_CTRL.c **** 	(*paxis).mc.Float_ASTIM = ((float)(AdcValue[CTRL_IN_ASTIM]) + ADC_ASTIM_ZERO_OFFSET) * (*paxis).pa
 1002              		.loc 1 354 0
 1003 03f8 40F20003 		movw	r3, #:lower16:AdcValue
 1004 03fc C0F20003 		movt	r3, #:upper16:AdcValue
 1005 0400 1B8A     		ldrh	r3, [r3, #16]
 1006 0402 1BB2     		sxth	r3, r3
 1007 0404 1846     		mov	r0, r3
 1008 0406 FFF7FEFF 		bl	__aeabi_i2f
ARM GAS  C:\Users\GRAZIA~1.RAV\AppData\Local\Temp\ccLYRwwS.s 			page 25


 1009 040a 0346     		mov	r3, r0
 1010 040c 1846     		mov	r0, r3
 1011 040e 4FF00001 		mov	r1, #0
 1012 0412 C4F2CD31 		movt	r1, 17357
 1013 0416 FFF7FEFF 		bl	__aeabi_fadd
 1014 041a 0346     		mov	r3, r0
 1015 041c 1A46     		mov	r2, r3
 1016 041e 7B68     		ldr	r3, [r7, #4]
 1017 0420 5B6A     		ldr	r3, [r3, #36]	@ float
 1018 0422 1046     		mov	r0, r2
 1019 0424 1946     		mov	r1, r3
 1020 0426 FFF7FEFF 		bl	__aeabi_fmul
 1021 042a 0346     		mov	r3, r0
 1022 042c 1A46     		mov	r2, r3
 1023 042e 7B68     		ldr	r3, [r7, #4]
 1024 0430 DA67     		str	r2, [r3, #124]	@ float
 355:.\motor_CTRL.c **** 
 356:.\motor_CTRL.c **** 	/* Sgancio Zero Cross dall'autostimolo */
 357:.\motor_CTRL.c **** 	if ((*paxis).vparam.astim_enable == ASTIM_DISABLED)									//ASTIM IS DISABLED
 1025              		.loc 1 357 0
 1026 0432 7B68     		ldr	r3, [r7, #4]
 1027 0434 1B78     		ldrb	r3, [r3, #0]	@ zero_extendqisi2
 1028 0436 002B     		cmp	r3, #0
 1029 0438 2FD1     		bne	.L38
 358:.\motor_CTRL.c **** 	{
 359:.\motor_CTRL.c **** 		if ((*paxis).mc.astim_ZCsync == ASTIM_ZC_SYNC_OK)
 1030              		.loc 1 359 0
 1031 043a 7B68     		ldr	r3, [r7, #4]
 1032 043c 93F88030 		ldrb	r3, [r3, #128]	@ zero_extendqisi2
 1033 0440 052B     		cmp	r3, #5
 1034 0442 6FD1     		bne	.L56
 360:.\motor_CTRL.c **** 		{
 361:.\motor_CTRL.c **** 			if (((*paxis).mc.Float_ASTIM >= 50) || ((*paxis).mc.Float_ASTIM <= -50))
 1035              		.loc 1 361 0
 1036 0444 7B68     		ldr	r3, [r7, #4]
 1037 0446 DB6F     		ldr	r3, [r3, #124]	@ float
 1038 0448 1846     		mov	r0, r3
 1039 044a 4FF00001 		mov	r1, #0
 1040 044e C4F24821 		movt	r1, 16968
 1041 0452 FFF7FEFF 		bl	__aeabi_fcmpge
 1042 0456 0346     		mov	r3, r0
 1043 0458 002B     		cmp	r3, #0
 1044 045a 0BD1     		bne	.L40
 1045              		.loc 1 361 0 is_stmt 0 discriminator 1
 1046 045c 7B68     		ldr	r3, [r7, #4]
 1047 045e DB6F     		ldr	r3, [r3, #124]	@ float
 1048 0460 1846     		mov	r0, r3
 1049 0462 4FF00001 		mov	r1, #0
 1050 0466 CCF24821 		movt	r1, 49736
 1051 046a FFF7FEFF 		bl	__aeabi_fcmple
 1052 046e 0346     		mov	r3, r0
 1053 0470 002B     		cmp	r3, #0
 1054 0472 0CD0     		beq	.L55
 1055              	.L40:
 362:.\motor_CTRL.c **** 			{
 363:.\motor_CTRL.c **** 				(*paxis).mc.error = (*paxis).mc.error + (*paxis).mc.Float_ASTIM;		/* Position Stimulus Input */
 1056              		.loc 1 363 0 is_stmt 1
ARM GAS  C:\Users\GRAZIA~1.RAV\AppData\Local\Temp\ccLYRwwS.s 			page 26


 1057 0474 7B68     		ldr	r3, [r7, #4]
 1058 0476 9A6D     		ldr	r2, [r3, #88]	@ float
 1059 0478 7B68     		ldr	r3, [r7, #4]
 1060 047a DB6F     		ldr	r3, [r3, #124]	@ float
 1061 047c 1046     		mov	r0, r2
 1062 047e 1946     		mov	r1, r3
 1063 0480 FFF7FEFF 		bl	__aeabi_fadd
 1064 0484 0346     		mov	r3, r0
 1065 0486 1A46     		mov	r2, r3
 1066 0488 7B68     		ldr	r3, [r7, #4]
 1067 048a 9A65     		str	r2, [r3, #88]	@ float
 1068 048c 4BE0     		b	.L43
 1069              	.L55:
 364:.\motor_CTRL.c **** 			}
 365:.\motor_CTRL.c **** 			else
 366:.\motor_CTRL.c **** 			{
 367:.\motor_CTRL.c **** 				(*paxis).mc.astim_ZCsync = ASTIM_ZC_SYNC_TODO;
 1070              		.loc 1 367 0
 1071 048e 7B68     		ldr	r3, [r7, #4]
 1072 0490 4FF00002 		mov	r2, #0
 1073 0494 83F88020 		strb	r2, [r3, #128]
 1074 0498 44E0     		b	.L56
 1075              	.L38:
 368:.\motor_CTRL.c **** 			}
 369:.\motor_CTRL.c **** 		}
 370:.\motor_CTRL.c **** 	}
 371:.\motor_CTRL.c **** 	else																				//ASTIM is enabled
 372:.\motor_CTRL.c **** 	{
 373:.\motor_CTRL.c **** 		/* Aggancio Zero Cross all'autostimolo (sine e tria) */
 374:.\motor_CTRL.c **** 		if (((*paxis).vparam.astim_type == SINE_ASTIM) || ((*paxis).vparam.astim_type == TRIANGLE_ASTIM))
 1076              		.loc 1 374 0
 1077 049a 7B68     		ldr	r3, [r7, #4]
 1078 049c 5B78     		ldrb	r3, [r3, #1]	@ zero_extendqisi2
 1079 049e 012B     		cmp	r3, #1
 1080 04a0 03D0     		beq	.L44
 1081              		.loc 1 374 0 is_stmt 0 discriminator 1
 1082 04a2 7B68     		ldr	r3, [r7, #4]
 1083 04a4 5B78     		ldrb	r3, [r3, #1]	@ zero_extendqisi2
 1084 04a6 022B     		cmp	r3, #2
 1085 04a8 2BD1     		bne	.L45
 1086              	.L44:
 375:.\motor_CTRL.c **** 		{
 376:.\motor_CTRL.c **** 			if ((((*paxis).mc.Float_ASTIM > 0) && ((*paxis).mc.Float_ASTIM <= 10)) || ((*paxis).mc.astim_ZCs
 1087              		.loc 1 376 0 is_stmt 1
 1088 04aa 7B68     		ldr	r3, [r7, #4]
 1089 04ac DB6F     		ldr	r3, [r3, #124]	@ float
 1090 04ae 1846     		mov	r0, r3
 1091 04b0 4FF00001 		mov	r1, #0
 1092 04b4 FFF7FEFF 		bl	__aeabi_fcmpgt
 1093 04b8 0346     		mov	r3, r0
 1094 04ba 002B     		cmp	r3, #0
 1095 04bc 0BD0     		beq	.L46
 1096              	.L54:
 1097              		.loc 1 376 0 is_stmt 0 discriminator 1
 1098 04be 7B68     		ldr	r3, [r7, #4]
 1099 04c0 DB6F     		ldr	r3, [r3, #124]	@ float
 1100 04c2 1846     		mov	r0, r3
ARM GAS  C:\Users\GRAZIA~1.RAV\AppData\Local\Temp\ccLYRwwS.s 			page 27


 1101 04c4 4FF00001 		mov	r1, #0
 1102 04c8 C4F22011 		movt	r1, 16672
 1103 04cc FFF7FEFF 		bl	__aeabi_fcmple
 1104 04d0 0346     		mov	r3, r0
 1105 04d2 002B     		cmp	r3, #0
 1106 04d4 04D1     		bne	.L48
 1107              	.L46:
 1108              		.loc 1 376 0 discriminator 2
 1109 04d6 7B68     		ldr	r3, [r7, #4]
 1110 04d8 93F88030 		ldrb	r3, [r3, #128]	@ zero_extendqisi2
 1111 04dc 052B     		cmp	r3, #5
 1112 04de 10D1     		bne	.L45
 1113              	.L48:
 377:.\motor_CTRL.c **** 			{
 378:.\motor_CTRL.c **** 				(*paxis).mc.error = (*paxis).mc.error + (*paxis).mc.Float_ASTIM;		/* Position Stimulus Input 		
 1114              		.loc 1 378 0 is_stmt 1
 1115 04e0 7B68     		ldr	r3, [r7, #4]
 1116 04e2 9A6D     		ldr	r2, [r3, #88]	@ float
 1117 04e4 7B68     		ldr	r3, [r7, #4]
 1118 04e6 DB6F     		ldr	r3, [r3, #124]	@ float
 1119 04e8 1046     		mov	r0, r2
 1120 04ea 1946     		mov	r1, r3
 1121 04ec FFF7FEFF 		bl	__aeabi_fadd
 1122 04f0 0346     		mov	r3, r0
 1123 04f2 1A46     		mov	r2, r3
 1124 04f4 7B68     		ldr	r3, [r7, #4]
 1125 04f6 9A65     		str	r2, [r3, #88]	@ float
 379:.\motor_CTRL.c **** 				(*paxis).mc.astim_ZCsync = ASTIM_ZC_SYNC_OK;
 1126              		.loc 1 379 0
 1127 04f8 7B68     		ldr	r3, [r7, #4]
 1128 04fa 4FF00502 		mov	r2, #5
 1129 04fe 83F88020 		strb	r2, [r3, #128]
 1130              	.L45:
 380:.\motor_CTRL.c **** 			}
 381:.\motor_CTRL.c **** 		}
 382:.\motor_CTRL.c **** 
 383:.\motor_CTRL.c **** 		/* Aggancio immediato all'autostimolo (square) */		
 384:.\motor_CTRL.c **** 		if ((*paxis).vparam.astim_type == SQUARE_ASTIM)
 1131              		.loc 1 384 0
 1132 0502 7B68     		ldr	r3, [r7, #4]
 1133 0504 5B78     		ldrb	r3, [r3, #1]	@ zero_extendqisi2
 1134 0506 032B     		cmp	r3, #3
 1135 0508 0DD1     		bne	.L43
 385:.\motor_CTRL.c **** 		{
 386:.\motor_CTRL.c **** 			(*paxis).mc.error = (*paxis).mc.error + (*paxis).mc.Float_ASTIM;			/* Position Stimulus Input 		
 1136              		.loc 1 386 0
 1137 050a 7B68     		ldr	r3, [r7, #4]
 1138 050c 9A6D     		ldr	r2, [r3, #88]	@ float
 1139 050e 7B68     		ldr	r3, [r7, #4]
 1140 0510 DB6F     		ldr	r3, [r3, #124]	@ float
 1141 0512 1046     		mov	r0, r2
 1142 0514 1946     		mov	r1, r3
 1143 0516 FFF7FEFF 		bl	__aeabi_fadd
 1144 051a 0346     		mov	r3, r0
 1145 051c 1A46     		mov	r2, r3
 1146 051e 7B68     		ldr	r3, [r7, #4]
 1147 0520 9A65     		str	r2, [r3, #88]	@ float
ARM GAS  C:\Users\GRAZIA~1.RAV\AppData\Local\Temp\ccLYRwwS.s 			page 28


 1148 0522 00E0     		b	.L43
 1149              	.L56:
 367:.\motor_CTRL.c **** 				(*paxis).mc.astim_ZCsync = ASTIM_ZC_SYNC_TODO;
 1150              		.loc 1 367 0
 1151 0524 00BF     		nop
 1152              	.L43:
 387:.\motor_CTRL.c **** 		}
 388:.\motor_CTRL.c **** 	}
 389:.\motor_CTRL.c **** #endif	
 390:.\motor_CTRL.c **** 
 391:.\motor_CTRL.c **** 	/****************************************************************************/
 392:.\motor_CTRL.c **** 	/* PID Calculus										   						*/
 393:.\motor_CTRL.c **** 	/* 	  cv(t) =   PID(e(t)) + Autostimulus									*/
 394:.\motor_CTRL.c **** 	/****************************************************************************/
 395:.\motor_CTRL.c **** 	/* cv(t) = SAT_cvS(Kp * e(t) + Kd * (e(t) - e(t-1)) + Ki * Ksi_Saturated(integral(e(t))) 	*/
 396:.\motor_CTRL.c **** 	/* 11 bit saturation --> cvS=MOTOR_PWM_PERIOD_HALF											*/	
 397:.\motor_CTRL.c **** 	(*paxis).mc.ctrl_var = fpSpid_k2(paxis, MOTOR_PWM_PERIOD_HALF);
 1153              		.loc 1 397 0
 1154 0526 7868     		ldr	r0, [r7, #4]
 1155 0528 4FF40071 		mov	r1, #512
 1156 052c FFF7FEFF 		bl	fpSpid_k2
 1157 0530 0246     		mov	r2, r0
 1158 0532 7B68     		ldr	r3, [r7, #4]
 1159 0534 1A67     		str	r2, [r3, #112]	@ float
 398:.\motor_CTRL.c **** 	
 399:.\motor_CTRL.c **** 	
 400:.\motor_CTRL.c **** 	/****************************************************************************/
 401:.\motor_CTRL.c **** 	/* CONTROL VAR PWM refreshing: BASED ON POLARITY							*/
 402:.\motor_CTRL.c **** 	/****************************************************************************/
 403:.\motor_CTRL.c **** 	if ((*paxis).param.polarity == 0)
 1160              		.loc 1 403 0
 1161 0536 7B68     		ldr	r3, [r7, #4]
 1162 0538 1B7C     		ldrb	r3, [r3, #16]	@ zero_extendqisi2
 1163 053a 002B     		cmp	r3, #0
 1164 053c 11D1     		bne	.L49
 404:.\motor_CTRL.c **** 	{
 405:.\motor_CTRL.c **** 		(*paxis).mc.pwm_var = (uint16)((*paxis).mc.ctrl_var + MOTOR_PWM_PERIOD_HALF);			
 1165              		.loc 1 405 0
 1166 053e 7B68     		ldr	r3, [r7, #4]
 1167 0540 1B6F     		ldr	r3, [r3, #112]	@ float
 1168 0542 1846     		mov	r0, r3
 1169 0544 4FF08841 		mov	r1, #1140850688
 1170 0548 FFF7FEFF 		bl	__aeabi_fadd
 1171 054c 0346     		mov	r3, r0
 1172 054e 1846     		mov	r0, r3
 1173 0550 FFF7FEFF 		bl	__aeabi_f2uiz
 1174 0554 0346     		mov	r3, r0
 1175 0556 9BB2     		uxth	r3, r3
 1176 0558 9AB2     		uxth	r2, r3
 1177 055a 7B68     		ldr	r3, [r7, #4]
 1178 055c A3F87420 		strh	r2, [r3, #116]	@ movhi
 1179 0560 10E0     		b	.L50
 1180              	.L49:
 406:.\motor_CTRL.c **** 	}
 407:.\motor_CTRL.c **** 	else
 408:.\motor_CTRL.c **** 	{			
 409:.\motor_CTRL.c **** 		(*paxis).mc.pwm_var = (uint16)(MOTOR_PWM_PERIOD_HALF - (*paxis).mc.ctrl_var);
ARM GAS  C:\Users\GRAZIA~1.RAV\AppData\Local\Temp\ccLYRwwS.s 			page 29


 1181              		.loc 1 409 0
 1182 0562 7B68     		ldr	r3, [r7, #4]
 1183 0564 1B6F     		ldr	r3, [r3, #112]	@ float
 1184 0566 4FF08840 		mov	r0, #1140850688
 1185 056a 1946     		mov	r1, r3
 1186 056c FFF7FEFF 		bl	__aeabi_fsub
 1187 0570 0346     		mov	r3, r0
 1188 0572 1846     		mov	r0, r3
 1189 0574 FFF7FEFF 		bl	__aeabi_f2uiz
 1190 0578 0346     		mov	r3, r0
 1191 057a 9BB2     		uxth	r3, r3
 1192 057c 9AB2     		uxth	r2, r3
 1193 057e 7B68     		ldr	r3, [r7, #4]
 1194 0580 A3F87420 		strh	r2, [r3, #116]	@ movhi
 1195              	.L50:
 410:.\motor_CTRL.c **** 	}
 411:.\motor_CTRL.c **** 	
 412:.\motor_CTRL.c **** 	
 413:.\motor_CTRL.c **** 	/****************************************************************************/
 414:.\motor_CTRL.c **** 	/* PWM MOTOR Output (11.5bit)												*/
 415:.\motor_CTRL.c **** 	/****************************************************************************/
 416:.\motor_CTRL.c **** 	if (paxis == &pan_axis)
 1196              		.loc 1 416 0
 1197 0584 7A68     		ldr	r2, [r7, #4]
 1198 0586 40F20003 		movw	r3, #:lower16:pan_axis
 1199 058a C0F20003 		movt	r3, #:upper16:pan_axis
 1200 058e 9A42     		cmp	r2, r3
 1201 0590 0AD1     		bne	.L51
 417:.\motor_CTRL.c **** 	{
 418:.\motor_CTRL.c **** 		PWM_MOTOR_PAN_WriteCompare((int16)pan_axis.mc.pwm_var);
 1202              		.loc 1 418 0
 1203 0592 40F20003 		movw	r3, #:lower16:pan_axis
 1204 0596 C0F20003 		movt	r3, #:upper16:pan_axis
 1205 059a B3F87430 		ldrh	r3, [r3, #116]
 1206 059e 9BB2     		uxth	r3, r3
 1207 05a0 1846     		mov	r0, r3
 1208 05a2 FFF7FEFF 		bl	PWM_MOTOR_PAN_WriteCompare
 1209 05a6 19E0     		b	.L25
 1210              	.L51:
 419:.\motor_CTRL.c **** 	}
 420:.\motor_CTRL.c ****     else if (paxis == &tilt_axis)
 1211              		.loc 1 420 0
 1212 05a8 7A68     		ldr	r2, [r7, #4]
 1213 05aa 40F20003 		movw	r3, #:lower16:tilt_axis
 1214 05ae C0F20003 		movt	r3, #:upper16:tilt_axis
 1215 05b2 9A42     		cmp	r2, r3
 1216 05b4 0AD1     		bne	.L53
 421:.\motor_CTRL.c **** 	{
 422:.\motor_CTRL.c **** 		PWM_MOTOR_TILT_WriteCompare((int16)tilt_axis.mc.pwm_var);
 1217              		.loc 1 422 0
 1218 05b6 40F20003 		movw	r3, #:lower16:tilt_axis
 1219 05ba C0F20003 		movt	r3, #:upper16:tilt_axis
 1220 05be B3F87430 		ldrh	r3, [r3, #116]
 1221 05c2 9BB2     		uxth	r3, r3
 1222 05c4 1846     		mov	r0, r3
 1223 05c6 FFF7FEFF 		bl	PWM_MOTOR_TILT_WriteCompare
 1224 05ca 07E0     		b	.L25
ARM GAS  C:\Users\GRAZIA~1.RAV\AppData\Local\Temp\ccLYRwwS.s 			page 30


 1225              	.L53:
 423:.\motor_CTRL.c **** 	}
 424:.\motor_CTRL.c **** 	else		/* Firmware Internal Error */
 425:.\motor_CTRL.c **** 	{
 426:.\motor_CTRL.c **** 		PWM_MOTOR_PAN_WriteCompare(MOTOR_PWM_PERIOD_HALF);
 1226              		.loc 1 426 0
 1227 05cc 4FF40070 		mov	r0, #512
 1228 05d0 FFF7FEFF 		bl	PWM_MOTOR_PAN_WriteCompare
 427:.\motor_CTRL.c **** 		PWM_MOTOR_TILT_WriteCompare(MOTOR_PWM_PERIOD_HALF);
 1229              		.loc 1 427 0
 1230 05d4 4FF40070 		mov	r0, #512
 1231 05d8 FFF7FEFF 		bl	PWM_MOTOR_TILT_WriteCompare
 1232              	.L25:
 428:.\motor_CTRL.c **** 	}			
 429:.\motor_CTRL.c **** }
 1233              		.loc 1 429 0
 1234 05dc 07F10C07 		add	r7, r7, #12
 1235 05e0 BD46     		mov	sp, r7
 1236 05e2 90BD     		pop	{r4, r7, pc}
 1237              		.cfi_endproc
 1238              	.LFE60:
 1239              		.size	motor_control, .-motor_control
 1240 05e4 AFF30080 		.section	.text.GalilTrick,"ax",%progbits
 1241              		.align	2
 1242              		.global	GalilTrick
 1243              		.thumb
 1244              		.thumb_func
 1245              		.type	GalilTrick, %function
 1246              	GalilTrick:
 1247              	.LFB61:
 430:.\motor_CTRL.c **** 	
 431:.\motor_CTRL.c **** 
 432:.\motor_CTRL.c **** /********************************************************************/
 433:.\motor_CTRL.c **** /* GALIL TRICK														*/
 434:.\motor_CTRL.c **** /********************************************************************/
 435:.\motor_CTRL.c **** void GalilTrick(struct MOTOR_AXIS *paxis)
 436:.\motor_CTRL.c **** 
 437:.\motor_CTRL.c **** {    /*------------------------------*/
 1248              		.loc 1 437 0
 1249              		.cfi_startproc
 1250              		@ args = 0, pretend = 0, frame = 8
 1251              		@ frame_needed = 1, uses_anonymous_args = 0
 1252 0000 80B5     		push	{r7, lr}
 1253              	.LCFI13:
 1254              		.cfi_def_cfa_offset 8
 1255              		.cfi_offset 7, -8
 1256              		.cfi_offset 14, -4
 1257 0002 82B0     		sub	sp, sp, #8
 1258              	.LCFI14:
 1259              		.cfi_def_cfa_offset 16
 1260 0004 00AF     		add	r7, sp, #0
 1261              	.LCFI15:
 1262              		.cfi_def_cfa_register 7
 1263 0006 7860     		str	r0, [r7, #4]
 438:.\motor_CTRL.c **** 	/* Clear all PID(t) RT Datas    */
 439:.\motor_CTRL.c ****     /*------------------------------*/
 440:.\motor_CTRL.c **** 	/* e(t) = 0, LPF(e(t)) = 0	    */
ARM GAS  C:\Users\GRAZIA~1.RAV\AppData\Local\Temp\ccLYRwwS.s 			page 31


 441:.\motor_CTRL.c **** 	/* e(t-1) = 0		   		    */
 442:.\motor_CTRL.c **** 	/* integral(e(t)) = 0  		    */
 443:.\motor_CTRL.c **** 	/* d/dt(e(t)), LPF(d/dt(e(t)))	*/
 444:.\motor_CTRL.c ****     /*------------------------------*/
 445:.\motor_CTRL.c **** 	PIDs_DataClear(paxis);
 1264              		.loc 1 445 0
 1265 0008 7868     		ldr	r0, [r7, #4]
 1266 000a FFF7FEFF 		bl	PIDs_DataClear
 446:.\motor_CTRL.c **** 	
 447:.\motor_CTRL.c **** 	if (paxis == &pan_axis)
 1267              		.loc 1 447 0
 1268 000e 7A68     		ldr	r2, [r7, #4]
 1269 0010 40F20003 		movw	r3, #:lower16:pan_axis
 1270 0014 C0F20003 		movt	r3, #:upper16:pan_axis
 1271 0018 9A42     		cmp	r2, r3
 1272 001a 1ED1     		bne	.L60
 448:.\motor_CTRL.c **** 	{
 449:.\motor_CTRL.c **** 		/* Azzera anche e(t+1) caricando nel registro di feedback slave(t)...                            
 450:.\motor_CTRL.c ****         /*-----------------------------------------------------------------------------------------
 451:.\motor_CTRL.c ****         /* slave(t) = master(t) - Gyro(t) + GYRO_MASTER_OFFSET(t)                                  
 452:.\motor_CTRL.c ****         /* e(t+1) = master(t+1) - slave(t) - Gyro(t) + GYRO_MASTER_OFFSET(t) = 0                   
 453:.\motor_CTRL.c **** //		QuadDec_PAN_SetCounter((int32)(pan_axis.mc.master_enc_steps_lowpass
 454:.\motor_CTRL.c **** //                                   - pan_axis.gyrodata.Gyro_FLOAT_lowpass
 455:.\motor_CTRL.c **** //                                   + pan_axis.gyrodata.GyroMOffset_FLOAT_lowpass)); //[steps]	
 456:.\motor_CTRL.c **** #if PAN_PSEUDOABS
 457:.\motor_CTRL.c **** #else
 458:.\motor_CTRL.c **** 		QuadDec_PAN_SetCounter(          (int32)(pan_axis.mc.master_enc_position + pan_axis.mc.master_joy
 1273              		.loc 1 458 0
 1274 001c 40F20003 		movw	r3, #:lower16:pan_axis
 1275 0020 C0F20003 		movt	r3, #:upper16:pan_axis
 1276 0024 5A6B     		ldr	r2, [r3, #52]
 1277 0026 40F20003 		movw	r3, #:lower16:pan_axis
 1278 002a C0F20003 		movt	r3, #:upper16:pan_axis
 1279 002e DB6B     		ldr	r3, [r3, #60]
 1280 0030 D318     		adds	r3, r2, r3
 1281 0032 1846     		mov	r0, r3
 1282 0034 FFF7FEFF 		bl	QuadDec_PAN_SetCounter
 459:.\motor_CTRL.c **** 		pan_axis.mc.slave_enc.position = (int32)(pan_axis.mc.master_enc_position + pan_axis.mc.master_joy
 1283              		.loc 1 459 0
 1284 0038 40F20003 		movw	r3, #:lower16:pan_axis
 1285 003c C0F20003 		movt	r3, #:upper16:pan_axis
 1286 0040 5A6B     		ldr	r2, [r3, #52]
 1287 0042 40F20003 		movw	r3, #:lower16:pan_axis
 1288 0046 C0F20003 		movt	r3, #:upper16:pan_axis
 1289 004a DB6B     		ldr	r3, [r3, #60]
 1290 004c D218     		adds	r2, r2, r3
 1291 004e 40F20003 		movw	r3, #:lower16:pan_axis
 1292 0052 C0F20003 		movt	r3, #:upper16:pan_axis
 1293 0056 5A64     		str	r2, [r3, #68]
 1294 0058 24E0     		b	.L59
 1295              	.L60:
 460:.\motor_CTRL.c **** #endif		
 461:.\motor_CTRL.c **** 	}
 462:.\motor_CTRL.c **** 	else if (paxis == &tilt_axis)
 1296              		.loc 1 462 0
 1297 005a 7A68     		ldr	r2, [r7, #4]
 1298 005c 40F20003 		movw	r3, #:lower16:tilt_axis
ARM GAS  C:\Users\GRAZIA~1.RAV\AppData\Local\Temp\ccLYRwwS.s 			page 32


 1299 0060 C0F20003 		movt	r3, #:upper16:tilt_axis
 1300 0064 9A42     		cmp	r2, r3
 1301 0066 1DD1     		bne	.L59
 463:.\motor_CTRL.c **** 	{
 464:.\motor_CTRL.c **** 		/* Azzera anche e(t+1) caricando nel registro di feedback slave(t)...                            
 465:.\motor_CTRL.c ****         /*-----------------------------------------------------------------------------------------
 466:.\motor_CTRL.c ****         /* slave(t) = master(t) - Gyro(t) + GYRO_MASTER_OFFSET(t)                                  
 467:.\motor_CTRL.c ****         /* e(t+1) = master(t+1) - slave(t) - Gyro(t) + GYRO_MASTER_OFFSET(t) = 0                   
 468:.\motor_CTRL.c **** //		QuadDec_TILT_SetCounter((int32)(tilt_axis.mc.master_enc_steps_lowpass
 469:.\motor_CTRL.c **** //                                   - tilt_axis.gyrodata.Gyro_FLOAT_lowpass
 470:.\motor_CTRL.c **** //                                   + tilt_axis.gyrodata.GyroMOffset_FLOAT_lowpass)); //[steps]	
 471:.\motor_CTRL.c **** 		QuadDec_TILT_SetCounter(          (int32)(tilt_axis.mc.master_enc_position + tilt_axis.mc.master_
 1302              		.loc 1 471 0
 1303 0068 40F20003 		movw	r3, #:lower16:tilt_axis
 1304 006c C0F20003 		movt	r3, #:upper16:tilt_axis
 1305 0070 5A6B     		ldr	r2, [r3, #52]
 1306 0072 40F20003 		movw	r3, #:lower16:tilt_axis
 1307 0076 C0F20003 		movt	r3, #:upper16:tilt_axis
 1308 007a DB6B     		ldr	r3, [r3, #60]
 1309 007c D318     		adds	r3, r2, r3
 1310 007e 1846     		mov	r0, r3
 1311 0080 FFF7FEFF 		bl	QuadDec_TILT_SetCounter
 472:.\motor_CTRL.c **** 		tilt_axis.mc.slave_enc.position = (int32)(tilt_axis.mc.master_enc_position + tilt_axis.mc.master_
 1312              		.loc 1 472 0
 1313 0084 40F20003 		movw	r3, #:lower16:tilt_axis
 1314 0088 C0F20003 		movt	r3, #:upper16:tilt_axis
 1315 008c 5A6B     		ldr	r2, [r3, #52]
 1316 008e 40F20003 		movw	r3, #:lower16:tilt_axis
 1317 0092 C0F20003 		movt	r3, #:upper16:tilt_axis
 1318 0096 DB6B     		ldr	r3, [r3, #60]
 1319 0098 D218     		adds	r2, r2, r3
 1320 009a 40F20003 		movw	r3, #:lower16:tilt_axis
 1321 009e C0F20003 		movt	r3, #:upper16:tilt_axis
 1322 00a2 5A64     		str	r2, [r3, #68]
 1323              	.L59:
 473:.\motor_CTRL.c **** 		
 474:.\motor_CTRL.c **** 	}	
 475:.\motor_CTRL.c **** }
 1324              		.loc 1 475 0
 1325 00a4 07F10807 		add	r7, r7, #8
 1326 00a8 BD46     		mov	sp, r7
 1327 00aa 80BD     		pop	{r7, pc}
 1328              		.cfi_endproc
 1329              	.LFE61:
 1330              		.size	GalilTrick, .-GalilTrick
 1331              		.section	.text.motor_init,"ax",%progbits
 1332              		.align	2
 1333              		.global	motor_init
 1334              		.thumb
 1335              		.thumb_func
 1336              		.type	motor_init, %function
 1337              	motor_init:
 1338              	.LFB62:
 476:.\motor_CTRL.c **** 
 477:.\motor_CTRL.c **** //////////////////////////////////////
 478:.\motor_CTRL.c **** //motors initialization function	//
 479:.\motor_CTRL.c **** //////////////////////////////////////
ARM GAS  C:\Users\GRAZIA~1.RAV\AppData\Local\Temp\ccLYRwwS.s 			page 33


 480:.\motor_CTRL.c **** void motor_init(struct MOTOR_AXIS *paxis)
 481:.\motor_CTRL.c **** {
 1339              		.loc 1 481 0
 1340              		.cfi_startproc
 1341              		@ args = 0, pretend = 0, frame = 8
 1342              		@ frame_needed = 1, uses_anonymous_args = 0
 1343 0000 80B5     		push	{r7, lr}
 1344              	.LCFI16:
 1345              		.cfi_def_cfa_offset 8
 1346              		.cfi_offset 7, -8
 1347              		.cfi_offset 14, -4
 1348 0002 82B0     		sub	sp, sp, #8
 1349              	.LCFI17:
 1350              		.cfi_def_cfa_offset 16
 1351 0004 00AF     		add	r7, sp, #0
 1352              	.LCFI18:
 1353              		.cfi_def_cfa_register 7
 1354 0006 7860     		str	r0, [r7, #4]
 482:.\motor_CTRL.c ****     /*------------------------------*/
 483:.\motor_CTRL.c **** 	/* Clear all PID(t) RT Datas    */
 484:.\motor_CTRL.c ****     /*------------------------------*/
 485:.\motor_CTRL.c **** 	/* e(t) = 0, LPF(e(t)) = 0	    */
 486:.\motor_CTRL.c **** 	/* e(t-1) = 0		   		    */
 487:.\motor_CTRL.c **** 	/* integral(e(t)) = 0  		    */
 488:.\motor_CTRL.c **** 	/* d/dt(e(t)), LPF(d/dt(e(t)))	*/
 489:.\motor_CTRL.c ****     /*------------------------------*/
 490:.\motor_CTRL.c **** 	PIDs_DataClear(paxis);
 1355              		.loc 1 490 0
 1356 0008 7868     		ldr	r0, [r7, #4]
 1357 000a FFF7FEFF 		bl	PIDs_DataClear
 491:.\motor_CTRL.c **** 	
 492:.\motor_CTRL.c **** 	//clears master integrated positions
 493:.\motor_CTRL.c **** 	(*paxis).mc.master_enc_position = 0;
 1358              		.loc 1 493 0
 1359 000e 7B68     		ldr	r3, [r7, #4]
 1360 0010 4FF00002 		mov	r2, #0
 1361 0014 5A63     		str	r2, [r3, #52]
 494:.\motor_CTRL.c **** 	(*paxis).mc.master_joy_position = 0;
 1362              		.loc 1 494 0
 1363 0016 7B68     		ldr	r3, [r7, #4]
 1364 0018 4FF00002 		mov	r2, #0
 1365 001c DA63     		str	r2, [r3, #60]
 495:.\motor_CTRL.c **** 	
 496:.\motor_CTRL.c **** 	//clears feedback encoders
 497:.\motor_CTRL.c **** 	if (paxis == &pan_axis)
 1366              		.loc 1 497 0
 1367 001e 7A68     		ldr	r2, [r7, #4]
 1368 0020 40F20003 		movw	r3, #:lower16:pan_axis
 1369 0024 C0F20003 		movt	r3, #:upper16:pan_axis
 1370 0028 9A42     		cmp	r2, r3
 1371 002a 04D1     		bne	.L63
 498:.\motor_CTRL.c **** 	{
 499:.\motor_CTRL.c **** 		QuadDec_PAN_SetCounter(0);
 1372              		.loc 1 499 0
 1373 002c 4FF00000 		mov	r0, #0
 1374 0030 FFF7FEFF 		bl	QuadDec_PAN_SetCounter
 1375 0034 0AE0     		b	.L62
ARM GAS  C:\Users\GRAZIA~1.RAV\AppData\Local\Temp\ccLYRwwS.s 			page 34


 1376              	.L63:
 500:.\motor_CTRL.c **** 	}
 501:.\motor_CTRL.c **** 	else if (paxis == &tilt_axis)
 1377              		.loc 1 501 0
 1378 0036 7A68     		ldr	r2, [r7, #4]
 1379 0038 40F20003 		movw	r3, #:lower16:tilt_axis
 1380 003c C0F20003 		movt	r3, #:upper16:tilt_axis
 1381 0040 9A42     		cmp	r2, r3
 1382 0042 03D1     		bne	.L62
 502:.\motor_CTRL.c **** 	{
 503:.\motor_CTRL.c **** 		QuadDec_TILT_SetCounter(0);
 1383              		.loc 1 503 0
 1384 0044 4FF00000 		mov	r0, #0
 1385 0048 FFF7FEFF 		bl	QuadDec_TILT_SetCounter
 1386              	.L62:
 504:.\motor_CTRL.c **** 	}
 505:.\motor_CTRL.c **** //	else if (paxis == &roll_axis)
 506:.\motor_CTRL.c **** //	{
 507:.\motor_CTRL.c **** //		QuadDec_ROLL_SetCounter(0);
 508:.\motor_CTRL.c **** //	}	
 509:.\motor_CTRL.c **** }
 1387              		.loc 1 509 0
 1388 004c 07F10807 		add	r7, r7, #8
 1389 0050 BD46     		mov	sp, r7
 1390 0052 80BD     		pop	{r7, pc}
 1391              		.cfi_endproc
 1392              	.LFE62:
 1393              		.size	motor_init, .-motor_init
 1394              		.section	.text.motor_energize,"ax",%progbits
 1395              		.align	2
 1396              		.global	motor_energize
 1397              		.thumb
 1398              		.thumb_func
 1399              		.type	motor_energize, %function
 1400              	motor_energize:
 1401              	.LFB63:
 510:.\motor_CTRL.c **** 
 511:.\motor_CTRL.c **** void motor_energize(struct MOTOR_AXIS *paxis)
 512:.\motor_CTRL.c **** {
 1402              		.loc 1 512 0
 1403              		.cfi_startproc
 1404              		@ args = 0, pretend = 0, frame = 8
 1405              		@ frame_needed = 1, uses_anonymous_args = 0
 1406 0000 80B5     		push	{r7, lr}
 1407              	.LCFI19:
 1408              		.cfi_def_cfa_offset 8
 1409              		.cfi_offset 7, -8
 1410              		.cfi_offset 14, -4
 1411 0002 82B0     		sub	sp, sp, #8
 1412              	.LCFI20:
 1413              		.cfi_def_cfa_offset 16
 1414 0004 00AF     		add	r7, sp, #0
 1415              	.LCFI21:
 1416              		.cfi_def_cfa_register 7
 1417 0006 7860     		str	r0, [r7, #4]
 513:.\motor_CTRL.c **** 	if ((paxis == &pan_axis) || (paxis == &tilt_axis))
 1418              		.loc 1 513 0
ARM GAS  C:\Users\GRAZIA~1.RAV\AppData\Local\Temp\ccLYRwwS.s 			page 35


 1419 0008 7A68     		ldr	r2, [r7, #4]
 1420 000a 40F20003 		movw	r3, #:lower16:pan_axis
 1421 000e C0F20003 		movt	r3, #:upper16:pan_axis
 1422 0012 9A42     		cmp	r2, r3
 1423 0014 06D0     		beq	.L66
 1424              		.loc 1 513 0 is_stmt 0 discriminator 1
 1425 0016 7A68     		ldr	r2, [r7, #4]
 1426 0018 40F20003 		movw	r3, #:lower16:tilt_axis
 1427 001c C0F20003 		movt	r3, #:upper16:tilt_axis
 1428 0020 9A42     		cmp	r2, r3
 1429 0022 03D1     		bne	.L65
 1430              	.L66:
 514:.\motor_CTRL.c **** 	{
 515:.\motor_CTRL.c **** 		Control_Reg_MOTOR_Write(0x01);
 1431              		.loc 1 515 0 is_stmt 1
 1432 0024 4FF00100 		mov	r0, #1
 1433 0028 FFF7FEFF 		bl	Control_Reg_MOTOR_Write
 1434              	.L65:
 516:.\motor_CTRL.c **** 	}
 517:.\motor_CTRL.c **** }
 1435              		.loc 1 517 0
 1436 002c 07F10807 		add	r7, r7, #8
 1437 0030 BD46     		mov	sp, r7
 1438 0032 80BD     		pop	{r7, pc}
 1439              		.cfi_endproc
 1440              	.LFE63:
 1441              		.size	motor_energize, .-motor_energize
 1442              		.section	.text.motor_sleep,"ax",%progbits
 1443              		.align	2
 1444              		.global	motor_sleep
 1445              		.thumb
 1446              		.thumb_func
 1447              		.type	motor_sleep, %function
 1448              	motor_sleep:
 1449              	.LFB64:
 518:.\motor_CTRL.c **** 
 519:.\motor_CTRL.c **** 
 520:.\motor_CTRL.c **** void motor_sleep(struct MOTOR_AXIS *paxis)
 521:.\motor_CTRL.c **** {
 1450              		.loc 1 521 0
 1451              		.cfi_startproc
 1452              		@ args = 0, pretend = 0, frame = 8
 1453              		@ frame_needed = 1, uses_anonymous_args = 0
 1454 0000 80B5     		push	{r7, lr}
 1455              	.LCFI22:
 1456              		.cfi_def_cfa_offset 8
 1457              		.cfi_offset 7, -8
 1458              		.cfi_offset 14, -4
 1459 0002 82B0     		sub	sp, sp, #8
 1460              	.LCFI23:
 1461              		.cfi_def_cfa_offset 16
 1462 0004 00AF     		add	r7, sp, #0
 1463              	.LCFI24:
 1464              		.cfi_def_cfa_register 7
 1465 0006 7860     		str	r0, [r7, #4]
 522:.\motor_CTRL.c **** 	if ((paxis == &pan_axis) || (paxis == &tilt_axis))
 1466              		.loc 1 522 0
ARM GAS  C:\Users\GRAZIA~1.RAV\AppData\Local\Temp\ccLYRwwS.s 			page 36


 1467 0008 7A68     		ldr	r2, [r7, #4]
 1468 000a 40F20003 		movw	r3, #:lower16:pan_axis
 1469 000e C0F20003 		movt	r3, #:upper16:pan_axis
 1470 0012 9A42     		cmp	r2, r3
 1471 0014 06D0     		beq	.L69
 1472              		.loc 1 522 0 is_stmt 0 discriminator 1
 1473 0016 7A68     		ldr	r2, [r7, #4]
 1474 0018 40F20003 		movw	r3, #:lower16:tilt_axis
 1475 001c C0F20003 		movt	r3, #:upper16:tilt_axis
 1476 0020 9A42     		cmp	r2, r3
 1477 0022 03D1     		bne	.L68
 1478              	.L69:
 523:.\motor_CTRL.c **** 	{
 524:.\motor_CTRL.c **** 		Control_Reg_MOTOR_Write(0x00);
 1479              		.loc 1 524 0 is_stmt 1
 1480 0024 4FF00000 		mov	r0, #0
 1481 0028 FFF7FEFF 		bl	Control_Reg_MOTOR_Write
 1482              	.L68:
 525:.\motor_CTRL.c **** 	}
 526:.\motor_CTRL.c **** }
 1483              		.loc 1 526 0
 1484 002c 07F10807 		add	r7, r7, #8
 1485 0030 BD46     		mov	sp, r7
 1486 0032 80BD     		pop	{r7, pc}
 1487              		.cfi_endproc
 1488              	.LFE64:
 1489              		.size	motor_sleep, .-motor_sleep
 1490              		.text
 1491              	.Letext0:
 1492              		.file 2 "c:\\program files (x86)\\cypress\\psoc creator\\3.0\\psoc creator\\import\\gnu_cs\\arm\\4
 1493              		.file 3 "./Generated_Source/PSoC5/cytypes.h"
 1494              		.file 4 "./gobee.h"
 1495              		.file 5 "./statistics.h"
 1496              		.file 6 "./mover.h"
 1497              		.file 7 "./Generated_Source/PSoC5/core_cm3.h"