ARM GAS  C:\Users\gravi\AppData\Local\Temp\ccbamzTM.s 			page 1


   1              		.syntax unified
   2              		.cpu cortex-m3
   3              		.fpu softvfp
   4              		.eabi_attribute 20, 1
   5              		.eabi_attribute 21, 1
   6              		.eabi_attribute 23, 3
   7              		.eabi_attribute 24, 1
   8              		.eabi_attribute 25, 1
   9              		.eabi_attribute 26, 1
  10              		.eabi_attribute 30, 6
  11              		.eabi_attribute 34, 1
  12              		.eabi_attribute 18, 4
  13              		.thumb
  14              		.file	"My_I2C_lib.c"
  15              		.text
  16              	.Ltext0:
  17              		.cfi_sections	.debug_frame
  18              		.section	.text.My_I2C_COULOMB_ReadByte,"ax",%progbits
  19              		.align	2
  20              		.global	My_I2C_COULOMB_ReadByte
  21              		.thumb
  22              		.thumb_func
  23              		.type	My_I2C_COULOMB_ReadByte, %function
  24              	My_I2C_COULOMB_ReadByte:
  25              	.LFB56:
  26              		.file 1 ".\\My_I2C_lib.c"
   1:.\My_I2C_lib.c **** /* ========================================
   2:.\My_I2C_lib.c ****  *
   3:.\My_I2C_lib.c ****  * Copyright YOUR COMPANY, THE YEAR
   4:.\My_I2C_lib.c ****  * All Rights Reserved
   5:.\My_I2C_lib.c ****  * UNPUBLISHED, LICENSED SOFTWARE.
   6:.\My_I2C_lib.c ****  *
   7:.\My_I2C_lib.c ****  * CONFIDENTIAL AND PROPRIETARY INFORMATION
   8:.\My_I2C_lib.c ****  * WHICH IS THE PROPERTY OF your company.
   9:.\My_I2C_lib.c ****  *
  10:.\My_I2C_lib.c ****  * ========================================
  11:.\My_I2C_lib.c **** */
  12:.\My_I2C_lib.c **** 
  13:.\My_I2C_lib.c **** /* Include files */
  14:.\My_I2C_lib.c **** #include <device.h>
  15:.\My_I2C_lib.c **** #include <stdio.h>
  16:.\My_I2C_lib.c **** #include <gobee.h>
  17:.\My_I2C_lib.c **** 
  18:.\My_I2C_lib.c **** 
  19:.\My_I2C_lib.c **** //Reads a single Byte from I2C device at address slaveAddress
  20:.\My_I2C_lib.c **** //  slaveAddress = Right-justified 7-bit slave address (valid range 0 to 127)
  21:.\My_I2C_lib.c **** //  This function performs complete transfer for Start to Stop
  22:.\My_I2C_lib.c **** //  Non Blocking
  23:.\My_I2C_lib.c **** uint8 My_I2C_COULOMB_ReadByte(uint8 slaveAddress)
  24:.\My_I2C_lib.c **** {
  27              		.loc 1 24 0
  28              		.cfi_startproc
  29              		@ args = 0, pretend = 0, frame = 16
  30              		@ frame_needed = 1, uses_anonymous_args = 0
  31 0000 80B5     		push	{r7, lr}
  32              	.LCFI0:
  33              		.cfi_def_cfa_offset 8
ARM GAS  C:\Users\gravi\AppData\Local\Temp\ccbamzTM.s 			page 2


  34              		.cfi_offset 7, -8
  35              		.cfi_offset 14, -4
  36 0002 84B0     		sub	sp, sp, #16
  37              	.LCFI1:
  38              		.cfi_def_cfa_offset 24
  39 0004 00AF     		add	r7, sp, #0
  40              	.LCFI2:
  41              		.cfi_def_cfa_register 7
  42 0006 0346     		mov	r3, r0
  43 0008 FB71     		strb	r3, [r7, #7]
  25:.\My_I2C_lib.c **** 	uint8 result;
  26:.\My_I2C_lib.c **** 	uint8 status __attribute__ ((unused));
  27:.\My_I2C_lib.c **** 
  28:.\My_I2C_lib.c **** 	status = I2C_COULOMB_MasterReadBuf(slaveAddress, &result, sizeof(uint8), I2C_COULOMB_MODE_COMPLETE
  44              		.loc 1 28 0
  45 000a FA79     		ldrb	r2, [r7, #7]	@ zero_extendqisi2
  46 000c 07F10E03 		add	r3, r7, #14
  47 0010 1046     		mov	r0, r2
  48 0012 1946     		mov	r1, r3
  49 0014 4FF00102 		mov	r2, #1
  50 0018 4FF00003 		mov	r3, #0
  51 001c FFF7FEFF 		bl	I2C_COULOMB_MasterReadBuf
  52 0020 0346     		mov	r3, r0
  53 0022 FB73     		strb	r3, [r7, #15]
  29:.\My_I2C_lib.c **** 	//status = I2C_COULOMB_MasterReadBuf(slaveAddress, &result, sizeof(uint8),I2C_COULOMB_MODE_REPEAT_
  30:.\My_I2C_lib.c **** 	// error handling
  31:.\My_I2C_lib.c **** 
  32:.\My_I2C_lib.c **** 	return result;
  54              		.loc 1 32 0
  55 0024 BB7B     		ldrb	r3, [r7, #14]	@ zero_extendqisi2
  33:.\My_I2C_lib.c **** }
  56              		.loc 1 33 0
  57 0026 1846     		mov	r0, r3
  58 0028 07F11007 		add	r7, r7, #16
  59 002c BD46     		mov	sp, r7
  60 002e 80BD     		pop	{r7, pc}
  61              		.cfi_endproc
  62              	.LFE56:
  63              		.size	My_I2C_COULOMB_ReadByte, .-My_I2C_COULOMB_ReadByte
  64              		.section	.text.My_I2C_COULOMB_Read2Bytes,"ax",%progbits
  65              		.align	2
  66              		.global	My_I2C_COULOMB_Read2Bytes
  67              		.thumb
  68              		.thumb_func
  69              		.type	My_I2C_COULOMB_Read2Bytes, %function
  70              	My_I2C_COULOMB_Read2Bytes:
  71              	.LFB57:
  34:.\My_I2C_lib.c **** 
  35:.\My_I2C_lib.c **** //Reads 2 Bytes from I2C device at address slaveAddress
  36:.\My_I2C_lib.c **** //  slaveAddress = Right-justified 7-bit slave address (valid range 0 to 127)
  37:.\My_I2C_lib.c **** //  This function performs complete transfer for Start to Stop
  38:.\My_I2C_lib.c **** //  Non Blocking
  39:.\My_I2C_lib.c **** uint16 My_I2C_COULOMB_Read2Bytes(uint8 slaveAddress)
  40:.\My_I2C_lib.c **** {
  72              		.loc 1 40 0
  73              		.cfi_startproc
  74              		@ args = 0, pretend = 0, frame = 16
ARM GAS  C:\Users\gravi\AppData\Local\Temp\ccbamzTM.s 			page 3


  75              		@ frame_needed = 1, uses_anonymous_args = 0
  76 0000 80B5     		push	{r7, lr}
  77              	.LCFI3:
  78              		.cfi_def_cfa_offset 8
  79              		.cfi_offset 7, -8
  80              		.cfi_offset 14, -4
  81 0002 84B0     		sub	sp, sp, #16
  82              	.LCFI4:
  83              		.cfi_def_cfa_offset 24
  84 0004 00AF     		add	r7, sp, #0
  85              	.LCFI5:
  86              		.cfi_def_cfa_register 7
  87 0006 0346     		mov	r3, r0
  88 0008 FB71     		strb	r3, [r7, #7]
  41:.\My_I2C_lib.c **** 	uint16a result;
  42:.\My_I2C_lib.c **** 	uint8 status __attribute__ ((unused));
  43:.\My_I2C_lib.c **** 
  44:.\My_I2C_lib.c **** 	status = I2C_COULOMB_MasterReadBuf(slaveAddress, &result.byte[0], sizeof(uint16), I2C_COULOMB_MODE
  89              		.loc 1 44 0
  90 000a FA79     		ldrb	r2, [r7, #7]	@ zero_extendqisi2
  91 000c 07F10C03 		add	r3, r7, #12
  92 0010 1046     		mov	r0, r2
  93 0012 1946     		mov	r1, r3
  94 0014 4FF00202 		mov	r2, #2
  95 0018 4FF00003 		mov	r3, #0
  96 001c FFF7FEFF 		bl	I2C_COULOMB_MasterReadBuf
  97 0020 0346     		mov	r3, r0
  98 0022 FB73     		strb	r3, [r7, #15]
  45:.\My_I2C_lib.c **** 	// error handling
  46:.\My_I2C_lib.c **** 
  47:.\My_I2C_lib.c **** return result.word;
  99              		.loc 1 47 0
 100 0024 BB89     		ldrh	r3, [r7, #12]
  48:.\My_I2C_lib.c **** }
 101              		.loc 1 48 0
 102 0026 1846     		mov	r0, r3
 103 0028 07F11007 		add	r7, r7, #16
 104 002c BD46     		mov	sp, r7
 105 002e 80BD     		pop	{r7, pc}
 106              		.cfi_endproc
 107              	.LFE57:
 108              		.size	My_I2C_COULOMB_Read2Bytes, .-My_I2C_COULOMB_Read2Bytes
 109              		.section	.text.My_I2C_COULOMB_ReadSlaveRegister,"ax",%progbits
 110              		.align	2
 111              		.global	My_I2C_COULOMB_ReadSlaveRegister
 112              		.thumb
 113              		.thumb_func
 114              		.type	My_I2C_COULOMB_ReadSlaveRegister, %function
 115              	My_I2C_COULOMB_ReadSlaveRegister:
 116              	.LFB58:
  49:.\My_I2C_lib.c **** 
  50:.\My_I2C_lib.c **** 
  51:.\My_I2C_lib.c **** 
  52:.\My_I2C_lib.c **** //Reads a single Byte from slaveRegisterAddress of I2C device at address slaveAddress
  53:.\My_I2C_lib.c **** //  slaveAddress = Right-justified 7-bit slave address (valid range 0 to 127)
  54:.\My_I2C_lib.c **** //  This function performs complete transfer for Start to Stop
  55:.\My_I2C_lib.c **** //  Non Blocking
ARM GAS  C:\Users\gravi\AppData\Local\Temp\ccbamzTM.s 			page 4


  56:.\My_I2C_lib.c **** uint8 My_I2C_COULOMB_ReadSlaveRegister(uint8 slaveAddress, uint8 slaveRegisterAddress)
  57:.\My_I2C_lib.c **** {
 117              		.loc 1 57 0
 118              		.cfi_startproc
 119              		@ args = 0, pretend = 0, frame = 16
 120              		@ frame_needed = 1, uses_anonymous_args = 0
 121 0000 80B5     		push	{r7, lr}
 122              	.LCFI6:
 123              		.cfi_def_cfa_offset 8
 124              		.cfi_offset 7, -8
 125              		.cfi_offset 14, -4
 126 0002 84B0     		sub	sp, sp, #16
 127              	.LCFI7:
 128              		.cfi_def_cfa_offset 24
 129 0004 00AF     		add	r7, sp, #0
 130              	.LCFI8:
 131              		.cfi_def_cfa_register 7
 132 0006 0246     		mov	r2, r0
 133 0008 0B46     		mov	r3, r1
 134 000a FA71     		strb	r2, [r7, #7]
 135 000c BB71     		strb	r3, [r7, #6]
  58:.\My_I2C_lib.c **** 	uint8 result;
  59:.\My_I2C_lib.c **** 	uint8 status __attribute__ ((unused));
  60:.\My_I2C_lib.c **** 
  61:.\My_I2C_lib.c **** 	status = I2C_COULOMB_MasterWriteBuf(slaveAddress, &slaveRegisterAddress, sizeof(uint8), I2C_COULOM
 136              		.loc 1 61 0
 137 000e FA79     		ldrb	r2, [r7, #7]	@ zero_extendqisi2
 138 0010 07F10603 		add	r3, r7, #6
 139 0014 1046     		mov	r0, r2
 140 0016 1946     		mov	r1, r3
 141 0018 4FF00102 		mov	r2, #1
 142 001c 4FF00203 		mov	r3, #2
 143 0020 FFF7FEFF 		bl	I2C_COULOMB_MasterWriteBuf
 144 0024 0346     		mov	r3, r0
 145 0026 FB73     		strb	r3, [r7, #15]
  62:.\My_I2C_lib.c **** 	// error handling
  63:.\My_I2C_lib.c **** 
  64:.\My_I2C_lib.c **** 	status = I2C_COULOMB_MasterReadBuf(slaveAddress, &result, sizeof(uint8), I2C_COULOMB_MODE_REPEAT_S
 146              		.loc 1 64 0
 147 0028 FA79     		ldrb	r2, [r7, #7]	@ zero_extendqisi2
 148 002a 07F10E03 		add	r3, r7, #14
 149 002e 1046     		mov	r0, r2
 150 0030 1946     		mov	r1, r3
 151 0032 4FF00102 		mov	r2, #1
 152 0036 4FF00103 		mov	r3, #1
 153 003a FFF7FEFF 		bl	I2C_COULOMB_MasterReadBuf
 154 003e 0346     		mov	r3, r0
 155 0040 FB73     		strb	r3, [r7, #15]
  65:.\My_I2C_lib.c **** 	// error handling
  66:.\My_I2C_lib.c **** 
  67:.\My_I2C_lib.c **** 	return result;
 156              		.loc 1 67 0
 157 0042 BB7B     		ldrb	r3, [r7, #14]	@ zero_extendqisi2
  68:.\My_I2C_lib.c **** }
 158              		.loc 1 68 0
 159 0044 1846     		mov	r0, r3
 160 0046 07F11007 		add	r7, r7, #16
ARM GAS  C:\Users\gravi\AppData\Local\Temp\ccbamzTM.s 			page 5


 161 004a BD46     		mov	sp, r7
 162 004c 80BD     		pop	{r7, pc}
 163              		.cfi_endproc
 164              	.LFE58:
 165              		.size	My_I2C_COULOMB_ReadSlaveRegister, .-My_I2C_COULOMB_ReadSlaveRegister
 166 004e 00BF     		.text
 167              	.Letext0:
 168              		.file 2 "c:\\program files (x86)\\cypress\\psoc creator\\3.0\\psoc creator\\import\\gnu_cs\\arm\\4
 169              		.file 3 "./Generated_Source/PSoC5/cytypes.h"
 170              		.file 4 "./gobee.h"
 171              		.file 5 "./Generated_Source/PSoC5/core_cm3.h"