ARM GAS  C:\DOCUME~1\user\IMPOST~1\Temp\cch1IoEp.s 			page 1


   1              		.syntax unified
   2              		.cpu cortex-m3
   3              		.fpu softvfp
   4              		.eabi_attribute 20, 1
   5              		.eabi_attribute 21, 1
   6              		.eabi_attribute 23, 3
   7              		.eabi_attribute 24, 1
   8              		.eabi_attribute 25, 1
   9              		.eabi_attribute 26, 1
  10              		.eabi_attribute 30, 6
  11              		.eabi_attribute 34, 1
  12              		.eabi_attribute 18, 4
  13              		.thumb
  14              		.file	"PWM_MOTOR_PM.c"
  15              		.text
  16              	.Ltext0:
  17              		.cfi_sections	.debug_frame
  18              		.bss
  19              		.align	2
  20              	PWM_MOTOR_backup:
  21 0000 00000000 		.space	10
  21      00000000 
  21      0000
  22 000a 0000     		.section	.text.PWM_MOTOR_SaveConfig,"ax",%progbits
  23              		.align	2
  24              		.global	PWM_MOTOR_SaveConfig
  25              		.thumb
  26              		.thumb_func
  27              		.type	PWM_MOTOR_SaveConfig, %function
  28              	PWM_MOTOR_SaveConfig:
  29              	.LFB0:
  30              		.file 1 ".\\Generated_Source\\PSoC5\\PWM_MOTOR_PM.c"
   1:.\Generated_Source\PSoC5/PWM_MOTOR_PM.c **** /*******************************************************************************
   2:.\Generated_Source\PSoC5/PWM_MOTOR_PM.c **** * File Name: PWM_MOTOR_PM.c
   3:.\Generated_Source\PSoC5/PWM_MOTOR_PM.c **** * Version 3.0
   4:.\Generated_Source\PSoC5/PWM_MOTOR_PM.c **** *
   5:.\Generated_Source\PSoC5/PWM_MOTOR_PM.c **** * Description:
   6:.\Generated_Source\PSoC5/PWM_MOTOR_PM.c **** *  This file provides the power management source code to API for the
   7:.\Generated_Source\PSoC5/PWM_MOTOR_PM.c **** *  PWM.
   8:.\Generated_Source\PSoC5/PWM_MOTOR_PM.c **** *
   9:.\Generated_Source\PSoC5/PWM_MOTOR_PM.c **** * Note:
  10:.\Generated_Source\PSoC5/PWM_MOTOR_PM.c **** *
  11:.\Generated_Source\PSoC5/PWM_MOTOR_PM.c **** ********************************************************************************
  12:.\Generated_Source\PSoC5/PWM_MOTOR_PM.c **** * Copyright 2008-2012, Cypress Semiconductor Corporation.  All rights reserved.
  13:.\Generated_Source\PSoC5/PWM_MOTOR_PM.c **** * You may use this file only in accordance with the license, terms, conditions,
  14:.\Generated_Source\PSoC5/PWM_MOTOR_PM.c **** * disclaimers, and limitations in the end user license agreement accompanying
  15:.\Generated_Source\PSoC5/PWM_MOTOR_PM.c **** * the software package with which this file was provided.
  16:.\Generated_Source\PSoC5/PWM_MOTOR_PM.c **** *******************************************************************************/
  17:.\Generated_Source\PSoC5/PWM_MOTOR_PM.c **** #include "cytypes.h"
  18:.\Generated_Source\PSoC5/PWM_MOTOR_PM.c **** #include "PWM_MOTOR.h"
  19:.\Generated_Source\PSoC5/PWM_MOTOR_PM.c **** 
  20:.\Generated_Source\PSoC5/PWM_MOTOR_PM.c **** static PWM_MOTOR_backupStruct PWM_MOTOR_backup;
  21:.\Generated_Source\PSoC5/PWM_MOTOR_PM.c **** 
  22:.\Generated_Source\PSoC5/PWM_MOTOR_PM.c **** 
  23:.\Generated_Source\PSoC5/PWM_MOTOR_PM.c **** /*******************************************************************************
  24:.\Generated_Source\PSoC5/PWM_MOTOR_PM.c **** * Function Name: PWM_MOTOR_SaveConfig
  25:.\Generated_Source\PSoC5/PWM_MOTOR_PM.c **** ********************************************************************************
ARM GAS  C:\DOCUME~1\user\IMPOST~1\Temp\cch1IoEp.s 			page 2


  26:.\Generated_Source\PSoC5/PWM_MOTOR_PM.c **** *
  27:.\Generated_Source\PSoC5/PWM_MOTOR_PM.c **** * Summary:
  28:.\Generated_Source\PSoC5/PWM_MOTOR_PM.c **** *  Saves the current user configuration of the component.
  29:.\Generated_Source\PSoC5/PWM_MOTOR_PM.c **** *  
  30:.\Generated_Source\PSoC5/PWM_MOTOR_PM.c **** * Parameters:  
  31:.\Generated_Source\PSoC5/PWM_MOTOR_PM.c **** *  None
  32:.\Generated_Source\PSoC5/PWM_MOTOR_PM.c **** *
  33:.\Generated_Source\PSoC5/PWM_MOTOR_PM.c **** * Return: 
  34:.\Generated_Source\PSoC5/PWM_MOTOR_PM.c **** *  None
  35:.\Generated_Source\PSoC5/PWM_MOTOR_PM.c **** *
  36:.\Generated_Source\PSoC5/PWM_MOTOR_PM.c **** * Global variables:
  37:.\Generated_Source\PSoC5/PWM_MOTOR_PM.c **** *  PWM_MOTOR_backup:  Variables of this global structure are modified to 
  38:.\Generated_Source\PSoC5/PWM_MOTOR_PM.c **** *  store the values of non retention configuration registers when Sleep() API is 
  39:.\Generated_Source\PSoC5/PWM_MOTOR_PM.c **** *  called.
  40:.\Generated_Source\PSoC5/PWM_MOTOR_PM.c **** *
  41:.\Generated_Source\PSoC5/PWM_MOTOR_PM.c **** *******************************************************************************/
  42:.\Generated_Source\PSoC5/PWM_MOTOR_PM.c **** void PWM_MOTOR_SaveConfig(void) 
  43:.\Generated_Source\PSoC5/PWM_MOTOR_PM.c **** {
  31              		.loc 1 43 0
  32              		.cfi_startproc
  33              		@ args = 0, pretend = 0, frame = 0
  34              		@ frame_needed = 1, uses_anonymous_args = 0
  35 0000 80B5     		push	{r7, lr}
  36              	.LCFI0:
  37              		.cfi_def_cfa_offset 8
  38              		.cfi_offset 7, -8
  39              		.cfi_offset 14, -4
  40 0002 00AF     		add	r7, sp, #0
  41              	.LCFI1:
  42              		.cfi_def_cfa_register 7
  44:.\Generated_Source\PSoC5/PWM_MOTOR_PM.c ****     
  45:.\Generated_Source\PSoC5/PWM_MOTOR_PM.c ****     #if(!PWM_MOTOR_UsingFixedFunction)
  46:.\Generated_Source\PSoC5/PWM_MOTOR_PM.c ****         #if(!PWM_MOTOR_PWMModeIsCenterAligned)
  47:.\Generated_Source\PSoC5/PWM_MOTOR_PM.c ****             PWM_MOTOR_backup.PWMPeriod = PWM_MOTOR_ReadPeriod();
  43              		.loc 1 47 0
  44 0004 FFF7FEFF 		bl	PWM_MOTOR_ReadPeriod
  45 0008 0346     		mov	r3, r0
  46 000a 1A46     		mov	r2, r3
  47 000c 40F20003 		movw	r3, #:lower16:PWM_MOTOR_backup
  48 0010 C0F20003 		movt	r3, #:upper16:PWM_MOTOR_backup
  49 0014 9A80     		strh	r2, [r3, #4]	@ movhi
  48:.\Generated_Source\PSoC5/PWM_MOTOR_PM.c ****         #endif /* (!PWM_MOTOR_PWMModeIsCenterAligned) */
  49:.\Generated_Source\PSoC5/PWM_MOTOR_PM.c ****         PWM_MOTOR_backup.PWMUdb = PWM_MOTOR_ReadCounter();
  50              		.loc 1 49 0
  51 0016 FFF7FEFF 		bl	PWM_MOTOR_ReadCounter
  52 001a 0346     		mov	r3, r0
  53 001c 1A46     		mov	r2, r3
  54 001e 40F20003 		movw	r3, #:lower16:PWM_MOTOR_backup
  55 0022 C0F20003 		movt	r3, #:upper16:PWM_MOTOR_backup
  56 0026 5A80     		strh	r2, [r3, #2]	@ movhi
  50:.\Generated_Source\PSoC5/PWM_MOTOR_PM.c ****         #if (PWM_MOTOR_UseStatus)
  51:.\Generated_Source\PSoC5/PWM_MOTOR_PM.c ****             PWM_MOTOR_backup.InterruptMaskValue = PWM_MOTOR_STATUS_MASK;
  57              		.loc 1 51 0
  58 0028 46F28553 		movw	r3, #25989
  59 002c C4F20003 		movt	r3, 16384
  60 0030 1B78     		ldrb	r3, [r3, #0]
  61 0032 DAB2     		uxtb	r2, r3
ARM GAS  C:\DOCUME~1\user\IMPOST~1\Temp\cch1IoEp.s 			page 3


  62 0034 40F20003 		movw	r3, #:lower16:PWM_MOTOR_backup
  63 0038 C0F20003 		movt	r3, #:upper16:PWM_MOTOR_backup
  64 003c 9A71     		strb	r2, [r3, #6]
  52:.\Generated_Source\PSoC5/PWM_MOTOR_PM.c ****         #endif /* (PWM_MOTOR_UseStatus) */
  53:.\Generated_Source\PSoC5/PWM_MOTOR_PM.c ****         
  54:.\Generated_Source\PSoC5/PWM_MOTOR_PM.c ****         #if(PWM_MOTOR_DeadBandMode == PWM_MOTOR__B_PWM__DBM_256_CLOCKS || \
  55:.\Generated_Source\PSoC5/PWM_MOTOR_PM.c ****             PWM_MOTOR_DeadBandMode == PWM_MOTOR__B_PWM__DBM_2_4_CLOCKS)
  56:.\Generated_Source\PSoC5/PWM_MOTOR_PM.c ****             PWM_MOTOR_backup.PWMdeadBandValue = PWM_MOTOR_ReadDeadTime();
  65              		.loc 1 56 0
  66 003e FFF7FEFF 		bl	PWM_MOTOR_ReadDeadTime
  67 0042 0346     		mov	r3, r0
  68 0044 1A46     		mov	r2, r3
  69 0046 40F20003 		movw	r3, #:lower16:PWM_MOTOR_backup
  70 004a C0F20003 		movt	r3, #:upper16:PWM_MOTOR_backup
  71 004e DA71     		strb	r2, [r3, #7]
  57:.\Generated_Source\PSoC5/PWM_MOTOR_PM.c ****         #endif /*  deadband count is either 2-4 clocks or 256 clocks */
  58:.\Generated_Source\PSoC5/PWM_MOTOR_PM.c ****         
  59:.\Generated_Source\PSoC5/PWM_MOTOR_PM.c ****         #if(PWM_MOTOR_KillModeMinTime)
  60:.\Generated_Source\PSoC5/PWM_MOTOR_PM.c ****              PWM_MOTOR_backup.PWMKillCounterPeriod = PWM_MOTOR_ReadKillTime();
  61:.\Generated_Source\PSoC5/PWM_MOTOR_PM.c ****         #endif /* (PWM_MOTOR_KillModeMinTime) */
  62:.\Generated_Source\PSoC5/PWM_MOTOR_PM.c ****         
  63:.\Generated_Source\PSoC5/PWM_MOTOR_PM.c ****         #if(PWM_MOTOR_UseControl)
  64:.\Generated_Source\PSoC5/PWM_MOTOR_PM.c ****             PWM_MOTOR_backup.PWMControlRegister = PWM_MOTOR_ReadControlRegister();
  72              		.loc 1 64 0
  73 0050 FFF7FEFF 		bl	PWM_MOTOR_ReadControlRegister
  74 0054 0346     		mov	r3, r0
  75 0056 1A46     		mov	r2, r3
  76 0058 40F20003 		movw	r3, #:lower16:PWM_MOTOR_backup
  77 005c C0F20003 		movt	r3, #:upper16:PWM_MOTOR_backup
  78 0060 1A72     		strb	r2, [r3, #8]
  65:.\Generated_Source\PSoC5/PWM_MOTOR_PM.c ****         #endif /* (PWM_MOTOR_UseControl) */
  66:.\Generated_Source\PSoC5/PWM_MOTOR_PM.c ****     #endif  /* (!PWM_MOTOR_UsingFixedFunction) */
  67:.\Generated_Source\PSoC5/PWM_MOTOR_PM.c **** }
  79              		.loc 1 67 0
  80 0062 80BD     		pop	{r7, pc}
  81              		.cfi_endproc
  82              	.LFE0:
  83              		.size	PWM_MOTOR_SaveConfig, .-PWM_MOTOR_SaveConfig
  84              		.section	.text.PWM_MOTOR_RestoreConfig,"ax",%progbits
  85              		.align	2
  86              		.global	PWM_MOTOR_RestoreConfig
  87              		.thumb
  88              		.thumb_func
  89              		.type	PWM_MOTOR_RestoreConfig, %function
  90              	PWM_MOTOR_RestoreConfig:
  91              	.LFB1:
  68:.\Generated_Source\PSoC5/PWM_MOTOR_PM.c **** 
  69:.\Generated_Source\PSoC5/PWM_MOTOR_PM.c **** 
  70:.\Generated_Source\PSoC5/PWM_MOTOR_PM.c **** /*******************************************************************************
  71:.\Generated_Source\PSoC5/PWM_MOTOR_PM.c **** * Function Name: PWM_MOTOR_RestoreConfig
  72:.\Generated_Source\PSoC5/PWM_MOTOR_PM.c **** ********************************************************************************
  73:.\Generated_Source\PSoC5/PWM_MOTOR_PM.c **** * 
  74:.\Generated_Source\PSoC5/PWM_MOTOR_PM.c **** * Summary:
  75:.\Generated_Source\PSoC5/PWM_MOTOR_PM.c **** *  Restores the current user configuration of the component.
  76:.\Generated_Source\PSoC5/PWM_MOTOR_PM.c **** *
  77:.\Generated_Source\PSoC5/PWM_MOTOR_PM.c **** * Parameters:  
  78:.\Generated_Source\PSoC5/PWM_MOTOR_PM.c **** *  None
ARM GAS  C:\DOCUME~1\user\IMPOST~1\Temp\cch1IoEp.s 			page 4


  79:.\Generated_Source\PSoC5/PWM_MOTOR_PM.c **** *
  80:.\Generated_Source\PSoC5/PWM_MOTOR_PM.c **** * Return: 
  81:.\Generated_Source\PSoC5/PWM_MOTOR_PM.c **** *  None
  82:.\Generated_Source\PSoC5/PWM_MOTOR_PM.c **** *
  83:.\Generated_Source\PSoC5/PWM_MOTOR_PM.c **** * Global variables:
  84:.\Generated_Source\PSoC5/PWM_MOTOR_PM.c **** *  PWM_MOTOR_backup:  Variables of this global structure are used to  
  85:.\Generated_Source\PSoC5/PWM_MOTOR_PM.c **** *  restore the values of non retention registers on wakeup from sleep mode.
  86:.\Generated_Source\PSoC5/PWM_MOTOR_PM.c **** *
  87:.\Generated_Source\PSoC5/PWM_MOTOR_PM.c **** *******************************************************************************/
  88:.\Generated_Source\PSoC5/PWM_MOTOR_PM.c **** void PWM_MOTOR_RestoreConfig(void) 
  89:.\Generated_Source\PSoC5/PWM_MOTOR_PM.c **** {
  92              		.loc 1 89 0
  93              		.cfi_startproc
  94              		@ args = 0, pretend = 0, frame = 0
  95              		@ frame_needed = 1, uses_anonymous_args = 0
  96 0000 80B5     		push	{r7, lr}
  97              	.LCFI2:
  98              		.cfi_def_cfa_offset 8
  99              		.cfi_offset 7, -8
 100              		.cfi_offset 14, -4
 101 0002 00AF     		add	r7, sp, #0
 102              	.LCFI3:
 103              		.cfi_def_cfa_register 7
  90:.\Generated_Source\PSoC5/PWM_MOTOR_PM.c ****         #if(!PWM_MOTOR_UsingFixedFunction)
  91:.\Generated_Source\PSoC5/PWM_MOTOR_PM.c ****             #if(!PWM_MOTOR_PWMModeIsCenterAligned)
  92:.\Generated_Source\PSoC5/PWM_MOTOR_PM.c ****                 PWM_MOTOR_WritePeriod(PWM_MOTOR_backup.PWMPeriod);
 104              		.loc 1 92 0
 105 0004 40F20003 		movw	r3, #:lower16:PWM_MOTOR_backup
 106 0008 C0F20003 		movt	r3, #:upper16:PWM_MOTOR_backup
 107 000c 9B88     		ldrh	r3, [r3, #4]
 108 000e 1846     		mov	r0, r3
 109 0010 FFF7FEFF 		bl	PWM_MOTOR_WritePeriod
  93:.\Generated_Source\PSoC5/PWM_MOTOR_PM.c ****             #endif /* (!PWM_MOTOR_PWMModeIsCenterAligned) */
  94:.\Generated_Source\PSoC5/PWM_MOTOR_PM.c ****             PWM_MOTOR_WriteCounter(PWM_MOTOR_backup.PWMUdb);
 110              		.loc 1 94 0
 111 0014 40F20003 		movw	r3, #:lower16:PWM_MOTOR_backup
 112 0018 C0F20003 		movt	r3, #:upper16:PWM_MOTOR_backup
 113 001c 5B88     		ldrh	r3, [r3, #2]
 114 001e 1846     		mov	r0, r3
 115 0020 FFF7FEFF 		bl	PWM_MOTOR_WriteCounter
  95:.\Generated_Source\PSoC5/PWM_MOTOR_PM.c ****             #if (PWM_MOTOR_UseStatus)
  96:.\Generated_Source\PSoC5/PWM_MOTOR_PM.c ****                 PWM_MOTOR_STATUS_MASK = PWM_MOTOR_backup.InterruptMaskValue;
 116              		.loc 1 96 0
 117 0024 46F28553 		movw	r3, #25989
 118 0028 C4F20003 		movt	r3, 16384
 119 002c 40F20002 		movw	r2, #:lower16:PWM_MOTOR_backup
 120 0030 C0F20002 		movt	r2, #:upper16:PWM_MOTOR_backup
 121 0034 9279     		ldrb	r2, [r2, #6]	@ zero_extendqisi2
 122 0036 1A70     		strb	r2, [r3, #0]
  97:.\Generated_Source\PSoC5/PWM_MOTOR_PM.c ****             #endif /* (PWM_MOTOR_UseStatus) */
  98:.\Generated_Source\PSoC5/PWM_MOTOR_PM.c ****             
  99:.\Generated_Source\PSoC5/PWM_MOTOR_PM.c ****             #if(PWM_MOTOR_DeadBandMode == PWM_MOTOR__B_PWM__DBM_256_CLOCKS || \
 100:.\Generated_Source\PSoC5/PWM_MOTOR_PM.c ****                 PWM_MOTOR_DeadBandMode == PWM_MOTOR__B_PWM__DBM_2_4_CLOCKS)
 101:.\Generated_Source\PSoC5/PWM_MOTOR_PM.c ****                 PWM_MOTOR_WriteDeadTime(PWM_MOTOR_backup.PWMdeadBandValue);
 123              		.loc 1 101 0
 124 0038 40F20003 		movw	r3, #:lower16:PWM_MOTOR_backup
 125 003c C0F20003 		movt	r3, #:upper16:PWM_MOTOR_backup
ARM GAS  C:\DOCUME~1\user\IMPOST~1\Temp\cch1IoEp.s 			page 5


 126 0040 DB79     		ldrb	r3, [r3, #7]	@ zero_extendqisi2
 127 0042 1846     		mov	r0, r3
 128 0044 FFF7FEFF 		bl	PWM_MOTOR_WriteDeadTime
 102:.\Generated_Source\PSoC5/PWM_MOTOR_PM.c ****             #endif /* deadband count is either 2-4 clocks or 256 clocks */
 103:.\Generated_Source\PSoC5/PWM_MOTOR_PM.c ****             
 104:.\Generated_Source\PSoC5/PWM_MOTOR_PM.c ****             #if(PWM_MOTOR_KillModeMinTime)
 105:.\Generated_Source\PSoC5/PWM_MOTOR_PM.c ****                 PWM_MOTOR_WriteKillTime(PWM_MOTOR_backup.PWMKillCounterPeriod);
 106:.\Generated_Source\PSoC5/PWM_MOTOR_PM.c ****             #endif /* (PWM_MOTOR_KillModeMinTime) */
 107:.\Generated_Source\PSoC5/PWM_MOTOR_PM.c ****             
 108:.\Generated_Source\PSoC5/PWM_MOTOR_PM.c ****             #if(PWM_MOTOR_UseControl)
 109:.\Generated_Source\PSoC5/PWM_MOTOR_PM.c ****                 PWM_MOTOR_WriteControlRegister(PWM_MOTOR_backup.PWMControlRegister); 
 129              		.loc 1 109 0
 130 0048 40F20003 		movw	r3, #:lower16:PWM_MOTOR_backup
 131 004c C0F20003 		movt	r3, #:upper16:PWM_MOTOR_backup
 132 0050 1B7A     		ldrb	r3, [r3, #8]	@ zero_extendqisi2
 133 0052 1846     		mov	r0, r3
 134 0054 FFF7FEFF 		bl	PWM_MOTOR_WriteControlRegister
 110:.\Generated_Source\PSoC5/PWM_MOTOR_PM.c ****             #endif /* (PWM_MOTOR_UseControl) */
 111:.\Generated_Source\PSoC5/PWM_MOTOR_PM.c ****         #endif  /* (!PWM_MOTOR_UsingFixedFunction) */
 112:.\Generated_Source\PSoC5/PWM_MOTOR_PM.c ****     }
 135              		.loc 1 112 0
 136 0058 80BD     		pop	{r7, pc}
 137              		.cfi_endproc
 138              	.LFE1:
 139              		.size	PWM_MOTOR_RestoreConfig, .-PWM_MOTOR_RestoreConfig
 140 005a 00BF     		.section	.text.PWM_MOTOR_Sleep,"ax",%progbits
 141              		.align	2
 142              		.global	PWM_MOTOR_Sleep
 143              		.thumb
 144              		.thumb_func
 145              		.type	PWM_MOTOR_Sleep, %function
 146              	PWM_MOTOR_Sleep:
 147              	.LFB2:
 113:.\Generated_Source\PSoC5/PWM_MOTOR_PM.c **** 
 114:.\Generated_Source\PSoC5/PWM_MOTOR_PM.c **** 
 115:.\Generated_Source\PSoC5/PWM_MOTOR_PM.c **** /*******************************************************************************
 116:.\Generated_Source\PSoC5/PWM_MOTOR_PM.c **** * Function Name: PWM_MOTOR_Sleep
 117:.\Generated_Source\PSoC5/PWM_MOTOR_PM.c **** ********************************************************************************
 118:.\Generated_Source\PSoC5/PWM_MOTOR_PM.c **** * 
 119:.\Generated_Source\PSoC5/PWM_MOTOR_PM.c **** * Summary:
 120:.\Generated_Source\PSoC5/PWM_MOTOR_PM.c **** *  Disables block's operation and saves the user configuration. Should be called 
 121:.\Generated_Source\PSoC5/PWM_MOTOR_PM.c **** *  just prior to entering sleep.
 122:.\Generated_Source\PSoC5/PWM_MOTOR_PM.c **** *  
 123:.\Generated_Source\PSoC5/PWM_MOTOR_PM.c **** * Parameters:  
 124:.\Generated_Source\PSoC5/PWM_MOTOR_PM.c **** *  None
 125:.\Generated_Source\PSoC5/PWM_MOTOR_PM.c **** *
 126:.\Generated_Source\PSoC5/PWM_MOTOR_PM.c **** * Return: 
 127:.\Generated_Source\PSoC5/PWM_MOTOR_PM.c **** *  None
 128:.\Generated_Source\PSoC5/PWM_MOTOR_PM.c **** *
 129:.\Generated_Source\PSoC5/PWM_MOTOR_PM.c **** * Global variables:
 130:.\Generated_Source\PSoC5/PWM_MOTOR_PM.c **** *  PWM_MOTOR_backup.PWMEnableState:  Is modified depending on the enable 
 131:.\Generated_Source\PSoC5/PWM_MOTOR_PM.c **** *  state of the block before entering sleep mode.
 132:.\Generated_Source\PSoC5/PWM_MOTOR_PM.c **** *
 133:.\Generated_Source\PSoC5/PWM_MOTOR_PM.c **** *******************************************************************************/
 134:.\Generated_Source\PSoC5/PWM_MOTOR_PM.c **** void PWM_MOTOR_Sleep(void) 
 135:.\Generated_Source\PSoC5/PWM_MOTOR_PM.c **** {
 148              		.loc 1 135 0
ARM GAS  C:\DOCUME~1\user\IMPOST~1\Temp\cch1IoEp.s 			page 6


 149              		.cfi_startproc
 150              		@ args = 0, pretend = 0, frame = 0
 151              		@ frame_needed = 1, uses_anonymous_args = 0
 152 0000 80B5     		push	{r7, lr}
 153              	.LCFI4:
 154              		.cfi_def_cfa_offset 8
 155              		.cfi_offset 7, -8
 156              		.cfi_offset 14, -4
 157 0002 00AF     		add	r7, sp, #0
 158              	.LCFI5:
 159              		.cfi_def_cfa_register 7
 136:.\Generated_Source\PSoC5/PWM_MOTOR_PM.c ****     #if(PWM_MOTOR_UseControl)
 137:.\Generated_Source\PSoC5/PWM_MOTOR_PM.c ****         if(PWM_MOTOR_CTRL_ENABLE == (PWM_MOTOR_CONTROL & PWM_MOTOR_CTRL_ENABLE))
 160              		.loc 1 137 0
 161 0004 46F27453 		movw	r3, #25972
 162 0008 C4F20003 		movt	r3, 16384
 163 000c 1B78     		ldrb	r3, [r3, #0]
 164 000e DBB2     		uxtb	r3, r3
 165 0010 DBB2     		uxtb	r3, r3
 166 0012 5BB2     		sxtb	r3, r3
 167 0014 002B     		cmp	r3, #0
 168 0016 07DA     		bge	.L4
 138:.\Generated_Source\PSoC5/PWM_MOTOR_PM.c ****         {
 139:.\Generated_Source\PSoC5/PWM_MOTOR_PM.c ****             /*Component is enabled */
 140:.\Generated_Source\PSoC5/PWM_MOTOR_PM.c ****             PWM_MOTOR_backup.PWMEnableState = 1u;
 169              		.loc 1 140 0
 170 0018 40F20003 		movw	r3, #:lower16:PWM_MOTOR_backup
 171 001c C0F20003 		movt	r3, #:upper16:PWM_MOTOR_backup
 172 0020 4FF00102 		mov	r2, #1
 173 0024 1A70     		strb	r2, [r3, #0]
 174 0026 06E0     		b	.L5
 175              	.L4:
 141:.\Generated_Source\PSoC5/PWM_MOTOR_PM.c ****         }
 142:.\Generated_Source\PSoC5/PWM_MOTOR_PM.c ****         else
 143:.\Generated_Source\PSoC5/PWM_MOTOR_PM.c ****         {
 144:.\Generated_Source\PSoC5/PWM_MOTOR_PM.c ****             /* Component is disabled */
 145:.\Generated_Source\PSoC5/PWM_MOTOR_PM.c ****             PWM_MOTOR_backup.PWMEnableState = 0u;
 176              		.loc 1 145 0
 177 0028 40F20003 		movw	r3, #:lower16:PWM_MOTOR_backup
 178 002c C0F20003 		movt	r3, #:upper16:PWM_MOTOR_backup
 179 0030 4FF00002 		mov	r2, #0
 180 0034 1A70     		strb	r2, [r3, #0]
 181              	.L5:
 146:.\Generated_Source\PSoC5/PWM_MOTOR_PM.c ****         }
 147:.\Generated_Source\PSoC5/PWM_MOTOR_PM.c ****     #endif /* (PWM_MOTOR_UseControl) */
 148:.\Generated_Source\PSoC5/PWM_MOTOR_PM.c **** 
 149:.\Generated_Source\PSoC5/PWM_MOTOR_PM.c ****     /* Stop component */
 150:.\Generated_Source\PSoC5/PWM_MOTOR_PM.c ****     PWM_MOTOR_Stop();
 182              		.loc 1 150 0
 183 0036 FFF7FEFF 		bl	PWM_MOTOR_Stop
 151:.\Generated_Source\PSoC5/PWM_MOTOR_PM.c ****     
 152:.\Generated_Source\PSoC5/PWM_MOTOR_PM.c ****     /* Save registers configuration */
 153:.\Generated_Source\PSoC5/PWM_MOTOR_PM.c ****     PWM_MOTOR_SaveConfig();
 184              		.loc 1 153 0
 185 003a FFF7FEFF 		bl	PWM_MOTOR_SaveConfig
 154:.\Generated_Source\PSoC5/PWM_MOTOR_PM.c **** }
 186              		.loc 1 154 0
ARM GAS  C:\DOCUME~1\user\IMPOST~1\Temp\cch1IoEp.s 			page 7


 187 003e 80BD     		pop	{r7, pc}
 188              		.cfi_endproc
 189              	.LFE2:
 190              		.size	PWM_MOTOR_Sleep, .-PWM_MOTOR_Sleep
 191              		.section	.text.PWM_MOTOR_Wakeup,"ax",%progbits
 192              		.align	2
 193              		.global	PWM_MOTOR_Wakeup
 194              		.thumb
 195              		.thumb_func
 196              		.type	PWM_MOTOR_Wakeup, %function
 197              	PWM_MOTOR_Wakeup:
 198              	.LFB3:
 155:.\Generated_Source\PSoC5/PWM_MOTOR_PM.c **** 
 156:.\Generated_Source\PSoC5/PWM_MOTOR_PM.c **** 
 157:.\Generated_Source\PSoC5/PWM_MOTOR_PM.c **** /*******************************************************************************
 158:.\Generated_Source\PSoC5/PWM_MOTOR_PM.c **** * Function Name: PWM_MOTOR_Wakeup
 159:.\Generated_Source\PSoC5/PWM_MOTOR_PM.c **** ********************************************************************************
 160:.\Generated_Source\PSoC5/PWM_MOTOR_PM.c **** * 
 161:.\Generated_Source\PSoC5/PWM_MOTOR_PM.c **** * Summary:
 162:.\Generated_Source\PSoC5/PWM_MOTOR_PM.c **** *  Restores and enables the user configuration. Should be called just after 
 163:.\Generated_Source\PSoC5/PWM_MOTOR_PM.c **** *  awaking from sleep.
 164:.\Generated_Source\PSoC5/PWM_MOTOR_PM.c **** *  
 165:.\Generated_Source\PSoC5/PWM_MOTOR_PM.c **** * Parameters:  
 166:.\Generated_Source\PSoC5/PWM_MOTOR_PM.c **** *  None
 167:.\Generated_Source\PSoC5/PWM_MOTOR_PM.c **** *
 168:.\Generated_Source\PSoC5/PWM_MOTOR_PM.c **** * Return: 
 169:.\Generated_Source\PSoC5/PWM_MOTOR_PM.c **** *  None
 170:.\Generated_Source\PSoC5/PWM_MOTOR_PM.c **** *
 171:.\Generated_Source\PSoC5/PWM_MOTOR_PM.c **** * Global variables:
 172:.\Generated_Source\PSoC5/PWM_MOTOR_PM.c **** *  PWM_MOTOR_backup.pwmEnable:  Is used to restore the enable state of 
 173:.\Generated_Source\PSoC5/PWM_MOTOR_PM.c **** *  block on wakeup from sleep mode.
 174:.\Generated_Source\PSoC5/PWM_MOTOR_PM.c **** *
 175:.\Generated_Source\PSoC5/PWM_MOTOR_PM.c **** *******************************************************************************/
 176:.\Generated_Source\PSoC5/PWM_MOTOR_PM.c **** void PWM_MOTOR_Wakeup(void) 
 177:.\Generated_Source\PSoC5/PWM_MOTOR_PM.c **** {
 199              		.loc 1 177 0
 200              		.cfi_startproc
 201              		@ args = 0, pretend = 0, frame = 0
 202              		@ frame_needed = 1, uses_anonymous_args = 0
 203 0000 80B5     		push	{r7, lr}
 204              	.LCFI6:
 205              		.cfi_def_cfa_offset 8
 206              		.cfi_offset 7, -8
 207              		.cfi_offset 14, -4
 208 0002 00AF     		add	r7, sp, #0
 209              	.LCFI7:
 210              		.cfi_def_cfa_register 7
 178:.\Generated_Source\PSoC5/PWM_MOTOR_PM.c ****      /* Restore registers values */
 179:.\Generated_Source\PSoC5/PWM_MOTOR_PM.c ****     PWM_MOTOR_RestoreConfig();
 211              		.loc 1 179 0
 212 0004 FFF7FEFF 		bl	PWM_MOTOR_RestoreConfig
 180:.\Generated_Source\PSoC5/PWM_MOTOR_PM.c ****     
 181:.\Generated_Source\PSoC5/PWM_MOTOR_PM.c ****     if(PWM_MOTOR_backup.PWMEnableState != 0u)
 213              		.loc 1 181 0
 214 0008 40F20003 		movw	r3, #:lower16:PWM_MOTOR_backup
 215 000c C0F20003 		movt	r3, #:upper16:PWM_MOTOR_backup
 216 0010 1B78     		ldrb	r3, [r3, #0]	@ zero_extendqisi2
ARM GAS  C:\DOCUME~1\user\IMPOST~1\Temp\cch1IoEp.s 			page 8


 217 0012 002B     		cmp	r3, #0
 218 0014 01D0     		beq	.L6
 182:.\Generated_Source\PSoC5/PWM_MOTOR_PM.c ****     {
 183:.\Generated_Source\PSoC5/PWM_MOTOR_PM.c ****         /* Enable component's operation */
 184:.\Generated_Source\PSoC5/PWM_MOTOR_PM.c ****         PWM_MOTOR_Enable();
 219              		.loc 1 184 0
 220 0016 FFF7FEFF 		bl	PWM_MOTOR_Enable
 221              	.L6:
 185:.\Generated_Source\PSoC5/PWM_MOTOR_PM.c ****     } /* Do nothing if component's block was disabled before */
 186:.\Generated_Source\PSoC5/PWM_MOTOR_PM.c ****     
 187:.\Generated_Source\PSoC5/PWM_MOTOR_PM.c **** }
 222              		.loc 1 187 0
 223 001a 80BD     		pop	{r7, pc}
 224              		.cfi_endproc
 225              	.LFE3:
 226              		.size	PWM_MOTOR_Wakeup, .-PWM_MOTOR_Wakeup
 227              		.text
 228              	.Letext0:
 229              		.file 2 ".\\Generated_Source\\PSoC5\\cytypes.h"
 230              		.file 3 ".\\Generated_Source\\PSoC5\\PWM_MOTOR.h"