ARM GAS  C:\Users\gravi\AppData\Local\Temp\cc4OjiFW.s 			page 1


   1              		.syntax unified
   2              		.cpu cortex-m3
   3              		.fpu softvfp
   4              		.eabi_attribute 20, 1
   5              		.eabi_attribute 21, 1
   6              		.eabi_attribute 23, 3
   7              		.eabi_attribute 24, 1
   8              		.eabi_attribute 25, 1
   9              		.eabi_attribute 26, 1
  10              		.eabi_attribute 30, 6
  11              		.eabi_attribute 34, 1
  12              		.eabi_attribute 18, 4
  13              		.thumb
  14              		.file	"QuadDec_TILT.c"
  15              		.text
  16              	.Ltext0:
  17              		.cfi_sections	.debug_frame
  18              		.global	QuadDec_TILT_initVar
  19              		.bss
  20              		.type	QuadDec_TILT_initVar, %object
  21              		.size	QuadDec_TILT_initVar, 1
  22              	QuadDec_TILT_initVar:
  23 0000 00       		.space	1
  24              		.section	.text.QuadDec_TILT_Init,"ax",%progbits
  25              		.align	2
  26              		.global	QuadDec_TILT_Init
  27              		.thumb
  28              		.thumb_func
  29              		.type	QuadDec_TILT_Init, %function
  30              	QuadDec_TILT_Init:
  31              	.LFB0:
  32              		.file 1 ".\\Generated_Source\\PSoC5\\QuadDec_TILT.c"
   1:.\Generated_Source\PSoC5/QuadDec_TILT.c **** /*******************************************************************************
   2:.\Generated_Source\PSoC5/QuadDec_TILT.c **** * File Name: QuadDec_TILT.c  
   3:.\Generated_Source\PSoC5/QuadDec_TILT.c **** * Version 2.40
   4:.\Generated_Source\PSoC5/QuadDec_TILT.c **** *
   5:.\Generated_Source\PSoC5/QuadDec_TILT.c **** * Description:
   6:.\Generated_Source\PSoC5/QuadDec_TILT.c **** *  This file provides the source code to the API for the Quadrature Decoder
   7:.\Generated_Source\PSoC5/QuadDec_TILT.c **** *  component.
   8:.\Generated_Source\PSoC5/QuadDec_TILT.c **** *
   9:.\Generated_Source\PSoC5/QuadDec_TILT.c **** * Note:
  10:.\Generated_Source\PSoC5/QuadDec_TILT.c **** *  None.
  11:.\Generated_Source\PSoC5/QuadDec_TILT.c **** *   
  12:.\Generated_Source\PSoC5/QuadDec_TILT.c **** ********************************************************************************
  13:.\Generated_Source\PSoC5/QuadDec_TILT.c **** * Copyright 2008-2014, Cypress Semiconductor Corporation.  All rights reserved.
  14:.\Generated_Source\PSoC5/QuadDec_TILT.c **** * You may use this file only in accordance with the license, terms, conditions, 
  15:.\Generated_Source\PSoC5/QuadDec_TILT.c **** * disclaimers, and limitations in the end user license agreement accompanying 
  16:.\Generated_Source\PSoC5/QuadDec_TILT.c **** * the software package with which this file was provided.
  17:.\Generated_Source\PSoC5/QuadDec_TILT.c **** *******************************************************************************/
  18:.\Generated_Source\PSoC5/QuadDec_TILT.c **** 
  19:.\Generated_Source\PSoC5/QuadDec_TILT.c **** #include "QuadDec_TILT.h"
  20:.\Generated_Source\PSoC5/QuadDec_TILT.c **** 
  21:.\Generated_Source\PSoC5/QuadDec_TILT.c **** #if (QuadDec_TILT_COUNTER_SIZE == QuadDec_TILT_COUNTER_SIZE_32_BIT)
  22:.\Generated_Source\PSoC5/QuadDec_TILT.c ****     #include "QuadDec_TILT_PVT.h"
  23:.\Generated_Source\PSoC5/QuadDec_TILT.c **** #endif /* QuadDec_TILT_COUNTER_SIZE == QuadDec_TILT_COUNTER_SIZE_32_BIT */
  24:.\Generated_Source\PSoC5/QuadDec_TILT.c **** 
  25:.\Generated_Source\PSoC5/QuadDec_TILT.c **** uint8 QuadDec_TILT_initVar = 0u;
ARM GAS  C:\Users\gravi\AppData\Local\Temp\cc4OjiFW.s 			page 2


  26:.\Generated_Source\PSoC5/QuadDec_TILT.c **** 
  27:.\Generated_Source\PSoC5/QuadDec_TILT.c **** 
  28:.\Generated_Source\PSoC5/QuadDec_TILT.c **** /*******************************************************************************
  29:.\Generated_Source\PSoC5/QuadDec_TILT.c **** * Function Name: QuadDec_TILT_Init
  30:.\Generated_Source\PSoC5/QuadDec_TILT.c **** ********************************************************************************
  31:.\Generated_Source\PSoC5/QuadDec_TILT.c **** *
  32:.\Generated_Source\PSoC5/QuadDec_TILT.c **** * Summary:
  33:.\Generated_Source\PSoC5/QuadDec_TILT.c **** *  Inits/Restores default QuadDec configuration provided with customizer.
  34:.\Generated_Source\PSoC5/QuadDec_TILT.c **** *
  35:.\Generated_Source\PSoC5/QuadDec_TILT.c **** * Parameters:
  36:.\Generated_Source\PSoC5/QuadDec_TILT.c **** *  None.
  37:.\Generated_Source\PSoC5/QuadDec_TILT.c **** *
  38:.\Generated_Source\PSoC5/QuadDec_TILT.c **** * Return:
  39:.\Generated_Source\PSoC5/QuadDec_TILT.c **** *  None.
  40:.\Generated_Source\PSoC5/QuadDec_TILT.c **** *
  41:.\Generated_Source\PSoC5/QuadDec_TILT.c **** *******************************************************************************/
  42:.\Generated_Source\PSoC5/QuadDec_TILT.c **** void QuadDec_TILT_Init(void) 
  43:.\Generated_Source\PSoC5/QuadDec_TILT.c **** {
  33              		.loc 1 43 0
  34              		.cfi_startproc
  35              		@ args = 0, pretend = 0, frame = 0
  36              		@ frame_needed = 1, uses_anonymous_args = 0
  37 0000 80B5     		push	{r7, lr}
  38              	.LCFI0:
  39              		.cfi_def_cfa_offset 8
  40              		.cfi_offset 7, -8
  41              		.cfi_offset 14, -4
  42 0002 00AF     		add	r7, sp, #0
  43              	.LCFI1:
  44              		.cfi_def_cfa_register 7
  44:.\Generated_Source\PSoC5/QuadDec_TILT.c ****     #if (QuadDec_TILT_COUNTER_SIZE == QuadDec_TILT_COUNTER_SIZE_32_BIT)
  45:.\Generated_Source\PSoC5/QuadDec_TILT.c ****         /* Disable Interrupt. */
  46:.\Generated_Source\PSoC5/QuadDec_TILT.c ****         CyIntDisable(QuadDec_TILT_ISR_NUMBER);
  45              		.loc 1 46 0
  46 0004 4EF28013 		movw	r3, #57728
  47 0008 CEF20003 		movt	r3, 57344
  48 000c 4FF00202 		mov	r2, #2
  49 0010 1A60     		str	r2, [r3, #0]
  47:.\Generated_Source\PSoC5/QuadDec_TILT.c ****         /* Set the ISR to point to the QuadDec_TILT_isr Interrupt. */
  48:.\Generated_Source\PSoC5/QuadDec_TILT.c ****         (void) CyIntSetVector(QuadDec_TILT_ISR_NUMBER, & QuadDec_TILT_ISR);
  50              		.loc 1 48 0
  51 0012 4FF00100 		mov	r0, #1
  52 0016 40F20001 		movw	r1, #:lower16:QuadDec_TILT_ISR
  53 001a C0F20001 		movt	r1, #:upper16:QuadDec_TILT_ISR
  54 001e FFF7FEFF 		bl	CyIntSetVector
  49:.\Generated_Source\PSoC5/QuadDec_TILT.c ****         /* Set the priority. */
  50:.\Generated_Source\PSoC5/QuadDec_TILT.c ****         CyIntSetPriority(QuadDec_TILT_ISR_NUMBER, QuadDec_TILT_ISR_PRIORITY);
  55              		.loc 1 50 0
  56 0022 4FF00100 		mov	r0, #1
  57 0026 4FF00701 		mov	r1, #7
  58 002a FFF7FEFF 		bl	CyIntSetPriority
  51:.\Generated_Source\PSoC5/QuadDec_TILT.c ****     #endif /* QuadDec_TILT_COUNTER_SIZE == QuadDec_TILT_COUNTER_SIZE_32_BIT */
  52:.\Generated_Source\PSoC5/QuadDec_TILT.c **** }
  59              		.loc 1 52 0
  60 002e 80BD     		pop	{r7, pc}
  61              		.cfi_endproc
  62              	.LFE0:
ARM GAS  C:\Users\gravi\AppData\Local\Temp\cc4OjiFW.s 			page 3


  63              		.size	QuadDec_TILT_Init, .-QuadDec_TILT_Init
  64              		.section	.text.QuadDec_TILT_Enable,"ax",%progbits
  65              		.align	2
  66              		.global	QuadDec_TILT_Enable
  67              		.thumb
  68              		.thumb_func
  69              		.type	QuadDec_TILT_Enable, %function
  70              	QuadDec_TILT_Enable:
  71              	.LFB1:
  53:.\Generated_Source\PSoC5/QuadDec_TILT.c **** 
  54:.\Generated_Source\PSoC5/QuadDec_TILT.c **** 
  55:.\Generated_Source\PSoC5/QuadDec_TILT.c **** /*******************************************************************************
  56:.\Generated_Source\PSoC5/QuadDec_TILT.c **** * Function Name: QuadDec_TILT_Enable
  57:.\Generated_Source\PSoC5/QuadDec_TILT.c **** ********************************************************************************
  58:.\Generated_Source\PSoC5/QuadDec_TILT.c **** *
  59:.\Generated_Source\PSoC5/QuadDec_TILT.c **** * Summary:
  60:.\Generated_Source\PSoC5/QuadDec_TILT.c **** *  This function enable interrupts from Component and also enable Component's
  61:.\Generated_Source\PSoC5/QuadDec_TILT.c **** *  ISR in case of 32-bit counter.
  62:.\Generated_Source\PSoC5/QuadDec_TILT.c **** *
  63:.\Generated_Source\PSoC5/QuadDec_TILT.c **** * Parameters:
  64:.\Generated_Source\PSoC5/QuadDec_TILT.c **** *  None.
  65:.\Generated_Source\PSoC5/QuadDec_TILT.c **** *
  66:.\Generated_Source\PSoC5/QuadDec_TILT.c **** * Return:
  67:.\Generated_Source\PSoC5/QuadDec_TILT.c **** *  None.
  68:.\Generated_Source\PSoC5/QuadDec_TILT.c **** *
  69:.\Generated_Source\PSoC5/QuadDec_TILT.c **** *******************************************************************************/
  70:.\Generated_Source\PSoC5/QuadDec_TILT.c **** void QuadDec_TILT_Enable(void) 
  71:.\Generated_Source\PSoC5/QuadDec_TILT.c **** {
  72              		.loc 1 71 0
  73              		.cfi_startproc
  74              		@ args = 0, pretend = 0, frame = 8
  75              		@ frame_needed = 1, uses_anonymous_args = 0
  76 0000 80B5     		push	{r7, lr}
  77              	.LCFI2:
  78              		.cfi_def_cfa_offset 8
  79              		.cfi_offset 7, -8
  80              		.cfi_offset 14, -4
  81 0002 82B0     		sub	sp, sp, #8
  82              	.LCFI3:
  83              		.cfi_def_cfa_offset 16
  84 0004 00AF     		add	r7, sp, #0
  85              	.LCFI4:
  86              		.cfi_def_cfa_register 7
  72:.\Generated_Source\PSoC5/QuadDec_TILT.c ****     uint8 enableInterrupts;
  73:.\Generated_Source\PSoC5/QuadDec_TILT.c **** 
  74:.\Generated_Source\PSoC5/QuadDec_TILT.c ****     QuadDec_TILT_SetInterruptMask(QuadDec_TILT_INIT_INT_MASK);
  87              		.loc 1 74 0
  88 0006 4FF00F00 		mov	r0, #15
  89 000a FFF7FEFF 		bl	QuadDec_TILT_SetInterruptMask
  75:.\Generated_Source\PSoC5/QuadDec_TILT.c **** 
  76:.\Generated_Source\PSoC5/QuadDec_TILT.c ****     /* Clear pending interrupts. */
  77:.\Generated_Source\PSoC5/QuadDec_TILT.c ****     (void) QuadDec_TILT_GetEvents();
  90              		.loc 1 77 0
  91 000e FFF7FEFF 		bl	QuadDec_TILT_GetEvents
  78:.\Generated_Source\PSoC5/QuadDec_TILT.c ****     
  79:.\Generated_Source\PSoC5/QuadDec_TILT.c ****     enableInterrupts = CyEnterCriticalSection();
  92              		.loc 1 79 0
ARM GAS  C:\Users\gravi\AppData\Local\Temp\cc4OjiFW.s 			page 4


  93 0012 FFF7FEFF 		bl	CyEnterCriticalSection
  94 0016 0346     		mov	r3, r0
  95 0018 FB71     		strb	r3, [r7, #7]
  80:.\Generated_Source\PSoC5/QuadDec_TILT.c **** 
  81:.\Generated_Source\PSoC5/QuadDec_TILT.c ****     /* Enable interrupts from Statusi register */
  82:.\Generated_Source\PSoC5/QuadDec_TILT.c ****     QuadDec_TILT_SR_AUX_CONTROL |= QuadDec_TILT_INTERRUPTS_ENABLE;
  96              		.loc 1 82 0
  97 001a 46F29653 		movw	r3, #26006
  98 001e C4F20003 		movt	r3, 16384
  99 0022 46F29652 		movw	r2, #26006
 100 0026 C4F20002 		movt	r2, 16384
 101 002a 1278     		ldrb	r2, [r2, #0]
 102 002c D2B2     		uxtb	r2, r2
 103 002e 42F01002 		orr	r2, r2, #16
 104 0032 D2B2     		uxtb	r2, r2
 105 0034 1A70     		strb	r2, [r3, #0]
  83:.\Generated_Source\PSoC5/QuadDec_TILT.c **** 
  84:.\Generated_Source\PSoC5/QuadDec_TILT.c ****     CyExitCriticalSection(enableInterrupts);        
 106              		.loc 1 84 0
 107 0036 FB79     		ldrb	r3, [r7, #7]	@ zero_extendqisi2
 108 0038 1846     		mov	r0, r3
 109 003a FFF7FEFF 		bl	CyExitCriticalSection
  85:.\Generated_Source\PSoC5/QuadDec_TILT.c **** 
  86:.\Generated_Source\PSoC5/QuadDec_TILT.c ****     #if (QuadDec_TILT_COUNTER_SIZE == QuadDec_TILT_COUNTER_SIZE_32_BIT)
  87:.\Generated_Source\PSoC5/QuadDec_TILT.c ****         /* Enable Component interrupts */
  88:.\Generated_Source\PSoC5/QuadDec_TILT.c ****         CyIntEnable(QuadDec_TILT_ISR_NUMBER);
 110              		.loc 1 88 0
 111 003e 4FF46143 		mov	r3, #57600
 112 0042 CEF20003 		movt	r3, 57344
 113 0046 4FF00202 		mov	r2, #2
 114 004a 1A60     		str	r2, [r3, #0]
  89:.\Generated_Source\PSoC5/QuadDec_TILT.c ****     #endif /* QuadDec_TILT_COUNTER_SIZE == QuadDec_TILT_COUNTER_SIZE_32_BIT */
  90:.\Generated_Source\PSoC5/QuadDec_TILT.c **** }
 115              		.loc 1 90 0
 116 004c 07F10807 		add	r7, r7, #8
 117 0050 BD46     		mov	sp, r7
 118 0052 80BD     		pop	{r7, pc}
 119              		.cfi_endproc
 120              	.LFE1:
 121              		.size	QuadDec_TILT_Enable, .-QuadDec_TILT_Enable
 122              		.section	.text.QuadDec_TILT_Start,"ax",%progbits
 123              		.align	2
 124              		.global	QuadDec_TILT_Start
 125              		.thumb
 126              		.thumb_func
 127              		.type	QuadDec_TILT_Start, %function
 128              	QuadDec_TILT_Start:
 129              	.LFB2:
  91:.\Generated_Source\PSoC5/QuadDec_TILT.c **** 
  92:.\Generated_Source\PSoC5/QuadDec_TILT.c **** 
  93:.\Generated_Source\PSoC5/QuadDec_TILT.c **** /*******************************************************************************
  94:.\Generated_Source\PSoC5/QuadDec_TILT.c **** * Function Name: QuadDec_TILT_Start
  95:.\Generated_Source\PSoC5/QuadDec_TILT.c **** ********************************************************************************
  96:.\Generated_Source\PSoC5/QuadDec_TILT.c **** *
  97:.\Generated_Source\PSoC5/QuadDec_TILT.c **** * Summary:
  98:.\Generated_Source\PSoC5/QuadDec_TILT.c **** *  Initializes UDBs and other relevant hardware.
  99:.\Generated_Source\PSoC5/QuadDec_TILT.c **** *  Resets counter, enables or disables all relevant interrupts.
ARM GAS  C:\Users\gravi\AppData\Local\Temp\cc4OjiFW.s 			page 5


 100:.\Generated_Source\PSoC5/QuadDec_TILT.c **** *  Starts monitoring the inputs and counting.
 101:.\Generated_Source\PSoC5/QuadDec_TILT.c **** *
 102:.\Generated_Source\PSoC5/QuadDec_TILT.c **** * Parameters:
 103:.\Generated_Source\PSoC5/QuadDec_TILT.c **** *  None.
 104:.\Generated_Source\PSoC5/QuadDec_TILT.c **** *
 105:.\Generated_Source\PSoC5/QuadDec_TILT.c **** * Return:
 106:.\Generated_Source\PSoC5/QuadDec_TILT.c **** *  None.
 107:.\Generated_Source\PSoC5/QuadDec_TILT.c **** *
 108:.\Generated_Source\PSoC5/QuadDec_TILT.c **** * Global variables:
 109:.\Generated_Source\PSoC5/QuadDec_TILT.c **** *  QuadDec_TILT_initVar - used to check initial configuration, modified on
 110:.\Generated_Source\PSoC5/QuadDec_TILT.c **** *  first function call.
 111:.\Generated_Source\PSoC5/QuadDec_TILT.c **** *
 112:.\Generated_Source\PSoC5/QuadDec_TILT.c **** * Reentrant:
 113:.\Generated_Source\PSoC5/QuadDec_TILT.c **** *  No.
 114:.\Generated_Source\PSoC5/QuadDec_TILT.c **** *
 115:.\Generated_Source\PSoC5/QuadDec_TILT.c **** *******************************************************************************/
 116:.\Generated_Source\PSoC5/QuadDec_TILT.c **** void QuadDec_TILT_Start(void) 
 117:.\Generated_Source\PSoC5/QuadDec_TILT.c **** {
 130              		.loc 1 117 0
 131              		.cfi_startproc
 132              		@ args = 0, pretend = 0, frame = 0
 133              		@ frame_needed = 1, uses_anonymous_args = 0
 134 0000 80B5     		push	{r7, lr}
 135              	.LCFI5:
 136              		.cfi_def_cfa_offset 8
 137              		.cfi_offset 7, -8
 138              		.cfi_offset 14, -4
 139 0002 00AF     		add	r7, sp, #0
 140              	.LCFI6:
 141              		.cfi_def_cfa_register 7
 118:.\Generated_Source\PSoC5/QuadDec_TILT.c ****     #if (QuadDec_TILT_COUNTER_SIZE == QuadDec_TILT_COUNTER_SIZE_8_BIT)
 119:.\Generated_Source\PSoC5/QuadDec_TILT.c ****         QuadDec_TILT_Cnt8_Start();
 120:.\Generated_Source\PSoC5/QuadDec_TILT.c ****         QuadDec_TILT_Cnt8_WriteCounter(QuadDec_TILT_COUNTER_INIT_VALUE);
 121:.\Generated_Source\PSoC5/QuadDec_TILT.c ****     #else
 122:.\Generated_Source\PSoC5/QuadDec_TILT.c ****         /* (QuadDec_TILT_COUNTER_SIZE == QuadDec_TILT_COUNTER_SIZE_16_BIT) || 
 123:.\Generated_Source\PSoC5/QuadDec_TILT.c ****         *  (QuadDec_TILT_COUNTER_SIZE == QuadDec_TILT_COUNTER_SIZE_32_BIT) 
 124:.\Generated_Source\PSoC5/QuadDec_TILT.c ****         */
 125:.\Generated_Source\PSoC5/QuadDec_TILT.c ****         QuadDec_TILT_Cnt16_Start();
 142              		.loc 1 125 0
 143 0004 FFF7FEFF 		bl	QuadDec_TILT_Cnt16_Start
 126:.\Generated_Source\PSoC5/QuadDec_TILT.c ****         QuadDec_TILT_Cnt16_WriteCounter(QuadDec_TILT_COUNTER_INIT_VALUE);
 144              		.loc 1 126 0
 145 0008 4FF40040 		mov	r0, #32768
 146 000c FFF7FEFF 		bl	QuadDec_TILT_Cnt16_WriteCounter
 127:.\Generated_Source\PSoC5/QuadDec_TILT.c ****     #endif /* QuadDec_TILT_COUNTER_SIZE == QuadDec_TILT_COUNTER_SIZE_8_BIT */
 128:.\Generated_Source\PSoC5/QuadDec_TILT.c ****     
 129:.\Generated_Source\PSoC5/QuadDec_TILT.c ****     #if (QuadDec_TILT_COUNTER_SIZE == QuadDec_TILT_COUNTER_SIZE_32_BIT)        
 130:.\Generated_Source\PSoC5/QuadDec_TILT.c ****        QuadDec_TILT_count32SoftPart = 0;
 147              		.loc 1 130 0
 148 0010 40F20003 		movw	r3, #:lower16:QuadDec_TILT_count32SoftPart
 149 0014 C0F20003 		movt	r3, #:upper16:QuadDec_TILT_count32SoftPart
 150 0018 4FF00002 		mov	r2, #0
 151 001c 1A60     		str	r2, [r3, #0]
 131:.\Generated_Source\PSoC5/QuadDec_TILT.c ****     #endif /* QuadDec_TILT_COUNTER_SIZE == QuadDec_TILT_COUNTER_SIZE_32_BIT */
 132:.\Generated_Source\PSoC5/QuadDec_TILT.c **** 
 133:.\Generated_Source\PSoC5/QuadDec_TILT.c ****     if (QuadDec_TILT_initVar == 0u)
 152              		.loc 1 133 0
ARM GAS  C:\Users\gravi\AppData\Local\Temp\cc4OjiFW.s 			page 6


 153 001e 40F20003 		movw	r3, #:lower16:QuadDec_TILT_initVar
 154 0022 C0F20003 		movt	r3, #:upper16:QuadDec_TILT_initVar
 155 0026 1B78     		ldrb	r3, [r3, #0]	@ zero_extendqisi2
 156 0028 002B     		cmp	r3, #0
 157 002a 08D1     		bne	.L4
 134:.\Generated_Source\PSoC5/QuadDec_TILT.c ****     {
 135:.\Generated_Source\PSoC5/QuadDec_TILT.c ****         QuadDec_TILT_Init();
 158              		.loc 1 135 0
 159 002c FFF7FEFF 		bl	QuadDec_TILT_Init
 136:.\Generated_Source\PSoC5/QuadDec_TILT.c ****         QuadDec_TILT_initVar = 1u;
 160              		.loc 1 136 0
 161 0030 40F20003 		movw	r3, #:lower16:QuadDec_TILT_initVar
 162 0034 C0F20003 		movt	r3, #:upper16:QuadDec_TILT_initVar
 163 0038 4FF00102 		mov	r2, #1
 164 003c 1A70     		strb	r2, [r3, #0]
 165              	.L4:
 137:.\Generated_Source\PSoC5/QuadDec_TILT.c ****     }
 138:.\Generated_Source\PSoC5/QuadDec_TILT.c **** 
 139:.\Generated_Source\PSoC5/QuadDec_TILT.c ****     QuadDec_TILT_Enable();
 166              		.loc 1 139 0
 167 003e FFF7FEFF 		bl	QuadDec_TILT_Enable
 140:.\Generated_Source\PSoC5/QuadDec_TILT.c **** }
 168              		.loc 1 140 0
 169 0042 80BD     		pop	{r7, pc}
 170              		.cfi_endproc
 171              	.LFE2:
 172              		.size	QuadDec_TILT_Start, .-QuadDec_TILT_Start
 173              		.section	.text.QuadDec_TILT_Stop,"ax",%progbits
 174              		.align	2
 175              		.global	QuadDec_TILT_Stop
 176              		.thumb
 177              		.thumb_func
 178              		.type	QuadDec_TILT_Stop, %function
 179              	QuadDec_TILT_Stop:
 180              	.LFB3:
 141:.\Generated_Source\PSoC5/QuadDec_TILT.c **** 
 142:.\Generated_Source\PSoC5/QuadDec_TILT.c **** 
 143:.\Generated_Source\PSoC5/QuadDec_TILT.c **** /*******************************************************************************
 144:.\Generated_Source\PSoC5/QuadDec_TILT.c **** * Function Name: QuadDec_TILT_Stop
 145:.\Generated_Source\PSoC5/QuadDec_TILT.c **** ********************************************************************************
 146:.\Generated_Source\PSoC5/QuadDec_TILT.c **** *
 147:.\Generated_Source\PSoC5/QuadDec_TILT.c **** * Summary:
 148:.\Generated_Source\PSoC5/QuadDec_TILT.c **** *  Turns off UDBs and other relevant hardware.
 149:.\Generated_Source\PSoC5/QuadDec_TILT.c **** *
 150:.\Generated_Source\PSoC5/QuadDec_TILT.c **** * Parameters:
 151:.\Generated_Source\PSoC5/QuadDec_TILT.c **** *  None.
 152:.\Generated_Source\PSoC5/QuadDec_TILT.c **** *
 153:.\Generated_Source\PSoC5/QuadDec_TILT.c **** * Return:
 154:.\Generated_Source\PSoC5/QuadDec_TILT.c **** *  None.
 155:.\Generated_Source\PSoC5/QuadDec_TILT.c **** *
 156:.\Generated_Source\PSoC5/QuadDec_TILT.c **** *******************************************************************************/
 157:.\Generated_Source\PSoC5/QuadDec_TILT.c **** void QuadDec_TILT_Stop(void) 
 158:.\Generated_Source\PSoC5/QuadDec_TILT.c **** {
 181              		.loc 1 158 0
 182              		.cfi_startproc
 183              		@ args = 0, pretend = 0, frame = 8
 184              		@ frame_needed = 1, uses_anonymous_args = 0
ARM GAS  C:\Users\gravi\AppData\Local\Temp\cc4OjiFW.s 			page 7


 185 0000 80B5     		push	{r7, lr}
 186              	.LCFI7:
 187              		.cfi_def_cfa_offset 8
 188              		.cfi_offset 7, -8
 189              		.cfi_offset 14, -4
 190 0002 82B0     		sub	sp, sp, #8
 191              	.LCFI8:
 192              		.cfi_def_cfa_offset 16
 193 0004 00AF     		add	r7, sp, #0
 194              	.LCFI9:
 195              		.cfi_def_cfa_register 7
 159:.\Generated_Source\PSoC5/QuadDec_TILT.c ****     uint8 enableInterrupts;
 160:.\Generated_Source\PSoC5/QuadDec_TILT.c **** 
 161:.\Generated_Source\PSoC5/QuadDec_TILT.c ****     #if (QuadDec_TILT_COUNTER_SIZE == QuadDec_TILT_COUNTER_SIZE_8_BIT)
 162:.\Generated_Source\PSoC5/QuadDec_TILT.c ****         QuadDec_TILT_Cnt8_Stop();
 163:.\Generated_Source\PSoC5/QuadDec_TILT.c ****     #else 
 164:.\Generated_Source\PSoC5/QuadDec_TILT.c ****         /* (QuadDec_TILT_COUNTER_SIZE == QuadDec_TILT_COUNTER_SIZE_16_BIT) ||
 165:.\Generated_Source\PSoC5/QuadDec_TILT.c ****         *  (QuadDec_TILT_COUNTER_SIZE == QuadDec_TILT_COUNTER_SIZE_32_BIT)
 166:.\Generated_Source\PSoC5/QuadDec_TILT.c ****         */
 167:.\Generated_Source\PSoC5/QuadDec_TILT.c ****         QuadDec_TILT_Cnt16_Stop();    /* counter disable */
 196              		.loc 1 167 0
 197 0006 FFF7FEFF 		bl	QuadDec_TILT_Cnt16_Stop
 168:.\Generated_Source\PSoC5/QuadDec_TILT.c ****     #endif /* (QuadDec_TILT_COUNTER_SIZE == QuadDec_TILT_COUNTER_SIZE_8_BIT) */
 169:.\Generated_Source\PSoC5/QuadDec_TILT.c ****  
 170:.\Generated_Source\PSoC5/QuadDec_TILT.c ****     enableInterrupts = CyEnterCriticalSection();
 198              		.loc 1 170 0
 199 000a FFF7FEFF 		bl	CyEnterCriticalSection
 200 000e 0346     		mov	r3, r0
 201 0010 FB71     		strb	r3, [r7, #7]
 171:.\Generated_Source\PSoC5/QuadDec_TILT.c **** 
 172:.\Generated_Source\PSoC5/QuadDec_TILT.c ****     /* Disable interrupts interrupts from Statusi register */
 173:.\Generated_Source\PSoC5/QuadDec_TILT.c ****     QuadDec_TILT_SR_AUX_CONTROL &= (uint8) (~QuadDec_TILT_INTERRUPTS_ENABLE);
 202              		.loc 1 173 0
 203 0012 46F29653 		movw	r3, #26006
 204 0016 C4F20003 		movt	r3, 16384
 205 001a 46F29652 		movw	r2, #26006
 206 001e C4F20002 		movt	r2, 16384
 207 0022 1278     		ldrb	r2, [r2, #0]
 208 0024 D2B2     		uxtb	r2, r2
 209 0026 22F01002 		bic	r2, r2, #16
 210 002a D2B2     		uxtb	r2, r2
 211 002c 1A70     		strb	r2, [r3, #0]
 174:.\Generated_Source\PSoC5/QuadDec_TILT.c **** 
 175:.\Generated_Source\PSoC5/QuadDec_TILT.c ****     CyExitCriticalSection(enableInterrupts);
 212              		.loc 1 175 0
 213 002e FB79     		ldrb	r3, [r7, #7]	@ zero_extendqisi2
 214 0030 1846     		mov	r0, r3
 215 0032 FFF7FEFF 		bl	CyExitCriticalSection
 176:.\Generated_Source\PSoC5/QuadDec_TILT.c **** 
 177:.\Generated_Source\PSoC5/QuadDec_TILT.c ****     #if (QuadDec_TILT_COUNTER_SIZE == QuadDec_TILT_COUNTER_SIZE_32_BIT)
 178:.\Generated_Source\PSoC5/QuadDec_TILT.c ****         CyIntDisable(QuadDec_TILT_ISR_NUMBER);    /* interrupt disable */
 216              		.loc 1 178 0
 217 0036 4EF28013 		movw	r3, #57728
 218 003a CEF20003 		movt	r3, 57344
 219 003e 4FF00202 		mov	r2, #2
 220 0042 1A60     		str	r2, [r3, #0]
 179:.\Generated_Source\PSoC5/QuadDec_TILT.c ****     #endif /* QuadDec_TILT_COUNTER_SIZE == QuadDec_TILT_COUNTER_SIZE_32_BIT */
ARM GAS  C:\Users\gravi\AppData\Local\Temp\cc4OjiFW.s 			page 8


 180:.\Generated_Source\PSoC5/QuadDec_TILT.c **** }
 221              		.loc 1 180 0
 222 0044 07F10807 		add	r7, r7, #8
 223 0048 BD46     		mov	sp, r7
 224 004a 80BD     		pop	{r7, pc}
 225              		.cfi_endproc
 226              	.LFE3:
 227              		.size	QuadDec_TILT_Stop, .-QuadDec_TILT_Stop
 228              		.section	.text.QuadDec_TILT_GetCounter,"ax",%progbits
 229              		.align	2
 230              		.global	QuadDec_TILT_GetCounter
 231              		.thumb
 232              		.thumb_func
 233              		.type	QuadDec_TILT_GetCounter, %function
 234              	QuadDec_TILT_GetCounter:
 235              	.LFB4:
 181:.\Generated_Source\PSoC5/QuadDec_TILT.c **** 
 182:.\Generated_Source\PSoC5/QuadDec_TILT.c **** 
 183:.\Generated_Source\PSoC5/QuadDec_TILT.c **** /*******************************************************************************
 184:.\Generated_Source\PSoC5/QuadDec_TILT.c **** * Function Name: QuadDec_TILT_GetCounter
 185:.\Generated_Source\PSoC5/QuadDec_TILT.c **** ********************************************************************************
 186:.\Generated_Source\PSoC5/QuadDec_TILT.c **** *
 187:.\Generated_Source\PSoC5/QuadDec_TILT.c **** * Summary:
 188:.\Generated_Source\PSoC5/QuadDec_TILT.c **** *  Reports the current value of the counter.
 189:.\Generated_Source\PSoC5/QuadDec_TILT.c **** *
 190:.\Generated_Source\PSoC5/QuadDec_TILT.c **** * Parameters:
 191:.\Generated_Source\PSoC5/QuadDec_TILT.c **** *  None.
 192:.\Generated_Source\PSoC5/QuadDec_TILT.c **** *
 193:.\Generated_Source\PSoC5/QuadDec_TILT.c **** * Return:
 194:.\Generated_Source\PSoC5/QuadDec_TILT.c **** *  The counter value. Return type is signed and per the counter size setting.
 195:.\Generated_Source\PSoC5/QuadDec_TILT.c **** *  A positive value indicates clockwise movement (B before A).
 196:.\Generated_Source\PSoC5/QuadDec_TILT.c **** *
 197:.\Generated_Source\PSoC5/QuadDec_TILT.c **** * Global variables:
 198:.\Generated_Source\PSoC5/QuadDec_TILT.c **** *  QuadDec_TILT_count32SoftPart - used to get hi 16 bit for current value
 199:.\Generated_Source\PSoC5/QuadDec_TILT.c **** *  of the 32-bit counter, when Counter size equal 32-bit.
 200:.\Generated_Source\PSoC5/QuadDec_TILT.c **** *
 201:.\Generated_Source\PSoC5/QuadDec_TILT.c **** *******************************************************************************/
 202:.\Generated_Source\PSoC5/QuadDec_TILT.c **** int32 QuadDec_TILT_GetCounter(void) 
 203:.\Generated_Source\PSoC5/QuadDec_TILT.c **** {
 236              		.loc 1 203 0
 237              		.cfi_startproc
 238              		@ args = 0, pretend = 0, frame = 8
 239              		@ frame_needed = 1, uses_anonymous_args = 0
 240 0000 80B5     		push	{r7, lr}
 241              	.LCFI10:
 242              		.cfi_def_cfa_offset 8
 243              		.cfi_offset 7, -8
 244              		.cfi_offset 14, -4
 245 0002 82B0     		sub	sp, sp, #8
 246              	.LCFI11:
 247              		.cfi_def_cfa_offset 16
 248 0004 00AF     		add	r7, sp, #0
 249              	.LCFI12:
 250              		.cfi_def_cfa_register 7
 204:.\Generated_Source\PSoC5/QuadDec_TILT.c ****     int32 count;
 205:.\Generated_Source\PSoC5/QuadDec_TILT.c ****     uint16 tmpCnt;
 206:.\Generated_Source\PSoC5/QuadDec_TILT.c **** 
ARM GAS  C:\Users\gravi\AppData\Local\Temp\cc4OjiFW.s 			page 9


 207:.\Generated_Source\PSoC5/QuadDec_TILT.c ****     #if (QuadDec_TILT_COUNTER_SIZE == QuadDec_TILT_COUNTER_SIZE_32_BIT)
 208:.\Generated_Source\PSoC5/QuadDec_TILT.c ****         int16 hwCount;
 209:.\Generated_Source\PSoC5/QuadDec_TILT.c **** 
 210:.\Generated_Source\PSoC5/QuadDec_TILT.c ****         CyIntDisable(QuadDec_TILT_ISR_NUMBER);
 251              		.loc 1 210 0
 252 0006 4EF28013 		movw	r3, #57728
 253 000a CEF20003 		movt	r3, 57344
 254 000e 4FF00202 		mov	r2, #2
 255 0012 1A60     		str	r2, [r3, #0]
 211:.\Generated_Source\PSoC5/QuadDec_TILT.c **** 
 212:.\Generated_Source\PSoC5/QuadDec_TILT.c ****         tmpCnt = QuadDec_TILT_Cnt16_ReadCounter();
 256              		.loc 1 212 0
 257 0014 FFF7FEFF 		bl	QuadDec_TILT_Cnt16_ReadCounter
 258 0018 0346     		mov	r3, r0
 259 001a FB80     		strh	r3, [r7, #6]	@ movhi
 213:.\Generated_Source\PSoC5/QuadDec_TILT.c ****         hwCount = (int16) ((int32) tmpCnt - (int32) QuadDec_TILT_COUNTER_INIT_VALUE);
 260              		.loc 1 213 0
 261 001c FB88     		ldrh	r3, [r7, #6]	@ movhi
 262 001e A3F50043 		sub	r3, r3, #32768
 263 0022 9BB2     		uxth	r3, r3
 264 0024 BB80     		strh	r3, [r7, #4]	@ movhi
 214:.\Generated_Source\PSoC5/QuadDec_TILT.c ****         count = QuadDec_TILT_count32SoftPart + hwCount;
 265              		.loc 1 214 0
 266 0026 B7F90420 		ldrsh	r2, [r7, #4]
 267 002a 40F20003 		movw	r3, #:lower16:QuadDec_TILT_count32SoftPart
 268 002e C0F20003 		movt	r3, #:upper16:QuadDec_TILT_count32SoftPart
 269 0032 1B68     		ldr	r3, [r3, #0]
 270 0034 D318     		adds	r3, r2, r3
 271 0036 3B60     		str	r3, [r7, #0]
 215:.\Generated_Source\PSoC5/QuadDec_TILT.c **** 
 216:.\Generated_Source\PSoC5/QuadDec_TILT.c ****         CyIntEnable(QuadDec_TILT_ISR_NUMBER);
 272              		.loc 1 216 0
 273 0038 4FF46143 		mov	r3, #57600
 274 003c CEF20003 		movt	r3, 57344
 275 0040 4FF00202 		mov	r2, #2
 276 0044 1A60     		str	r2, [r3, #0]
 217:.\Generated_Source\PSoC5/QuadDec_TILT.c ****     #else 
 218:.\Generated_Source\PSoC5/QuadDec_TILT.c ****         /* (QuadDec_TILT_COUNTER_SIZE == QuadDec_TILT_COUNTER_SIZE_8_BIT) || 
 219:.\Generated_Source\PSoC5/QuadDec_TILT.c ****         *  (QuadDec_TILT_COUNTER_SIZE == QuadDec_TILT_COUNTER_SIZE_16_BIT)
 220:.\Generated_Source\PSoC5/QuadDec_TILT.c ****         */
 221:.\Generated_Source\PSoC5/QuadDec_TILT.c ****         #if (QuadDec_TILT_COUNTER_SIZE == QuadDec_TILT_COUNTER_SIZE_8_BIT)
 222:.\Generated_Source\PSoC5/QuadDec_TILT.c ****             tmpCnt = QuadDec_TILT_Cnt8_ReadCounter();
 223:.\Generated_Source\PSoC5/QuadDec_TILT.c ****         #else /* (QuadDec_TILT_COUNTER_SIZE == QuadDec_TILT_COUNTER_SIZE_16_BIT) */
 224:.\Generated_Source\PSoC5/QuadDec_TILT.c ****             tmpCnt = QuadDec_TILT_Cnt16_ReadCounter();
 225:.\Generated_Source\PSoC5/QuadDec_TILT.c ****         #endif  /* QuadDec_TILT_COUNTER_SIZE == QuadDec_TILT_COUNTER_SIZE_8_BIT */
 226:.\Generated_Source\PSoC5/QuadDec_TILT.c **** 
 227:.\Generated_Source\PSoC5/QuadDec_TILT.c ****         count = (int32) ((int32) tmpCnt -
 228:.\Generated_Source\PSoC5/QuadDec_TILT.c ****                 (int32) QuadDec_TILT_COUNTER_INIT_VALUE);
 229:.\Generated_Source\PSoC5/QuadDec_TILT.c **** 
 230:.\Generated_Source\PSoC5/QuadDec_TILT.c ****     #endif /* QuadDec_TILT_COUNTER_SIZE == QuadDec_TILT_COUNTER_SIZE_32_BIT */ 
 231:.\Generated_Source\PSoC5/QuadDec_TILT.c **** 
 232:.\Generated_Source\PSoC5/QuadDec_TILT.c ****     return (count);
 277              		.loc 1 232 0
 278 0046 3B68     		ldr	r3, [r7, #0]
 233:.\Generated_Source\PSoC5/QuadDec_TILT.c **** }
 279              		.loc 1 233 0
 280 0048 1846     		mov	r0, r3
ARM GAS  C:\Users\gravi\AppData\Local\Temp\cc4OjiFW.s 			page 10


 281 004a 07F10807 		add	r7, r7, #8
 282 004e BD46     		mov	sp, r7
 283 0050 80BD     		pop	{r7, pc}
 284              		.cfi_endproc
 285              	.LFE4:
 286              		.size	QuadDec_TILT_GetCounter, .-QuadDec_TILT_GetCounter
 287 0052 00BF     		.section	.text.QuadDec_TILT_SetCounter,"ax",%progbits
 288              		.align	2
 289              		.global	QuadDec_TILT_SetCounter
 290              		.thumb
 291              		.thumb_func
 292              		.type	QuadDec_TILT_SetCounter, %function
 293              	QuadDec_TILT_SetCounter:
 294              	.LFB5:
 234:.\Generated_Source\PSoC5/QuadDec_TILT.c **** 
 235:.\Generated_Source\PSoC5/QuadDec_TILT.c **** 
 236:.\Generated_Source\PSoC5/QuadDec_TILT.c **** /*******************************************************************************
 237:.\Generated_Source\PSoC5/QuadDec_TILT.c **** * Function Name: QuadDec_TILT_SetCounter
 238:.\Generated_Source\PSoC5/QuadDec_TILT.c **** ********************************************************************************
 239:.\Generated_Source\PSoC5/QuadDec_TILT.c **** *
 240:.\Generated_Source\PSoC5/QuadDec_TILT.c **** * Summary:
 241:.\Generated_Source\PSoC5/QuadDec_TILT.c **** *  Sets the current value of the counter.
 242:.\Generated_Source\PSoC5/QuadDec_TILT.c **** *
 243:.\Generated_Source\PSoC5/QuadDec_TILT.c **** * Parameters:
 244:.\Generated_Source\PSoC5/QuadDec_TILT.c **** *  value:  The new value. Parameter type is signed and per the counter size
 245:.\Generated_Source\PSoC5/QuadDec_TILT.c **** *  setting.
 246:.\Generated_Source\PSoC5/QuadDec_TILT.c **** *
 247:.\Generated_Source\PSoC5/QuadDec_TILT.c **** * Return:
 248:.\Generated_Source\PSoC5/QuadDec_TILT.c **** *  None.
 249:.\Generated_Source\PSoC5/QuadDec_TILT.c **** *
 250:.\Generated_Source\PSoC5/QuadDec_TILT.c **** * Global variables:
 251:.\Generated_Source\PSoC5/QuadDec_TILT.c **** *  QuadDec_TILT_count32SoftPart - modified to set hi 16 bit for current
 252:.\Generated_Source\PSoC5/QuadDec_TILT.c **** *  value of the 32-bit counter, when Counter size equal 32-bit.
 253:.\Generated_Source\PSoC5/QuadDec_TILT.c **** *
 254:.\Generated_Source\PSoC5/QuadDec_TILT.c **** * Reentrant:
 255:.\Generated_Source\PSoC5/QuadDec_TILT.c **** *  No.
 256:.\Generated_Source\PSoC5/QuadDec_TILT.c **** *
 257:.\Generated_Source\PSoC5/QuadDec_TILT.c **** *******************************************************************************/
 258:.\Generated_Source\PSoC5/QuadDec_TILT.c **** void QuadDec_TILT_SetCounter(int32 value) 
 259:.\Generated_Source\PSoC5/QuadDec_TILT.c **** {
 295              		.loc 1 259 0
 296              		.cfi_startproc
 297              		@ args = 0, pretend = 0, frame = 8
 298              		@ frame_needed = 1, uses_anonymous_args = 0
 299 0000 80B5     		push	{r7, lr}
 300              	.LCFI13:
 301              		.cfi_def_cfa_offset 8
 302              		.cfi_offset 7, -8
 303              		.cfi_offset 14, -4
 304 0002 82B0     		sub	sp, sp, #8
 305              	.LCFI14:
 306              		.cfi_def_cfa_offset 16
 307 0004 00AF     		add	r7, sp, #0
 308              	.LCFI15:
 309              		.cfi_def_cfa_register 7
 310 0006 7860     		str	r0, [r7, #4]
 260:.\Generated_Source\PSoC5/QuadDec_TILT.c ****     #if ((QuadDec_TILT_COUNTER_SIZE == QuadDec_TILT_COUNTER_SIZE_8_BIT) || \
ARM GAS  C:\Users\gravi\AppData\Local\Temp\cc4OjiFW.s 			page 11


 261:.\Generated_Source\PSoC5/QuadDec_TILT.c ****          (QuadDec_TILT_COUNTER_SIZE == QuadDec_TILT_COUNTER_SIZE_16_BIT))
 262:.\Generated_Source\PSoC5/QuadDec_TILT.c ****         uint16 count;
 263:.\Generated_Source\PSoC5/QuadDec_TILT.c ****         
 264:.\Generated_Source\PSoC5/QuadDec_TILT.c ****         if (value >= 0)
 265:.\Generated_Source\PSoC5/QuadDec_TILT.c ****         {
 266:.\Generated_Source\PSoC5/QuadDec_TILT.c ****             count = (uint16) value + QuadDec_TILT_COUNTER_INIT_VALUE;
 267:.\Generated_Source\PSoC5/QuadDec_TILT.c ****         }
 268:.\Generated_Source\PSoC5/QuadDec_TILT.c ****         else
 269:.\Generated_Source\PSoC5/QuadDec_TILT.c ****         {
 270:.\Generated_Source\PSoC5/QuadDec_TILT.c ****             count = QuadDec_TILT_COUNTER_INIT_VALUE - (uint16)(-value);
 271:.\Generated_Source\PSoC5/QuadDec_TILT.c ****         }
 272:.\Generated_Source\PSoC5/QuadDec_TILT.c ****         #if (QuadDec_TILT_COUNTER_SIZE == QuadDec_TILT_COUNTER_SIZE_8_BIT)
 273:.\Generated_Source\PSoC5/QuadDec_TILT.c ****             QuadDec_TILT_Cnt8_WriteCounter(count);
 274:.\Generated_Source\PSoC5/QuadDec_TILT.c ****         #else /* (QuadDec_TILT_COUNTER_SIZE == QuadDec_TILT_COUNTER_SIZE_16_BIT) */
 275:.\Generated_Source\PSoC5/QuadDec_TILT.c ****             QuadDec_TILT_Cnt16_WriteCounter(count);
 276:.\Generated_Source\PSoC5/QuadDec_TILT.c ****         #endif  /* QuadDec_TILT_COUNTER_SIZE == QuadDec_TILT_COUNTER_SIZE_8_BIT */
 277:.\Generated_Source\PSoC5/QuadDec_TILT.c ****     #else /* (QuadDec_TILT_COUNTER_SIZE == QuadDec_TILT_COUNTER_SIZE_32_BIT) */
 278:.\Generated_Source\PSoC5/QuadDec_TILT.c ****         CyIntDisable(QuadDec_TILT_ISR_NUMBER);
 311              		.loc 1 278 0
 312 0008 4EF28013 		movw	r3, #57728
 313 000c CEF20003 		movt	r3, 57344
 314 0010 4FF00202 		mov	r2, #2
 315 0014 1A60     		str	r2, [r3, #0]
 279:.\Generated_Source\PSoC5/QuadDec_TILT.c **** 
 280:.\Generated_Source\PSoC5/QuadDec_TILT.c ****         QuadDec_TILT_Cnt16_WriteCounter(QuadDec_TILT_COUNTER_INIT_VALUE);
 316              		.loc 1 280 0
 317 0016 4FF40040 		mov	r0, #32768
 318 001a FFF7FEFF 		bl	QuadDec_TILT_Cnt16_WriteCounter
 281:.\Generated_Source\PSoC5/QuadDec_TILT.c ****         QuadDec_TILT_count32SoftPart = value;
 319              		.loc 1 281 0
 320 001e 40F20003 		movw	r3, #:lower16:QuadDec_TILT_count32SoftPart
 321 0022 C0F20003 		movt	r3, #:upper16:QuadDec_TILT_count32SoftPart
 322 0026 7A68     		ldr	r2, [r7, #4]
 323 0028 1A60     		str	r2, [r3, #0]
 282:.\Generated_Source\PSoC5/QuadDec_TILT.c **** 
 283:.\Generated_Source\PSoC5/QuadDec_TILT.c ****         CyIntEnable(QuadDec_TILT_ISR_NUMBER);
 324              		.loc 1 283 0
 325 002a 4FF46143 		mov	r3, #57600
 326 002e CEF20003 		movt	r3, 57344
 327 0032 4FF00202 		mov	r2, #2
 328 0036 1A60     		str	r2, [r3, #0]
 284:.\Generated_Source\PSoC5/QuadDec_TILT.c ****     #endif  /* (QuadDec_TILT_COUNTER_SIZE == QuadDec_TILT_COUNTER_SIZE_8_BIT) ||
 285:.\Generated_Source\PSoC5/QuadDec_TILT.c ****              * (QuadDec_TILT_COUNTER_SIZE == QuadDec_TILT_COUNTER_SIZE_16_BIT)
 286:.\Generated_Source\PSoC5/QuadDec_TILT.c ****              */
 287:.\Generated_Source\PSoC5/QuadDec_TILT.c **** }
 329              		.loc 1 287 0
 330 0038 07F10807 		add	r7, r7, #8
 331 003c BD46     		mov	sp, r7
 332 003e 80BD     		pop	{r7, pc}
 333              		.cfi_endproc
 334              	.LFE5:
 335              		.size	QuadDec_TILT_SetCounter, .-QuadDec_TILT_SetCounter
 336              		.section	.text.QuadDec_TILT_GetEvents,"ax",%progbits
 337              		.align	2
 338              		.global	QuadDec_TILT_GetEvents
 339              		.thumb
 340              		.thumb_func
ARM GAS  C:\Users\gravi\AppData\Local\Temp\cc4OjiFW.s 			page 12


 341              		.type	QuadDec_TILT_GetEvents, %function
 342              	QuadDec_TILT_GetEvents:
 343              	.LFB6:
 288:.\Generated_Source\PSoC5/QuadDec_TILT.c **** 
 289:.\Generated_Source\PSoC5/QuadDec_TILT.c **** 
 290:.\Generated_Source\PSoC5/QuadDec_TILT.c **** /*******************************************************************************
 291:.\Generated_Source\PSoC5/QuadDec_TILT.c **** * Function Name: QuadDec_TILT_GetEvents
 292:.\Generated_Source\PSoC5/QuadDec_TILT.c **** ********************************************************************************
 293:.\Generated_Source\PSoC5/QuadDec_TILT.c **** * 
 294:.\Generated_Source\PSoC5/QuadDec_TILT.c **** * Summary:
 295:.\Generated_Source\PSoC5/QuadDec_TILT.c **** *   Reports the current status of events. This function clears the bits of the 
 296:.\Generated_Source\PSoC5/QuadDec_TILT.c **** *   status register.
 297:.\Generated_Source\PSoC5/QuadDec_TILT.c **** *
 298:.\Generated_Source\PSoC5/QuadDec_TILT.c **** * Parameters:
 299:.\Generated_Source\PSoC5/QuadDec_TILT.c **** *  None.
 300:.\Generated_Source\PSoC5/QuadDec_TILT.c **** *
 301:.\Generated_Source\PSoC5/QuadDec_TILT.c **** * Return:
 302:.\Generated_Source\PSoC5/QuadDec_TILT.c **** *  The events, as bits in an unsigned 8-bit value:
 303:.\Generated_Source\PSoC5/QuadDec_TILT.c **** *    Bit      Description
 304:.\Generated_Source\PSoC5/QuadDec_TILT.c **** *     0        Counter overflow.
 305:.\Generated_Source\PSoC5/QuadDec_TILT.c **** *     1        Counter underflow.
 306:.\Generated_Source\PSoC5/QuadDec_TILT.c **** *     2        Counter reset due to index, if index input is used.
 307:.\Generated_Source\PSoC5/QuadDec_TILT.c **** *     3        Invalid A, B inputs state transition.
 308:.\Generated_Source\PSoC5/QuadDec_TILT.c **** *
 309:.\Generated_Source\PSoC5/QuadDec_TILT.c **** *******************************************************************************/
 310:.\Generated_Source\PSoC5/QuadDec_TILT.c **** uint8 QuadDec_TILT_GetEvents(void) 
 311:.\Generated_Source\PSoC5/QuadDec_TILT.c **** {
 344              		.loc 1 311 0
 345              		.cfi_startproc
 346              		@ args = 0, pretend = 0, frame = 0
 347              		@ frame_needed = 1, uses_anonymous_args = 0
 348              		@ link register save eliminated.
 349 0000 80B4     		push	{r7}
 350              	.LCFI16:
 351              		.cfi_def_cfa_offset 4
 352              		.cfi_offset 7, -4
 353 0002 00AF     		add	r7, sp, #0
 354              	.LCFI17:
 355              		.cfi_def_cfa_register 7
 312:.\Generated_Source\PSoC5/QuadDec_TILT.c ****     return (QuadDec_TILT_STATUS_REG & QuadDec_TILT_INIT_INT_MASK);
 356              		.loc 1 312 0
 357 0004 46F26653 		movw	r3, #25958
 358 0008 C4F20003 		movt	r3, 16384
 359 000c 1B78     		ldrb	r3, [r3, #0]
 360 000e DBB2     		uxtb	r3, r3
 361 0010 03F00F03 		and	r3, r3, #15
 362 0014 DBB2     		uxtb	r3, r3
 313:.\Generated_Source\PSoC5/QuadDec_TILT.c **** }
 363              		.loc 1 313 0
 364 0016 1846     		mov	r0, r3
 365 0018 BD46     		mov	sp, r7
 366 001a 80BC     		pop	{r7}
 367 001c 7047     		bx	lr
 368              		.cfi_endproc
 369              	.LFE6:
 370              		.size	QuadDec_TILT_GetEvents, .-QuadDec_TILT_GetEvents
 371 001e 00BF     		.section	.text.QuadDec_TILT_SetInterruptMask,"ax",%progbits
ARM GAS  C:\Users\gravi\AppData\Local\Temp\cc4OjiFW.s 			page 13


 372              		.align	2
 373              		.global	QuadDec_TILT_SetInterruptMask
 374              		.thumb
 375              		.thumb_func
 376              		.type	QuadDec_TILT_SetInterruptMask, %function
 377              	QuadDec_TILT_SetInterruptMask:
 378              	.LFB7:
 314:.\Generated_Source\PSoC5/QuadDec_TILT.c **** 
 315:.\Generated_Source\PSoC5/QuadDec_TILT.c **** 
 316:.\Generated_Source\PSoC5/QuadDec_TILT.c **** /*******************************************************************************
 317:.\Generated_Source\PSoC5/QuadDec_TILT.c **** * Function Name: QuadDec_TILT_SetInterruptMask
 318:.\Generated_Source\PSoC5/QuadDec_TILT.c **** ********************************************************************************
 319:.\Generated_Source\PSoC5/QuadDec_TILT.c **** *
 320:.\Generated_Source\PSoC5/QuadDec_TILT.c **** * Summary:
 321:.\Generated_Source\PSoC5/QuadDec_TILT.c **** *  Enables / disables interrupts due to the events.
 322:.\Generated_Source\PSoC5/QuadDec_TILT.c **** *  For the 32-bit counter, the overflow, underflow and reset interrupts cannot
 323:.\Generated_Source\PSoC5/QuadDec_TILT.c **** *  be disabled, these bits are ignored.
 324:.\Generated_Source\PSoC5/QuadDec_TILT.c **** *
 325:.\Generated_Source\PSoC5/QuadDec_TILT.c **** * Parameters:
 326:.\Generated_Source\PSoC5/QuadDec_TILT.c **** *  mask: Enable / disable bits in an 8-bit value, where 1 enables the interrupt.
 327:.\Generated_Source\PSoC5/QuadDec_TILT.c **** *
 328:.\Generated_Source\PSoC5/QuadDec_TILT.c **** * Return:
 329:.\Generated_Source\PSoC5/QuadDec_TILT.c **** *  None.
 330:.\Generated_Source\PSoC5/QuadDec_TILT.c **** *
 331:.\Generated_Source\PSoC5/QuadDec_TILT.c **** *******************************************************************************/
 332:.\Generated_Source\PSoC5/QuadDec_TILT.c **** void QuadDec_TILT_SetInterruptMask(uint8 mask) 
 333:.\Generated_Source\PSoC5/QuadDec_TILT.c **** {
 379              		.loc 1 333 0
 380              		.cfi_startproc
 381              		@ args = 0, pretend = 0, frame = 8
 382              		@ frame_needed = 1, uses_anonymous_args = 0
 383              		@ link register save eliminated.
 384 0000 80B4     		push	{r7}
 385              	.LCFI18:
 386              		.cfi_def_cfa_offset 4
 387              		.cfi_offset 7, -4
 388 0002 83B0     		sub	sp, sp, #12
 389              	.LCFI19:
 390              		.cfi_def_cfa_offset 16
 391 0004 00AF     		add	r7, sp, #0
 392              	.LCFI20:
 393              		.cfi_def_cfa_register 7
 394 0006 0346     		mov	r3, r0
 395 0008 FB71     		strb	r3, [r7, #7]
 334:.\Generated_Source\PSoC5/QuadDec_TILT.c ****     #if (QuadDec_TILT_COUNTER_SIZE == QuadDec_TILT_COUNTER_SIZE_32_BIT)
 335:.\Generated_Source\PSoC5/QuadDec_TILT.c ****         /* Underflow, Overflow and Reset interrupts for 32-bit Counter are always enable */
 336:.\Generated_Source\PSoC5/QuadDec_TILT.c ****         mask |= (QuadDec_TILT_COUNTER_OVERFLOW | QuadDec_TILT_COUNTER_UNDERFLOW |
 396              		.loc 1 336 0
 397 000a FB79     		ldrb	r3, [r7, #7]
 398 000c 43F00703 		orr	r3, r3, #7
 399 0010 FB71     		strb	r3, [r7, #7]
 337:.\Generated_Source\PSoC5/QuadDec_TILT.c ****                  QuadDec_TILT_COUNTER_RESET);
 338:.\Generated_Source\PSoC5/QuadDec_TILT.c ****     #endif /* QuadDec_TILT_COUNTER_SIZE == QuadDec_TILT_COUNTER_SIZE_32_BIT */
 339:.\Generated_Source\PSoC5/QuadDec_TILT.c **** 
 340:.\Generated_Source\PSoC5/QuadDec_TILT.c ****     QuadDec_TILT_STATUS_MASK = mask;
 400              		.loc 1 340 0
 401 0012 46F28653 		movw	r3, #25990
ARM GAS  C:\Users\gravi\AppData\Local\Temp\cc4OjiFW.s 			page 14


 402 0016 C4F20003 		movt	r3, 16384
 403 001a FA79     		ldrb	r2, [r7, #7]
 404 001c 1A70     		strb	r2, [r3, #0]
 341:.\Generated_Source\PSoC5/QuadDec_TILT.c **** }
 405              		.loc 1 341 0
 406 001e 07F10C07 		add	r7, r7, #12
 407 0022 BD46     		mov	sp, r7
 408 0024 80BC     		pop	{r7}
 409 0026 7047     		bx	lr
 410              		.cfi_endproc
 411              	.LFE7:
 412              		.size	QuadDec_TILT_SetInterruptMask, .-QuadDec_TILT_SetInterruptMask
 413              		.section	.text.QuadDec_TILT_GetInterruptMask,"ax",%progbits
 414              		.align	2
 415              		.global	QuadDec_TILT_GetInterruptMask
 416              		.thumb
 417              		.thumb_func
 418              		.type	QuadDec_TILT_GetInterruptMask, %function
 419              	QuadDec_TILT_GetInterruptMask:
 420              	.LFB8:
 342:.\Generated_Source\PSoC5/QuadDec_TILT.c **** 
 343:.\Generated_Source\PSoC5/QuadDec_TILT.c **** 
 344:.\Generated_Source\PSoC5/QuadDec_TILT.c **** /*******************************************************************************
 345:.\Generated_Source\PSoC5/QuadDec_TILT.c **** * Function Name: QuadDec_TILT_GetInterruptMask
 346:.\Generated_Source\PSoC5/QuadDec_TILT.c **** ********************************************************************************
 347:.\Generated_Source\PSoC5/QuadDec_TILT.c **** *
 348:.\Generated_Source\PSoC5/QuadDec_TILT.c **** * Summary:
 349:.\Generated_Source\PSoC5/QuadDec_TILT.c **** *  Reports the current interrupt mask settings.
 350:.\Generated_Source\PSoC5/QuadDec_TILT.c **** *
 351:.\Generated_Source\PSoC5/QuadDec_TILT.c **** * Parameters:
 352:.\Generated_Source\PSoC5/QuadDec_TILT.c **** *  None.
 353:.\Generated_Source\PSoC5/QuadDec_TILT.c **** *
 354:.\Generated_Source\PSoC5/QuadDec_TILT.c **** * Return:
 355:.\Generated_Source\PSoC5/QuadDec_TILT.c **** *  Enable / disable bits in an 8-bit value, where 1 enables the interrupt.
 356:.\Generated_Source\PSoC5/QuadDec_TILT.c **** *  For the 32-bit counter, the overflow, underflow and reset enable bits are
 357:.\Generated_Source\PSoC5/QuadDec_TILT.c **** *  always set.
 358:.\Generated_Source\PSoC5/QuadDec_TILT.c **** *
 359:.\Generated_Source\PSoC5/QuadDec_TILT.c **** *******************************************************************************/
 360:.\Generated_Source\PSoC5/QuadDec_TILT.c **** uint8 QuadDec_TILT_GetInterruptMask(void) 
 361:.\Generated_Source\PSoC5/QuadDec_TILT.c **** {
 421              		.loc 1 361 0
 422              		.cfi_startproc
 423              		@ args = 0, pretend = 0, frame = 0
 424              		@ frame_needed = 1, uses_anonymous_args = 0
 425              		@ link register save eliminated.
 426 0000 80B4     		push	{r7}
 427              	.LCFI21:
 428              		.cfi_def_cfa_offset 4
 429              		.cfi_offset 7, -4
 430 0002 00AF     		add	r7, sp, #0
 431              	.LCFI22:
 432              		.cfi_def_cfa_register 7
 362:.\Generated_Source\PSoC5/QuadDec_TILT.c ****     return (QuadDec_TILT_STATUS_MASK & QuadDec_TILT_INIT_INT_MASK);
 433              		.loc 1 362 0
 434 0004 46F28653 		movw	r3, #25990
 435 0008 C4F20003 		movt	r3, 16384
 436 000c 1B78     		ldrb	r3, [r3, #0]
ARM GAS  C:\Users\gravi\AppData\Local\Temp\cc4OjiFW.s 			page 15


 437 000e DBB2     		uxtb	r3, r3
 438 0010 03F00F03 		and	r3, r3, #15
 439 0014 DBB2     		uxtb	r3, r3
 363:.\Generated_Source\PSoC5/QuadDec_TILT.c **** }
 440              		.loc 1 363 0
 441 0016 1846     		mov	r0, r3
 442 0018 BD46     		mov	sp, r7
 443 001a 80BC     		pop	{r7}
 444 001c 7047     		bx	lr
 445              		.cfi_endproc
 446              	.LFE8:
 447              		.size	QuadDec_TILT_GetInterruptMask, .-QuadDec_TILT_GetInterruptMask
 448 001e 00BF     		.text
 449              	.Letext0:
 450              		.file 2 ".\\Generated_Source\\PSoC5\\cytypes.h"
 451              		.file 3 ".\\Generated_Source\\PSoC5\\QuadDec_TILT_PVT.h"