ARM GAS  C:\Users\GRAZIA~1.RAV\AppData\Local\Temp\cc7bEtse.s 			page 1


   1              		.syntax unified
   2              		.cpu cortex-m3
   3              		.fpu softvfp
   4              		.eabi_attribute 20, 1
   5              		.eabi_attribute 21, 1
   6              		.eabi_attribute 23, 3
   7              		.eabi_attribute 24, 1
   8              		.eabi_attribute 25, 1
   9              		.eabi_attribute 26, 1
  10              		.eabi_attribute 30, 6
  11              		.eabi_attribute 34, 1
  12              		.eabi_attribute 18, 4
  13              		.thumb
  14              		.file	"sensor_CTRL.c"
  15              		.text
  16              	.Ltext0:
  17              		.cfi_sections	.debug_frame
  18              		.comm	aacc,60,4
  19              		.global	idx
  20              		.bss
  21              		.type	idx, %object
  22              		.size	idx, 1
  23              	idx:
  24 0000 00       		.space	1
  25              		.global	dummy
  26              		.type	dummy, %object
  27              		.size	dummy, 1
  28              	dummy:
  29 0001 00       		.space	1
  30              		.global	idxMAX
  31              		.type	idxMAX, %object
  32              		.size	idxMAX, 1
  33              	idxMAX:
  34 0002 00       		.space	1
  35              		.global	QuadDecEvent
  36              		.type	QuadDecEvent, %object
  37              		.size	QuadDecEvent, 1
  38              	QuadDecEvent:
  39 0003 00       		.space	1
  40              		.comm	dgyro_offset_fine,4,4
  41              		.section	.text.Control_sensors_processing,"ax",%progbits
  42              		.align	2
  43              		.global	Control_sensors_processing
  44              		.thumb
  45              		.thumb_func
  46              		.type	Control_sensors_processing, %function
  47              	Control_sensors_processing:
  48              	.LFB56:
  49              		.file 1 ".\\sensor_CTRL.c"
   1:.\sensor_CTRL.c **** /* ========================================
   2:.\sensor_CTRL.c ****  *
   3:.\sensor_CTRL.c ****  * Copyright Logic brainstorm, 2015
   4:.\sensor_CTRL.c ****  * All Rights Reserved
   5:.\sensor_CTRL.c ****  * UNPUBLISHED, LICENSED SOFTWARE.
   6:.\sensor_CTRL.c ****  *
   7:.\sensor_CTRL.c ****  * CONFIDENTIAL AND PROPRIETARY INFORMATION
   8:.\sensor_CTRL.c ****  * WHICH IS THE PROPERTY OF your logic brainstorm.
ARM GAS  C:\Users\GRAZIA~1.RAV\AppData\Local\Temp\cc7bEtse.s 			page 2


   9:.\sensor_CTRL.c ****  *
  10:.\sensor_CTRL.c ****  * ========================================
  11:.\sensor_CTRL.c **** */
  12:.\sensor_CTRL.c **** 
  13:.\sensor_CTRL.c **** #include <device.h>
  14:.\sensor_CTRL.c **** #include <gobee.h>
  15:.\sensor_CTRL.c **** #include <gobeelib.h>
  16:.\sensor_CTRL.c **** #include <math.h>
  17:.\sensor_CTRL.c **** 
  18:.\sensor_CTRL.c **** /* extern Control Variables */
  19:.\sensor_CTRL.c **** extern uint8 machine_state;		/* Machine State Global						*/
  20:.\sensor_CTRL.c **** 
  21:.\sensor_CTRL.c **** extern float error;				/* Sensor error(t) 	  						*/
  22:.\sensor_CTRL.c **** extern float error_lowpass;		/* Sensor error(t) low pass filtered		*/
  23:.\sensor_CTRL.c **** extern float alpha;				/* low pass filter alpha value				*/
  24:.\sensor_CTRL.c **** 
  25:.\sensor_CTRL.c **** extern float error_bef;			/* Sensor error(t-1)  						*/
  26:.\sensor_CTRL.c **** extern float derror;			/* Sensor d/dt(error)						*/
  27:.\sensor_CTRL.c **** extern float ierror;			/* Sensor Integral(error(t))				*/
  28:.\sensor_CTRL.c **** 
  29:.\sensor_CTRL.c **** extern int16 control_var;		/* cv(t) = Kp*angle(t)			  			*/
  30:.\sensor_CTRL.c **** extern uint16 angle_var;		/* Angle Compensation DAC variable			*/
  31:.\sensor_CTRL.c **** extern int16  angle_digi;		/* Angle Compensation SPI variable			*/
  32:.\sensor_CTRL.c **** 
  33:.\sensor_CTRL.c **** extern int16 VSenseMAX;			/* Maximum Sensor Array ADC Voltage			*/
  34:.\sensor_CTRL.c **** extern int16 VSenseSUM;			/* Sum of all Sensor Array ADC Voltage		*/
  35:.\sensor_CTRL.c **** 
  36:.\sensor_CTRL.c **** extern int16 Encoder_now;		/* Driver Motor Encoder(t)					*/
  37:.\sensor_CTRL.c **** extern int16 Encoder_bef;		/* Driver Motor Encoder(t-1)				*/
  38:.\sensor_CTRL.c **** extern int16 DriveVelocity;		/* Driver Motor Velocity(t)					*/
  39:.\sensor_CTRL.c **** 
  40:.\sensor_CTRL.c **** 
  41:.\sensor_CTRL.c **** /* extern Sensor ADC array */
  42:.\sensor_CTRL.c **** extern int16 AdcValue[ADC_MUX_LENGHT];
  43:.\sensor_CTRL.c **** 
  44:.\sensor_CTRL.c **** 
  45:.\sensor_CTRL.c **** /* extern Analog ADXL325 3D accelerometer vars) */
  46:.\sensor_CTRL.c **** struct ANALOG_3D_ACCELEROMETER aacc;
  47:.\sensor_CTRL.c **** 
  48:.\sensor_CTRL.c **** //extern signed long system_dynamic_scalar;	/* x_acc_ADC^2 + y_acc_ADC^2 - (1g_ADC)^2	*/
  49:.\sensor_CTRL.c **** 
  50:.\sensor_CTRL.c **** 
  51:.\sensor_CTRL.c **** /* extern IMU UM7 vars */ 
  52:.\sensor_CTRL.c **** #if IMU_UM7_ENABLED
  53:.\sensor_CTRL.c **** extern EULER_ANGLES euler_angles; 		/* Struttura in cui vengono messi gli angoli di Eulero misurati
  54:.\sensor_CTRL.c **** #endif
  55:.\sensor_CTRL.c **** 
  56:.\sensor_CTRL.c **** /* extern IMU sensor vars */
  57:.\sensor_CTRL.c **** extern struct IMU_SENSOR	IMU_sensor;		/* Struttura dei dati della IMU */
  58:.\sensor_CTRL.c **** 
  59:.\sensor_CTRL.c **** 
  60:.\sensor_CTRL.c **** /* extern Analog External ADXRS646 gyroscope vars) */
  61:.\sensor_CTRL.c **** extern struct ANALOG_GYRO agyro;
  62:.\sensor_CTRL.c **** 
  63:.\sensor_CTRL.c **** /* extern ADXRS453 digital gyroscope vars	*/
  64:.\sensor_CTRL.c **** extern float dgyro_rate_float;		/* ADXRS453 Digital Gyro Rate (float) [deg/sec] 	*/
  65:.\sensor_CTRL.c **** extern float dgyro_mean;			/* digital gyro raw mean_value(t)					*/
ARM GAS  C:\Users\GRAZIA~1.RAV\AppData\Local\Temp\cc7bEtse.s 			page 3


  66:.\sensor_CTRL.c **** extern float dgyro_mean_previous;	/* digital gyro raw mean_value(t-1)					*/
  67:.\sensor_CTRL.c **** extern float dgyro_mean_of;			/* digital gyro ofsetted mean_value(t)				*/
  68:.\sensor_CTRL.c **** extern float dgyro_mean_previous_of;/* digital gyro ofsetted mean_value(t-1)			*/
  69:.\sensor_CTRL.c **** extern uint32 dg_iteration;			/* digital gyro mean value iteration counter		*/
  70:.\sensor_CTRL.c **** extern uint8 dgyro_messg;			/* digital gyro message passing console --> isr_ctrl*/
  71:.\sensor_CTRL.c **** 
  72:.\sensor_CTRL.c **** /* extern estimated control vars */
  73:.\sensor_CTRL.c **** extern float angle;				/* Complementary Filter Estimated angle float [deg]	*/
  74:.\sensor_CTRL.c **** extern float angle_lowpass;
  75:.\sensor_CTRL.c **** extern float angle_estim;	
  76:.\sensor_CTRL.c **** 
  77:.\sensor_CTRL.c **** ///* external ITG-3701 digital gyro vars */
  78:.\sensor_CTRL.c **** //extern float gRes;      				// scale resolutions per LSB for the sensors
  79:.\sensor_CTRL.c **** //extern int16 gyroCount[3];  			// Stores the 16-bit signed gyro output
  80:.\sensor_CTRL.c **** //extern float gx, gy, gz; 				// variables to hold latest sensor data values 
  81:.\sensor_CTRL.c **** //extern float gyroBias[3];			 	// Bias corrections for gyro, accelerometer, and magnetometer
  82:.\sensor_CTRL.c **** //extern float temperature;          		// Stores the ITG3701yro internal chip temperature in degree
  83:.\sensor_CTRL.c **** 
  84:.\sensor_CTRL.c **** /* extern GOBEE param structure */
  85:.\sensor_CTRL.c **** extern struct GOBEE_PARAMS gobee_param;
  86:.\sensor_CTRL.c ****  
  87:.\sensor_CTRL.c **** 
  88:.\sensor_CTRL.c **** /* Local vars Definition */
  89:.\sensor_CTRL.c **** uint8 idx = 0;					/* all pourpose index							*/
  90:.\sensor_CTRL.c **** uint8 dummy = 0;				/* Dummy Local									*/
  91:.\sensor_CTRL.c **** uint8 idxMAX = 0;				/* index: Vsense(index)=VSenseMAX				*/
  92:.\sensor_CTRL.c **** uint8 QuadDecEvent = 0;			/* Quadrature Encoder Status Register Shadow 	*/
  93:.\sensor_CTRL.c **** 
  94:.\sensor_CTRL.c **** float dgyro_offset_fine;
  95:.\sensor_CTRL.c **** 
  96:.\sensor_CTRL.c **** 
  97:.\sensor_CTRL.c **** /************************************************************/
  98:.\sensor_CTRL.c **** /* GoBee Real Time CONTROL SENSORS Sampling & Control 		*/
  99:.\sensor_CTRL.c **** /*   Control sensors are used for Gimbal Real Time Control	*/
 100:.\sensor_CTRL.c **** /*   (isr_CTRL.c  1500Hz)									*/
 101:.\sensor_CTRL.c **** /************************************************************/
 102:.\sensor_CTRL.c **** void Control_sensors_processing(void)
 103:.\sensor_CTRL.c **** {
  50              		.loc 1 103 0
  51              		.cfi_startproc
  52              		@ args = 0, pretend = 0, frame = 0
  53              		@ frame_needed = 1, uses_anonymous_args = 0
  54              		@ link register save eliminated.
  55 0000 80B4     		push	{r7}
  56              	.LCFI0:
  57              		.cfi_def_cfa_offset 4
  58              		.cfi_offset 7, -4
  59 0002 00AF     		add	r7, sp, #0
  60              	.LCFI1:
  61              		.cfi_def_cfa_register 7
 104:.\sensor_CTRL.c **** 	/************************************************/
 105:.\sensor_CTRL.c **** 	/*** IMU UM7-LT build packet 					*/
 106:.\sensor_CTRL.c **** 	/*** deve essere chiamata almeno 15 volte per 	*/
 107:.\sensor_CTRL.c **** 	/************************************************/
 108:.\sensor_CTRL.c **** #if IMU_UM7_ENABLED	
 109:.\sensor_CTRL.c **** 	IMU_UM7_CheckForEulerPacket(&euler_angles);
 110:.\sensor_CTRL.c **** #endif	
ARM GAS  C:\Users\GRAZIA~1.RAV\AppData\Local\Temp\cc7bEtse.s 			page 4


 111:.\sensor_CTRL.c **** 
 112:.\sensor_CTRL.c **** 	/************************************************/
 113:.\sensor_CTRL.c **** 	/*** IMU UM7-LT YAW elaboration 				*/
 114:.\sensor_CTRL.c **** 	/************************************************/
 115:.\sensor_CTRL.c **** #if IMU_YAW_ELABORATION
 116:.\sensor_CTRL.c **** 	if (IMU_sensor.param.yaw_invertion == ANGLE_NOT_INVERTED)
 117:.\sensor_CTRL.c **** 	{
 118:.\sensor_CTRL.c **** 		IMU_sensor.bike_yaw = euler_angles.psi;	
 119:.\sensor_CTRL.c **** 	}
 120:.\sensor_CTRL.c **** 	else	//ANGLE INVERTED
 121:.\sensor_CTRL.c **** 	{
 122:.\sensor_CTRL.c **** 		IMU_sensor.bike_yaw = -euler_angles.psi;	
 123:.\sensor_CTRL.c **** 	}	
 124:.\sensor_CTRL.c **** 
 125:.\sensor_CTRL.c **** 	/****************************************************************************/
 126:.\sensor_CTRL.c **** 	/* IMU_sensor.bike_yaw: Exponential error smoothing function				*/
 127:.\sensor_CTRL.c **** 	/* (exactly like RC first order low pass filter) 							*/
 128:.\sensor_CTRL.c **** 	/* http://en.wikipedia.org/wiki/Low-pass_filter#Discrete-time_realization	*/
 129:.\sensor_CTRL.c **** 	/* http://en.wikipedia.org/wiki/Exponential_smoothing						*/
 130:.\sensor_CTRL.c **** 	/*																			*/
 131:.\sensor_CTRL.c **** 	/* tau = deltaT *(1 - gamma)/gamma											*/
 132:.\sensor_CTRL.c **** 	/*       deltaT = 666.7 usec @ 1500Hz										*/
 133:.\sensor_CTRL.c **** 	/*		 gamma  = 0.0005													*/
 134:.\sensor_CTRL.c **** 	/*		 --> tau = 1,33 sec (fc = 2 * 3.14 / tau = 4.71Hz)					*/
 135:.\sensor_CTRL.c **** 	/****************************************************************************/
 136:.\sensor_CTRL.c **** 	/* gamma = 1 TO BYPASS FILTER												*/
 137:.\sensor_CTRL.c **** 	/****************************************************************************/
 138:.\sensor_CTRL.c **** 	if (IMU_sensor.param.gamma.fnum == 1)
 139:.\sensor_CTRL.c **** 	{
 140:.\sensor_CTRL.c **** 		IMU_sensor.bike_yaw_lpf = IMU_sensor.bike_yaw;
 141:.\sensor_CTRL.c **** 	}
 142:.\sensor_CTRL.c **** 	else
 143:.\sensor_CTRL.c **** 	{
 144:.\sensor_CTRL.c **** 		IMU_sensor.bike_yaw_lpf = IMU_sensor.bike_yaw_lpf + (double)IMU_sensor.param.gamma.fnum * (IMU_se
 145:.\sensor_CTRL.c **** 	}
 146:.\sensor_CTRL.c **** #endif
 147:.\sensor_CTRL.c **** 
 148:.\sensor_CTRL.c **** #if IMU_PITCH_ELABORATION
 149:.\sensor_CTRL.c **** 	/************************************************/
 150:.\sensor_CTRL.c **** 	/*** IMU UM7-LT PITCH elaboration 				*/
 151:.\sensor_CTRL.c **** 	/************************************************/
 152:.\sensor_CTRL.c **** 	if (IMU_sensor.param.pitch_invertion == ANGLE_NOT_INVERTED)
 153:.\sensor_CTRL.c **** 	{
 154:.\sensor_CTRL.c **** 		IMU_sensor.bike_pitch = euler_angles.theta;
 155:.\sensor_CTRL.c **** 	}
 156:.\sensor_CTRL.c **** 	else	//ANGLE INVERTED
 157:.\sensor_CTRL.c **** 	{
 158:.\sensor_CTRL.c **** 		IMU_sensor.bike_pitch = -euler_angles.theta;	
 159:.\sensor_CTRL.c **** 	}	
 160:.\sensor_CTRL.c **** 
 161:.\sensor_CTRL.c **** 	/****************************************************************************/
 162:.\sensor_CTRL.c **** 	/* IMU_sensor.bike_pitch: Exponential error smoothing function				*/
 163:.\sensor_CTRL.c **** 	/****************************************************************************/
 164:.\sensor_CTRL.c **** 	/* gamma = 1 TO BYPASS FILTER												*/
 165:.\sensor_CTRL.c **** 	/****************************************************************************/
 166:.\sensor_CTRL.c **** 	if (IMU_sensor.param.gamma.fnum == 1)
 167:.\sensor_CTRL.c **** 	{
ARM GAS  C:\Users\GRAZIA~1.RAV\AppData\Local\Temp\cc7bEtse.s 			page 5


 168:.\sensor_CTRL.c **** 		IMU_sensor.bike_pitch_lpf = IMU_sensor.bike_pitch;
 169:.\sensor_CTRL.c **** 	}
 170:.\sensor_CTRL.c **** 	else
 171:.\sensor_CTRL.c **** 	{
 172:.\sensor_CTRL.c **** 		IMU_sensor.bike_pitch_lpf = IMU_sensor.bike_pitch_lpf + (double)IMU_sensor.param.gamma.fnum * (IM
 173:.\sensor_CTRL.c **** 	}
 174:.\sensor_CTRL.c **** #endif	
 175:.\sensor_CTRL.c **** 
 176:.\sensor_CTRL.c **** #if IMU_ROLL_ELABORATION
 177:.\sensor_CTRL.c **** 	/************************************************/
 178:.\sensor_CTRL.c **** 	/*** IMU UM7-LT ROLL elaboration 				*/
 179:.\sensor_CTRL.c **** 	/************************************************/
 180:.\sensor_CTRL.c **** 	if (IMU_sensor.param.roll_invertion == ANGLE_NOT_INVERTED)
 181:.\sensor_CTRL.c **** 	{
 182:.\sensor_CTRL.c **** 		IMU_sensor.bike_roll = euler_angles.phi;	
 183:.\sensor_CTRL.c **** 	}
 184:.\sensor_CTRL.c **** 	else	//ANGLE INVERTED
 185:.\sensor_CTRL.c **** 	{
 186:.\sensor_CTRL.c **** 		IMU_sensor.bike_roll = -euler_angles.phi;	
 187:.\sensor_CTRL.c **** 	}	
 188:.\sensor_CTRL.c **** 
 189:.\sensor_CTRL.c **** 	
 190:.\sensor_CTRL.c **** 	/****************************************************************************/
 191:.\sensor_CTRL.c **** 	/* IMU_sensor.bike_pitch: Exponential error smoothing function				*/
 192:.\sensor_CTRL.c **** 	/****************************************************************************/
 193:.\sensor_CTRL.c **** 	/* gamma = 1 TO BYPASS FILTER												*/
 194:.\sensor_CTRL.c **** 	/****************************************************************************/
 195:.\sensor_CTRL.c **** 	if (IMU_sensor.param.gamma.fnum == 1)
 196:.\sensor_CTRL.c **** 	{
 197:.\sensor_CTRL.c **** 		IMU_sensor.bike_roll_lpf = IMU_sensor.bike_roll;
 198:.\sensor_CTRL.c **** 	}
 199:.\sensor_CTRL.c **** 	else
 200:.\sensor_CTRL.c **** 	{
 201:.\sensor_CTRL.c **** 		IMU_sensor.bike_roll_lpf = IMU_sensor.bike_roll_lpf + (double)IMU_sensor.param.gamma.fnum * (IMU_
 202:.\sensor_CTRL.c **** 	}
 203:.\sensor_CTRL.c **** #endif	
 204:.\sensor_CTRL.c **** 
 205:.\sensor_CTRL.c **** 	/****************************************************************************/
 206:.\sensor_CTRL.c **** 	/* Real Time Stabilization calculations										*/
 207:.\sensor_CTRL.c **** 	/****************************************************************************/
 208:.\sensor_CTRL.c **** 	// abs_pan_angle --> rad
 209:.\sensor_CTRL.c **** 	//	Function: void sincos (double x, double *sinx, double *cosx)
 210:.\sensor_CTRL.c **** 	//	Function: void sincosf (float x, float *sinx, float *cosx)
 211:.\sensor_CTRL.c **** 
 212:.\sensor_CTRL.c **** 	// IMU_sensor.cam_gyrotilt = (IMU_sensor.bike_pitch_lpf * cos(abs_pan_angle)
 213:.\sensor_CTRL.c **** 	//							 + IMU_sensor.bike_roll_lpf * sin(abs_pan_angle) [deg]) * tilt_axis.vparam.resolution_ste
 214:.\sensor_CTRL.c **** 
 215:.\sensor_CTRL.c **** }        
  62              		.loc 1 215 0
  63 0004 BD46     		mov	sp, r7
  64 0006 80BC     		pop	{r7}
  65 0008 7047     		bx	lr
  66              		.cfi_endproc
  67              	.LFE56:
  68              		.size	Control_sensors_processing, .-Control_sensors_processing
  69              		.global	__aeabi_i2f
  70              		.global	__aeabi_fmul
ARM GAS  C:\Users\GRAZIA~1.RAV\AppData\Local\Temp\cc7bEtse.s 			page 6


  71              		.global	__aeabi_fcmplt
  72              		.global	__aeabi_fsub
  73              		.global	__aeabi_fadd
  74              		.global	__aeabi_f2d
  75              		.global	__aeabi_d2f
  76 000a 00BF     		.section	.text.Heading_sensors_processing,"ax",%progbits
  77              		.align	2
  78              		.global	Heading_sensors_processing
  79              		.thumb
  80              		.thumb_func
  81              		.type	Heading_sensors_processing, %function
  82              	Heading_sensors_processing:
  83              	.LFB57:
 216:.\sensor_CTRL.c **** 
 217:.\sensor_CTRL.c **** 
 218:.\sensor_CTRL.c **** /********************************************************/
 219:.\sensor_CTRL.c **** /* Bike HEADING SENSORS Sampling & Control 				*/
 220:.\sensor_CTRL.c **** /*   Heading sensors are used for Events Identification	*/
 221:.\sensor_CTRL.c **** /*  (isr_EVENTS_IDENTIF.c  100Hz)						*/
 222:.\sensor_CTRL.c **** /********************************************************/
 223:.\sensor_CTRL.c **** void Heading_sensors_processing(void)
 224:.\sensor_CTRL.c **** {
  84              		.loc 1 224 0
  85              		.cfi_startproc
  86              		@ args = 0, pretend = 0, frame = 0
  87              		@ frame_needed = 1, uses_anonymous_args = 0
  88 0000 B0B5     		push	{r4, r5, r7, lr}
  89              	.LCFI2:
  90              		.cfi_def_cfa_offset 16
  91              		.cfi_offset 4, -16
  92              		.cfi_offset 5, -12
  93              		.cfi_offset 7, -8
  94              		.cfi_offset 14, -4
  95 0002 00AF     		add	r7, sp, #0
  96              	.LCFI3:
  97              		.cfi_def_cfa_register 7
 225:.\sensor_CTRL.c **** 	/************************************************/
 226:.\sensor_CTRL.c **** 	/* ADXL325 Accelerometer Sampling and scaling	*/
 227:.\sensor_CTRL.c **** 	/************************************************/
 228:.\sensor_CTRL.c **** 	/* Sensivity = 174mV/g							*/
 229:.\sensor_CTRL.c **** 	/* Zero g    = 1,5V								*/
 230:.\sensor_CTRL.c **** 	/*												*/
 231:.\sensor_CTRL.c **** 	/* ADC(int16 signed)=(Vin - 2,5V)*4096/5V		*/
 232:.\sensor_CTRL.c **** 	/* ADC resolution = 12 bit						*/
 233:.\sensor_CTRL.c **** 	/* 												*/
 234:.\sensor_CTRL.c **** 	/*  -->       0g  = -819.2	  ADC lsb			*/
 235:.\sensor_CTRL.c **** 	/*	-->       1g  = -676.6592 ADC lsb			*/
 236:.\sensor_CTRL.c **** 	/*  --> delta(1g) = 142.5408  ADC lsb			*/
 237:.\sensor_CTRL.c **** 	/************************************************/
 238:.\sensor_CTRL.c **** 	aacc.x_axis.scale = 0.007015535;	/* 1 / [1g] = 1 / 142.5408 = 0.007015535	*/
  98              		.loc 1 238 0
  99 0004 40F20003 		movw	r3, #:lower16:aacc
 100 0008 C0F20003 		movt	r3, #:upper16:aacc
 101 000c 4EF29322 		movw	r2, #58003
 102 0010 C3F6E532 		movt	r2, 15333
 103 0014 5A60     		str	r2, [r3, #4]	@ float
 239:.\sensor_CTRL.c **** 	aacc.y_axis.scale = 0.007015535;	/* 1 / [1g] = 1 / 142.5408 = 0.007015535	*/
ARM GAS  C:\Users\GRAZIA~1.RAV\AppData\Local\Temp\cc7bEtse.s 			page 7


 104              		.loc 1 239 0
 105 0016 40F20003 		movw	r3, #:lower16:aacc
 106 001a C0F20003 		movt	r3, #:upper16:aacc
 107 001e 4EF29322 		movw	r2, #58003
 108 0022 C3F6E532 		movt	r2, 15333
 109 0026 5A61     		str	r2, [r3, #20]	@ float
 240:.\sensor_CTRL.c **** 	aacc.z_axis.scale = 0.007015535;	/* 1 / [1g] = 1 / 142.5408 = 0.007015535	*/
 110              		.loc 1 240 0
 111 0028 40F20003 		movw	r3, #:lower16:aacc
 112 002c C0F20003 		movt	r3, #:upper16:aacc
 113 0030 4EF29322 		movw	r2, #58003
 114 0034 C3F6E532 		movt	r2, 15333
 115 0038 5A62     		str	r2, [r3, #36]	@ float
 241:.\sensor_CTRL.c **** 	
 242:.\sensor_CTRL.c **** 	aacc.x_axis.ADC = AdcValue[ADXL_X] + ADC_ACC_ZERO_OFFSET ;
 116              		.loc 1 242 0
 117 003a 40F20003 		movw	r3, #:lower16:AdcValue
 118 003e C0F20003 		movt	r3, #:upper16:AdcValue
 119 0042 DB88     		ldrh	r3, [r3, #6]
 120 0044 9BB2     		uxth	r3, r3
 121 0046 03F23333 		addw	r3, r3, #819
 122 004a 9BB2     		uxth	r3, r3
 123 004c 9AB2     		uxth	r2, r3
 124 004e 40F20003 		movw	r3, #:lower16:aacc
 125 0052 C0F20003 		movt	r3, #:upper16:aacc
 126 0056 1A80     		strh	r2, [r3, #0]	@ movhi
 243:.\sensor_CTRL.c **** 	aacc.y_axis.ADC = AdcValue[ADXL_Y] + ADC_ACC_ZERO_OFFSET ;
 127              		.loc 1 243 0
 128 0058 40F20003 		movw	r3, #:lower16:AdcValue
 129 005c C0F20003 		movt	r3, #:upper16:AdcValue
 130 0060 1B89     		ldrh	r3, [r3, #8]
 131 0062 9BB2     		uxth	r3, r3
 132 0064 03F23333 		addw	r3, r3, #819
 133 0068 9BB2     		uxth	r3, r3
 134 006a 9AB2     		uxth	r2, r3
 135 006c 40F20003 		movw	r3, #:lower16:aacc
 136 0070 C0F20003 		movt	r3, #:upper16:aacc
 137 0074 1A82     		strh	r2, [r3, #16]	@ movhi
 244:.\sensor_CTRL.c **** 	aacc.z_axis.ADC = AdcValue[ADXL_Z] + ADC_ACC_ZERO_OFFSET ;	
 138              		.loc 1 244 0
 139 0076 40F20003 		movw	r3, #:lower16:AdcValue
 140 007a C0F20003 		movt	r3, #:upper16:AdcValue
 141 007e 5B89     		ldrh	r3, [r3, #10]
 142 0080 9BB2     		uxth	r3, r3
 143 0082 03F23333 		addw	r3, r3, #819
 144 0086 9BB2     		uxth	r3, r3
 145 0088 9AB2     		uxth	r2, r3
 146 008a 40F20003 		movw	r3, #:lower16:aacc
 147 008e C0F20003 		movt	r3, #:upper16:aacc
 148 0092 1A84     		strh	r2, [r3, #32]	@ movhi
 245:.\sensor_CTRL.c **** 	
 246:.\sensor_CTRL.c **** 	aacc.x_axis.acceleration = (float)(aacc.x_axis.ADC + gobee_param.x_acc_ADC_offset) * aacc.x_axis.s
 149              		.loc 1 246 0
 150 0094 40F20003 		movw	r3, #:lower16:aacc
 151 0098 C0F20003 		movt	r3, #:upper16:aacc
 152 009c 1B88     		ldrh	r3, [r3, #0]
 153 009e 1AB2     		sxth	r2, r3
ARM GAS  C:\Users\GRAZIA~1.RAV\AppData\Local\Temp\cc7bEtse.s 			page 8


 154 00a0 40F20003 		movw	r3, #:lower16:gobee_param
 155 00a4 C0F20003 		movt	r3, #:upper16:gobee_param
 156 00a8 1B89     		ldrh	r3, [r3, #8]
 157 00aa 1BB2     		sxth	r3, r3
 158 00ac D318     		adds	r3, r2, r3
 159 00ae 1846     		mov	r0, r3
 160 00b0 FFF7FEFF 		bl	__aeabi_i2f
 161 00b4 0246     		mov	r2, r0
 162 00b6 40F20003 		movw	r3, #:lower16:aacc
 163 00ba C0F20003 		movt	r3, #:upper16:aacc
 164 00be 5B68     		ldr	r3, [r3, #4]	@ float
 165 00c0 1046     		mov	r0, r2
 166 00c2 1946     		mov	r1, r3
 167 00c4 FFF7FEFF 		bl	__aeabi_fmul
 168 00c8 0346     		mov	r3, r0
 169 00ca 1A46     		mov	r2, r3
 170 00cc 40F20003 		movw	r3, #:lower16:aacc
 171 00d0 C0F20003 		movt	r3, #:upper16:aacc
 172 00d4 9A60     		str	r2, [r3, #8]	@ float
 247:.\sensor_CTRL.c **** 	aacc.y_axis.acceleration = (float)(aacc.y_axis.ADC + gobee_param.y_acc_ADC_offset) * aacc.y_axis.s
 173              		.loc 1 247 0
 174 00d6 40F20003 		movw	r3, #:lower16:aacc
 175 00da C0F20003 		movt	r3, #:upper16:aacc
 176 00de 1B8A     		ldrh	r3, [r3, #16]
 177 00e0 1AB2     		sxth	r2, r3
 178 00e2 40F20003 		movw	r3, #:lower16:gobee_param
 179 00e6 C0F20003 		movt	r3, #:upper16:gobee_param
 180 00ea 5B89     		ldrh	r3, [r3, #10]
 181 00ec 1BB2     		sxth	r3, r3
 182 00ee D318     		adds	r3, r2, r3
 183 00f0 1846     		mov	r0, r3
 184 00f2 FFF7FEFF 		bl	__aeabi_i2f
 185 00f6 0246     		mov	r2, r0
 186 00f8 40F20003 		movw	r3, #:lower16:aacc
 187 00fc C0F20003 		movt	r3, #:upper16:aacc
 188 0100 5B69     		ldr	r3, [r3, #20]	@ float
 189 0102 1046     		mov	r0, r2
 190 0104 1946     		mov	r1, r3
 191 0106 FFF7FEFF 		bl	__aeabi_fmul
 192 010a 0346     		mov	r3, r0
 193 010c 1A46     		mov	r2, r3
 194 010e 40F20003 		movw	r3, #:lower16:aacc
 195 0112 C0F20003 		movt	r3, #:upper16:aacc
 196 0116 9A61     		str	r2, [r3, #24]	@ float
 248:.\sensor_CTRL.c **** 	aacc.z_axis.acceleration = (float)(aacc.z_axis.ADC + gobee_param.z_acc_ADC_offset) * aacc.z_axis.s
 197              		.loc 1 248 0
 198 0118 40F20003 		movw	r3, #:lower16:aacc
 199 011c C0F20003 		movt	r3, #:upper16:aacc
 200 0120 1B8C     		ldrh	r3, [r3, #32]
 201 0122 1AB2     		sxth	r2, r3
 202 0124 40F20003 		movw	r3, #:lower16:gobee_param
 203 0128 C0F20003 		movt	r3, #:upper16:gobee_param
 204 012c 9B89     		ldrh	r3, [r3, #12]
 205 012e 1BB2     		sxth	r3, r3
 206 0130 D318     		adds	r3, r2, r3
 207 0132 1846     		mov	r0, r3
 208 0134 FFF7FEFF 		bl	__aeabi_i2f
ARM GAS  C:\Users\GRAZIA~1.RAV\AppData\Local\Temp\cc7bEtse.s 			page 9


 209 0138 0246     		mov	r2, r0
 210 013a 40F20003 		movw	r3, #:lower16:aacc
 211 013e C0F20003 		movt	r3, #:upper16:aacc
 212 0142 5B6A     		ldr	r3, [r3, #36]	@ float
 213 0144 1046     		mov	r0, r2
 214 0146 1946     		mov	r1, r3
 215 0148 FFF7FEFF 		bl	__aeabi_fmul
 216 014c 0346     		mov	r3, r0
 217 014e 1A46     		mov	r2, r3
 218 0150 40F20003 		movw	r3, #:lower16:aacc
 219 0154 C0F20003 		movt	r3, #:upper16:aacc
 220 0158 9A62     		str	r2, [r3, #40]	@ float
 249:.\sensor_CTRL.c **** 
 250:.\sensor_CTRL.c **** 	/****************************************************************************/
 251:.\sensor_CTRL.c **** 	/* Accelerometer Exponential error smoothing function						*/
 252:.\sensor_CTRL.c **** 	/* (exactly like RC first order low pass filter) 							*/
 253:.\sensor_CTRL.c **** 	/* http://en.wikipedia.org/wiki/Low-pass_filter#Discrete-time_realization	*/
 254:.\sensor_CTRL.c **** 	/* http://en.wikipedia.org/wiki/Exponential_smoothing						*/
 255:.\sensor_CTRL.c **** 	/*																			*/
 256:.\sensor_CTRL.c **** 	/* tau = deltaT *(1 - beta)/beta											*/
 257:.\sensor_CTRL.c **** 	/*       deltaT = 666.7 usec @ 100Hz										*/
 258:.\sensor_CTRL.c **** 	/*		 beta  = 0.0005														*/
 259:.\sensor_CTRL.c **** 	/*		 --> tau = 1,33 sec (fc = 2 * 3.14 / tau = 4.71Hz)					*/
 260:.\sensor_CTRL.c **** 	/****************************************************************************/
 261:.\sensor_CTRL.c **** 	/* beta = 1 TO BYPASS FILTER												*/
 262:.\sensor_CTRL.c **** 	/****************************************************************************/
 263:.\sensor_CTRL.c **** 	if (gobee_param.beta.fnum < 1)
 221              		.loc 1 263 0
 222 015a 40F20003 		movw	r3, #:lower16:gobee_param
 223 015e C0F20003 		movt	r3, #:upper16:gobee_param
 224 0162 5B68     		ldr	r3, [r3, #4]	@ float
 225 0164 1846     		mov	r0, r3
 226 0166 4FF07E51 		mov	r1, #1065353216
 227 016a FFF7FEFF 		bl	__aeabi_fcmplt
 228 016e 0346     		mov	r3, r0
 229 0170 002B     		cmp	r3, #0
 230 0172 7AD0     		beq	.L3
 231              	.L5:
 264:.\sensor_CTRL.c **** 	{
 265:.\sensor_CTRL.c **** 		aacc.x_axis.acceleration_lpf = aacc.x_axis.acceleration_lpf +
 232              		.loc 1 265 0
 233 0174 40F20003 		movw	r3, #:lower16:aacc
 234 0178 C0F20003 		movt	r3, #:upper16:aacc
 235 017c DC68     		ldr	r4, [r3, #12]	@ float
 266:.\sensor_CTRL.c **** 									gobee_param.beta.fnum * (aacc.x_axis.acceleration - aacc.x_axis.acceleration_lpf);
 236              		.loc 1 266 0
 237 017e 40F20003 		movw	r3, #:lower16:gobee_param
 238 0182 C0F20003 		movt	r3, #:upper16:gobee_param
 239 0186 5D68     		ldr	r5, [r3, #4]	@ float
 240 0188 40F20003 		movw	r3, #:lower16:aacc
 241 018c C0F20003 		movt	r3, #:upper16:aacc
 242 0190 9A68     		ldr	r2, [r3, #8]	@ float
 243 0192 40F20003 		movw	r3, #:lower16:aacc
 244 0196 C0F20003 		movt	r3, #:upper16:aacc
 245 019a DB68     		ldr	r3, [r3, #12]	@ float
 246 019c 1046     		mov	r0, r2
 247 019e 1946     		mov	r1, r3
ARM GAS  C:\Users\GRAZIA~1.RAV\AppData\Local\Temp\cc7bEtse.s 			page 10


 248 01a0 FFF7FEFF 		bl	__aeabi_fsub
 249 01a4 0346     		mov	r3, r0
 250 01a6 2846     		mov	r0, r5
 251 01a8 1946     		mov	r1, r3
 252 01aa FFF7FEFF 		bl	__aeabi_fmul
 253 01ae 0346     		mov	r3, r0
 265:.\sensor_CTRL.c **** 		aacc.x_axis.acceleration_lpf = aacc.x_axis.acceleration_lpf +
 254              		.loc 1 265 0
 255 01b0 2046     		mov	r0, r4
 256 01b2 1946     		mov	r1, r3
 257 01b4 FFF7FEFF 		bl	__aeabi_fadd
 258 01b8 0346     		mov	r3, r0
 259 01ba 1A46     		mov	r2, r3
 260 01bc 40F20003 		movw	r3, #:lower16:aacc
 261 01c0 C0F20003 		movt	r3, #:upper16:aacc
 262 01c4 DA60     		str	r2, [r3, #12]	@ float
 267:.\sensor_CTRL.c **** 		aacc.y_axis.acceleration_lpf = aacc.y_axis.acceleration_lpf +
 263              		.loc 1 267 0
 264 01c6 40F20003 		movw	r3, #:lower16:aacc
 265 01ca C0F20003 		movt	r3, #:upper16:aacc
 266 01ce DC69     		ldr	r4, [r3, #28]	@ float
 268:.\sensor_CTRL.c **** 									gobee_param.beta.fnum * (aacc.y_axis.acceleration - aacc.y_axis.acceleration_lpf);								
 267              		.loc 1 268 0
 268 01d0 40F20003 		movw	r3, #:lower16:gobee_param
 269 01d4 C0F20003 		movt	r3, #:upper16:gobee_param
 270 01d8 5D68     		ldr	r5, [r3, #4]	@ float
 271 01da 40F20003 		movw	r3, #:lower16:aacc
 272 01de C0F20003 		movt	r3, #:upper16:aacc
 273 01e2 9A69     		ldr	r2, [r3, #24]	@ float
 274 01e4 40F20003 		movw	r3, #:lower16:aacc
 275 01e8 C0F20003 		movt	r3, #:upper16:aacc
 276 01ec DB69     		ldr	r3, [r3, #28]	@ float
 277 01ee 1046     		mov	r0, r2
 278 01f0 1946     		mov	r1, r3
 279 01f2 FFF7FEFF 		bl	__aeabi_fsub
 280 01f6 0346     		mov	r3, r0
 281 01f8 2846     		mov	r0, r5
 282 01fa 1946     		mov	r1, r3
 283 01fc FFF7FEFF 		bl	__aeabi_fmul
 284 0200 0346     		mov	r3, r0
 267:.\sensor_CTRL.c **** 		aacc.y_axis.acceleration_lpf = aacc.y_axis.acceleration_lpf +
 285              		.loc 1 267 0
 286 0202 2046     		mov	r0, r4
 287 0204 1946     		mov	r1, r3
 288 0206 FFF7FEFF 		bl	__aeabi_fadd
 289 020a 0346     		mov	r3, r0
 290 020c 1A46     		mov	r2, r3
 291 020e 40F20003 		movw	r3, #:lower16:aacc
 292 0212 C0F20003 		movt	r3, #:upper16:aacc
 293 0216 DA61     		str	r2, [r3, #28]	@ float
 269:.\sensor_CTRL.c **** 		aacc.z_axis.acceleration_lpf = aacc.z_axis.acceleration_lpf +
 294              		.loc 1 269 0
 295 0218 40F20003 		movw	r3, #:lower16:aacc
 296 021c C0F20003 		movt	r3, #:upper16:aacc
 297 0220 DC6A     		ldr	r4, [r3, #44]	@ float
 270:.\sensor_CTRL.c **** 									gobee_param.beta.fnum * (aacc.z_axis.acceleration - aacc.z_axis.acceleration_lpf);								
 298              		.loc 1 270 0
ARM GAS  C:\Users\GRAZIA~1.RAV\AppData\Local\Temp\cc7bEtse.s 			page 11


 299 0222 40F20003 		movw	r3, #:lower16:gobee_param
 300 0226 C0F20003 		movt	r3, #:upper16:gobee_param
 301 022a 5D68     		ldr	r5, [r3, #4]	@ float
 302 022c 40F20003 		movw	r3, #:lower16:aacc
 303 0230 C0F20003 		movt	r3, #:upper16:aacc
 304 0234 9A6A     		ldr	r2, [r3, #40]	@ float
 305 0236 40F20003 		movw	r3, #:lower16:aacc
 306 023a C0F20003 		movt	r3, #:upper16:aacc
 307 023e DB6A     		ldr	r3, [r3, #44]	@ float
 308 0240 1046     		mov	r0, r2
 309 0242 1946     		mov	r1, r3
 310 0244 FFF7FEFF 		bl	__aeabi_fsub
 311 0248 0346     		mov	r3, r0
 312 024a 2846     		mov	r0, r5
 313 024c 1946     		mov	r1, r3
 314 024e FFF7FEFF 		bl	__aeabi_fmul
 315 0252 0346     		mov	r3, r0
 269:.\sensor_CTRL.c **** 		aacc.z_axis.acceleration_lpf = aacc.z_axis.acceleration_lpf +
 316              		.loc 1 269 0
 317 0254 2046     		mov	r0, r4
 318 0256 1946     		mov	r1, r3
 319 0258 FFF7FEFF 		bl	__aeabi_fadd
 320 025c 0346     		mov	r3, r0
 321 025e 1A46     		mov	r2, r3
 322 0260 40F20003 		movw	r3, #:lower16:aacc
 323 0264 C0F20003 		movt	r3, #:upper16:aacc
 324 0268 DA62     		str	r2, [r3, #44]	@ float
 325              	.L3:
 271:.\sensor_CTRL.c **** 	}
 272:.\sensor_CTRL.c **** 	
 273:.\sensor_CTRL.c **** 	/************************************************************************************/
 274:.\sensor_CTRL.c **** 	/* Accelerometer Modulo Calculation		 											*/
 275:.\sensor_CTRL.c **** 	/* 																					*/
 276:.\sensor_CTRL.c **** 	/*  modulo = sqrt(x_g^2 + y_g^2 + z_g^2)  [g]										*/
 277:.\sensor_CTRL.c **** 	/************************************************************************************/
 278:.\sensor_CTRL.c **** 	aacc.squared = squaref(aacc.x_axis.acceleration_lpf) +					
 326              		.loc 1 278 0
 327 026a 40F20003 		movw	r3, #:lower16:aacc
 328 026e C0F20003 		movt	r3, #:upper16:aacc
 329 0272 DB68     		ldr	r3, [r3, #12]	@ float
 330 0274 1846     		mov	r0, r3
 331 0276 FFF7FEFF 		bl	squaref
 332 027a 0446     		mov	r4, r0
 279:.\sensor_CTRL.c **** 				   squaref(aacc.y_axis.acceleration_lpf) +		
 333              		.loc 1 279 0
 334 027c 40F20003 		movw	r3, #:lower16:aacc
 335 0280 C0F20003 		movt	r3, #:upper16:aacc
 336 0284 DB69     		ldr	r3, [r3, #28]	@ float
 337 0286 1846     		mov	r0, r3
 338 0288 FFF7FEFF 		bl	squaref
 339 028c 0346     		mov	r3, r0
 278:.\sensor_CTRL.c **** 	aacc.squared = squaref(aacc.x_axis.acceleration_lpf) +					
 340              		.loc 1 278 0
 341 028e 2046     		mov	r0, r4
 342 0290 1946     		mov	r1, r3
 343 0292 FFF7FEFF 		bl	__aeabi_fadd
 344 0296 0346     		mov	r3, r0
ARM GAS  C:\Users\GRAZIA~1.RAV\AppData\Local\Temp\cc7bEtse.s 			page 12


 345 0298 1C46     		mov	r4, r3
 280:.\sensor_CTRL.c **** 				   squaref(aacc.z_axis.acceleration_lpf);
 346              		.loc 1 280 0
 347 029a 40F20003 		movw	r3, #:lower16:aacc
 348 029e C0F20003 		movt	r3, #:upper16:aacc
 349 02a2 DB6A     		ldr	r3, [r3, #44]	@ float
 350 02a4 1846     		mov	r0, r3
 351 02a6 FFF7FEFF 		bl	squaref
 352 02aa 0346     		mov	r3, r0
 279:.\sensor_CTRL.c **** 				   squaref(aacc.y_axis.acceleration_lpf) +		
 353              		.loc 1 279 0
 354 02ac 2046     		mov	r0, r4
 355 02ae 1946     		mov	r1, r3
 356 02b0 FFF7FEFF 		bl	__aeabi_fadd
 357 02b4 0346     		mov	r3, r0
 358 02b6 1A46     		mov	r2, r3
 278:.\sensor_CTRL.c **** 	aacc.squared = squaref(aacc.x_axis.acceleration_lpf) +					
 359              		.loc 1 278 0
 360 02b8 40F20003 		movw	r3, #:lower16:aacc
 361 02bc C0F20003 		movt	r3, #:upper16:aacc
 362 02c0 1A63     		str	r2, [r3, #48]	@ float
 281:.\sensor_CTRL.c **** 				
 282:.\sensor_CTRL.c **** 	aacc.modulo = sqrt((double)aacc.squared);		
 363              		.loc 1 282 0
 364 02c2 40F20003 		movw	r3, #:lower16:aacc
 365 02c6 C0F20003 		movt	r3, #:upper16:aacc
 366 02ca 1B6B     		ldr	r3, [r3, #48]	@ float
 367 02cc 1846     		mov	r0, r3
 368 02ce FFF7FEFF 		bl	__aeabi_f2d
 369 02d2 0246     		mov	r2, r0
 370 02d4 0B46     		mov	r3, r1
 371 02d6 1046     		mov	r0, r2
 372 02d8 1946     		mov	r1, r3
 373 02da FFF7FEFF 		bl	sqrt
 374 02de 0246     		mov	r2, r0
 375 02e0 0B46     		mov	r3, r1
 376 02e2 1046     		mov	r0, r2
 377 02e4 1946     		mov	r1, r3
 378 02e6 FFF7FEFF 		bl	__aeabi_d2f
 379 02ea 0246     		mov	r2, r0
 380 02ec 40F20003 		movw	r3, #:lower16:aacc
 381 02f0 C0F20003 		movt	r3, #:upper16:aacc
 382 02f4 5A63     		str	r2, [r3, #52]	@ float
 283:.\sensor_CTRL.c **** 								
 284:.\sensor_CTRL.c **** 	/************************************************************************************/
 285:.\sensor_CTRL.c **** 	/* System Dynamic Scalar Calculation	 											*/
 286:.\sensor_CTRL.c **** 	/* 																					*/
 287:.\sensor_CTRL.c **** 	/*  system dynamic_scalar = x_g^2 + y_g^2 + z_g^2 - (1_g)^2	[g^2]					*/
 288:.\sensor_CTRL.c **** 	/************************************************************************************/
 289:.\sensor_CTRL.c **** 	aacc.system_dynamic_scalar = aacc.squared - 1;
 383              		.loc 1 289 0
 384 02f6 40F20003 		movw	r3, #:lower16:aacc
 385 02fa C0F20003 		movt	r3, #:upper16:aacc
 386 02fe 1B6B     		ldr	r3, [r3, #48]	@ float
 387 0300 1846     		mov	r0, r3
 388 0302 4FF07E51 		mov	r1, #1065353216
 389 0306 FFF7FEFF 		bl	__aeabi_fsub
ARM GAS  C:\Users\GRAZIA~1.RAV\AppData\Local\Temp\cc7bEtse.s 			page 13


 390 030a 0346     		mov	r3, r0
 391 030c 1A46     		mov	r2, r3
 392 030e 40F20003 		movw	r3, #:lower16:aacc
 393 0312 C0F20003 		movt	r3, #:upper16:aacc
 394 0316 9A63     		str	r2, [r3, #56]	@ float
 290:.\sensor_CTRL.c **** }
 395              		.loc 1 290 0
 396 0318 B0BD     		pop	{r4, r5, r7, pc}
 397              		.cfi_endproc
 398              	.LFE57:
 399              		.size	Heading_sensors_processing, .-Heading_sensors_processing
 400 031a 00BF     		.text
 401              	.Letext0:
 402              		.file 2 "c:\\program files (x86)\\cypress\\psoc creator\\3.0\\psoc creator\\import\\gnu_cs\\arm\\4
 403              		.file 3 "./Generated_Source/PSoC5/cytypes.h"
 404              		.file 4 "./gobee.h"
 405              		.file 5 "./Generated_Source/PSoC5/core_cm3.h"