ARM GAS  C:\DOCUME~1\user\IMPOST~1\Temp\ccbjPeFq.s 			page 1


   1              		.syntax unified
   2              		.cpu cortex-m3
   3              		.fpu softvfp
   4              		.eabi_attribute 20, 1
   5              		.eabi_attribute 21, 1
   6              		.eabi_attribute 23, 3
   7              		.eabi_attribute 24, 1
   8              		.eabi_attribute 25, 1
   9              		.eabi_attribute 26, 1
  10              		.eabi_attribute 30, 6
  11              		.eabi_attribute 34, 1
  12              		.eabi_attribute 18, 4
  13              		.thumb
  14              		.file	"SPIM_ITG3701.c"
  15              		.text
  16              	.Ltext0:
  17              		.cfi_sections	.debug_frame
  18              		.global	SPIM_ITG3701_initVar
  19              		.bss
  20              		.type	SPIM_ITG3701_initVar, %object
  21              		.size	SPIM_ITG3701_initVar, 1
  22              	SPIM_ITG3701_initVar:
  23 0000 00       		.space	1
  24              		.comm	SPIM_ITG3701_swStatusTx,1,1
  25              		.comm	SPIM_ITG3701_swStatusRx,1,1
  26              		.section	.text.SPIM_ITG3701_Init,"ax",%progbits
  27              		.align	2
  28              		.global	SPIM_ITG3701_Init
  29              		.thumb
  30              		.thumb_func
  31              		.type	SPIM_ITG3701_Init, %function
  32              	SPIM_ITG3701_Init:
  33              	.LFB0:
  34              		.file 1 ".\\Generated_Source\\PSoC5\\SPIM_ITG3701.c"
   1:.\Generated_Source\PSoC5/SPIM_ITG3701.c **** /*******************************************************************************
   2:.\Generated_Source\PSoC5/SPIM_ITG3701.c **** * File Name: SPIM_ITG3701.c
   3:.\Generated_Source\PSoC5/SPIM_ITG3701.c **** * Version 2.40
   4:.\Generated_Source\PSoC5/SPIM_ITG3701.c **** *
   5:.\Generated_Source\PSoC5/SPIM_ITG3701.c **** * Description:
   6:.\Generated_Source\PSoC5/SPIM_ITG3701.c **** *  This file provides all API functionality of the SPI Master component.
   7:.\Generated_Source\PSoC5/SPIM_ITG3701.c **** *
   8:.\Generated_Source\PSoC5/SPIM_ITG3701.c **** * Note:
   9:.\Generated_Source\PSoC5/SPIM_ITG3701.c **** *  None.
  10:.\Generated_Source\PSoC5/SPIM_ITG3701.c **** *
  11:.\Generated_Source\PSoC5/SPIM_ITG3701.c **** ********************************************************************************
  12:.\Generated_Source\PSoC5/SPIM_ITG3701.c **** * Copyright 2008-2012, Cypress Semiconductor Corporation.  All rights reserved.
  13:.\Generated_Source\PSoC5/SPIM_ITG3701.c **** * You may use this file only in accordance with the license, terms, conditions,
  14:.\Generated_Source\PSoC5/SPIM_ITG3701.c **** * disclaimers, and limitations in the end user license agreement accompanying
  15:.\Generated_Source\PSoC5/SPIM_ITG3701.c **** * the software package with which this file was provided.
  16:.\Generated_Source\PSoC5/SPIM_ITG3701.c **** *******************************************************************************/
  17:.\Generated_Source\PSoC5/SPIM_ITG3701.c **** 
  18:.\Generated_Source\PSoC5/SPIM_ITG3701.c **** #include "SPIM_ITG3701_PVT.h"
  19:.\Generated_Source\PSoC5/SPIM_ITG3701.c **** 
  20:.\Generated_Source\PSoC5/SPIM_ITG3701.c **** #if(SPIM_ITG3701_TX_SOFTWARE_BUF_ENABLED)
  21:.\Generated_Source\PSoC5/SPIM_ITG3701.c ****     volatile uint16 SPIM_ITG3701_txBuffer[SPIM_ITG3701_TX_BUFFER_SIZE] = {0u};
  22:.\Generated_Source\PSoC5/SPIM_ITG3701.c ****     volatile uint8 SPIM_ITG3701_txBufferFull;
  23:.\Generated_Source\PSoC5/SPIM_ITG3701.c ****     volatile uint8 SPIM_ITG3701_txBufferRead;
ARM GAS  C:\DOCUME~1\user\IMPOST~1\Temp\ccbjPeFq.s 			page 2


  24:.\Generated_Source\PSoC5/SPIM_ITG3701.c ****     volatile uint8 SPIM_ITG3701_txBufferWrite;
  25:.\Generated_Source\PSoC5/SPIM_ITG3701.c **** #endif /* (SPIM_ITG3701_TX_SOFTWARE_BUF_ENABLED) */
  26:.\Generated_Source\PSoC5/SPIM_ITG3701.c **** 
  27:.\Generated_Source\PSoC5/SPIM_ITG3701.c **** #if(SPIM_ITG3701_RX_SOFTWARE_BUF_ENABLED)
  28:.\Generated_Source\PSoC5/SPIM_ITG3701.c ****     volatile uint16 SPIM_ITG3701_rxBuffer[SPIM_ITG3701_RX_BUFFER_SIZE] = {0u};
  29:.\Generated_Source\PSoC5/SPIM_ITG3701.c ****     volatile uint8 SPIM_ITG3701_rxBufferFull;
  30:.\Generated_Source\PSoC5/SPIM_ITG3701.c ****     volatile uint8 SPIM_ITG3701_rxBufferRead;
  31:.\Generated_Source\PSoC5/SPIM_ITG3701.c ****     volatile uint8 SPIM_ITG3701_rxBufferWrite;
  32:.\Generated_Source\PSoC5/SPIM_ITG3701.c **** #endif /* (SPIM_ITG3701_RX_SOFTWARE_BUF_ENABLED) */
  33:.\Generated_Source\PSoC5/SPIM_ITG3701.c **** 
  34:.\Generated_Source\PSoC5/SPIM_ITG3701.c **** uint8 SPIM_ITG3701_initVar = 0u;
  35:.\Generated_Source\PSoC5/SPIM_ITG3701.c **** 
  36:.\Generated_Source\PSoC5/SPIM_ITG3701.c **** volatile uint8 SPIM_ITG3701_swStatusTx;
  37:.\Generated_Source\PSoC5/SPIM_ITG3701.c **** volatile uint8 SPIM_ITG3701_swStatusRx;
  38:.\Generated_Source\PSoC5/SPIM_ITG3701.c **** 
  39:.\Generated_Source\PSoC5/SPIM_ITG3701.c **** 
  40:.\Generated_Source\PSoC5/SPIM_ITG3701.c **** /*******************************************************************************
  41:.\Generated_Source\PSoC5/SPIM_ITG3701.c **** * Function Name: SPIM_ITG3701_Init
  42:.\Generated_Source\PSoC5/SPIM_ITG3701.c **** ********************************************************************************
  43:.\Generated_Source\PSoC5/SPIM_ITG3701.c **** *
  44:.\Generated_Source\PSoC5/SPIM_ITG3701.c **** * Summary:
  45:.\Generated_Source\PSoC5/SPIM_ITG3701.c **** *  Inits/Restores default SPIM configuration provided with customizer.
  46:.\Generated_Source\PSoC5/SPIM_ITG3701.c **** *
  47:.\Generated_Source\PSoC5/SPIM_ITG3701.c **** * Parameters:
  48:.\Generated_Source\PSoC5/SPIM_ITG3701.c **** *  None.
  49:.\Generated_Source\PSoC5/SPIM_ITG3701.c **** *
  50:.\Generated_Source\PSoC5/SPIM_ITG3701.c **** * Return:
  51:.\Generated_Source\PSoC5/SPIM_ITG3701.c **** *  None.
  52:.\Generated_Source\PSoC5/SPIM_ITG3701.c **** *
  53:.\Generated_Source\PSoC5/SPIM_ITG3701.c **** * Side Effects:
  54:.\Generated_Source\PSoC5/SPIM_ITG3701.c **** *  When this function is called it initializes all of the necessary parameters
  55:.\Generated_Source\PSoC5/SPIM_ITG3701.c **** *  for execution. i.e. setting the initial interrupt mask, configuring the
  56:.\Generated_Source\PSoC5/SPIM_ITG3701.c **** *  interrupt service routine, configuring the bit-counter parameters and
  57:.\Generated_Source\PSoC5/SPIM_ITG3701.c **** *  clearing the FIFO and Status Register.
  58:.\Generated_Source\PSoC5/SPIM_ITG3701.c **** *
  59:.\Generated_Source\PSoC5/SPIM_ITG3701.c **** * Reentrant:
  60:.\Generated_Source\PSoC5/SPIM_ITG3701.c **** *  No.
  61:.\Generated_Source\PSoC5/SPIM_ITG3701.c **** *
  62:.\Generated_Source\PSoC5/SPIM_ITG3701.c **** *******************************************************************************/
  63:.\Generated_Source\PSoC5/SPIM_ITG3701.c **** void SPIM_ITG3701_Init(void) 
  64:.\Generated_Source\PSoC5/SPIM_ITG3701.c **** {
  35              		.loc 1 64 0
  36              		.cfi_startproc
  37              		@ args = 0, pretend = 0, frame = 0
  38              		@ frame_needed = 1, uses_anonymous_args = 0
  39 0000 80B5     		push	{r7, lr}
  40              	.LCFI0:
  41              		.cfi_def_cfa_offset 8
  42              		.cfi_offset 7, -8
  43              		.cfi_offset 14, -4
  44 0002 00AF     		add	r7, sp, #0
  45              	.LCFI1:
  46              		.cfi_def_cfa_register 7
  65:.\Generated_Source\PSoC5/SPIM_ITG3701.c ****     /* Initialize the Bit counter */
  66:.\Generated_Source\PSoC5/SPIM_ITG3701.c ****     SPIM_ITG3701_COUNTER_PERIOD_REG = SPIM_ITG3701_BITCTR_INIT;
  47              		.loc 1 66 0
  48 0004 46F28753 		movw	r3, #25991
ARM GAS  C:\DOCUME~1\user\IMPOST~1\Temp\ccbjPeFq.s 			page 3


  49 0008 C4F20003 		movt	r3, 16384
  50 000c 4FF01F02 		mov	r2, #31
  51 0010 1A70     		strb	r2, [r3, #0]
  67:.\Generated_Source\PSoC5/SPIM_ITG3701.c **** 
  68:.\Generated_Source\PSoC5/SPIM_ITG3701.c ****     /* Init TX ISR  */
  69:.\Generated_Source\PSoC5/SPIM_ITG3701.c ****     #if(0u != SPIM_ITG3701_INTERNAL_TX_INT_ENABLED)
  70:.\Generated_Source\PSoC5/SPIM_ITG3701.c ****         CyIntDisable         (SPIM_ITG3701_TX_ISR_NUMBER);
  71:.\Generated_Source\PSoC5/SPIM_ITG3701.c ****         CyIntSetPriority     (SPIM_ITG3701_TX_ISR_NUMBER,  SPIM_ITG3701_TX_ISR_PRIORITY);
  72:.\Generated_Source\PSoC5/SPIM_ITG3701.c ****         (void) CyIntSetVector(SPIM_ITG3701_TX_ISR_NUMBER, &SPIM_ITG3701_TX_ISR);
  73:.\Generated_Source\PSoC5/SPIM_ITG3701.c ****     #endif /* (0u != SPIM_ITG3701_INTERNAL_TX_INT_ENABLED) */
  74:.\Generated_Source\PSoC5/SPIM_ITG3701.c **** 
  75:.\Generated_Source\PSoC5/SPIM_ITG3701.c ****     /* Init RX ISR  */
  76:.\Generated_Source\PSoC5/SPIM_ITG3701.c ****     #if(0u != SPIM_ITG3701_INTERNAL_RX_INT_ENABLED)
  77:.\Generated_Source\PSoC5/SPIM_ITG3701.c ****         CyIntDisable         (SPIM_ITG3701_RX_ISR_NUMBER);
  78:.\Generated_Source\PSoC5/SPIM_ITG3701.c ****         CyIntSetPriority     (SPIM_ITG3701_RX_ISR_NUMBER,  SPIM_ITG3701_RX_ISR_PRIORITY);
  79:.\Generated_Source\PSoC5/SPIM_ITG3701.c ****         (void) CyIntSetVector(SPIM_ITG3701_RX_ISR_NUMBER, &SPIM_ITG3701_RX_ISR);
  80:.\Generated_Source\PSoC5/SPIM_ITG3701.c ****     #endif /* (0u != SPIM_ITG3701_INTERNAL_RX_INT_ENABLED) */
  81:.\Generated_Source\PSoC5/SPIM_ITG3701.c **** 
  82:.\Generated_Source\PSoC5/SPIM_ITG3701.c ****     /* Clear any stray data from the RX and TX FIFO */
  83:.\Generated_Source\PSoC5/SPIM_ITG3701.c ****     SPIM_ITG3701_ClearFIFO();
  52              		.loc 1 83 0
  53 0012 FFF7FEFF 		bl	SPIM_ITG3701_ClearFIFO
  84:.\Generated_Source\PSoC5/SPIM_ITG3701.c **** 
  85:.\Generated_Source\PSoC5/SPIM_ITG3701.c ****     #if(SPIM_ITG3701_RX_SOFTWARE_BUF_ENABLED)
  86:.\Generated_Source\PSoC5/SPIM_ITG3701.c ****         SPIM_ITG3701_rxBufferFull  = 0u;
  87:.\Generated_Source\PSoC5/SPIM_ITG3701.c ****         SPIM_ITG3701_rxBufferRead  = 0u;
  88:.\Generated_Source\PSoC5/SPIM_ITG3701.c ****         SPIM_ITG3701_rxBufferWrite = 0u;
  89:.\Generated_Source\PSoC5/SPIM_ITG3701.c ****     #endif /* (SPIM_ITG3701_RX_SOFTWARE_BUF_ENABLED) */
  90:.\Generated_Source\PSoC5/SPIM_ITG3701.c **** 
  91:.\Generated_Source\PSoC5/SPIM_ITG3701.c ****     #if(SPIM_ITG3701_TX_SOFTWARE_BUF_ENABLED)
  92:.\Generated_Source\PSoC5/SPIM_ITG3701.c ****         SPIM_ITG3701_txBufferFull  = 0u;
  93:.\Generated_Source\PSoC5/SPIM_ITG3701.c ****         SPIM_ITG3701_txBufferRead  = 0u;
  94:.\Generated_Source\PSoC5/SPIM_ITG3701.c ****         SPIM_ITG3701_txBufferWrite = 0u;
  95:.\Generated_Source\PSoC5/SPIM_ITG3701.c ****     #endif /* (SPIM_ITG3701_TX_SOFTWARE_BUF_ENABLED) */
  96:.\Generated_Source\PSoC5/SPIM_ITG3701.c **** 
  97:.\Generated_Source\PSoC5/SPIM_ITG3701.c ****     (void) SPIM_ITG3701_ReadTxStatus(); /* Clear Tx status and swStatusTx */
  54              		.loc 1 97 0
  55 0016 FFF7FEFF 		bl	SPIM_ITG3701_ReadTxStatus
  98:.\Generated_Source\PSoC5/SPIM_ITG3701.c ****     (void) SPIM_ITG3701_ReadRxStatus(); /* Clear Rx status and swStatusRx */
  56              		.loc 1 98 0
  57 001a FFF7FEFF 		bl	SPIM_ITG3701_ReadRxStatus
  99:.\Generated_Source\PSoC5/SPIM_ITG3701.c **** 
 100:.\Generated_Source\PSoC5/SPIM_ITG3701.c ****     /* Configure TX and RX interrupt mask */
 101:.\Generated_Source\PSoC5/SPIM_ITG3701.c ****     SPIM_ITG3701_TX_STATUS_MASK_REG = SPIM_ITG3701_TX_INIT_INTERRUPTS_MASK;
  58              		.loc 1 101 0
  59 001e 46F28243 		movw	r3, #25730
  60 0022 C4F20003 		movt	r3, 16384
  61 0026 4FF00002 		mov	r2, #0
  62 002a 1A70     		strb	r2, [r3, #0]
 102:.\Generated_Source\PSoC5/SPIM_ITG3701.c ****     SPIM_ITG3701_RX_STATUS_MASK_REG = SPIM_ITG3701_RX_INIT_INTERRUPTS_MASK;
  63              		.loc 1 102 0
  64 002c 46F28643 		movw	r3, #25734
  65 0030 C4F20003 		movt	r3, 16384
  66 0034 4FF00002 		mov	r2, #0
  67 0038 1A70     		strb	r2, [r3, #0]
 103:.\Generated_Source\PSoC5/SPIM_ITG3701.c **** }
  68              		.loc 1 103 0
ARM GAS  C:\DOCUME~1\user\IMPOST~1\Temp\ccbjPeFq.s 			page 4


  69 003a 80BD     		pop	{r7, pc}
  70              		.cfi_endproc
  71              	.LFE0:
  72              		.size	SPIM_ITG3701_Init, .-SPIM_ITG3701_Init
  73              		.section	.text.SPIM_ITG3701_Enable,"ax",%progbits
  74              		.align	2
  75              		.global	SPIM_ITG3701_Enable
  76              		.thumb
  77              		.thumb_func
  78              		.type	SPIM_ITG3701_Enable, %function
  79              	SPIM_ITG3701_Enable:
  80              	.LFB1:
 104:.\Generated_Source\PSoC5/SPIM_ITG3701.c **** 
 105:.\Generated_Source\PSoC5/SPIM_ITG3701.c **** 
 106:.\Generated_Source\PSoC5/SPIM_ITG3701.c **** /*******************************************************************************
 107:.\Generated_Source\PSoC5/SPIM_ITG3701.c **** * Function Name: SPIM_ITG3701_Enable
 108:.\Generated_Source\PSoC5/SPIM_ITG3701.c **** ********************************************************************************
 109:.\Generated_Source\PSoC5/SPIM_ITG3701.c **** *
 110:.\Generated_Source\PSoC5/SPIM_ITG3701.c **** * Summary:
 111:.\Generated_Source\PSoC5/SPIM_ITG3701.c **** *  Enable SPIM component.
 112:.\Generated_Source\PSoC5/SPIM_ITG3701.c **** *
 113:.\Generated_Source\PSoC5/SPIM_ITG3701.c **** * Parameters:
 114:.\Generated_Source\PSoC5/SPIM_ITG3701.c **** *  None.
 115:.\Generated_Source\PSoC5/SPIM_ITG3701.c **** *
 116:.\Generated_Source\PSoC5/SPIM_ITG3701.c **** * Return:
 117:.\Generated_Source\PSoC5/SPIM_ITG3701.c **** *  None.
 118:.\Generated_Source\PSoC5/SPIM_ITG3701.c **** *
 119:.\Generated_Source\PSoC5/SPIM_ITG3701.c **** *******************************************************************************/
 120:.\Generated_Source\PSoC5/SPIM_ITG3701.c **** void SPIM_ITG3701_Enable(void) 
 121:.\Generated_Source\PSoC5/SPIM_ITG3701.c **** {
  81              		.loc 1 121 0
  82              		.cfi_startproc
  83              		@ args = 0, pretend = 0, frame = 8
  84              		@ frame_needed = 1, uses_anonymous_args = 0
  85 0000 80B5     		push	{r7, lr}
  86              	.LCFI2:
  87              		.cfi_def_cfa_offset 8
  88              		.cfi_offset 7, -8
  89              		.cfi_offset 14, -4
  90 0002 82B0     		sub	sp, sp, #8
  91              	.LCFI3:
  92              		.cfi_def_cfa_offset 16
  93 0004 00AF     		add	r7, sp, #0
  94              	.LCFI4:
  95              		.cfi_def_cfa_register 7
 122:.\Generated_Source\PSoC5/SPIM_ITG3701.c ****     uint8 enableInterrupts;
 123:.\Generated_Source\PSoC5/SPIM_ITG3701.c **** 
 124:.\Generated_Source\PSoC5/SPIM_ITG3701.c ****     enableInterrupts = CyEnterCriticalSection();
  96              		.loc 1 124 0
  97 0006 FFF7FEFF 		bl	CyEnterCriticalSection
  98 000a 0346     		mov	r3, r0
  99 000c FB71     		strb	r3, [r7, #7]
 125:.\Generated_Source\PSoC5/SPIM_ITG3701.c ****     SPIM_ITG3701_COUNTER_CONTROL_REG |= SPIM_ITG3701_CNTR_ENABLE;
 100              		.loc 1 125 0
 101 000e 46F29753 		movw	r3, #26007
 102 0012 C4F20003 		movt	r3, 16384
 103 0016 46F29752 		movw	r2, #26007
ARM GAS  C:\DOCUME~1\user\IMPOST~1\Temp\ccbjPeFq.s 			page 5


 104 001a C4F20002 		movt	r2, 16384
 105 001e 1278     		ldrb	r2, [r2, #0]
 106 0020 D2B2     		uxtb	r2, r2
 107 0022 42F02002 		orr	r2, r2, #32
 108 0026 D2B2     		uxtb	r2, r2
 109 0028 1A70     		strb	r2, [r3, #0]
 126:.\Generated_Source\PSoC5/SPIM_ITG3701.c ****     SPIM_ITG3701_TX_STATUS_ACTL_REG  |= SPIM_ITG3701_INT_ENABLE;
 110              		.loc 1 126 0
 111 002a 46F29243 		movw	r3, #25746
 112 002e C4F20003 		movt	r3, 16384
 113 0032 46F29242 		movw	r2, #25746
 114 0036 C4F20002 		movt	r2, 16384
 115 003a 1278     		ldrb	r2, [r2, #0]
 116 003c D2B2     		uxtb	r2, r2
 117 003e 42F01002 		orr	r2, r2, #16
 118 0042 D2B2     		uxtb	r2, r2
 119 0044 1A70     		strb	r2, [r3, #0]
 127:.\Generated_Source\PSoC5/SPIM_ITG3701.c ****     SPIM_ITG3701_RX_STATUS_ACTL_REG  |= SPIM_ITG3701_INT_ENABLE;
 120              		.loc 1 127 0
 121 0046 46F29643 		movw	r3, #25750
 122 004a C4F20003 		movt	r3, 16384
 123 004e 46F29642 		movw	r2, #25750
 124 0052 C4F20002 		movt	r2, 16384
 125 0056 1278     		ldrb	r2, [r2, #0]
 126 0058 D2B2     		uxtb	r2, r2
 127 005a 42F01002 		orr	r2, r2, #16
 128 005e D2B2     		uxtb	r2, r2
 129 0060 1A70     		strb	r2, [r3, #0]
 128:.\Generated_Source\PSoC5/SPIM_ITG3701.c ****     CyExitCriticalSection(enableInterrupts);
 130              		.loc 1 128 0
 131 0062 FB79     		ldrb	r3, [r7, #7]	@ zero_extendqisi2
 132 0064 1846     		mov	r0, r3
 133 0066 FFF7FEFF 		bl	CyExitCriticalSection
 129:.\Generated_Source\PSoC5/SPIM_ITG3701.c **** 
 130:.\Generated_Source\PSoC5/SPIM_ITG3701.c ****     #if(0u != SPIM_ITG3701_INTERNAL_CLOCK)
 131:.\Generated_Source\PSoC5/SPIM_ITG3701.c ****         SPIM_ITG3701_IntClock_Enable();
 134              		.loc 1 131 0
 135 006a FFF7FEFF 		bl	SPIM_ITG3701_IntClock_Start
 132:.\Generated_Source\PSoC5/SPIM_ITG3701.c ****     #endif /* (0u != SPIM_ITG3701_INTERNAL_CLOCK) */
 133:.\Generated_Source\PSoC5/SPIM_ITG3701.c **** 
 134:.\Generated_Source\PSoC5/SPIM_ITG3701.c ****     SPIM_ITG3701_EnableTxInt();
 136              		.loc 1 134 0
 137 006e FFF7FEFF 		bl	SPIM_ITG3701_EnableTxInt
 135:.\Generated_Source\PSoC5/SPIM_ITG3701.c ****     SPIM_ITG3701_EnableRxInt();
 138              		.loc 1 135 0
 139 0072 FFF7FEFF 		bl	SPIM_ITG3701_EnableRxInt
 136:.\Generated_Source\PSoC5/SPIM_ITG3701.c **** }
 140              		.loc 1 136 0
 141 0076 07F10807 		add	r7, r7, #8
 142 007a BD46     		mov	sp, r7
 143 007c 80BD     		pop	{r7, pc}
 144              		.cfi_endproc
 145              	.LFE1:
 146              		.size	SPIM_ITG3701_Enable, .-SPIM_ITG3701_Enable
 147 007e 00BF     		.section	.text.SPIM_ITG3701_Start,"ax",%progbits
 148              		.align	2
 149              		.global	SPIM_ITG3701_Start
ARM GAS  C:\DOCUME~1\user\IMPOST~1\Temp\ccbjPeFq.s 			page 6


 150              		.thumb
 151              		.thumb_func
 152              		.type	SPIM_ITG3701_Start, %function
 153              	SPIM_ITG3701_Start:
 154              	.LFB2:
 137:.\Generated_Source\PSoC5/SPIM_ITG3701.c **** 
 138:.\Generated_Source\PSoC5/SPIM_ITG3701.c **** 
 139:.\Generated_Source\PSoC5/SPIM_ITG3701.c **** /*******************************************************************************
 140:.\Generated_Source\PSoC5/SPIM_ITG3701.c **** * Function Name: SPIM_ITG3701_Start
 141:.\Generated_Source\PSoC5/SPIM_ITG3701.c **** ********************************************************************************
 142:.\Generated_Source\PSoC5/SPIM_ITG3701.c **** *
 143:.\Generated_Source\PSoC5/SPIM_ITG3701.c **** * Summary:
 144:.\Generated_Source\PSoC5/SPIM_ITG3701.c **** *  Initialize and Enable the SPI Master component.
 145:.\Generated_Source\PSoC5/SPIM_ITG3701.c **** *
 146:.\Generated_Source\PSoC5/SPIM_ITG3701.c **** * Parameters:
 147:.\Generated_Source\PSoC5/SPIM_ITG3701.c **** *  None.
 148:.\Generated_Source\PSoC5/SPIM_ITG3701.c **** *
 149:.\Generated_Source\PSoC5/SPIM_ITG3701.c **** * Return:
 150:.\Generated_Source\PSoC5/SPIM_ITG3701.c **** *  None.
 151:.\Generated_Source\PSoC5/SPIM_ITG3701.c **** *
 152:.\Generated_Source\PSoC5/SPIM_ITG3701.c **** * Global variables:
 153:.\Generated_Source\PSoC5/SPIM_ITG3701.c **** *  SPIM_ITG3701_initVar - used to check initial configuration, modified on
 154:.\Generated_Source\PSoC5/SPIM_ITG3701.c **** *  first function call.
 155:.\Generated_Source\PSoC5/SPIM_ITG3701.c **** *
 156:.\Generated_Source\PSoC5/SPIM_ITG3701.c **** * Theory:
 157:.\Generated_Source\PSoC5/SPIM_ITG3701.c **** *  Enable the clock input to enable operation.
 158:.\Generated_Source\PSoC5/SPIM_ITG3701.c **** *
 159:.\Generated_Source\PSoC5/SPIM_ITG3701.c **** * Reentrant:
 160:.\Generated_Source\PSoC5/SPIM_ITG3701.c **** *  No.
 161:.\Generated_Source\PSoC5/SPIM_ITG3701.c **** *
 162:.\Generated_Source\PSoC5/SPIM_ITG3701.c **** *******************************************************************************/
 163:.\Generated_Source\PSoC5/SPIM_ITG3701.c **** void SPIM_ITG3701_Start(void) 
 164:.\Generated_Source\PSoC5/SPIM_ITG3701.c **** {
 155              		.loc 1 164 0
 156              		.cfi_startproc
 157              		@ args = 0, pretend = 0, frame = 0
 158              		@ frame_needed = 1, uses_anonymous_args = 0
 159 0000 80B5     		push	{r7, lr}
 160              	.LCFI5:
 161              		.cfi_def_cfa_offset 8
 162              		.cfi_offset 7, -8
 163              		.cfi_offset 14, -4
 164 0002 00AF     		add	r7, sp, #0
 165              	.LCFI6:
 166              		.cfi_def_cfa_register 7
 165:.\Generated_Source\PSoC5/SPIM_ITG3701.c ****     if(0u == SPIM_ITG3701_initVar)
 167              		.loc 1 165 0
 168 0004 40F20003 		movw	r3, #:lower16:SPIM_ITG3701_initVar
 169 0008 C0F20003 		movt	r3, #:upper16:SPIM_ITG3701_initVar
 170 000c 1B78     		ldrb	r3, [r3, #0]	@ zero_extendqisi2
 171 000e 002B     		cmp	r3, #0
 172 0010 08D1     		bne	.L4
 166:.\Generated_Source\PSoC5/SPIM_ITG3701.c ****     {
 167:.\Generated_Source\PSoC5/SPIM_ITG3701.c ****         SPIM_ITG3701_Init();
 173              		.loc 1 167 0
 174 0012 FFF7FEFF 		bl	SPIM_ITG3701_Init
 168:.\Generated_Source\PSoC5/SPIM_ITG3701.c ****         SPIM_ITG3701_initVar = 1u;
ARM GAS  C:\DOCUME~1\user\IMPOST~1\Temp\ccbjPeFq.s 			page 7


 175              		.loc 1 168 0
 176 0016 40F20003 		movw	r3, #:lower16:SPIM_ITG3701_initVar
 177 001a C0F20003 		movt	r3, #:upper16:SPIM_ITG3701_initVar
 178 001e 4FF00102 		mov	r2, #1
 179 0022 1A70     		strb	r2, [r3, #0]
 180              	.L4:
 169:.\Generated_Source\PSoC5/SPIM_ITG3701.c ****     }
 170:.\Generated_Source\PSoC5/SPIM_ITG3701.c **** 
 171:.\Generated_Source\PSoC5/SPIM_ITG3701.c ****     SPIM_ITG3701_Enable();
 181              		.loc 1 171 0
 182 0024 FFF7FEFF 		bl	SPIM_ITG3701_Enable
 172:.\Generated_Source\PSoC5/SPIM_ITG3701.c **** }
 183              		.loc 1 172 0
 184 0028 80BD     		pop	{r7, pc}
 185              		.cfi_endproc
 186              	.LFE2:
 187              		.size	SPIM_ITG3701_Start, .-SPIM_ITG3701_Start
 188 002a 00BF     		.section	.text.SPIM_ITG3701_Stop,"ax",%progbits
 189              		.align	2
 190              		.global	SPIM_ITG3701_Stop
 191              		.thumb
 192              		.thumb_func
 193              		.type	SPIM_ITG3701_Stop, %function
 194              	SPIM_ITG3701_Stop:
 195              	.LFB3:
 173:.\Generated_Source\PSoC5/SPIM_ITG3701.c **** 
 174:.\Generated_Source\PSoC5/SPIM_ITG3701.c **** 
 175:.\Generated_Source\PSoC5/SPIM_ITG3701.c **** /*******************************************************************************
 176:.\Generated_Source\PSoC5/SPIM_ITG3701.c **** * Function Name: SPIM_ITG3701_Stop
 177:.\Generated_Source\PSoC5/SPIM_ITG3701.c **** ********************************************************************************
 178:.\Generated_Source\PSoC5/SPIM_ITG3701.c **** *
 179:.\Generated_Source\PSoC5/SPIM_ITG3701.c **** * Summary:
 180:.\Generated_Source\PSoC5/SPIM_ITG3701.c **** *  Disable the SPI Master component.
 181:.\Generated_Source\PSoC5/SPIM_ITG3701.c **** *
 182:.\Generated_Source\PSoC5/SPIM_ITG3701.c **** * Parameters:
 183:.\Generated_Source\PSoC5/SPIM_ITG3701.c **** *  None.
 184:.\Generated_Source\PSoC5/SPIM_ITG3701.c **** *
 185:.\Generated_Source\PSoC5/SPIM_ITG3701.c **** * Return:
 186:.\Generated_Source\PSoC5/SPIM_ITG3701.c **** *  None.
 187:.\Generated_Source\PSoC5/SPIM_ITG3701.c **** *
 188:.\Generated_Source\PSoC5/SPIM_ITG3701.c **** * Theory:
 189:.\Generated_Source\PSoC5/SPIM_ITG3701.c **** *  Disable the clock input to enable operation.
 190:.\Generated_Source\PSoC5/SPIM_ITG3701.c **** *
 191:.\Generated_Source\PSoC5/SPIM_ITG3701.c **** *******************************************************************************/
 192:.\Generated_Source\PSoC5/SPIM_ITG3701.c **** void SPIM_ITG3701_Stop(void) 
 193:.\Generated_Source\PSoC5/SPIM_ITG3701.c **** {
 196              		.loc 1 193 0
 197              		.cfi_startproc
 198              		@ args = 0, pretend = 0, frame = 8
 199              		@ frame_needed = 1, uses_anonymous_args = 0
 200 0000 80B5     		push	{r7, lr}
 201              	.LCFI7:
 202              		.cfi_def_cfa_offset 8
 203              		.cfi_offset 7, -8
 204              		.cfi_offset 14, -4
 205 0002 82B0     		sub	sp, sp, #8
 206              	.LCFI8:
ARM GAS  C:\DOCUME~1\user\IMPOST~1\Temp\ccbjPeFq.s 			page 8


 207              		.cfi_def_cfa_offset 16
 208 0004 00AF     		add	r7, sp, #0
 209              	.LCFI9:
 210              		.cfi_def_cfa_register 7
 194:.\Generated_Source\PSoC5/SPIM_ITG3701.c ****     uint8 enableInterrupts;
 195:.\Generated_Source\PSoC5/SPIM_ITG3701.c **** 
 196:.\Generated_Source\PSoC5/SPIM_ITG3701.c ****     enableInterrupts = CyEnterCriticalSection();
 211              		.loc 1 196 0
 212 0006 FFF7FEFF 		bl	CyEnterCriticalSection
 213 000a 0346     		mov	r3, r0
 214 000c FB71     		strb	r3, [r7, #7]
 197:.\Generated_Source\PSoC5/SPIM_ITG3701.c ****     SPIM_ITG3701_TX_STATUS_ACTL_REG &= ((uint8) ~SPIM_ITG3701_INT_ENABLE);
 215              		.loc 1 197 0
 216 000e 46F29243 		movw	r3, #25746
 217 0012 C4F20003 		movt	r3, 16384
 218 0016 46F29242 		movw	r2, #25746
 219 001a C4F20002 		movt	r2, 16384
 220 001e 1278     		ldrb	r2, [r2, #0]
 221 0020 D2B2     		uxtb	r2, r2
 222 0022 22F01002 		bic	r2, r2, #16
 223 0026 D2B2     		uxtb	r2, r2
 224 0028 1A70     		strb	r2, [r3, #0]
 198:.\Generated_Source\PSoC5/SPIM_ITG3701.c ****     SPIM_ITG3701_RX_STATUS_ACTL_REG &= ((uint8) ~SPIM_ITG3701_INT_ENABLE);
 225              		.loc 1 198 0
 226 002a 46F29643 		movw	r3, #25750
 227 002e C4F20003 		movt	r3, 16384
 228 0032 46F29642 		movw	r2, #25750
 229 0036 C4F20002 		movt	r2, 16384
 230 003a 1278     		ldrb	r2, [r2, #0]
 231 003c D2B2     		uxtb	r2, r2
 232 003e 22F01002 		bic	r2, r2, #16
 233 0042 D2B2     		uxtb	r2, r2
 234 0044 1A70     		strb	r2, [r3, #0]
 199:.\Generated_Source\PSoC5/SPIM_ITG3701.c ****     CyExitCriticalSection(enableInterrupts);
 235              		.loc 1 199 0
 236 0046 FB79     		ldrb	r3, [r7, #7]	@ zero_extendqisi2
 237 0048 1846     		mov	r0, r3
 238 004a FFF7FEFF 		bl	CyExitCriticalSection
 200:.\Generated_Source\PSoC5/SPIM_ITG3701.c **** 
 201:.\Generated_Source\PSoC5/SPIM_ITG3701.c ****     #if(0u != SPIM_ITG3701_INTERNAL_CLOCK)
 202:.\Generated_Source\PSoC5/SPIM_ITG3701.c ****         SPIM_ITG3701_IntClock_Disable();
 239              		.loc 1 202 0
 240 004e FFF7FEFF 		bl	SPIM_ITG3701_IntClock_Stop
 203:.\Generated_Source\PSoC5/SPIM_ITG3701.c ****     #endif /* (0u != SPIM_ITG3701_INTERNAL_CLOCK) */
 204:.\Generated_Source\PSoC5/SPIM_ITG3701.c **** 
 205:.\Generated_Source\PSoC5/SPIM_ITG3701.c ****     SPIM_ITG3701_DisableTxInt();
 241              		.loc 1 205 0
 242 0052 FFF7FEFF 		bl	SPIM_ITG3701_DisableTxInt
 206:.\Generated_Source\PSoC5/SPIM_ITG3701.c ****     SPIM_ITG3701_DisableRxInt();
 243              		.loc 1 206 0
 244 0056 FFF7FEFF 		bl	SPIM_ITG3701_DisableRxInt
 207:.\Generated_Source\PSoC5/SPIM_ITG3701.c **** }
 245              		.loc 1 207 0
 246 005a 07F10807 		add	r7, r7, #8
 247 005e BD46     		mov	sp, r7
 248 0060 80BD     		pop	{r7, pc}
 249              		.cfi_endproc
ARM GAS  C:\DOCUME~1\user\IMPOST~1\Temp\ccbjPeFq.s 			page 9


 250              	.LFE3:
 251              		.size	SPIM_ITG3701_Stop, .-SPIM_ITG3701_Stop
 252 0062 00BF     		.section	.text.SPIM_ITG3701_EnableTxInt,"ax",%progbits
 253              		.align	2
 254              		.global	SPIM_ITG3701_EnableTxInt
 255              		.thumb
 256              		.thumb_func
 257              		.type	SPIM_ITG3701_EnableTxInt, %function
 258              	SPIM_ITG3701_EnableTxInt:
 259              	.LFB4:
 208:.\Generated_Source\PSoC5/SPIM_ITG3701.c **** 
 209:.\Generated_Source\PSoC5/SPIM_ITG3701.c **** 
 210:.\Generated_Source\PSoC5/SPIM_ITG3701.c **** /*******************************************************************************
 211:.\Generated_Source\PSoC5/SPIM_ITG3701.c **** * Function Name: SPIM_ITG3701_EnableTxInt
 212:.\Generated_Source\PSoC5/SPIM_ITG3701.c **** ********************************************************************************
 213:.\Generated_Source\PSoC5/SPIM_ITG3701.c **** *
 214:.\Generated_Source\PSoC5/SPIM_ITG3701.c **** * Summary:
 215:.\Generated_Source\PSoC5/SPIM_ITG3701.c **** *  Enable internal Tx interrupt generation.
 216:.\Generated_Source\PSoC5/SPIM_ITG3701.c **** *
 217:.\Generated_Source\PSoC5/SPIM_ITG3701.c **** * Parameters:
 218:.\Generated_Source\PSoC5/SPIM_ITG3701.c **** *  None.
 219:.\Generated_Source\PSoC5/SPIM_ITG3701.c **** *
 220:.\Generated_Source\PSoC5/SPIM_ITG3701.c **** * Return:
 221:.\Generated_Source\PSoC5/SPIM_ITG3701.c **** *  None.
 222:.\Generated_Source\PSoC5/SPIM_ITG3701.c **** *
 223:.\Generated_Source\PSoC5/SPIM_ITG3701.c **** * Theory:
 224:.\Generated_Source\PSoC5/SPIM_ITG3701.c **** *  Enable the internal Tx interrupt output -or- the interrupt component itself.
 225:.\Generated_Source\PSoC5/SPIM_ITG3701.c **** *
 226:.\Generated_Source\PSoC5/SPIM_ITG3701.c **** *******************************************************************************/
 227:.\Generated_Source\PSoC5/SPIM_ITG3701.c **** void SPIM_ITG3701_EnableTxInt(void) 
 228:.\Generated_Source\PSoC5/SPIM_ITG3701.c **** {
 260              		.loc 1 228 0
 261              		.cfi_startproc
 262              		@ args = 0, pretend = 0, frame = 0
 263              		@ frame_needed = 1, uses_anonymous_args = 0
 264              		@ link register save eliminated.
 265 0000 80B4     		push	{r7}
 266              	.LCFI10:
 267              		.cfi_def_cfa_offset 4
 268              		.cfi_offset 7, -4
 269 0002 00AF     		add	r7, sp, #0
 270              	.LCFI11:
 271              		.cfi_def_cfa_register 7
 229:.\Generated_Source\PSoC5/SPIM_ITG3701.c ****     #if(0u != SPIM_ITG3701_INTERNAL_TX_INT_ENABLED)
 230:.\Generated_Source\PSoC5/SPIM_ITG3701.c ****         CyIntEnable(SPIM_ITG3701_TX_ISR_NUMBER);
 231:.\Generated_Source\PSoC5/SPIM_ITG3701.c ****     #endif /* (0u != SPIM_ITG3701_INTERNAL_TX_INT_ENABLED) */
 232:.\Generated_Source\PSoC5/SPIM_ITG3701.c **** }
 272              		.loc 1 232 0
 273 0004 BD46     		mov	sp, r7
 274 0006 80BC     		pop	{r7}
 275 0008 7047     		bx	lr
 276              		.cfi_endproc
 277              	.LFE4:
 278              		.size	SPIM_ITG3701_EnableTxInt, .-SPIM_ITG3701_EnableTxInt
 279 000a 00BF     		.section	.text.SPIM_ITG3701_EnableRxInt,"ax",%progbits
 280              		.align	2
 281              		.global	SPIM_ITG3701_EnableRxInt
ARM GAS  C:\DOCUME~1\user\IMPOST~1\Temp\ccbjPeFq.s 			page 10


 282              		.thumb
 283              		.thumb_func
 284              		.type	SPIM_ITG3701_EnableRxInt, %function
 285              	SPIM_ITG3701_EnableRxInt:
 286              	.LFB5:
 233:.\Generated_Source\PSoC5/SPIM_ITG3701.c **** 
 234:.\Generated_Source\PSoC5/SPIM_ITG3701.c **** 
 235:.\Generated_Source\PSoC5/SPIM_ITG3701.c **** /*******************************************************************************
 236:.\Generated_Source\PSoC5/SPIM_ITG3701.c **** * Function Name: SPIM_ITG3701_EnableRxInt
 237:.\Generated_Source\PSoC5/SPIM_ITG3701.c **** ********************************************************************************
 238:.\Generated_Source\PSoC5/SPIM_ITG3701.c **** *
 239:.\Generated_Source\PSoC5/SPIM_ITG3701.c **** * Summary:
 240:.\Generated_Source\PSoC5/SPIM_ITG3701.c **** *  Enable internal Rx interrupt generation.
 241:.\Generated_Source\PSoC5/SPIM_ITG3701.c **** *
 242:.\Generated_Source\PSoC5/SPIM_ITG3701.c **** * Parameters:
 243:.\Generated_Source\PSoC5/SPIM_ITG3701.c **** *  None.
 244:.\Generated_Source\PSoC5/SPIM_ITG3701.c **** *
 245:.\Generated_Source\PSoC5/SPIM_ITG3701.c **** * Return:
 246:.\Generated_Source\PSoC5/SPIM_ITG3701.c **** *  None.
 247:.\Generated_Source\PSoC5/SPIM_ITG3701.c **** *
 248:.\Generated_Source\PSoC5/SPIM_ITG3701.c **** * Theory:
 249:.\Generated_Source\PSoC5/SPIM_ITG3701.c **** *  Enable the internal Rx interrupt output -or- the interrupt component itself.
 250:.\Generated_Source\PSoC5/SPIM_ITG3701.c **** *
 251:.\Generated_Source\PSoC5/SPIM_ITG3701.c **** *******************************************************************************/
 252:.\Generated_Source\PSoC5/SPIM_ITG3701.c **** void SPIM_ITG3701_EnableRxInt(void) 
 253:.\Generated_Source\PSoC5/SPIM_ITG3701.c **** {
 287              		.loc 1 253 0
 288              		.cfi_startproc
 289              		@ args = 0, pretend = 0, frame = 0
 290              		@ frame_needed = 1, uses_anonymous_args = 0
 291              		@ link register save eliminated.
 292 0000 80B4     		push	{r7}
 293              	.LCFI12:
 294              		.cfi_def_cfa_offset 4
 295              		.cfi_offset 7, -4
 296 0002 00AF     		add	r7, sp, #0
 297              	.LCFI13:
 298              		.cfi_def_cfa_register 7
 254:.\Generated_Source\PSoC5/SPIM_ITG3701.c ****     #if(0u != SPIM_ITG3701_INTERNAL_RX_INT_ENABLED)
 255:.\Generated_Source\PSoC5/SPIM_ITG3701.c ****         CyIntEnable(SPIM_ITG3701_RX_ISR_NUMBER);
 256:.\Generated_Source\PSoC5/SPIM_ITG3701.c ****     #endif /* (0u != SPIM_ITG3701_INTERNAL_RX_INT_ENABLED) */
 257:.\Generated_Source\PSoC5/SPIM_ITG3701.c **** }
 299              		.loc 1 257 0
 300 0004 BD46     		mov	sp, r7
 301 0006 80BC     		pop	{r7}
 302 0008 7047     		bx	lr
 303              		.cfi_endproc
 304              	.LFE5:
 305              		.size	SPIM_ITG3701_EnableRxInt, .-SPIM_ITG3701_EnableRxInt
 306 000a 00BF     		.section	.text.SPIM_ITG3701_DisableTxInt,"ax",%progbits
 307              		.align	2
 308              		.global	SPIM_ITG3701_DisableTxInt
 309              		.thumb
 310              		.thumb_func
 311              		.type	SPIM_ITG3701_DisableTxInt, %function
 312              	SPIM_ITG3701_DisableTxInt:
 313              	.LFB6:
ARM GAS  C:\DOCUME~1\user\IMPOST~1\Temp\ccbjPeFq.s 			page 11


 258:.\Generated_Source\PSoC5/SPIM_ITG3701.c **** 
 259:.\Generated_Source\PSoC5/SPIM_ITG3701.c **** 
 260:.\Generated_Source\PSoC5/SPIM_ITG3701.c **** /*******************************************************************************
 261:.\Generated_Source\PSoC5/SPIM_ITG3701.c **** * Function Name: SPIM_ITG3701_DisableTxInt
 262:.\Generated_Source\PSoC5/SPIM_ITG3701.c **** ********************************************************************************
 263:.\Generated_Source\PSoC5/SPIM_ITG3701.c **** *
 264:.\Generated_Source\PSoC5/SPIM_ITG3701.c **** * Summary:
 265:.\Generated_Source\PSoC5/SPIM_ITG3701.c **** *  Disable internal Tx interrupt generation.
 266:.\Generated_Source\PSoC5/SPIM_ITG3701.c **** *
 267:.\Generated_Source\PSoC5/SPIM_ITG3701.c **** * Parameters:
 268:.\Generated_Source\PSoC5/SPIM_ITG3701.c **** *  None.
 269:.\Generated_Source\PSoC5/SPIM_ITG3701.c **** *
 270:.\Generated_Source\PSoC5/SPIM_ITG3701.c **** * Return:
 271:.\Generated_Source\PSoC5/SPIM_ITG3701.c **** *  None.
 272:.\Generated_Source\PSoC5/SPIM_ITG3701.c **** *
 273:.\Generated_Source\PSoC5/SPIM_ITG3701.c **** * Theory:
 274:.\Generated_Source\PSoC5/SPIM_ITG3701.c **** *  Disable the internal Tx interrupt output -or- the interrupt component itself.
 275:.\Generated_Source\PSoC5/SPIM_ITG3701.c **** *
 276:.\Generated_Source\PSoC5/SPIM_ITG3701.c **** *******************************************************************************/
 277:.\Generated_Source\PSoC5/SPIM_ITG3701.c **** void SPIM_ITG3701_DisableTxInt(void) 
 278:.\Generated_Source\PSoC5/SPIM_ITG3701.c **** {
 314              		.loc 1 278 0
 315              		.cfi_startproc
 316              		@ args = 0, pretend = 0, frame = 0
 317              		@ frame_needed = 1, uses_anonymous_args = 0
 318              		@ link register save eliminated.
 319 0000 80B4     		push	{r7}
 320              	.LCFI14:
 321              		.cfi_def_cfa_offset 4
 322              		.cfi_offset 7, -4
 323 0002 00AF     		add	r7, sp, #0
 324              	.LCFI15:
 325              		.cfi_def_cfa_register 7
 279:.\Generated_Source\PSoC5/SPIM_ITG3701.c ****     #if(0u != SPIM_ITG3701_INTERNAL_TX_INT_ENABLED)
 280:.\Generated_Source\PSoC5/SPIM_ITG3701.c ****         CyIntDisable(SPIM_ITG3701_TX_ISR_NUMBER);
 281:.\Generated_Source\PSoC5/SPIM_ITG3701.c ****     #endif /* (0u != SPIM_ITG3701_INTERNAL_TX_INT_ENABLED) */
 282:.\Generated_Source\PSoC5/SPIM_ITG3701.c **** }
 326              		.loc 1 282 0
 327 0004 BD46     		mov	sp, r7
 328 0006 80BC     		pop	{r7}
 329 0008 7047     		bx	lr
 330              		.cfi_endproc
 331              	.LFE6:
 332              		.size	SPIM_ITG3701_DisableTxInt, .-SPIM_ITG3701_DisableTxInt
 333 000a 00BF     		.section	.text.SPIM_ITG3701_DisableRxInt,"ax",%progbits
 334              		.align	2
 335              		.global	SPIM_ITG3701_DisableRxInt
 336              		.thumb
 337              		.thumb_func
 338              		.type	SPIM_ITG3701_DisableRxInt, %function
 339              	SPIM_ITG3701_DisableRxInt:
 340              	.LFB7:
 283:.\Generated_Source\PSoC5/SPIM_ITG3701.c **** 
 284:.\Generated_Source\PSoC5/SPIM_ITG3701.c **** 
 285:.\Generated_Source\PSoC5/SPIM_ITG3701.c **** /*******************************************************************************
 286:.\Generated_Source\PSoC5/SPIM_ITG3701.c **** * Function Name: SPIM_ITG3701_DisableRxInt
 287:.\Generated_Source\PSoC5/SPIM_ITG3701.c **** ********************************************************************************
ARM GAS  C:\DOCUME~1\user\IMPOST~1\Temp\ccbjPeFq.s 			page 12


 288:.\Generated_Source\PSoC5/SPIM_ITG3701.c **** *
 289:.\Generated_Source\PSoC5/SPIM_ITG3701.c **** * Summary:
 290:.\Generated_Source\PSoC5/SPIM_ITG3701.c **** *  Disable internal Rx interrupt generation.
 291:.\Generated_Source\PSoC5/SPIM_ITG3701.c **** *
 292:.\Generated_Source\PSoC5/SPIM_ITG3701.c **** * Parameters:
 293:.\Generated_Source\PSoC5/SPIM_ITG3701.c **** *  None.
 294:.\Generated_Source\PSoC5/SPIM_ITG3701.c **** *
 295:.\Generated_Source\PSoC5/SPIM_ITG3701.c **** * Return:
 296:.\Generated_Source\PSoC5/SPIM_ITG3701.c **** *  None.
 297:.\Generated_Source\PSoC5/SPIM_ITG3701.c **** *
 298:.\Generated_Source\PSoC5/SPIM_ITG3701.c **** * Theory:
 299:.\Generated_Source\PSoC5/SPIM_ITG3701.c **** *  Disable the internal Rx interrupt output -or- the interrupt component itself.
 300:.\Generated_Source\PSoC5/SPIM_ITG3701.c **** *
 301:.\Generated_Source\PSoC5/SPIM_ITG3701.c **** *******************************************************************************/
 302:.\Generated_Source\PSoC5/SPIM_ITG3701.c **** void SPIM_ITG3701_DisableRxInt(void) 
 303:.\Generated_Source\PSoC5/SPIM_ITG3701.c **** {
 341              		.loc 1 303 0
 342              		.cfi_startproc
 343              		@ args = 0, pretend = 0, frame = 0
 344              		@ frame_needed = 1, uses_anonymous_args = 0
 345              		@ link register save eliminated.
 346 0000 80B4     		push	{r7}
 347              	.LCFI16:
 348              		.cfi_def_cfa_offset 4
 349              		.cfi_offset 7, -4
 350 0002 00AF     		add	r7, sp, #0
 351              	.LCFI17:
 352              		.cfi_def_cfa_register 7
 304:.\Generated_Source\PSoC5/SPIM_ITG3701.c ****     #if(0u != SPIM_ITG3701_INTERNAL_RX_INT_ENABLED)
 305:.\Generated_Source\PSoC5/SPIM_ITG3701.c ****         CyIntDisable(SPIM_ITG3701_RX_ISR_NUMBER);
 306:.\Generated_Source\PSoC5/SPIM_ITG3701.c ****     #endif /* (0u != SPIM_ITG3701_INTERNAL_RX_INT_ENABLED) */
 307:.\Generated_Source\PSoC5/SPIM_ITG3701.c **** }
 353              		.loc 1 307 0
 354 0004 BD46     		mov	sp, r7
 355 0006 80BC     		pop	{r7}
 356 0008 7047     		bx	lr
 357              		.cfi_endproc
 358              	.LFE7:
 359              		.size	SPIM_ITG3701_DisableRxInt, .-SPIM_ITG3701_DisableRxInt
 360 000a 00BF     		.section	.text.SPIM_ITG3701_SetTxInterruptMode,"ax",%progbits
 361              		.align	2
 362              		.global	SPIM_ITG3701_SetTxInterruptMode
 363              		.thumb
 364              		.thumb_func
 365              		.type	SPIM_ITG3701_SetTxInterruptMode, %function
 366              	SPIM_ITG3701_SetTxInterruptMode:
 367              	.LFB8:
 308:.\Generated_Source\PSoC5/SPIM_ITG3701.c **** 
 309:.\Generated_Source\PSoC5/SPIM_ITG3701.c **** 
 310:.\Generated_Source\PSoC5/SPIM_ITG3701.c **** /*******************************************************************************
 311:.\Generated_Source\PSoC5/SPIM_ITG3701.c **** * Function Name: SPIM_ITG3701_SetTxInterruptMode
 312:.\Generated_Source\PSoC5/SPIM_ITG3701.c **** ********************************************************************************
 313:.\Generated_Source\PSoC5/SPIM_ITG3701.c **** *
 314:.\Generated_Source\PSoC5/SPIM_ITG3701.c **** * Summary:
 315:.\Generated_Source\PSoC5/SPIM_ITG3701.c **** *  Configure which status bits trigger an interrupt event.
 316:.\Generated_Source\PSoC5/SPIM_ITG3701.c **** *
 317:.\Generated_Source\PSoC5/SPIM_ITG3701.c **** * Parameters:
ARM GAS  C:\DOCUME~1\user\IMPOST~1\Temp\ccbjPeFq.s 			page 13


 318:.\Generated_Source\PSoC5/SPIM_ITG3701.c **** *  intSrc: An or'd combination of the desired status bit masks (defined in the
 319:.\Generated_Source\PSoC5/SPIM_ITG3701.c **** *  header file).
 320:.\Generated_Source\PSoC5/SPIM_ITG3701.c **** *
 321:.\Generated_Source\PSoC5/SPIM_ITG3701.c **** * Return:
 322:.\Generated_Source\PSoC5/SPIM_ITG3701.c **** *  None.
 323:.\Generated_Source\PSoC5/SPIM_ITG3701.c **** *
 324:.\Generated_Source\PSoC5/SPIM_ITG3701.c **** * Theory:
 325:.\Generated_Source\PSoC5/SPIM_ITG3701.c **** *  Enables the output of specific status bits to the interrupt controller.
 326:.\Generated_Source\PSoC5/SPIM_ITG3701.c **** *
 327:.\Generated_Source\PSoC5/SPIM_ITG3701.c **** *******************************************************************************/
 328:.\Generated_Source\PSoC5/SPIM_ITG3701.c **** void SPIM_ITG3701_SetTxInterruptMode(uint8 intSrc) 
 329:.\Generated_Source\PSoC5/SPIM_ITG3701.c **** {
 368              		.loc 1 329 0
 369              		.cfi_startproc
 370              		@ args = 0, pretend = 0, frame = 8
 371              		@ frame_needed = 1, uses_anonymous_args = 0
 372              		@ link register save eliminated.
 373 0000 80B4     		push	{r7}
 374              	.LCFI18:
 375              		.cfi_def_cfa_offset 4
 376              		.cfi_offset 7, -4
 377 0002 83B0     		sub	sp, sp, #12
 378              	.LCFI19:
 379              		.cfi_def_cfa_offset 16
 380 0004 00AF     		add	r7, sp, #0
 381              	.LCFI20:
 382              		.cfi_def_cfa_register 7
 383 0006 0346     		mov	r3, r0
 384 0008 FB71     		strb	r3, [r7, #7]
 330:.\Generated_Source\PSoC5/SPIM_ITG3701.c ****     SPIM_ITG3701_TX_STATUS_MASK_REG = intSrc;
 385              		.loc 1 330 0
 386 000a 46F28243 		movw	r3, #25730
 387 000e C4F20003 		movt	r3, 16384
 388 0012 FA79     		ldrb	r2, [r7, #7]
 389 0014 1A70     		strb	r2, [r3, #0]
 331:.\Generated_Source\PSoC5/SPIM_ITG3701.c **** }
 390              		.loc 1 331 0
 391 0016 07F10C07 		add	r7, r7, #12
 392 001a BD46     		mov	sp, r7
 393 001c 80BC     		pop	{r7}
 394 001e 7047     		bx	lr
 395              		.cfi_endproc
 396              	.LFE8:
 397              		.size	SPIM_ITG3701_SetTxInterruptMode, .-SPIM_ITG3701_SetTxInterruptMode
 398              		.section	.text.SPIM_ITG3701_SetRxInterruptMode,"ax",%progbits
 399              		.align	2
 400              		.global	SPIM_ITG3701_SetRxInterruptMode
 401              		.thumb
 402              		.thumb_func
 403              		.type	SPIM_ITG3701_SetRxInterruptMode, %function
 404              	SPIM_ITG3701_SetRxInterruptMode:
 405              	.LFB9:
 332:.\Generated_Source\PSoC5/SPIM_ITG3701.c **** 
 333:.\Generated_Source\PSoC5/SPIM_ITG3701.c **** 
 334:.\Generated_Source\PSoC5/SPIM_ITG3701.c **** /*******************************************************************************
 335:.\Generated_Source\PSoC5/SPIM_ITG3701.c **** * Function Name: SPIM_ITG3701_SetRxInterruptMode
 336:.\Generated_Source\PSoC5/SPIM_ITG3701.c **** ********************************************************************************
ARM GAS  C:\DOCUME~1\user\IMPOST~1\Temp\ccbjPeFq.s 			page 14


 337:.\Generated_Source\PSoC5/SPIM_ITG3701.c **** *
 338:.\Generated_Source\PSoC5/SPIM_ITG3701.c **** * Summary:
 339:.\Generated_Source\PSoC5/SPIM_ITG3701.c **** *  Configure which status bits trigger an interrupt event.
 340:.\Generated_Source\PSoC5/SPIM_ITG3701.c **** *
 341:.\Generated_Source\PSoC5/SPIM_ITG3701.c **** * Parameters:
 342:.\Generated_Source\PSoC5/SPIM_ITG3701.c **** *  intSrc: An or'd combination of the desired status bit masks (defined in the
 343:.\Generated_Source\PSoC5/SPIM_ITG3701.c **** *  header file).
 344:.\Generated_Source\PSoC5/SPIM_ITG3701.c **** *
 345:.\Generated_Source\PSoC5/SPIM_ITG3701.c **** * Return:
 346:.\Generated_Source\PSoC5/SPIM_ITG3701.c **** *  None.
 347:.\Generated_Source\PSoC5/SPIM_ITG3701.c **** *
 348:.\Generated_Source\PSoC5/SPIM_ITG3701.c **** * Theory:
 349:.\Generated_Source\PSoC5/SPIM_ITG3701.c **** *  Enables the output of specific status bits to the interrupt controller.
 350:.\Generated_Source\PSoC5/SPIM_ITG3701.c **** *
 351:.\Generated_Source\PSoC5/SPIM_ITG3701.c **** *******************************************************************************/
 352:.\Generated_Source\PSoC5/SPIM_ITG3701.c **** void SPIM_ITG3701_SetRxInterruptMode(uint8 intSrc) 
 353:.\Generated_Source\PSoC5/SPIM_ITG3701.c **** {
 406              		.loc 1 353 0
 407              		.cfi_startproc
 408              		@ args = 0, pretend = 0, frame = 8
 409              		@ frame_needed = 1, uses_anonymous_args = 0
 410              		@ link register save eliminated.
 411 0000 80B4     		push	{r7}
 412              	.LCFI21:
 413              		.cfi_def_cfa_offset 4
 414              		.cfi_offset 7, -4
 415 0002 83B0     		sub	sp, sp, #12
 416              	.LCFI22:
 417              		.cfi_def_cfa_offset 16
 418 0004 00AF     		add	r7, sp, #0
 419              	.LCFI23:
 420              		.cfi_def_cfa_register 7
 421 0006 0346     		mov	r3, r0
 422 0008 FB71     		strb	r3, [r7, #7]
 354:.\Generated_Source\PSoC5/SPIM_ITG3701.c ****     SPIM_ITG3701_RX_STATUS_MASK_REG  = intSrc;
 423              		.loc 1 354 0
 424 000a 46F28643 		movw	r3, #25734
 425 000e C4F20003 		movt	r3, 16384
 426 0012 FA79     		ldrb	r2, [r7, #7]
 427 0014 1A70     		strb	r2, [r3, #0]
 355:.\Generated_Source\PSoC5/SPIM_ITG3701.c **** }
 428              		.loc 1 355 0
 429 0016 07F10C07 		add	r7, r7, #12
 430 001a BD46     		mov	sp, r7
 431 001c 80BC     		pop	{r7}
 432 001e 7047     		bx	lr
 433              		.cfi_endproc
 434              	.LFE9:
 435              		.size	SPIM_ITG3701_SetRxInterruptMode, .-SPIM_ITG3701_SetRxInterruptMode
 436              		.section	.text.SPIM_ITG3701_ReadTxStatus,"ax",%progbits
 437              		.align	2
 438              		.global	SPIM_ITG3701_ReadTxStatus
 439              		.thumb
 440              		.thumb_func
 441              		.type	SPIM_ITG3701_ReadTxStatus, %function
 442              	SPIM_ITG3701_ReadTxStatus:
 443              	.LFB10:
ARM GAS  C:\DOCUME~1\user\IMPOST~1\Temp\ccbjPeFq.s 			page 15


 356:.\Generated_Source\PSoC5/SPIM_ITG3701.c **** 
 357:.\Generated_Source\PSoC5/SPIM_ITG3701.c **** 
 358:.\Generated_Source\PSoC5/SPIM_ITG3701.c **** /*******************************************************************************
 359:.\Generated_Source\PSoC5/SPIM_ITG3701.c **** * Function Name: SPIM_ITG3701_ReadTxStatus
 360:.\Generated_Source\PSoC5/SPIM_ITG3701.c **** ********************************************************************************
 361:.\Generated_Source\PSoC5/SPIM_ITG3701.c **** *
 362:.\Generated_Source\PSoC5/SPIM_ITG3701.c **** * Summary:
 363:.\Generated_Source\PSoC5/SPIM_ITG3701.c **** *  Read the Tx status register for the component.
 364:.\Generated_Source\PSoC5/SPIM_ITG3701.c **** *
 365:.\Generated_Source\PSoC5/SPIM_ITG3701.c **** * Parameters:
 366:.\Generated_Source\PSoC5/SPIM_ITG3701.c **** *  None.
 367:.\Generated_Source\PSoC5/SPIM_ITG3701.c **** *
 368:.\Generated_Source\PSoC5/SPIM_ITG3701.c **** * Return:
 369:.\Generated_Source\PSoC5/SPIM_ITG3701.c **** *  Contents of the Tx status register.
 370:.\Generated_Source\PSoC5/SPIM_ITG3701.c **** *
 371:.\Generated_Source\PSoC5/SPIM_ITG3701.c **** * Global variables:
 372:.\Generated_Source\PSoC5/SPIM_ITG3701.c **** *  SPIM_ITG3701_swStatusTx - used to store in software status register,
 373:.\Generated_Source\PSoC5/SPIM_ITG3701.c **** *  modified every function call - resets to zero.
 374:.\Generated_Source\PSoC5/SPIM_ITG3701.c **** *
 375:.\Generated_Source\PSoC5/SPIM_ITG3701.c **** * Theory:
 376:.\Generated_Source\PSoC5/SPIM_ITG3701.c **** *  Allows the user and the API to read the Tx status register for error
 377:.\Generated_Source\PSoC5/SPIM_ITG3701.c **** *  detection and flow control.
 378:.\Generated_Source\PSoC5/SPIM_ITG3701.c **** *
 379:.\Generated_Source\PSoC5/SPIM_ITG3701.c **** * Side Effects:
 380:.\Generated_Source\PSoC5/SPIM_ITG3701.c **** *  Clear Tx status register of the component.
 381:.\Generated_Source\PSoC5/SPIM_ITG3701.c **** *
 382:.\Generated_Source\PSoC5/SPIM_ITG3701.c **** * Reentrant:
 383:.\Generated_Source\PSoC5/SPIM_ITG3701.c **** *  No.
 384:.\Generated_Source\PSoC5/SPIM_ITG3701.c **** *
 385:.\Generated_Source\PSoC5/SPIM_ITG3701.c **** *******************************************************************************/
 386:.\Generated_Source\PSoC5/SPIM_ITG3701.c **** uint8 SPIM_ITG3701_ReadTxStatus(void) 
 387:.\Generated_Source\PSoC5/SPIM_ITG3701.c **** {
 444              		.loc 1 387 0
 445              		.cfi_startproc
 446              		@ args = 0, pretend = 0, frame = 8
 447              		@ frame_needed = 1, uses_anonymous_args = 0
 448              		@ link register save eliminated.
 449 0000 80B4     		push	{r7}
 450              	.LCFI24:
 451              		.cfi_def_cfa_offset 4
 452              		.cfi_offset 7, -4
 453 0002 83B0     		sub	sp, sp, #12
 454              	.LCFI25:
 455              		.cfi_def_cfa_offset 16
 456 0004 00AF     		add	r7, sp, #0
 457              	.LCFI26:
 458              		.cfi_def_cfa_register 7
 388:.\Generated_Source\PSoC5/SPIM_ITG3701.c ****     uint8 tmpStatus;
 389:.\Generated_Source\PSoC5/SPIM_ITG3701.c **** 
 390:.\Generated_Source\PSoC5/SPIM_ITG3701.c ****     #if(SPIM_ITG3701_TX_SOFTWARE_BUF_ENABLED)
 391:.\Generated_Source\PSoC5/SPIM_ITG3701.c ****         /* Disable TX interrupt to protect global veriables */
 392:.\Generated_Source\PSoC5/SPIM_ITG3701.c ****         SPIM_ITG3701_DisableTxInt();
 393:.\Generated_Source\PSoC5/SPIM_ITG3701.c **** 
 394:.\Generated_Source\PSoC5/SPIM_ITG3701.c ****         tmpStatus = SPIM_ITG3701_GET_STATUS_TX(SPIM_ITG3701_swStatusTx);
 395:.\Generated_Source\PSoC5/SPIM_ITG3701.c ****         SPIM_ITG3701_swStatusTx = 0u;
 396:.\Generated_Source\PSoC5/SPIM_ITG3701.c **** 
 397:.\Generated_Source\PSoC5/SPIM_ITG3701.c ****         SPIM_ITG3701_EnableTxInt();
ARM GAS  C:\DOCUME~1\user\IMPOST~1\Temp\ccbjPeFq.s 			page 16


 398:.\Generated_Source\PSoC5/SPIM_ITG3701.c **** 
 399:.\Generated_Source\PSoC5/SPIM_ITG3701.c ****     #else
 400:.\Generated_Source\PSoC5/SPIM_ITG3701.c **** 
 401:.\Generated_Source\PSoC5/SPIM_ITG3701.c ****         tmpStatus = SPIM_ITG3701_TX_STATUS_REG;
 459              		.loc 1 401 0
 460 0006 46F26243 		movw	r3, #25698
 461 000a C4F20003 		movt	r3, 16384
 462 000e 1B78     		ldrb	r3, [r3, #0]
 463 0010 FB71     		strb	r3, [r7, #7]
 402:.\Generated_Source\PSoC5/SPIM_ITG3701.c **** 
 403:.\Generated_Source\PSoC5/SPIM_ITG3701.c ****     #endif /* (SPIM_ITG3701_TX_SOFTWARE_BUF_ENABLED) */
 404:.\Generated_Source\PSoC5/SPIM_ITG3701.c **** 
 405:.\Generated_Source\PSoC5/SPIM_ITG3701.c ****     return(tmpStatus);
 464              		.loc 1 405 0
 465 0012 FB79     		ldrb	r3, [r7, #7]	@ zero_extendqisi2
 406:.\Generated_Source\PSoC5/SPIM_ITG3701.c **** }
 466              		.loc 1 406 0
 467 0014 1846     		mov	r0, r3
 468 0016 07F10C07 		add	r7, r7, #12
 469 001a BD46     		mov	sp, r7
 470 001c 80BC     		pop	{r7}
 471 001e 7047     		bx	lr
 472              		.cfi_endproc
 473              	.LFE10:
 474              		.size	SPIM_ITG3701_ReadTxStatus, .-SPIM_ITG3701_ReadTxStatus
 475              		.section	.text.SPIM_ITG3701_ReadRxStatus,"ax",%progbits
 476              		.align	2
 477              		.global	SPIM_ITG3701_ReadRxStatus
 478              		.thumb
 479              		.thumb_func
 480              		.type	SPIM_ITG3701_ReadRxStatus, %function
 481              	SPIM_ITG3701_ReadRxStatus:
 482              	.LFB11:
 407:.\Generated_Source\PSoC5/SPIM_ITG3701.c **** 
 408:.\Generated_Source\PSoC5/SPIM_ITG3701.c **** 
 409:.\Generated_Source\PSoC5/SPIM_ITG3701.c **** /*******************************************************************************
 410:.\Generated_Source\PSoC5/SPIM_ITG3701.c **** * Function Name: SPIM_ITG3701_ReadRxStatus
 411:.\Generated_Source\PSoC5/SPIM_ITG3701.c **** ********************************************************************************
 412:.\Generated_Source\PSoC5/SPIM_ITG3701.c **** *
 413:.\Generated_Source\PSoC5/SPIM_ITG3701.c **** * Summary:
 414:.\Generated_Source\PSoC5/SPIM_ITG3701.c **** *  Read the Rx status register for the component.
 415:.\Generated_Source\PSoC5/SPIM_ITG3701.c **** *
 416:.\Generated_Source\PSoC5/SPIM_ITG3701.c **** * Parameters:
 417:.\Generated_Source\PSoC5/SPIM_ITG3701.c **** *  None.
 418:.\Generated_Source\PSoC5/SPIM_ITG3701.c **** *
 419:.\Generated_Source\PSoC5/SPIM_ITG3701.c **** * Return:
 420:.\Generated_Source\PSoC5/SPIM_ITG3701.c **** *  Contents of the Rx status register.
 421:.\Generated_Source\PSoC5/SPIM_ITG3701.c **** *
 422:.\Generated_Source\PSoC5/SPIM_ITG3701.c **** * Global variables:
 423:.\Generated_Source\PSoC5/SPIM_ITG3701.c **** *  SPIM_ITG3701_swStatusRx - used to store in software Rx status register,
 424:.\Generated_Source\PSoC5/SPIM_ITG3701.c **** *  modified every function call - resets to zero.
 425:.\Generated_Source\PSoC5/SPIM_ITG3701.c **** *
 426:.\Generated_Source\PSoC5/SPIM_ITG3701.c **** * Theory:
 427:.\Generated_Source\PSoC5/SPIM_ITG3701.c **** *  Allows the user and the API to read the Rx status register for error
 428:.\Generated_Source\PSoC5/SPIM_ITG3701.c **** *  detection and flow control.
 429:.\Generated_Source\PSoC5/SPIM_ITG3701.c **** *
 430:.\Generated_Source\PSoC5/SPIM_ITG3701.c **** * Side Effects:
ARM GAS  C:\DOCUME~1\user\IMPOST~1\Temp\ccbjPeFq.s 			page 17


 431:.\Generated_Source\PSoC5/SPIM_ITG3701.c **** *  Clear Rx status register of the component.
 432:.\Generated_Source\PSoC5/SPIM_ITG3701.c **** *
 433:.\Generated_Source\PSoC5/SPIM_ITG3701.c **** * Reentrant:
 434:.\Generated_Source\PSoC5/SPIM_ITG3701.c **** *  No.
 435:.\Generated_Source\PSoC5/SPIM_ITG3701.c **** *
 436:.\Generated_Source\PSoC5/SPIM_ITG3701.c **** *******************************************************************************/
 437:.\Generated_Source\PSoC5/SPIM_ITG3701.c **** uint8 SPIM_ITG3701_ReadRxStatus(void) 
 438:.\Generated_Source\PSoC5/SPIM_ITG3701.c **** {
 483              		.loc 1 438 0
 484              		.cfi_startproc
 485              		@ args = 0, pretend = 0, frame = 8
 486              		@ frame_needed = 1, uses_anonymous_args = 0
 487              		@ link register save eliminated.
 488 0000 80B4     		push	{r7}
 489              	.LCFI27:
 490              		.cfi_def_cfa_offset 4
 491              		.cfi_offset 7, -4
 492 0002 83B0     		sub	sp, sp, #12
 493              	.LCFI28:
 494              		.cfi_def_cfa_offset 16
 495 0004 00AF     		add	r7, sp, #0
 496              	.LCFI29:
 497              		.cfi_def_cfa_register 7
 439:.\Generated_Source\PSoC5/SPIM_ITG3701.c ****     uint8 tmpStatus;
 440:.\Generated_Source\PSoC5/SPIM_ITG3701.c **** 
 441:.\Generated_Source\PSoC5/SPIM_ITG3701.c ****     #if(SPIM_ITG3701_RX_SOFTWARE_BUF_ENABLED)
 442:.\Generated_Source\PSoC5/SPIM_ITG3701.c ****         /* Disable RX interrupt to protect global veriables */
 443:.\Generated_Source\PSoC5/SPIM_ITG3701.c ****         SPIM_ITG3701_DisableRxInt();
 444:.\Generated_Source\PSoC5/SPIM_ITG3701.c **** 
 445:.\Generated_Source\PSoC5/SPIM_ITG3701.c ****         tmpStatus = SPIM_ITG3701_GET_STATUS_RX(SPIM_ITG3701_swStatusRx);
 446:.\Generated_Source\PSoC5/SPIM_ITG3701.c ****         SPIM_ITG3701_swStatusRx = 0u;
 447:.\Generated_Source\PSoC5/SPIM_ITG3701.c **** 
 448:.\Generated_Source\PSoC5/SPIM_ITG3701.c ****         SPIM_ITG3701_EnableRxInt();
 449:.\Generated_Source\PSoC5/SPIM_ITG3701.c **** 
 450:.\Generated_Source\PSoC5/SPIM_ITG3701.c ****     #else
 451:.\Generated_Source\PSoC5/SPIM_ITG3701.c **** 
 452:.\Generated_Source\PSoC5/SPIM_ITG3701.c ****         tmpStatus = SPIM_ITG3701_RX_STATUS_REG;
 498              		.loc 1 452 0
 499 0006 46F26643 		movw	r3, #25702
 500 000a C4F20003 		movt	r3, 16384
 501 000e 1B78     		ldrb	r3, [r3, #0]
 502 0010 FB71     		strb	r3, [r7, #7]
 453:.\Generated_Source\PSoC5/SPIM_ITG3701.c **** 
 454:.\Generated_Source\PSoC5/SPIM_ITG3701.c ****     #endif /* (SPIM_ITG3701_RX_SOFTWARE_BUF_ENABLED) */
 455:.\Generated_Source\PSoC5/SPIM_ITG3701.c **** 
 456:.\Generated_Source\PSoC5/SPIM_ITG3701.c ****     return(tmpStatus);
 503              		.loc 1 456 0
 504 0012 FB79     		ldrb	r3, [r7, #7]	@ zero_extendqisi2
 457:.\Generated_Source\PSoC5/SPIM_ITG3701.c **** }
 505              		.loc 1 457 0
 506 0014 1846     		mov	r0, r3
 507 0016 07F10C07 		add	r7, r7, #12
 508 001a BD46     		mov	sp, r7
 509 001c 80BC     		pop	{r7}
 510 001e 7047     		bx	lr
 511              		.cfi_endproc
 512              	.LFE11:
ARM GAS  C:\DOCUME~1\user\IMPOST~1\Temp\ccbjPeFq.s 			page 18


 513              		.size	SPIM_ITG3701_ReadRxStatus, .-SPIM_ITG3701_ReadRxStatus
 514              		.section	.text.SPIM_ITG3701_WriteTxData,"ax",%progbits
 515              		.align	2
 516              		.global	SPIM_ITG3701_WriteTxData
 517              		.thumb
 518              		.thumb_func
 519              		.type	SPIM_ITG3701_WriteTxData, %function
 520              	SPIM_ITG3701_WriteTxData:
 521              	.LFB12:
 458:.\Generated_Source\PSoC5/SPIM_ITG3701.c **** 
 459:.\Generated_Source\PSoC5/SPIM_ITG3701.c **** 
 460:.\Generated_Source\PSoC5/SPIM_ITG3701.c **** /*******************************************************************************
 461:.\Generated_Source\PSoC5/SPIM_ITG3701.c **** * Function Name: SPIM_ITG3701_WriteTxData
 462:.\Generated_Source\PSoC5/SPIM_ITG3701.c **** ********************************************************************************
 463:.\Generated_Source\PSoC5/SPIM_ITG3701.c **** *
 464:.\Generated_Source\PSoC5/SPIM_ITG3701.c **** * Summary:
 465:.\Generated_Source\PSoC5/SPIM_ITG3701.c **** *  Write a byte of data to be sent across the SPI.
 466:.\Generated_Source\PSoC5/SPIM_ITG3701.c **** *
 467:.\Generated_Source\PSoC5/SPIM_ITG3701.c **** * Parameters:
 468:.\Generated_Source\PSoC5/SPIM_ITG3701.c **** *  txDataByte: The data value to send across the SPI.
 469:.\Generated_Source\PSoC5/SPIM_ITG3701.c **** *
 470:.\Generated_Source\PSoC5/SPIM_ITG3701.c **** * Return:
 471:.\Generated_Source\PSoC5/SPIM_ITG3701.c **** *  None.
 472:.\Generated_Source\PSoC5/SPIM_ITG3701.c **** *
 473:.\Generated_Source\PSoC5/SPIM_ITG3701.c **** * Global variables:
 474:.\Generated_Source\PSoC5/SPIM_ITG3701.c **** *  SPIM_ITG3701_txBufferWrite - used for the account of the bytes which
 475:.\Generated_Source\PSoC5/SPIM_ITG3701.c **** *  have been written down in the TX software buffer, modified every function
 476:.\Generated_Source\PSoC5/SPIM_ITG3701.c **** *  call if TX Software Buffer is used.
 477:.\Generated_Source\PSoC5/SPIM_ITG3701.c **** *  SPIM_ITG3701_txBufferRead - used for the account of the bytes which
 478:.\Generated_Source\PSoC5/SPIM_ITG3701.c **** *  have been read from the TX software buffer.
 479:.\Generated_Source\PSoC5/SPIM_ITG3701.c **** *  SPIM_ITG3701_txBuffer[SPIM_ITG3701_TX_BUFFER_SIZE] - used to store
 480:.\Generated_Source\PSoC5/SPIM_ITG3701.c **** *  data to sending, modified every function call if TX Software Buffer is used.
 481:.\Generated_Source\PSoC5/SPIM_ITG3701.c **** *
 482:.\Generated_Source\PSoC5/SPIM_ITG3701.c **** * Theory:
 483:.\Generated_Source\PSoC5/SPIM_ITG3701.c **** *  Allows the user to transmit any byte of data in a single transfer.
 484:.\Generated_Source\PSoC5/SPIM_ITG3701.c **** *
 485:.\Generated_Source\PSoC5/SPIM_ITG3701.c **** * Side Effects:
 486:.\Generated_Source\PSoC5/SPIM_ITG3701.c **** *  If this function is called again before the previous byte is finished then
 487:.\Generated_Source\PSoC5/SPIM_ITG3701.c **** *  the next byte will be appended to the transfer with no time between
 488:.\Generated_Source\PSoC5/SPIM_ITG3701.c **** *  the byte transfers. Clear Tx status register of the component.
 489:.\Generated_Source\PSoC5/SPIM_ITG3701.c **** *
 490:.\Generated_Source\PSoC5/SPIM_ITG3701.c **** * Reentrant:
 491:.\Generated_Source\PSoC5/SPIM_ITG3701.c **** *  No.
 492:.\Generated_Source\PSoC5/SPIM_ITG3701.c **** *
 493:.\Generated_Source\PSoC5/SPIM_ITG3701.c **** *******************************************************************************/
 494:.\Generated_Source\PSoC5/SPIM_ITG3701.c **** void SPIM_ITG3701_WriteTxData(uint16 txData) 
 495:.\Generated_Source\PSoC5/SPIM_ITG3701.c **** {
 522              		.loc 1 495 0
 523              		.cfi_startproc
 524              		@ args = 0, pretend = 0, frame = 8
 525              		@ frame_needed = 1, uses_anonymous_args = 0
 526              		@ link register save eliminated.
 527 0000 80B4     		push	{r7}
 528              	.LCFI30:
 529              		.cfi_def_cfa_offset 4
 530              		.cfi_offset 7, -4
 531 0002 83B0     		sub	sp, sp, #12
ARM GAS  C:\DOCUME~1\user\IMPOST~1\Temp\ccbjPeFq.s 			page 19


 532              	.LCFI31:
 533              		.cfi_def_cfa_offset 16
 534 0004 00AF     		add	r7, sp, #0
 535              	.LCFI32:
 536              		.cfi_def_cfa_register 7
 537 0006 0346     		mov	r3, r0
 538 0008 FB80     		strh	r3, [r7, #6]	@ movhi
 496:.\Generated_Source\PSoC5/SPIM_ITG3701.c ****     #if(SPIM_ITG3701_TX_SOFTWARE_BUF_ENABLED)
 497:.\Generated_Source\PSoC5/SPIM_ITG3701.c **** 
 498:.\Generated_Source\PSoC5/SPIM_ITG3701.c ****         uint8 tempStatus;
 499:.\Generated_Source\PSoC5/SPIM_ITG3701.c ****         uint8 tmpTxBufferRead;
 500:.\Generated_Source\PSoC5/SPIM_ITG3701.c **** 
 501:.\Generated_Source\PSoC5/SPIM_ITG3701.c ****         /* Block if TX buffer is FULL: don't overwrite */
 502:.\Generated_Source\PSoC5/SPIM_ITG3701.c ****         do
 503:.\Generated_Source\PSoC5/SPIM_ITG3701.c ****         {
 504:.\Generated_Source\PSoC5/SPIM_ITG3701.c ****             tmpTxBufferRead = SPIM_ITG3701_txBufferRead;
 505:.\Generated_Source\PSoC5/SPIM_ITG3701.c ****             if(0u == tmpTxBufferRead)
 506:.\Generated_Source\PSoC5/SPIM_ITG3701.c ****             {
 507:.\Generated_Source\PSoC5/SPIM_ITG3701.c ****                 tmpTxBufferRead = (SPIM_ITG3701_TX_BUFFER_SIZE - 1u);
 508:.\Generated_Source\PSoC5/SPIM_ITG3701.c ****             }
 509:.\Generated_Source\PSoC5/SPIM_ITG3701.c ****             else
 510:.\Generated_Source\PSoC5/SPIM_ITG3701.c ****             {
 511:.\Generated_Source\PSoC5/SPIM_ITG3701.c ****                 tmpTxBufferRead--;
 512:.\Generated_Source\PSoC5/SPIM_ITG3701.c ****             }
 513:.\Generated_Source\PSoC5/SPIM_ITG3701.c **** 
 514:.\Generated_Source\PSoC5/SPIM_ITG3701.c ****         }while(tmpTxBufferRead == SPIM_ITG3701_txBufferWrite);
 515:.\Generated_Source\PSoC5/SPIM_ITG3701.c **** 
 516:.\Generated_Source\PSoC5/SPIM_ITG3701.c ****         /* Disable TX interrupt to protect global veriables */
 517:.\Generated_Source\PSoC5/SPIM_ITG3701.c ****         SPIM_ITG3701_DisableTxInt();
 518:.\Generated_Source\PSoC5/SPIM_ITG3701.c **** 
 519:.\Generated_Source\PSoC5/SPIM_ITG3701.c ****         tempStatus = SPIM_ITG3701_GET_STATUS_TX(SPIM_ITG3701_swStatusTx);
 520:.\Generated_Source\PSoC5/SPIM_ITG3701.c ****         SPIM_ITG3701_swStatusTx = tempStatus;
 521:.\Generated_Source\PSoC5/SPIM_ITG3701.c **** 
 522:.\Generated_Source\PSoC5/SPIM_ITG3701.c **** 
 523:.\Generated_Source\PSoC5/SPIM_ITG3701.c ****         if((SPIM_ITG3701_txBufferRead == SPIM_ITG3701_txBufferWrite) &&
 524:.\Generated_Source\PSoC5/SPIM_ITG3701.c ****            (0u != (SPIM_ITG3701_swStatusTx & SPIM_ITG3701_STS_TX_FIFO_NOT_FULL)))
 525:.\Generated_Source\PSoC5/SPIM_ITG3701.c ****         {
 526:.\Generated_Source\PSoC5/SPIM_ITG3701.c ****             /* Add directly to the TX FIFO */
 527:.\Generated_Source\PSoC5/SPIM_ITG3701.c ****             CY_SET_REG16(SPIM_ITG3701_TXDATA_PTR, txData);
 528:.\Generated_Source\PSoC5/SPIM_ITG3701.c ****         }
 529:.\Generated_Source\PSoC5/SPIM_ITG3701.c ****         else
 530:.\Generated_Source\PSoC5/SPIM_ITG3701.c ****         {
 531:.\Generated_Source\PSoC5/SPIM_ITG3701.c ****             /* Add to the TX software buffer */
 532:.\Generated_Source\PSoC5/SPIM_ITG3701.c ****             SPIM_ITG3701_txBufferWrite++;
 533:.\Generated_Source\PSoC5/SPIM_ITG3701.c ****             if(SPIM_ITG3701_txBufferWrite >= SPIM_ITG3701_TX_BUFFER_SIZE)
 534:.\Generated_Source\PSoC5/SPIM_ITG3701.c ****             {
 535:.\Generated_Source\PSoC5/SPIM_ITG3701.c ****                 SPIM_ITG3701_txBufferWrite = 0u;
 536:.\Generated_Source\PSoC5/SPIM_ITG3701.c ****             }
 537:.\Generated_Source\PSoC5/SPIM_ITG3701.c **** 
 538:.\Generated_Source\PSoC5/SPIM_ITG3701.c ****             if(SPIM_ITG3701_txBufferWrite == SPIM_ITG3701_txBufferRead)
 539:.\Generated_Source\PSoC5/SPIM_ITG3701.c ****             {
 540:.\Generated_Source\PSoC5/SPIM_ITG3701.c ****                 SPIM_ITG3701_txBufferRead++;
 541:.\Generated_Source\PSoC5/SPIM_ITG3701.c ****                 if(SPIM_ITG3701_txBufferRead >= SPIM_ITG3701_TX_BUFFER_SIZE)
 542:.\Generated_Source\PSoC5/SPIM_ITG3701.c ****                 {
 543:.\Generated_Source\PSoC5/SPIM_ITG3701.c ****                     SPIM_ITG3701_txBufferRead = 0u;
 544:.\Generated_Source\PSoC5/SPIM_ITG3701.c ****                 }
 545:.\Generated_Source\PSoC5/SPIM_ITG3701.c ****                 SPIM_ITG3701_txBufferFull = 1u;
ARM GAS  C:\DOCUME~1\user\IMPOST~1\Temp\ccbjPeFq.s 			page 20


 546:.\Generated_Source\PSoC5/SPIM_ITG3701.c ****             }
 547:.\Generated_Source\PSoC5/SPIM_ITG3701.c **** 
 548:.\Generated_Source\PSoC5/SPIM_ITG3701.c ****             SPIM_ITG3701_txBuffer[SPIM_ITG3701_txBufferWrite] = txData;
 549:.\Generated_Source\PSoC5/SPIM_ITG3701.c **** 
 550:.\Generated_Source\PSoC5/SPIM_ITG3701.c ****             SPIM_ITG3701_TX_STATUS_MASK_REG |= SPIM_ITG3701_STS_TX_FIFO_NOT_FULL;
 551:.\Generated_Source\PSoC5/SPIM_ITG3701.c ****         }
 552:.\Generated_Source\PSoC5/SPIM_ITG3701.c **** 
 553:.\Generated_Source\PSoC5/SPIM_ITG3701.c ****         SPIM_ITG3701_EnableTxInt();
 554:.\Generated_Source\PSoC5/SPIM_ITG3701.c **** 
 555:.\Generated_Source\PSoC5/SPIM_ITG3701.c ****     #else
 556:.\Generated_Source\PSoC5/SPIM_ITG3701.c **** 
 557:.\Generated_Source\PSoC5/SPIM_ITG3701.c ****         while(0u == (SPIM_ITG3701_TX_STATUS_REG & SPIM_ITG3701_STS_TX_FIFO_NOT_FULL))
 539              		.loc 1 557 0
 540 000a 00BF     		nop
 541              	.L17:
 542              		.loc 1 557 0 is_stmt 0 discriminator 1
 543 000c 46F26243 		movw	r3, #25698
 544 0010 C4F20003 		movt	r3, 16384
 545 0014 1B78     		ldrb	r3, [r3, #0]
 546 0016 DBB2     		uxtb	r3, r3
 547 0018 03F00403 		and	r3, r3, #4
 548 001c 002B     		cmp	r3, #0
 549 001e F5D0     		beq	.L17
 558:.\Generated_Source\PSoC5/SPIM_ITG3701.c ****         {
 559:.\Generated_Source\PSoC5/SPIM_ITG3701.c ****             ; /* Wait for room in FIFO */
 560:.\Generated_Source\PSoC5/SPIM_ITG3701.c ****         }
 561:.\Generated_Source\PSoC5/SPIM_ITG3701.c **** 
 562:.\Generated_Source\PSoC5/SPIM_ITG3701.c ****         /* Put byte in TX FIFO */
 563:.\Generated_Source\PSoC5/SPIM_ITG3701.c ****         CY_SET_REG16(SPIM_ITG3701_TXDATA_PTR, txData);
 550              		.loc 1 563 0 is_stmt 1
 551 0020 46F24243 		movw	r3, #25666
 552 0024 C4F20003 		movt	r3, 16384
 553 0028 FA88     		ldrh	r2, [r7, #6]	@ movhi
 554 002a 1A80     		strh	r2, [r3, #0]	@ movhi
 564:.\Generated_Source\PSoC5/SPIM_ITG3701.c **** 
 565:.\Generated_Source\PSoC5/SPIM_ITG3701.c ****     #endif /* (SPIM_ITG3701_TX_SOFTWARE_BUF_ENABLED) */
 566:.\Generated_Source\PSoC5/SPIM_ITG3701.c **** }
 555              		.loc 1 566 0
 556 002c 07F10C07 		add	r7, r7, #12
 557 0030 BD46     		mov	sp, r7
 558 0032 80BC     		pop	{r7}
 559 0034 7047     		bx	lr
 560              		.cfi_endproc
 561              	.LFE12:
 562              		.size	SPIM_ITG3701_WriteTxData, .-SPIM_ITG3701_WriteTxData
 563 0036 00BF     		.section	.text.SPIM_ITG3701_ReadRxData,"ax",%progbits
 564              		.align	2
 565              		.global	SPIM_ITG3701_ReadRxData
 566              		.thumb
 567              		.thumb_func
 568              		.type	SPIM_ITG3701_ReadRxData, %function
 569              	SPIM_ITG3701_ReadRxData:
 570              	.LFB13:
 567:.\Generated_Source\PSoC5/SPIM_ITG3701.c **** 
 568:.\Generated_Source\PSoC5/SPIM_ITG3701.c **** 
 569:.\Generated_Source\PSoC5/SPIM_ITG3701.c **** /*******************************************************************************
 570:.\Generated_Source\PSoC5/SPIM_ITG3701.c **** * Function Name: SPIM_ITG3701_ReadRxData
ARM GAS  C:\DOCUME~1\user\IMPOST~1\Temp\ccbjPeFq.s 			page 21


 571:.\Generated_Source\PSoC5/SPIM_ITG3701.c **** ********************************************************************************
 572:.\Generated_Source\PSoC5/SPIM_ITG3701.c **** *
 573:.\Generated_Source\PSoC5/SPIM_ITG3701.c **** * Summary:
 574:.\Generated_Source\PSoC5/SPIM_ITG3701.c **** *  Read the next byte of data received across the SPI.
 575:.\Generated_Source\PSoC5/SPIM_ITG3701.c **** *
 576:.\Generated_Source\PSoC5/SPIM_ITG3701.c **** * Parameters:
 577:.\Generated_Source\PSoC5/SPIM_ITG3701.c **** *  None.
 578:.\Generated_Source\PSoC5/SPIM_ITG3701.c **** *
 579:.\Generated_Source\PSoC5/SPIM_ITG3701.c **** * Return:
 580:.\Generated_Source\PSoC5/SPIM_ITG3701.c **** *  The next byte of data read from the FIFO.
 581:.\Generated_Source\PSoC5/SPIM_ITG3701.c **** *
 582:.\Generated_Source\PSoC5/SPIM_ITG3701.c **** * Global variables:
 583:.\Generated_Source\PSoC5/SPIM_ITG3701.c **** *  SPIM_ITG3701_rxBufferWrite - used for the account of the bytes which
 584:.\Generated_Source\PSoC5/SPIM_ITG3701.c **** *  have been written down in the RX software buffer.
 585:.\Generated_Source\PSoC5/SPIM_ITG3701.c **** *  SPIM_ITG3701_rxBufferRead - used for the account of the bytes which
 586:.\Generated_Source\PSoC5/SPIM_ITG3701.c **** *  have been read from the RX software buffer, modified every function
 587:.\Generated_Source\PSoC5/SPIM_ITG3701.c **** *  call if RX Software Buffer is used.
 588:.\Generated_Source\PSoC5/SPIM_ITG3701.c **** *  SPIM_ITG3701_rxBuffer[SPIM_ITG3701_RX_BUFFER_SIZE] - used to store
 589:.\Generated_Source\PSoC5/SPIM_ITG3701.c **** *  received data.
 590:.\Generated_Source\PSoC5/SPIM_ITG3701.c **** *
 591:.\Generated_Source\PSoC5/SPIM_ITG3701.c **** * Theory:
 592:.\Generated_Source\PSoC5/SPIM_ITG3701.c **** *  Allows the user to read a byte of data received.
 593:.\Generated_Source\PSoC5/SPIM_ITG3701.c **** *
 594:.\Generated_Source\PSoC5/SPIM_ITG3701.c **** * Side Effects:
 595:.\Generated_Source\PSoC5/SPIM_ITG3701.c **** *  Will return invalid data if the FIFO is empty. The user should Call
 596:.\Generated_Source\PSoC5/SPIM_ITG3701.c **** *  GetRxBufferSize() and if it returns a non-zero value then it is safe to call
 597:.\Generated_Source\PSoC5/SPIM_ITG3701.c **** *  ReadByte() function.
 598:.\Generated_Source\PSoC5/SPIM_ITG3701.c **** *
 599:.\Generated_Source\PSoC5/SPIM_ITG3701.c **** * Reentrant:
 600:.\Generated_Source\PSoC5/SPIM_ITG3701.c **** *  No.
 601:.\Generated_Source\PSoC5/SPIM_ITG3701.c **** *
 602:.\Generated_Source\PSoC5/SPIM_ITG3701.c **** *******************************************************************************/
 603:.\Generated_Source\PSoC5/SPIM_ITG3701.c **** uint16 SPIM_ITG3701_ReadRxData(void) 
 604:.\Generated_Source\PSoC5/SPIM_ITG3701.c **** {
 571              		.loc 1 604 0
 572              		.cfi_startproc
 573              		@ args = 0, pretend = 0, frame = 8
 574              		@ frame_needed = 1, uses_anonymous_args = 0
 575              		@ link register save eliminated.
 576 0000 80B4     		push	{r7}
 577              	.LCFI33:
 578              		.cfi_def_cfa_offset 4
 579              		.cfi_offset 7, -4
 580 0002 83B0     		sub	sp, sp, #12
 581              	.LCFI34:
 582              		.cfi_def_cfa_offset 16
 583 0004 00AF     		add	r7, sp, #0
 584              	.LCFI35:
 585              		.cfi_def_cfa_register 7
 605:.\Generated_Source\PSoC5/SPIM_ITG3701.c ****     uint16 rxData;
 606:.\Generated_Source\PSoC5/SPIM_ITG3701.c **** 
 607:.\Generated_Source\PSoC5/SPIM_ITG3701.c ****     #if(SPIM_ITG3701_RX_SOFTWARE_BUF_ENABLED)
 608:.\Generated_Source\PSoC5/SPIM_ITG3701.c **** 
 609:.\Generated_Source\PSoC5/SPIM_ITG3701.c ****         /* Disable RX interrupt to protect global veriables */
 610:.\Generated_Source\PSoC5/SPIM_ITG3701.c ****         SPIM_ITG3701_DisableRxInt();
 611:.\Generated_Source\PSoC5/SPIM_ITG3701.c **** 
 612:.\Generated_Source\PSoC5/SPIM_ITG3701.c ****         if(SPIM_ITG3701_rxBufferRead != SPIM_ITG3701_rxBufferWrite)
ARM GAS  C:\DOCUME~1\user\IMPOST~1\Temp\ccbjPeFq.s 			page 22


 613:.\Generated_Source\PSoC5/SPIM_ITG3701.c ****         {
 614:.\Generated_Source\PSoC5/SPIM_ITG3701.c ****             if(0u == SPIM_ITG3701_rxBufferFull)
 615:.\Generated_Source\PSoC5/SPIM_ITG3701.c ****             {
 616:.\Generated_Source\PSoC5/SPIM_ITG3701.c ****                 SPIM_ITG3701_rxBufferRead++;
 617:.\Generated_Source\PSoC5/SPIM_ITG3701.c ****                 if(SPIM_ITG3701_rxBufferRead >= SPIM_ITG3701_RX_BUFFER_SIZE)
 618:.\Generated_Source\PSoC5/SPIM_ITG3701.c ****                 {
 619:.\Generated_Source\PSoC5/SPIM_ITG3701.c ****                     SPIM_ITG3701_rxBufferRead = 0u;
 620:.\Generated_Source\PSoC5/SPIM_ITG3701.c ****                 }
 621:.\Generated_Source\PSoC5/SPIM_ITG3701.c ****             }
 622:.\Generated_Source\PSoC5/SPIM_ITG3701.c ****             else
 623:.\Generated_Source\PSoC5/SPIM_ITG3701.c ****             {
 624:.\Generated_Source\PSoC5/SPIM_ITG3701.c ****                 SPIM_ITG3701_rxBufferFull = 0u;
 625:.\Generated_Source\PSoC5/SPIM_ITG3701.c ****             }
 626:.\Generated_Source\PSoC5/SPIM_ITG3701.c ****         }
 627:.\Generated_Source\PSoC5/SPIM_ITG3701.c **** 
 628:.\Generated_Source\PSoC5/SPIM_ITG3701.c ****         rxData = SPIM_ITG3701_rxBuffer[SPIM_ITG3701_rxBufferRead];
 629:.\Generated_Source\PSoC5/SPIM_ITG3701.c **** 
 630:.\Generated_Source\PSoC5/SPIM_ITG3701.c ****         SPIM_ITG3701_EnableRxInt();
 631:.\Generated_Source\PSoC5/SPIM_ITG3701.c **** 
 632:.\Generated_Source\PSoC5/SPIM_ITG3701.c ****     #else
 633:.\Generated_Source\PSoC5/SPIM_ITG3701.c **** 
 634:.\Generated_Source\PSoC5/SPIM_ITG3701.c ****         rxData = CY_GET_REG16(SPIM_ITG3701_RXDATA_PTR);
 586              		.loc 1 634 0
 587 0006 46F25243 		movw	r3, #25682
 588 000a C4F20003 		movt	r3, 16384
 589 000e 1B88     		ldrh	r3, [r3, #0]	@ movhi
 590 0010 FB80     		strh	r3, [r7, #6]	@ movhi
 635:.\Generated_Source\PSoC5/SPIM_ITG3701.c **** 
 636:.\Generated_Source\PSoC5/SPIM_ITG3701.c ****     #endif /* (SPIM_ITG3701_RX_SOFTWARE_BUF_ENABLED) */
 637:.\Generated_Source\PSoC5/SPIM_ITG3701.c **** 
 638:.\Generated_Source\PSoC5/SPIM_ITG3701.c ****     return(rxData);
 591              		.loc 1 638 0
 592 0012 FB88     		ldrh	r3, [r7, #6]
 639:.\Generated_Source\PSoC5/SPIM_ITG3701.c **** }
 593              		.loc 1 639 0
 594 0014 1846     		mov	r0, r3
 595 0016 07F10C07 		add	r7, r7, #12
 596 001a BD46     		mov	sp, r7
 597 001c 80BC     		pop	{r7}
 598 001e 7047     		bx	lr
 599              		.cfi_endproc
 600              	.LFE13:
 601              		.size	SPIM_ITG3701_ReadRxData, .-SPIM_ITG3701_ReadRxData
 602              		.section	.text.SPIM_ITG3701_GetRxBufferSize,"ax",%progbits
 603              		.align	2
 604              		.global	SPIM_ITG3701_GetRxBufferSize
 605              		.thumb
 606              		.thumb_func
 607              		.type	SPIM_ITG3701_GetRxBufferSize, %function
 608              	SPIM_ITG3701_GetRxBufferSize:
 609              	.LFB14:
 640:.\Generated_Source\PSoC5/SPIM_ITG3701.c **** 
 641:.\Generated_Source\PSoC5/SPIM_ITG3701.c **** 
 642:.\Generated_Source\PSoC5/SPIM_ITG3701.c **** /*******************************************************************************
 643:.\Generated_Source\PSoC5/SPIM_ITG3701.c **** * Function Name: SPIM_ITG3701_GetRxBufferSize
 644:.\Generated_Source\PSoC5/SPIM_ITG3701.c **** ********************************************************************************
 645:.\Generated_Source\PSoC5/SPIM_ITG3701.c **** *
ARM GAS  C:\DOCUME~1\user\IMPOST~1\Temp\ccbjPeFq.s 			page 23


 646:.\Generated_Source\PSoC5/SPIM_ITG3701.c **** * Summary:
 647:.\Generated_Source\PSoC5/SPIM_ITG3701.c **** *  Returns the number of bytes/words of data currently held in the RX buffer.
 648:.\Generated_Source\PSoC5/SPIM_ITG3701.c **** *  If RX Software Buffer not used then function return 0 if FIFO empty or 1 if
 649:.\Generated_Source\PSoC5/SPIM_ITG3701.c **** *  FIFO not empty. In another case function return size of RX Software Buffer.
 650:.\Generated_Source\PSoC5/SPIM_ITG3701.c **** *
 651:.\Generated_Source\PSoC5/SPIM_ITG3701.c **** * Parameters:
 652:.\Generated_Source\PSoC5/SPIM_ITG3701.c **** *  None.
 653:.\Generated_Source\PSoC5/SPIM_ITG3701.c **** *
 654:.\Generated_Source\PSoC5/SPIM_ITG3701.c **** * Return:
 655:.\Generated_Source\PSoC5/SPIM_ITG3701.c **** *  Integer count of the number of bytes/words in the RX buffer.
 656:.\Generated_Source\PSoC5/SPIM_ITG3701.c **** *
 657:.\Generated_Source\PSoC5/SPIM_ITG3701.c **** * Global variables:
 658:.\Generated_Source\PSoC5/SPIM_ITG3701.c **** *  SPIM_ITG3701_rxBufferWrite - used for the account of the bytes which
 659:.\Generated_Source\PSoC5/SPIM_ITG3701.c **** *  have been written down in the RX software buffer.
 660:.\Generated_Source\PSoC5/SPIM_ITG3701.c **** *  SPIM_ITG3701_rxBufferRead - used for the account of the bytes which
 661:.\Generated_Source\PSoC5/SPIM_ITG3701.c **** *  have been read from the RX software buffer.
 662:.\Generated_Source\PSoC5/SPIM_ITG3701.c **** *
 663:.\Generated_Source\PSoC5/SPIM_ITG3701.c **** * Side Effects:
 664:.\Generated_Source\PSoC5/SPIM_ITG3701.c **** *  Clear status register of the component.
 665:.\Generated_Source\PSoC5/SPIM_ITG3701.c **** *
 666:.\Generated_Source\PSoC5/SPIM_ITG3701.c **** *******************************************************************************/
 667:.\Generated_Source\PSoC5/SPIM_ITG3701.c **** uint8 SPIM_ITG3701_GetRxBufferSize(void) 
 668:.\Generated_Source\PSoC5/SPIM_ITG3701.c **** {
 610              		.loc 1 668 0
 611              		.cfi_startproc
 612              		@ args = 0, pretend = 0, frame = 8
 613              		@ frame_needed = 1, uses_anonymous_args = 0
 614              		@ link register save eliminated.
 615 0000 80B4     		push	{r7}
 616              	.LCFI36:
 617              		.cfi_def_cfa_offset 4
 618              		.cfi_offset 7, -4
 619 0002 83B0     		sub	sp, sp, #12
 620              	.LCFI37:
 621              		.cfi_def_cfa_offset 16
 622 0004 00AF     		add	r7, sp, #0
 623              	.LCFI38:
 624              		.cfi_def_cfa_register 7
 669:.\Generated_Source\PSoC5/SPIM_ITG3701.c ****     uint8 size;
 670:.\Generated_Source\PSoC5/SPIM_ITG3701.c **** 
 671:.\Generated_Source\PSoC5/SPIM_ITG3701.c ****     #if(SPIM_ITG3701_RX_SOFTWARE_BUF_ENABLED)
 672:.\Generated_Source\PSoC5/SPIM_ITG3701.c **** 
 673:.\Generated_Source\PSoC5/SPIM_ITG3701.c ****         /* Disable RX interrupt to protect global veriables */
 674:.\Generated_Source\PSoC5/SPIM_ITG3701.c ****         SPIM_ITG3701_DisableRxInt();
 675:.\Generated_Source\PSoC5/SPIM_ITG3701.c **** 
 676:.\Generated_Source\PSoC5/SPIM_ITG3701.c ****         if(SPIM_ITG3701_rxBufferRead == SPIM_ITG3701_rxBufferWrite)
 677:.\Generated_Source\PSoC5/SPIM_ITG3701.c ****         {
 678:.\Generated_Source\PSoC5/SPIM_ITG3701.c ****             size = 0u;
 679:.\Generated_Source\PSoC5/SPIM_ITG3701.c ****         }
 680:.\Generated_Source\PSoC5/SPIM_ITG3701.c ****         else if(SPIM_ITG3701_rxBufferRead < SPIM_ITG3701_rxBufferWrite)
 681:.\Generated_Source\PSoC5/SPIM_ITG3701.c ****         {
 682:.\Generated_Source\PSoC5/SPIM_ITG3701.c ****             size = (SPIM_ITG3701_rxBufferWrite - SPIM_ITG3701_rxBufferRead);
 683:.\Generated_Source\PSoC5/SPIM_ITG3701.c ****         }
 684:.\Generated_Source\PSoC5/SPIM_ITG3701.c ****         else
 685:.\Generated_Source\PSoC5/SPIM_ITG3701.c ****         {
 686:.\Generated_Source\PSoC5/SPIM_ITG3701.c ****             size = (SPIM_ITG3701_RX_BUFFER_SIZE - SPIM_ITG3701_rxBufferRead) + SPIM_ITG3701_rxBuffe
 687:.\Generated_Source\PSoC5/SPIM_ITG3701.c ****         }
ARM GAS  C:\DOCUME~1\user\IMPOST~1\Temp\ccbjPeFq.s 			page 24


 688:.\Generated_Source\PSoC5/SPIM_ITG3701.c **** 
 689:.\Generated_Source\PSoC5/SPIM_ITG3701.c ****         SPIM_ITG3701_EnableRxInt();
 690:.\Generated_Source\PSoC5/SPIM_ITG3701.c **** 
 691:.\Generated_Source\PSoC5/SPIM_ITG3701.c ****     #else
 692:.\Generated_Source\PSoC5/SPIM_ITG3701.c **** 
 693:.\Generated_Source\PSoC5/SPIM_ITG3701.c ****         /* We can only know if there is data in the RX FIFO */
 694:.\Generated_Source\PSoC5/SPIM_ITG3701.c ****         size = (0u != (SPIM_ITG3701_RX_STATUS_REG & SPIM_ITG3701_STS_RX_FIFO_NOT_EMPTY)) ? 1u : 0u;
 625              		.loc 1 694 0
 626 0006 46F26643 		movw	r3, #25702
 627 000a C4F20003 		movt	r3, 16384
 628 000e 1B78     		ldrb	r3, [r3, #0]
 629 0010 DBB2     		uxtb	r3, r3
 630 0012 03F02003 		and	r3, r3, #32
 631 0016 002B     		cmp	r3, #0
 632 0018 02D0     		beq	.L21
 633              		.loc 1 694 0 is_stmt 0 discriminator 1
 634 001a 4FF00103 		mov	r3, #1
 635 001e 01E0     		b	.L22
 636              	.L21:
 637              		.loc 1 694 0 discriminator 2
 638 0020 4FF00003 		mov	r3, #0
 639              	.L22:
 640              		.loc 1 694 0 discriminator 3
 641 0024 FB71     		strb	r3, [r7, #7]
 695:.\Generated_Source\PSoC5/SPIM_ITG3701.c **** 
 696:.\Generated_Source\PSoC5/SPIM_ITG3701.c ****     #endif /* (SPIM_ITG3701_TX_SOFTWARE_BUF_ENABLED) */
 697:.\Generated_Source\PSoC5/SPIM_ITG3701.c **** 
 698:.\Generated_Source\PSoC5/SPIM_ITG3701.c ****     return(size);
 642              		.loc 1 698 0 is_stmt 1 discriminator 3
 643 0026 FB79     		ldrb	r3, [r7, #7]	@ zero_extendqisi2
 699:.\Generated_Source\PSoC5/SPIM_ITG3701.c **** }
 644              		.loc 1 699 0 discriminator 3
 645 0028 1846     		mov	r0, r3
 646 002a 07F10C07 		add	r7, r7, #12
 647 002e BD46     		mov	sp, r7
 648 0030 80BC     		pop	{r7}
 649 0032 7047     		bx	lr
 650              		.cfi_endproc
 651              	.LFE14:
 652              		.size	SPIM_ITG3701_GetRxBufferSize, .-SPIM_ITG3701_GetRxBufferSize
 653              		.section	.text.SPIM_ITG3701_GetTxBufferSize,"ax",%progbits
 654              		.align	2
 655              		.global	SPIM_ITG3701_GetTxBufferSize
 656              		.thumb
 657              		.thumb_func
 658              		.type	SPIM_ITG3701_GetTxBufferSize, %function
 659              	SPIM_ITG3701_GetTxBufferSize:
 660              	.LFB15:
 700:.\Generated_Source\PSoC5/SPIM_ITG3701.c **** 
 701:.\Generated_Source\PSoC5/SPIM_ITG3701.c **** 
 702:.\Generated_Source\PSoC5/SPIM_ITG3701.c **** /*******************************************************************************
 703:.\Generated_Source\PSoC5/SPIM_ITG3701.c **** * Function Name: SPIM_ITG3701_GetTxBufferSize
 704:.\Generated_Source\PSoC5/SPIM_ITG3701.c **** ********************************************************************************
 705:.\Generated_Source\PSoC5/SPIM_ITG3701.c **** *
 706:.\Generated_Source\PSoC5/SPIM_ITG3701.c **** * Summary:
 707:.\Generated_Source\PSoC5/SPIM_ITG3701.c **** *  Returns the number of bytes/words of data currently held in the TX buffer.
 708:.\Generated_Source\PSoC5/SPIM_ITG3701.c **** *  If TX Software Buffer not used then function return 0 - if FIFO empty, 1 - if
ARM GAS  C:\DOCUME~1\user\IMPOST~1\Temp\ccbjPeFq.s 			page 25


 709:.\Generated_Source\PSoC5/SPIM_ITG3701.c **** *  FIFO not full, 4 - if FIFO full. In another case function return size of TX
 710:.\Generated_Source\PSoC5/SPIM_ITG3701.c **** *  Software Buffer.
 711:.\Generated_Source\PSoC5/SPIM_ITG3701.c **** *
 712:.\Generated_Source\PSoC5/SPIM_ITG3701.c **** * Parameters:
 713:.\Generated_Source\PSoC5/SPIM_ITG3701.c **** *  None.
 714:.\Generated_Source\PSoC5/SPIM_ITG3701.c **** *
 715:.\Generated_Source\PSoC5/SPIM_ITG3701.c **** * Return:
 716:.\Generated_Source\PSoC5/SPIM_ITG3701.c **** *  Integer count of the number of bytes/words in the TX buffer.
 717:.\Generated_Source\PSoC5/SPIM_ITG3701.c **** *
 718:.\Generated_Source\PSoC5/SPIM_ITG3701.c **** * Global variables:
 719:.\Generated_Source\PSoC5/SPIM_ITG3701.c **** *  SPIM_ITG3701_txBufferWrite - used for the account of the bytes which
 720:.\Generated_Source\PSoC5/SPIM_ITG3701.c **** *  have been written down in the TX software buffer.
 721:.\Generated_Source\PSoC5/SPIM_ITG3701.c **** *  SPIM_ITG3701_txBufferRead - used for the account of the bytes which
 722:.\Generated_Source\PSoC5/SPIM_ITG3701.c **** *  have been read from the TX software buffer.
 723:.\Generated_Source\PSoC5/SPIM_ITG3701.c **** *
 724:.\Generated_Source\PSoC5/SPIM_ITG3701.c **** * Side Effects:
 725:.\Generated_Source\PSoC5/SPIM_ITG3701.c **** *  Clear status register of the component.
 726:.\Generated_Source\PSoC5/SPIM_ITG3701.c **** *
 727:.\Generated_Source\PSoC5/SPIM_ITG3701.c **** *******************************************************************************/
 728:.\Generated_Source\PSoC5/SPIM_ITG3701.c **** uint8  SPIM_ITG3701_GetTxBufferSize(void) 
 729:.\Generated_Source\PSoC5/SPIM_ITG3701.c **** {
 661              		.loc 1 729 0
 662              		.cfi_startproc
 663              		@ args = 0, pretend = 0, frame = 8
 664              		@ frame_needed = 1, uses_anonymous_args = 0
 665              		@ link register save eliminated.
 666 0000 80B4     		push	{r7}
 667              	.LCFI39:
 668              		.cfi_def_cfa_offset 4
 669              		.cfi_offset 7, -4
 670 0002 83B0     		sub	sp, sp, #12
 671              	.LCFI40:
 672              		.cfi_def_cfa_offset 16
 673 0004 00AF     		add	r7, sp, #0
 674              	.LCFI41:
 675              		.cfi_def_cfa_register 7
 730:.\Generated_Source\PSoC5/SPIM_ITG3701.c ****     uint8 size;
 731:.\Generated_Source\PSoC5/SPIM_ITG3701.c **** 
 732:.\Generated_Source\PSoC5/SPIM_ITG3701.c ****     #if(SPIM_ITG3701_TX_SOFTWARE_BUF_ENABLED)
 733:.\Generated_Source\PSoC5/SPIM_ITG3701.c ****         /* Disable TX interrupt to protect global veriables */
 734:.\Generated_Source\PSoC5/SPIM_ITG3701.c ****         SPIM_ITG3701_DisableTxInt();
 735:.\Generated_Source\PSoC5/SPIM_ITG3701.c **** 
 736:.\Generated_Source\PSoC5/SPIM_ITG3701.c ****         if(SPIM_ITG3701_txBufferRead == SPIM_ITG3701_txBufferWrite)
 737:.\Generated_Source\PSoC5/SPIM_ITG3701.c ****         {
 738:.\Generated_Source\PSoC5/SPIM_ITG3701.c ****             size = 0u;
 739:.\Generated_Source\PSoC5/SPIM_ITG3701.c ****         }
 740:.\Generated_Source\PSoC5/SPIM_ITG3701.c ****         else if(SPIM_ITG3701_txBufferRead < SPIM_ITG3701_txBufferWrite)
 741:.\Generated_Source\PSoC5/SPIM_ITG3701.c ****         {
 742:.\Generated_Source\PSoC5/SPIM_ITG3701.c ****             size = (SPIM_ITG3701_txBufferWrite - SPIM_ITG3701_txBufferRead);
 743:.\Generated_Source\PSoC5/SPIM_ITG3701.c ****         }
 744:.\Generated_Source\PSoC5/SPIM_ITG3701.c ****         else
 745:.\Generated_Source\PSoC5/SPIM_ITG3701.c ****         {
 746:.\Generated_Source\PSoC5/SPIM_ITG3701.c ****             size = (SPIM_ITG3701_TX_BUFFER_SIZE - SPIM_ITG3701_txBufferRead) + SPIM_ITG3701_txBuffe
 747:.\Generated_Source\PSoC5/SPIM_ITG3701.c ****         }
 748:.\Generated_Source\PSoC5/SPIM_ITG3701.c **** 
 749:.\Generated_Source\PSoC5/SPIM_ITG3701.c ****         SPIM_ITG3701_EnableTxInt();
 750:.\Generated_Source\PSoC5/SPIM_ITG3701.c **** 
ARM GAS  C:\DOCUME~1\user\IMPOST~1\Temp\ccbjPeFq.s 			page 26


 751:.\Generated_Source\PSoC5/SPIM_ITG3701.c ****     #else
 752:.\Generated_Source\PSoC5/SPIM_ITG3701.c **** 
 753:.\Generated_Source\PSoC5/SPIM_ITG3701.c ****         size = SPIM_ITG3701_TX_STATUS_REG;
 676              		.loc 1 753 0
 677 0006 46F26243 		movw	r3, #25698
 678 000a C4F20003 		movt	r3, 16384
 679 000e 1B78     		ldrb	r3, [r3, #0]
 680 0010 FB71     		strb	r3, [r7, #7]
 754:.\Generated_Source\PSoC5/SPIM_ITG3701.c **** 
 755:.\Generated_Source\PSoC5/SPIM_ITG3701.c ****         if(0u != (size & SPIM_ITG3701_STS_TX_FIFO_EMPTY))
 681              		.loc 1 755 0
 682 0012 FB79     		ldrb	r3, [r7, #7]	@ zero_extendqisi2
 683 0014 03F00203 		and	r3, r3, #2
 684 0018 002B     		cmp	r3, #0
 685 001a 03D0     		beq	.L25
 756:.\Generated_Source\PSoC5/SPIM_ITG3701.c ****         {
 757:.\Generated_Source\PSoC5/SPIM_ITG3701.c ****             size = 0u;
 686              		.loc 1 757 0
 687 001c 4FF00003 		mov	r3, #0
 688 0020 FB71     		strb	r3, [r7, #7]
 689 0022 0BE0     		b	.L26
 690              	.L25:
 758:.\Generated_Source\PSoC5/SPIM_ITG3701.c ****         }
 759:.\Generated_Source\PSoC5/SPIM_ITG3701.c ****         else if(0u != (size & SPIM_ITG3701_STS_TX_FIFO_NOT_FULL))
 691              		.loc 1 759 0
 692 0024 FB79     		ldrb	r3, [r7, #7]	@ zero_extendqisi2
 693 0026 03F00403 		and	r3, r3, #4
 694 002a 002B     		cmp	r3, #0
 695 002c 03D0     		beq	.L27
 760:.\Generated_Source\PSoC5/SPIM_ITG3701.c ****         {
 761:.\Generated_Source\PSoC5/SPIM_ITG3701.c ****             size = 1u;
 696              		.loc 1 761 0
 697 002e 4FF00103 		mov	r3, #1
 698 0032 FB71     		strb	r3, [r7, #7]
 699 0034 02E0     		b	.L26
 700              	.L27:
 762:.\Generated_Source\PSoC5/SPIM_ITG3701.c ****         }
 763:.\Generated_Source\PSoC5/SPIM_ITG3701.c ****         else
 764:.\Generated_Source\PSoC5/SPIM_ITG3701.c ****         {
 765:.\Generated_Source\PSoC5/SPIM_ITG3701.c ****             size = SPIM_ITG3701_FIFO_SIZE;
 701              		.loc 1 765 0
 702 0036 4FF00403 		mov	r3, #4
 703 003a FB71     		strb	r3, [r7, #7]
 704              	.L26:
 766:.\Generated_Source\PSoC5/SPIM_ITG3701.c ****         }
 767:.\Generated_Source\PSoC5/SPIM_ITG3701.c **** 
 768:.\Generated_Source\PSoC5/SPIM_ITG3701.c ****     #endif /* (SPIM_ITG3701_TX_SOFTWARE_BUF_ENABLED) */
 769:.\Generated_Source\PSoC5/SPIM_ITG3701.c **** 
 770:.\Generated_Source\PSoC5/SPIM_ITG3701.c ****     return(size);
 705              		.loc 1 770 0
 706 003c FB79     		ldrb	r3, [r7, #7]	@ zero_extendqisi2
 771:.\Generated_Source\PSoC5/SPIM_ITG3701.c **** }
 707              		.loc 1 771 0
 708 003e 1846     		mov	r0, r3
 709 0040 07F10C07 		add	r7, r7, #12
 710 0044 BD46     		mov	sp, r7
 711 0046 80BC     		pop	{r7}
ARM GAS  C:\DOCUME~1\user\IMPOST~1\Temp\ccbjPeFq.s 			page 27


 712 0048 7047     		bx	lr
 713              		.cfi_endproc
 714              	.LFE15:
 715              		.size	SPIM_ITG3701_GetTxBufferSize, .-SPIM_ITG3701_GetTxBufferSize
 716 004a 00BF     		.section	.text.SPIM_ITG3701_ClearRxBuffer,"ax",%progbits
 717              		.align	2
 718              		.global	SPIM_ITG3701_ClearRxBuffer
 719              		.thumb
 720              		.thumb_func
 721              		.type	SPIM_ITG3701_ClearRxBuffer, %function
 722              	SPIM_ITG3701_ClearRxBuffer:
 723              	.LFB16:
 772:.\Generated_Source\PSoC5/SPIM_ITG3701.c **** 
 773:.\Generated_Source\PSoC5/SPIM_ITG3701.c **** 
 774:.\Generated_Source\PSoC5/SPIM_ITG3701.c **** /*******************************************************************************
 775:.\Generated_Source\PSoC5/SPIM_ITG3701.c **** * Function Name: SPIM_ITG3701_ClearRxBuffer
 776:.\Generated_Source\PSoC5/SPIM_ITG3701.c **** ********************************************************************************
 777:.\Generated_Source\PSoC5/SPIM_ITG3701.c **** *
 778:.\Generated_Source\PSoC5/SPIM_ITG3701.c **** * Summary:
 779:.\Generated_Source\PSoC5/SPIM_ITG3701.c **** *  Clear the RX RAM buffer by setting the read and write pointers both to zero.
 780:.\Generated_Source\PSoC5/SPIM_ITG3701.c **** *
 781:.\Generated_Source\PSoC5/SPIM_ITG3701.c **** * Parameters:
 782:.\Generated_Source\PSoC5/SPIM_ITG3701.c **** *  None.
 783:.\Generated_Source\PSoC5/SPIM_ITG3701.c **** *
 784:.\Generated_Source\PSoC5/SPIM_ITG3701.c **** * Return:
 785:.\Generated_Source\PSoC5/SPIM_ITG3701.c **** *  None.
 786:.\Generated_Source\PSoC5/SPIM_ITG3701.c **** *
 787:.\Generated_Source\PSoC5/SPIM_ITG3701.c **** * Global variables:
 788:.\Generated_Source\PSoC5/SPIM_ITG3701.c **** *  SPIM_ITG3701_rxBufferWrite - used for the account of the bytes which
 789:.\Generated_Source\PSoC5/SPIM_ITG3701.c **** *  have been written down in the RX software buffer, modified every function
 790:.\Generated_Source\PSoC5/SPIM_ITG3701.c **** *  call - resets to zero.
 791:.\Generated_Source\PSoC5/SPIM_ITG3701.c **** *  SPIM_ITG3701_rxBufferRead - used for the account of the bytes which
 792:.\Generated_Source\PSoC5/SPIM_ITG3701.c **** *  have been read from the RX software buffer, modified every function call -
 793:.\Generated_Source\PSoC5/SPIM_ITG3701.c **** *  resets to zero.
 794:.\Generated_Source\PSoC5/SPIM_ITG3701.c **** *
 795:.\Generated_Source\PSoC5/SPIM_ITG3701.c **** * Theory:
 796:.\Generated_Source\PSoC5/SPIM_ITG3701.c **** *  Setting the pointers to zero makes the system believe there is no data to
 797:.\Generated_Source\PSoC5/SPIM_ITG3701.c **** *  read and writing will resume at address 0 overwriting any data that may have
 798:.\Generated_Source\PSoC5/SPIM_ITG3701.c **** *  remained in the RAM.
 799:.\Generated_Source\PSoC5/SPIM_ITG3701.c **** *
 800:.\Generated_Source\PSoC5/SPIM_ITG3701.c **** * Side Effects:
 801:.\Generated_Source\PSoC5/SPIM_ITG3701.c **** *  Any received data not read from the RAM buffer will be lost when overwritten.
 802:.\Generated_Source\PSoC5/SPIM_ITG3701.c **** *
 803:.\Generated_Source\PSoC5/SPIM_ITG3701.c **** * Reentrant:
 804:.\Generated_Source\PSoC5/SPIM_ITG3701.c **** *  No.
 805:.\Generated_Source\PSoC5/SPIM_ITG3701.c **** *
 806:.\Generated_Source\PSoC5/SPIM_ITG3701.c **** *******************************************************************************/
 807:.\Generated_Source\PSoC5/SPIM_ITG3701.c **** void SPIM_ITG3701_ClearRxBuffer(void) 
 808:.\Generated_Source\PSoC5/SPIM_ITG3701.c **** {
 724              		.loc 1 808 0
 725              		.cfi_startproc
 726              		@ args = 0, pretend = 0, frame = 0
 727              		@ frame_needed = 1, uses_anonymous_args = 0
 728              		@ link register save eliminated.
 729 0000 80B4     		push	{r7}
 730              	.LCFI42:
 731              		.cfi_def_cfa_offset 4
ARM GAS  C:\DOCUME~1\user\IMPOST~1\Temp\ccbjPeFq.s 			page 28


 732              		.cfi_offset 7, -4
 733 0002 00AF     		add	r7, sp, #0
 734              	.LCFI43:
 735              		.cfi_def_cfa_register 7
 809:.\Generated_Source\PSoC5/SPIM_ITG3701.c ****     /* Clear Hardware RX FIFO */
 810:.\Generated_Source\PSoC5/SPIM_ITG3701.c ****     while(0u !=(SPIM_ITG3701_RX_STATUS_REG & SPIM_ITG3701_STS_RX_FIFO_NOT_EMPTY))
 736              		.loc 1 810 0
 737 0004 04E0     		b	.L30
 738              	.L31:
 811:.\Generated_Source\PSoC5/SPIM_ITG3701.c ****     {
 812:.\Generated_Source\PSoC5/SPIM_ITG3701.c ****         (void) CY_GET_REG16(SPIM_ITG3701_RXDATA_PTR);
 739              		.loc 1 812 0
 740 0006 46F25243 		movw	r3, #25682
 741 000a C4F20003 		movt	r3, 16384
 742 000e 1B88     		ldrh	r3, [r3, #0]	@ movhi
 743              	.L30:
 810:.\Generated_Source\PSoC5/SPIM_ITG3701.c ****     while(0u !=(SPIM_ITG3701_RX_STATUS_REG & SPIM_ITG3701_STS_RX_FIFO_NOT_EMPTY))
 744              		.loc 1 810 0 discriminator 1
 745 0010 46F26643 		movw	r3, #25702
 746 0014 C4F20003 		movt	r3, 16384
 747 0018 1B78     		ldrb	r3, [r3, #0]
 748 001a DBB2     		uxtb	r3, r3
 749 001c 03F02003 		and	r3, r3, #32
 750 0020 002B     		cmp	r3, #0
 751 0022 F0D1     		bne	.L31
 813:.\Generated_Source\PSoC5/SPIM_ITG3701.c ****     }
 814:.\Generated_Source\PSoC5/SPIM_ITG3701.c **** 
 815:.\Generated_Source\PSoC5/SPIM_ITG3701.c ****     #if(SPIM_ITG3701_RX_SOFTWARE_BUF_ENABLED)
 816:.\Generated_Source\PSoC5/SPIM_ITG3701.c ****         /* Disable RX interrupt to protect global veriables */
 817:.\Generated_Source\PSoC5/SPIM_ITG3701.c ****         SPIM_ITG3701_DisableRxInt();
 818:.\Generated_Source\PSoC5/SPIM_ITG3701.c **** 
 819:.\Generated_Source\PSoC5/SPIM_ITG3701.c ****         SPIM_ITG3701_rxBufferFull  = 0u;
 820:.\Generated_Source\PSoC5/SPIM_ITG3701.c ****         SPIM_ITG3701_rxBufferRead  = 0u;
 821:.\Generated_Source\PSoC5/SPIM_ITG3701.c ****         SPIM_ITG3701_rxBufferWrite = 0u;
 822:.\Generated_Source\PSoC5/SPIM_ITG3701.c **** 
 823:.\Generated_Source\PSoC5/SPIM_ITG3701.c ****         SPIM_ITG3701_EnableRxInt();
 824:.\Generated_Source\PSoC5/SPIM_ITG3701.c ****     #endif /* (SPIM_ITG3701_RX_SOFTWARE_BUF_ENABLED) */
 825:.\Generated_Source\PSoC5/SPIM_ITG3701.c **** }
 752              		.loc 1 825 0
 753 0024 BD46     		mov	sp, r7
 754 0026 80BC     		pop	{r7}
 755 0028 7047     		bx	lr
 756              		.cfi_endproc
 757              	.LFE16:
 758              		.size	SPIM_ITG3701_ClearRxBuffer, .-SPIM_ITG3701_ClearRxBuffer
 759 002a 00BF     		.section	.text.SPIM_ITG3701_ClearTxBuffer,"ax",%progbits
 760              		.align	2
 761              		.global	SPIM_ITG3701_ClearTxBuffer
 762              		.thumb
 763              		.thumb_func
 764              		.type	SPIM_ITG3701_ClearTxBuffer, %function
 765              	SPIM_ITG3701_ClearTxBuffer:
 766              	.LFB17:
 826:.\Generated_Source\PSoC5/SPIM_ITG3701.c **** 
 827:.\Generated_Source\PSoC5/SPIM_ITG3701.c **** 
 828:.\Generated_Source\PSoC5/SPIM_ITG3701.c **** /*******************************************************************************
 829:.\Generated_Source\PSoC5/SPIM_ITG3701.c **** * Function Name: SPIM_ITG3701_ClearTxBuffer
ARM GAS  C:\DOCUME~1\user\IMPOST~1\Temp\ccbjPeFq.s 			page 29


 830:.\Generated_Source\PSoC5/SPIM_ITG3701.c **** ********************************************************************************
 831:.\Generated_Source\PSoC5/SPIM_ITG3701.c **** *
 832:.\Generated_Source\PSoC5/SPIM_ITG3701.c **** * Summary:
 833:.\Generated_Source\PSoC5/SPIM_ITG3701.c **** *  Clear the TX RAM buffer by setting the read and write pointers both to zero.
 834:.\Generated_Source\PSoC5/SPIM_ITG3701.c **** *
 835:.\Generated_Source\PSoC5/SPIM_ITG3701.c **** * Parameters:
 836:.\Generated_Source\PSoC5/SPIM_ITG3701.c **** *  None.
 837:.\Generated_Source\PSoC5/SPIM_ITG3701.c **** *
 838:.\Generated_Source\PSoC5/SPIM_ITG3701.c **** * Return:
 839:.\Generated_Source\PSoC5/SPIM_ITG3701.c **** *  None.
 840:.\Generated_Source\PSoC5/SPIM_ITG3701.c **** *
 841:.\Generated_Source\PSoC5/SPIM_ITG3701.c **** * Global variables:
 842:.\Generated_Source\PSoC5/SPIM_ITG3701.c **** *  SPIM_ITG3701_txBufferWrite - used for the account of the bytes which
 843:.\Generated_Source\PSoC5/SPIM_ITG3701.c **** *  have been written down in the TX software buffer, modified every function
 844:.\Generated_Source\PSoC5/SPIM_ITG3701.c **** *  call - resets to zero.
 845:.\Generated_Source\PSoC5/SPIM_ITG3701.c **** *  SPIM_ITG3701_txBufferRead - used for the account of the bytes which
 846:.\Generated_Source\PSoC5/SPIM_ITG3701.c **** *  have been read from the TX software buffer, modified every function call -
 847:.\Generated_Source\PSoC5/SPIM_ITG3701.c **** *  resets to zero.
 848:.\Generated_Source\PSoC5/SPIM_ITG3701.c **** *
 849:.\Generated_Source\PSoC5/SPIM_ITG3701.c **** * Theory:
 850:.\Generated_Source\PSoC5/SPIM_ITG3701.c **** *  Setting the pointers to zero makes the system believe there is no data to
 851:.\Generated_Source\PSoC5/SPIM_ITG3701.c **** *  read and writing will resume at address 0 overwriting any data that may have
 852:.\Generated_Source\PSoC5/SPIM_ITG3701.c **** *  remained in the RAM.
 853:.\Generated_Source\PSoC5/SPIM_ITG3701.c **** *
 854:.\Generated_Source\PSoC5/SPIM_ITG3701.c **** * Side Effects:
 855:.\Generated_Source\PSoC5/SPIM_ITG3701.c **** *  Any data not yet transmitted from the RAM buffer will be lost when
 856:.\Generated_Source\PSoC5/SPIM_ITG3701.c **** *  overwritten.
 857:.\Generated_Source\PSoC5/SPIM_ITG3701.c **** *
 858:.\Generated_Source\PSoC5/SPIM_ITG3701.c **** * Reentrant:
 859:.\Generated_Source\PSoC5/SPIM_ITG3701.c **** *  No.
 860:.\Generated_Source\PSoC5/SPIM_ITG3701.c **** *
 861:.\Generated_Source\PSoC5/SPIM_ITG3701.c **** *******************************************************************************/
 862:.\Generated_Source\PSoC5/SPIM_ITG3701.c **** void SPIM_ITG3701_ClearTxBuffer(void) 
 863:.\Generated_Source\PSoC5/SPIM_ITG3701.c **** {
 767              		.loc 1 863 0
 768              		.cfi_startproc
 769              		@ args = 0, pretend = 0, frame = 8
 770              		@ frame_needed = 1, uses_anonymous_args = 0
 771 0000 80B5     		push	{r7, lr}
 772              	.LCFI44:
 773              		.cfi_def_cfa_offset 8
 774              		.cfi_offset 7, -8
 775              		.cfi_offset 14, -4
 776 0002 82B0     		sub	sp, sp, #8
 777              	.LCFI45:
 778              		.cfi_def_cfa_offset 16
 779 0004 00AF     		add	r7, sp, #0
 780              	.LCFI46:
 781              		.cfi_def_cfa_register 7
 864:.\Generated_Source\PSoC5/SPIM_ITG3701.c ****     uint8 enableInterrupts;
 865:.\Generated_Source\PSoC5/SPIM_ITG3701.c **** 
 866:.\Generated_Source\PSoC5/SPIM_ITG3701.c ****     enableInterrupts = CyEnterCriticalSection();
 782              		.loc 1 866 0
 783 0006 FFF7FEFF 		bl	CyEnterCriticalSection
 784 000a 0346     		mov	r3, r0
 785 000c FB71     		strb	r3, [r7, #7]
 867:.\Generated_Source\PSoC5/SPIM_ITG3701.c ****     /* Clear TX FIFO */
ARM GAS  C:\DOCUME~1\user\IMPOST~1\Temp\ccbjPeFq.s 			page 30


 868:.\Generated_Source\PSoC5/SPIM_ITG3701.c ****     SPIM_ITG3701_AUX_CONTROL_DP0_REG |= ((uint8)  SPIM_ITG3701_TX_FIFO_CLR);
 786              		.loc 1 868 0
 787 000e 46F29243 		movw	r3, #25746
 788 0012 C4F20003 		movt	r3, 16384
 789 0016 46F29242 		movw	r2, #25746
 790 001a C4F20002 		movt	r2, 16384
 791 001e 1278     		ldrb	r2, [r2, #0]
 792 0020 D2B2     		uxtb	r2, r2
 793 0022 42F00102 		orr	r2, r2, #1
 794 0026 D2B2     		uxtb	r2, r2
 795 0028 1A70     		strb	r2, [r3, #0]
 869:.\Generated_Source\PSoC5/SPIM_ITG3701.c ****     SPIM_ITG3701_AUX_CONTROL_DP0_REG &= ((uint8) ~SPIM_ITG3701_TX_FIFO_CLR);
 796              		.loc 1 869 0
 797 002a 46F29243 		movw	r3, #25746
 798 002e C4F20003 		movt	r3, 16384
 799 0032 46F29242 		movw	r2, #25746
 800 0036 C4F20002 		movt	r2, 16384
 801 003a 1278     		ldrb	r2, [r2, #0]
 802 003c D2B2     		uxtb	r2, r2
 803 003e 22F00102 		bic	r2, r2, #1
 804 0042 D2B2     		uxtb	r2, r2
 805 0044 1A70     		strb	r2, [r3, #0]
 870:.\Generated_Source\PSoC5/SPIM_ITG3701.c **** 
 871:.\Generated_Source\PSoC5/SPIM_ITG3701.c ****     #if(SPIM_ITG3701_USE_SECOND_DATAPATH)
 872:.\Generated_Source\PSoC5/SPIM_ITG3701.c ****         /* Clear TX FIFO for 2nd Datapath */
 873:.\Generated_Source\PSoC5/SPIM_ITG3701.c ****         SPIM_ITG3701_AUX_CONTROL_DP1_REG |= ((uint8)  SPIM_ITG3701_TX_FIFO_CLR);
 806              		.loc 1 873 0
 807 0046 46F29343 		movw	r3, #25747
 808 004a C4F20003 		movt	r3, 16384
 809 004e 46F29342 		movw	r2, #25747
 810 0052 C4F20002 		movt	r2, 16384
 811 0056 1278     		ldrb	r2, [r2, #0]
 812 0058 D2B2     		uxtb	r2, r2
 813 005a 42F00102 		orr	r2, r2, #1
 814 005e D2B2     		uxtb	r2, r2
 815 0060 1A70     		strb	r2, [r3, #0]
 874:.\Generated_Source\PSoC5/SPIM_ITG3701.c ****         SPIM_ITG3701_AUX_CONTROL_DP1_REG &= ((uint8) ~SPIM_ITG3701_TX_FIFO_CLR);
 816              		.loc 1 874 0
 817 0062 46F29343 		movw	r3, #25747
 818 0066 C4F20003 		movt	r3, 16384
 819 006a 46F29342 		movw	r2, #25747
 820 006e C4F20002 		movt	r2, 16384
 821 0072 1278     		ldrb	r2, [r2, #0]
 822 0074 D2B2     		uxtb	r2, r2
 823 0076 22F00102 		bic	r2, r2, #1
 824 007a D2B2     		uxtb	r2, r2
 825 007c 1A70     		strb	r2, [r3, #0]
 875:.\Generated_Source\PSoC5/SPIM_ITG3701.c ****     #endif /* (SPIM_ITG3701_USE_SECOND_DATAPATH) */
 876:.\Generated_Source\PSoC5/SPIM_ITG3701.c ****     CyExitCriticalSection(enableInterrupts);
 826              		.loc 1 876 0
 827 007e FB79     		ldrb	r3, [r7, #7]	@ zero_extendqisi2
 828 0080 1846     		mov	r0, r3
 829 0082 FFF7FEFF 		bl	CyExitCriticalSection
 877:.\Generated_Source\PSoC5/SPIM_ITG3701.c **** 
 878:.\Generated_Source\PSoC5/SPIM_ITG3701.c ****     #if(SPIM_ITG3701_TX_SOFTWARE_BUF_ENABLED)
 879:.\Generated_Source\PSoC5/SPIM_ITG3701.c ****         /* Disable TX interrupt to protect global veriables */
 880:.\Generated_Source\PSoC5/SPIM_ITG3701.c ****         SPIM_ITG3701_DisableTxInt();
ARM GAS  C:\DOCUME~1\user\IMPOST~1\Temp\ccbjPeFq.s 			page 31


 881:.\Generated_Source\PSoC5/SPIM_ITG3701.c **** 
 882:.\Generated_Source\PSoC5/SPIM_ITG3701.c ****         SPIM_ITG3701_txBufferFull  = 0u;
 883:.\Generated_Source\PSoC5/SPIM_ITG3701.c ****         SPIM_ITG3701_txBufferRead  = 0u;
 884:.\Generated_Source\PSoC5/SPIM_ITG3701.c ****         SPIM_ITG3701_txBufferWrite = 0u;
 885:.\Generated_Source\PSoC5/SPIM_ITG3701.c **** 
 886:.\Generated_Source\PSoC5/SPIM_ITG3701.c ****         /* Buffer is EMPTY: disable TX FIFO NOT FULL interrupt */
 887:.\Generated_Source\PSoC5/SPIM_ITG3701.c ****         SPIM_ITG3701_TX_STATUS_MASK_REG &= ((uint8) ~SPIM_ITG3701_STS_TX_FIFO_NOT_FULL);
 888:.\Generated_Source\PSoC5/SPIM_ITG3701.c **** 
 889:.\Generated_Source\PSoC5/SPIM_ITG3701.c ****         SPIM_ITG3701_EnableTxInt();
 890:.\Generated_Source\PSoC5/SPIM_ITG3701.c ****     #endif /* (SPIM_ITG3701_TX_SOFTWARE_BUF_ENABLED) */
 891:.\Generated_Source\PSoC5/SPIM_ITG3701.c **** }
 830              		.loc 1 891 0
 831 0086 07F10807 		add	r7, r7, #8
 832 008a BD46     		mov	sp, r7
 833 008c 80BD     		pop	{r7, pc}
 834              		.cfi_endproc
 835              	.LFE17:
 836              		.size	SPIM_ITG3701_ClearTxBuffer, .-SPIM_ITG3701_ClearTxBuffer
 837 008e 00BF     		.section	.text.SPIM_ITG3701_PutArray,"ax",%progbits
 838              		.align	2
 839              		.global	SPIM_ITG3701_PutArray
 840              		.thumb
 841              		.thumb_func
 842              		.type	SPIM_ITG3701_PutArray, %function
 843              	SPIM_ITG3701_PutArray:
 844              	.LFB18:
 892:.\Generated_Source\PSoC5/SPIM_ITG3701.c **** 
 893:.\Generated_Source\PSoC5/SPIM_ITG3701.c **** 
 894:.\Generated_Source\PSoC5/SPIM_ITG3701.c **** #if(0u != SPIM_ITG3701_BIDIRECTIONAL_MODE)
 895:.\Generated_Source\PSoC5/SPIM_ITG3701.c ****     /*******************************************************************************
 896:.\Generated_Source\PSoC5/SPIM_ITG3701.c ****     * Function Name: SPIM_ITG3701_TxEnable
 897:.\Generated_Source\PSoC5/SPIM_ITG3701.c ****     ********************************************************************************
 898:.\Generated_Source\PSoC5/SPIM_ITG3701.c ****     *
 899:.\Generated_Source\PSoC5/SPIM_ITG3701.c ****     * Summary:
 900:.\Generated_Source\PSoC5/SPIM_ITG3701.c ****     *  If the SPI master is configured to use a single bi-directional pin then this
 901:.\Generated_Source\PSoC5/SPIM_ITG3701.c ****     *  will set the bi-directional pin to transmit.
 902:.\Generated_Source\PSoC5/SPIM_ITG3701.c ****     *
 903:.\Generated_Source\PSoC5/SPIM_ITG3701.c ****     * Parameters:
 904:.\Generated_Source\PSoC5/SPIM_ITG3701.c ****     *  None.
 905:.\Generated_Source\PSoC5/SPIM_ITG3701.c ****     *
 906:.\Generated_Source\PSoC5/SPIM_ITG3701.c ****     * Return:
 907:.\Generated_Source\PSoC5/SPIM_ITG3701.c ****     *  None.
 908:.\Generated_Source\PSoC5/SPIM_ITG3701.c ****     *
 909:.\Generated_Source\PSoC5/SPIM_ITG3701.c ****     *******************************************************************************/
 910:.\Generated_Source\PSoC5/SPIM_ITG3701.c ****     void SPIM_ITG3701_TxEnable(void) 
 911:.\Generated_Source\PSoC5/SPIM_ITG3701.c ****     {
 912:.\Generated_Source\PSoC5/SPIM_ITG3701.c ****         SPIM_ITG3701_CONTROL_REG |= SPIM_ITG3701_CTRL_TX_SIGNAL_EN;
 913:.\Generated_Source\PSoC5/SPIM_ITG3701.c ****     }
 914:.\Generated_Source\PSoC5/SPIM_ITG3701.c **** 
 915:.\Generated_Source\PSoC5/SPIM_ITG3701.c **** 
 916:.\Generated_Source\PSoC5/SPIM_ITG3701.c ****     /*******************************************************************************
 917:.\Generated_Source\PSoC5/SPIM_ITG3701.c ****     * Function Name: SPIM_ITG3701_TxDisable
 918:.\Generated_Source\PSoC5/SPIM_ITG3701.c ****     ********************************************************************************
 919:.\Generated_Source\PSoC5/SPIM_ITG3701.c ****     *
 920:.\Generated_Source\PSoC5/SPIM_ITG3701.c ****     * Summary:
 921:.\Generated_Source\PSoC5/SPIM_ITG3701.c ****     *  If the SPI master is configured to use a single bi-directional pin then this
 922:.\Generated_Source\PSoC5/SPIM_ITG3701.c ****     *  will set the bi-directional pin to receive.
ARM GAS  C:\DOCUME~1\user\IMPOST~1\Temp\ccbjPeFq.s 			page 32


 923:.\Generated_Source\PSoC5/SPIM_ITG3701.c ****     *
 924:.\Generated_Source\PSoC5/SPIM_ITG3701.c ****     * Parameters:
 925:.\Generated_Source\PSoC5/SPIM_ITG3701.c ****     *  None.
 926:.\Generated_Source\PSoC5/SPIM_ITG3701.c ****     *
 927:.\Generated_Source\PSoC5/SPIM_ITG3701.c ****     * Return:
 928:.\Generated_Source\PSoC5/SPIM_ITG3701.c ****     *  None.
 929:.\Generated_Source\PSoC5/SPIM_ITG3701.c ****     *
 930:.\Generated_Source\PSoC5/SPIM_ITG3701.c ****     *******************************************************************************/
 931:.\Generated_Source\PSoC5/SPIM_ITG3701.c ****     void SPIM_ITG3701_TxDisable(void) 
 932:.\Generated_Source\PSoC5/SPIM_ITG3701.c ****     {
 933:.\Generated_Source\PSoC5/SPIM_ITG3701.c ****         SPIM_ITG3701_CONTROL_REG &= ((uint8) ~SPIM_ITG3701_CTRL_TX_SIGNAL_EN);
 934:.\Generated_Source\PSoC5/SPIM_ITG3701.c ****     }
 935:.\Generated_Source\PSoC5/SPIM_ITG3701.c **** 
 936:.\Generated_Source\PSoC5/SPIM_ITG3701.c **** #endif /* (0u != SPIM_ITG3701_BIDIRECTIONAL_MODE) */
 937:.\Generated_Source\PSoC5/SPIM_ITG3701.c **** 
 938:.\Generated_Source\PSoC5/SPIM_ITG3701.c **** 
 939:.\Generated_Source\PSoC5/SPIM_ITG3701.c **** /*******************************************************************************
 940:.\Generated_Source\PSoC5/SPIM_ITG3701.c **** * Function Name: SPIM_ITG3701_PutArray
 941:.\Generated_Source\PSoC5/SPIM_ITG3701.c **** ********************************************************************************
 942:.\Generated_Source\PSoC5/SPIM_ITG3701.c **** *
 943:.\Generated_Source\PSoC5/SPIM_ITG3701.c **** * Summary:
 944:.\Generated_Source\PSoC5/SPIM_ITG3701.c **** *  Write available data from ROM/RAM to the TX buffer while space is available
 945:.\Generated_Source\PSoC5/SPIM_ITG3701.c **** *  in the TX buffer. Keep trying until all data is passed to the TX buffer.
 946:.\Generated_Source\PSoC5/SPIM_ITG3701.c **** *
 947:.\Generated_Source\PSoC5/SPIM_ITG3701.c **** * Parameters:
 948:.\Generated_Source\PSoC5/SPIM_ITG3701.c **** *  *buffer: Pointer to the location in RAM containing the data to send
 949:.\Generated_Source\PSoC5/SPIM_ITG3701.c **** *  byteCount: The number of bytes to move to the transmit buffer.
 950:.\Generated_Source\PSoC5/SPIM_ITG3701.c **** *
 951:.\Generated_Source\PSoC5/SPIM_ITG3701.c **** * Return:
 952:.\Generated_Source\PSoC5/SPIM_ITG3701.c **** *  None.
 953:.\Generated_Source\PSoC5/SPIM_ITG3701.c **** *
 954:.\Generated_Source\PSoC5/SPIM_ITG3701.c **** * Side Effects:
 955:.\Generated_Source\PSoC5/SPIM_ITG3701.c **** *  Will stay in this routine until all data has been sent.  May get locked in
 956:.\Generated_Source\PSoC5/SPIM_ITG3701.c **** *  this loop if data is not being initiated by the master if there is not
 957:.\Generated_Source\PSoC5/SPIM_ITG3701.c **** *  enough room in the TX FIFO.
 958:.\Generated_Source\PSoC5/SPIM_ITG3701.c **** *
 959:.\Generated_Source\PSoC5/SPIM_ITG3701.c **** * Reentrant:
 960:.\Generated_Source\PSoC5/SPIM_ITG3701.c **** *  No.
 961:.\Generated_Source\PSoC5/SPIM_ITG3701.c **** *
 962:.\Generated_Source\PSoC5/SPIM_ITG3701.c **** *******************************************************************************/
 963:.\Generated_Source\PSoC5/SPIM_ITG3701.c **** void SPIM_ITG3701_PutArray(const uint16 buffer[], uint8 byteCount)
 964:.\Generated_Source\PSoC5/SPIM_ITG3701.c ****                                                                           
 965:.\Generated_Source\PSoC5/SPIM_ITG3701.c **** {
 845              		.loc 1 965 0
 846              		.cfi_startproc
 847              		@ args = 0, pretend = 0, frame = 16
 848              		@ frame_needed = 1, uses_anonymous_args = 0
 849 0000 80B5     		push	{r7, lr}
 850              	.LCFI47:
 851              		.cfi_def_cfa_offset 8
 852              		.cfi_offset 7, -8
 853              		.cfi_offset 14, -4
 854 0002 84B0     		sub	sp, sp, #16
 855              	.LCFI48:
 856              		.cfi_def_cfa_offset 24
 857 0004 00AF     		add	r7, sp, #0
 858              	.LCFI49:
ARM GAS  C:\DOCUME~1\user\IMPOST~1\Temp\ccbjPeFq.s 			page 33


 859              		.cfi_def_cfa_register 7
 860 0006 7860     		str	r0, [r7, #4]
 861 0008 0B46     		mov	r3, r1
 862 000a FB70     		strb	r3, [r7, #3]
 966:.\Generated_Source\PSoC5/SPIM_ITG3701.c ****     uint8 bufIndex;
 967:.\Generated_Source\PSoC5/SPIM_ITG3701.c **** 
 968:.\Generated_Source\PSoC5/SPIM_ITG3701.c ****     bufIndex = 0u;
 863              		.loc 1 968 0
 864 000c 4FF00003 		mov	r3, #0
 865 0010 FB73     		strb	r3, [r7, #15]
 969:.\Generated_Source\PSoC5/SPIM_ITG3701.c **** 
 970:.\Generated_Source\PSoC5/SPIM_ITG3701.c ****     while(byteCount > 0u)
 866              		.loc 1 970 0
 867 0012 10E0     		b	.L34
 868              	.L35:
 971:.\Generated_Source\PSoC5/SPIM_ITG3701.c ****     {
 972:.\Generated_Source\PSoC5/SPIM_ITG3701.c ****         SPIM_ITG3701_WriteTxData(buffer[bufIndex]);
 869              		.loc 1 972 0
 870 0014 FB7B     		ldrb	r3, [r7, #15]	@ zero_extendqisi2
 871 0016 4FEA4303 		lsl	r3, r3, #1
 872 001a 7A68     		ldr	r2, [r7, #4]
 873 001c D318     		adds	r3, r2, r3
 874 001e 1B88     		ldrh	r3, [r3, #0]
 875 0020 1846     		mov	r0, r3
 876 0022 FFF7FEFF 		bl	SPIM_ITG3701_WriteTxData
 973:.\Generated_Source\PSoC5/SPIM_ITG3701.c ****         bufIndex++;
 877              		.loc 1 973 0
 878 0026 FB7B     		ldrb	r3, [r7, #15]
 879 0028 03F10103 		add	r3, r3, #1
 880 002c FB73     		strb	r3, [r7, #15]
 974:.\Generated_Source\PSoC5/SPIM_ITG3701.c ****         byteCount--;
 881              		.loc 1 974 0
 882 002e FB78     		ldrb	r3, [r7, #3]
 883 0030 03F1FF33 		add	r3, r3, #-1
 884 0034 FB70     		strb	r3, [r7, #3]
 885              	.L34:
 970:.\Generated_Source\PSoC5/SPIM_ITG3701.c ****     while(byteCount > 0u)
 886              		.loc 1 970 0 discriminator 1
 887 0036 FB78     		ldrb	r3, [r7, #3]	@ zero_extendqisi2
 888 0038 002B     		cmp	r3, #0
 889 003a EBD1     		bne	.L35
 975:.\Generated_Source\PSoC5/SPIM_ITG3701.c ****     }
 976:.\Generated_Source\PSoC5/SPIM_ITG3701.c **** }
 890              		.loc 1 976 0
 891 003c 07F11007 		add	r7, r7, #16
 892 0040 BD46     		mov	sp, r7
 893 0042 80BD     		pop	{r7, pc}
 894              		.cfi_endproc
 895              	.LFE18:
 896              		.size	SPIM_ITG3701_PutArray, .-SPIM_ITG3701_PutArray
 897              		.section	.text.SPIM_ITG3701_ClearFIFO,"ax",%progbits
 898              		.align	2
 899              		.global	SPIM_ITG3701_ClearFIFO
 900              		.thumb
 901              		.thumb_func
 902              		.type	SPIM_ITG3701_ClearFIFO, %function
 903              	SPIM_ITG3701_ClearFIFO:
ARM GAS  C:\DOCUME~1\user\IMPOST~1\Temp\ccbjPeFq.s 			page 34


 904              	.LFB19:
 977:.\Generated_Source\PSoC5/SPIM_ITG3701.c **** 
 978:.\Generated_Source\PSoC5/SPIM_ITG3701.c **** 
 979:.\Generated_Source\PSoC5/SPIM_ITG3701.c **** /*******************************************************************************
 980:.\Generated_Source\PSoC5/SPIM_ITG3701.c **** * Function Name: SPIM_ITG3701_ClearFIFO
 981:.\Generated_Source\PSoC5/SPIM_ITG3701.c **** ********************************************************************************
 982:.\Generated_Source\PSoC5/SPIM_ITG3701.c **** *
 983:.\Generated_Source\PSoC5/SPIM_ITG3701.c **** * Summary:
 984:.\Generated_Source\PSoC5/SPIM_ITG3701.c **** *  Clear the RX and TX FIFO's of all data for a fresh start.
 985:.\Generated_Source\PSoC5/SPIM_ITG3701.c **** *
 986:.\Generated_Source\PSoC5/SPIM_ITG3701.c **** * Parameters:
 987:.\Generated_Source\PSoC5/SPIM_ITG3701.c **** *  None.
 988:.\Generated_Source\PSoC5/SPIM_ITG3701.c **** *
 989:.\Generated_Source\PSoC5/SPIM_ITG3701.c **** * Return:
 990:.\Generated_Source\PSoC5/SPIM_ITG3701.c **** *  None.
 991:.\Generated_Source\PSoC5/SPIM_ITG3701.c **** *
 992:.\Generated_Source\PSoC5/SPIM_ITG3701.c **** * Side Effects:
 993:.\Generated_Source\PSoC5/SPIM_ITG3701.c **** *  Clear status register of the component.
 994:.\Generated_Source\PSoC5/SPIM_ITG3701.c **** *
 995:.\Generated_Source\PSoC5/SPIM_ITG3701.c **** *******************************************************************************/
 996:.\Generated_Source\PSoC5/SPIM_ITG3701.c **** void SPIM_ITG3701_ClearFIFO(void) 
 997:.\Generated_Source\PSoC5/SPIM_ITG3701.c **** {
 905              		.loc 1 997 0
 906              		.cfi_startproc
 907              		@ args = 0, pretend = 0, frame = 8
 908              		@ frame_needed = 1, uses_anonymous_args = 0
 909 0000 80B5     		push	{r7, lr}
 910              	.LCFI50:
 911              		.cfi_def_cfa_offset 8
 912              		.cfi_offset 7, -8
 913              		.cfi_offset 14, -4
 914 0002 82B0     		sub	sp, sp, #8
 915              	.LCFI51:
 916              		.cfi_def_cfa_offset 16
 917 0004 00AF     		add	r7, sp, #0
 918              	.LCFI52:
 919              		.cfi_def_cfa_register 7
 998:.\Generated_Source\PSoC5/SPIM_ITG3701.c ****     uint8 enableInterrupts;
 999:.\Generated_Source\PSoC5/SPIM_ITG3701.c **** 
1000:.\Generated_Source\PSoC5/SPIM_ITG3701.c ****     /* Clear Hardware RX FIFO */
1001:.\Generated_Source\PSoC5/SPIM_ITG3701.c ****     while(0u !=(SPIM_ITG3701_RX_STATUS_REG & SPIM_ITG3701_STS_RX_FIFO_NOT_EMPTY))
 920              		.loc 1 1001 0
 921 0006 04E0     		b	.L37
 922              	.L38:
1002:.\Generated_Source\PSoC5/SPIM_ITG3701.c ****     {
1003:.\Generated_Source\PSoC5/SPIM_ITG3701.c ****         (void) CY_GET_REG16(SPIM_ITG3701_RXDATA_PTR);
 923              		.loc 1 1003 0
 924 0008 46F25243 		movw	r3, #25682
 925 000c C4F20003 		movt	r3, 16384
 926 0010 1B88     		ldrh	r3, [r3, #0]	@ movhi
 927              	.L37:
1001:.\Generated_Source\PSoC5/SPIM_ITG3701.c ****     while(0u !=(SPIM_ITG3701_RX_STATUS_REG & SPIM_ITG3701_STS_RX_FIFO_NOT_EMPTY))
 928              		.loc 1 1001 0 discriminator 1
 929 0012 46F26643 		movw	r3, #25702
 930 0016 C4F20003 		movt	r3, 16384
 931 001a 1B78     		ldrb	r3, [r3, #0]
 932 001c DBB2     		uxtb	r3, r3
ARM GAS  C:\DOCUME~1\user\IMPOST~1\Temp\ccbjPeFq.s 			page 35


 933 001e 03F02003 		and	r3, r3, #32
 934 0022 002B     		cmp	r3, #0
 935 0024 F0D1     		bne	.L38
1004:.\Generated_Source\PSoC5/SPIM_ITG3701.c ****     }
1005:.\Generated_Source\PSoC5/SPIM_ITG3701.c **** 
1006:.\Generated_Source\PSoC5/SPIM_ITG3701.c ****     enableInterrupts = CyEnterCriticalSection();
 936              		.loc 1 1006 0
 937 0026 FFF7FEFF 		bl	CyEnterCriticalSection
 938 002a 0346     		mov	r3, r0
 939 002c FB71     		strb	r3, [r7, #7]
1007:.\Generated_Source\PSoC5/SPIM_ITG3701.c ****     /* Clear TX FIFO */
1008:.\Generated_Source\PSoC5/SPIM_ITG3701.c ****     SPIM_ITG3701_AUX_CONTROL_DP0_REG |= ((uint8)  SPIM_ITG3701_TX_FIFO_CLR);
 940              		.loc 1 1008 0
 941 002e 46F29243 		movw	r3, #25746
 942 0032 C4F20003 		movt	r3, 16384
 943 0036 46F29242 		movw	r2, #25746
 944 003a C4F20002 		movt	r2, 16384
 945 003e 1278     		ldrb	r2, [r2, #0]
 946 0040 D2B2     		uxtb	r2, r2
 947 0042 42F00102 		orr	r2, r2, #1
 948 0046 D2B2     		uxtb	r2, r2
 949 0048 1A70     		strb	r2, [r3, #0]
1009:.\Generated_Source\PSoC5/SPIM_ITG3701.c ****     SPIM_ITG3701_AUX_CONTROL_DP0_REG &= ((uint8) ~SPIM_ITG3701_TX_FIFO_CLR);
 950              		.loc 1 1009 0
 951 004a 46F29243 		movw	r3, #25746
 952 004e C4F20003 		movt	r3, 16384
 953 0052 46F29242 		movw	r2, #25746
 954 0056 C4F20002 		movt	r2, 16384
 955 005a 1278     		ldrb	r2, [r2, #0]
 956 005c D2B2     		uxtb	r2, r2
 957 005e 22F00102 		bic	r2, r2, #1
 958 0062 D2B2     		uxtb	r2, r2
 959 0064 1A70     		strb	r2, [r3, #0]
1010:.\Generated_Source\PSoC5/SPIM_ITG3701.c **** 
1011:.\Generated_Source\PSoC5/SPIM_ITG3701.c ****     #if(SPIM_ITG3701_USE_SECOND_DATAPATH)
1012:.\Generated_Source\PSoC5/SPIM_ITG3701.c ****         /* Clear TX FIFO for 2nd Datapath */
1013:.\Generated_Source\PSoC5/SPIM_ITG3701.c ****         SPIM_ITG3701_AUX_CONTROL_DP1_REG |= ((uint8)  SPIM_ITG3701_TX_FIFO_CLR);
 960              		.loc 1 1013 0
 961 0066 46F29343 		movw	r3, #25747
 962 006a C4F20003 		movt	r3, 16384
 963 006e 46F29342 		movw	r2, #25747
 964 0072 C4F20002 		movt	r2, 16384
 965 0076 1278     		ldrb	r2, [r2, #0]
 966 0078 D2B2     		uxtb	r2, r2
 967 007a 42F00102 		orr	r2, r2, #1
 968 007e D2B2     		uxtb	r2, r2
 969 0080 1A70     		strb	r2, [r3, #0]
1014:.\Generated_Source\PSoC5/SPIM_ITG3701.c ****         SPIM_ITG3701_AUX_CONTROL_DP1_REG &= ((uint8) ~SPIM_ITG3701_TX_FIFO_CLR);
 970              		.loc 1 1014 0
 971 0082 46F29343 		movw	r3, #25747
 972 0086 C4F20003 		movt	r3, 16384
 973 008a 46F29342 		movw	r2, #25747
 974 008e C4F20002 		movt	r2, 16384
 975 0092 1278     		ldrb	r2, [r2, #0]
 976 0094 D2B2     		uxtb	r2, r2
 977 0096 22F00102 		bic	r2, r2, #1
 978 009a D2B2     		uxtb	r2, r2
ARM GAS  C:\DOCUME~1\user\IMPOST~1\Temp\ccbjPeFq.s 			page 36


 979 009c 1A70     		strb	r2, [r3, #0]
1015:.\Generated_Source\PSoC5/SPIM_ITG3701.c ****     #endif /* (SPIM_ITG3701_USE_SECOND_DATAPATH) */
1016:.\Generated_Source\PSoC5/SPIM_ITG3701.c ****     CyExitCriticalSection(enableInterrupts);
 980              		.loc 1 1016 0
 981 009e FB79     		ldrb	r3, [r7, #7]	@ zero_extendqisi2
 982 00a0 1846     		mov	r0, r3
 983 00a2 FFF7FEFF 		bl	CyExitCriticalSection
1017:.\Generated_Source\PSoC5/SPIM_ITG3701.c **** }
 984              		.loc 1 1017 0
 985 00a6 07F10807 		add	r7, r7, #8
 986 00aa BD46     		mov	sp, r7
 987 00ac 80BD     		pop	{r7, pc}
 988              		.cfi_endproc
 989              	.LFE19:
 990              		.size	SPIM_ITG3701_ClearFIFO, .-SPIM_ITG3701_ClearFIFO
 991 00ae 00BF     		.section	.text.SPIM_ITG3701_EnableInt,"ax",%progbits
 992              		.align	2
 993              		.global	SPIM_ITG3701_EnableInt
 994              		.thumb
 995              		.thumb_func
 996              		.type	SPIM_ITG3701_EnableInt, %function
 997              	SPIM_ITG3701_EnableInt:
 998              	.LFB20:
1018:.\Generated_Source\PSoC5/SPIM_ITG3701.c **** 
1019:.\Generated_Source\PSoC5/SPIM_ITG3701.c **** 
1020:.\Generated_Source\PSoC5/SPIM_ITG3701.c **** /* Following functions are for version Compatibility, they are obsolete.
1021:.\Generated_Source\PSoC5/SPIM_ITG3701.c **** *  Please do not use it in new projects.
1022:.\Generated_Source\PSoC5/SPIM_ITG3701.c **** */
1023:.\Generated_Source\PSoC5/SPIM_ITG3701.c **** 
1024:.\Generated_Source\PSoC5/SPIM_ITG3701.c **** 
1025:.\Generated_Source\PSoC5/SPIM_ITG3701.c **** /*******************************************************************************
1026:.\Generated_Source\PSoC5/SPIM_ITG3701.c **** * Function Name: SPIM_ITG3701_EnableInt
1027:.\Generated_Source\PSoC5/SPIM_ITG3701.c **** ********************************************************************************
1028:.\Generated_Source\PSoC5/SPIM_ITG3701.c **** *
1029:.\Generated_Source\PSoC5/SPIM_ITG3701.c **** * Summary:
1030:.\Generated_Source\PSoC5/SPIM_ITG3701.c **** *  Enable internal interrupt generation.
1031:.\Generated_Source\PSoC5/SPIM_ITG3701.c **** *
1032:.\Generated_Source\PSoC5/SPIM_ITG3701.c **** * Parameters:
1033:.\Generated_Source\PSoC5/SPIM_ITG3701.c **** *  None.
1034:.\Generated_Source\PSoC5/SPIM_ITG3701.c **** *
1035:.\Generated_Source\PSoC5/SPIM_ITG3701.c **** * Return:
1036:.\Generated_Source\PSoC5/SPIM_ITG3701.c **** *  None.
1037:.\Generated_Source\PSoC5/SPIM_ITG3701.c **** *
1038:.\Generated_Source\PSoC5/SPIM_ITG3701.c **** * Theory:
1039:.\Generated_Source\PSoC5/SPIM_ITG3701.c **** *  Enable the internal interrupt output -or- the interrupt component itself.
1040:.\Generated_Source\PSoC5/SPIM_ITG3701.c **** *
1041:.\Generated_Source\PSoC5/SPIM_ITG3701.c **** *******************************************************************************/
1042:.\Generated_Source\PSoC5/SPIM_ITG3701.c **** void SPIM_ITG3701_EnableInt(void) 
1043:.\Generated_Source\PSoC5/SPIM_ITG3701.c **** {
 999              		.loc 1 1043 0
 1000              		.cfi_startproc
 1001              		@ args = 0, pretend = 0, frame = 0
 1002              		@ frame_needed = 1, uses_anonymous_args = 0
 1003 0000 80B5     		push	{r7, lr}
 1004              	.LCFI53:
 1005              		.cfi_def_cfa_offset 8
 1006              		.cfi_offset 7, -8
ARM GAS  C:\DOCUME~1\user\IMPOST~1\Temp\ccbjPeFq.s 			page 37


 1007              		.cfi_offset 14, -4
 1008 0002 00AF     		add	r7, sp, #0
 1009              	.LCFI54:
 1010              		.cfi_def_cfa_register 7
1044:.\Generated_Source\PSoC5/SPIM_ITG3701.c ****     SPIM_ITG3701_EnableRxInt();
 1011              		.loc 1 1044 0
 1012 0004 FFF7FEFF 		bl	SPIM_ITG3701_EnableRxInt
1045:.\Generated_Source\PSoC5/SPIM_ITG3701.c ****     SPIM_ITG3701_EnableTxInt();
 1013              		.loc 1 1045 0
 1014 0008 FFF7FEFF 		bl	SPIM_ITG3701_EnableTxInt
1046:.\Generated_Source\PSoC5/SPIM_ITG3701.c **** }
 1015              		.loc 1 1046 0
 1016 000c 80BD     		pop	{r7, pc}
 1017              		.cfi_endproc
 1018              	.LFE20:
 1019              		.size	SPIM_ITG3701_EnableInt, .-SPIM_ITG3701_EnableInt
 1020 000e 00BF     		.section	.text.SPIM_ITG3701_DisableInt,"ax",%progbits
 1021              		.align	2
 1022              		.global	SPIM_ITG3701_DisableInt
 1023              		.thumb
 1024              		.thumb_func
 1025              		.type	SPIM_ITG3701_DisableInt, %function
 1026              	SPIM_ITG3701_DisableInt:
 1027              	.LFB21:
1047:.\Generated_Source\PSoC5/SPIM_ITG3701.c **** 
1048:.\Generated_Source\PSoC5/SPIM_ITG3701.c **** 
1049:.\Generated_Source\PSoC5/SPIM_ITG3701.c **** /*******************************************************************************
1050:.\Generated_Source\PSoC5/SPIM_ITG3701.c **** * Function Name: SPIM_ITG3701_DisableInt
1051:.\Generated_Source\PSoC5/SPIM_ITG3701.c **** ********************************************************************************
1052:.\Generated_Source\PSoC5/SPIM_ITG3701.c **** *
1053:.\Generated_Source\PSoC5/SPIM_ITG3701.c **** * Summary:
1054:.\Generated_Source\PSoC5/SPIM_ITG3701.c **** *  Disable internal interrupt generation.
1055:.\Generated_Source\PSoC5/SPIM_ITG3701.c **** *
1056:.\Generated_Source\PSoC5/SPIM_ITG3701.c **** * Parameters:
1057:.\Generated_Source\PSoC5/SPIM_ITG3701.c **** *  None.
1058:.\Generated_Source\PSoC5/SPIM_ITG3701.c **** *
1059:.\Generated_Source\PSoC5/SPIM_ITG3701.c **** * Return:
1060:.\Generated_Source\PSoC5/SPIM_ITG3701.c **** *  None.
1061:.\Generated_Source\PSoC5/SPIM_ITG3701.c **** *
1062:.\Generated_Source\PSoC5/SPIM_ITG3701.c **** * Theory:
1063:.\Generated_Source\PSoC5/SPIM_ITG3701.c **** *  Disable the internal interrupt output -or- the interrupt component itself.
1064:.\Generated_Source\PSoC5/SPIM_ITG3701.c **** *
1065:.\Generated_Source\PSoC5/SPIM_ITG3701.c **** *******************************************************************************/
1066:.\Generated_Source\PSoC5/SPIM_ITG3701.c **** void SPIM_ITG3701_DisableInt(void) 
1067:.\Generated_Source\PSoC5/SPIM_ITG3701.c **** {
 1028              		.loc 1 1067 0
 1029              		.cfi_startproc
 1030              		@ args = 0, pretend = 0, frame = 0
 1031              		@ frame_needed = 1, uses_anonymous_args = 0
 1032 0000 80B5     		push	{r7, lr}
 1033              	.LCFI55:
 1034              		.cfi_def_cfa_offset 8
 1035              		.cfi_offset 7, -8
 1036              		.cfi_offset 14, -4
 1037 0002 00AF     		add	r7, sp, #0
 1038              	.LCFI56:
 1039              		.cfi_def_cfa_register 7
ARM GAS  C:\DOCUME~1\user\IMPOST~1\Temp\ccbjPeFq.s 			page 38


1068:.\Generated_Source\PSoC5/SPIM_ITG3701.c ****     SPIM_ITG3701_DisableTxInt();
 1040              		.loc 1 1068 0
 1041 0004 FFF7FEFF 		bl	SPIM_ITG3701_DisableTxInt
1069:.\Generated_Source\PSoC5/SPIM_ITG3701.c ****     SPIM_ITG3701_DisableRxInt();
 1042              		.loc 1 1069 0
 1043 0008 FFF7FEFF 		bl	SPIM_ITG3701_DisableRxInt
1070:.\Generated_Source\PSoC5/SPIM_ITG3701.c **** }
 1044              		.loc 1 1070 0
 1045 000c 80BD     		pop	{r7, pc}
 1046              		.cfi_endproc
 1047              	.LFE21:
 1048              		.size	SPIM_ITG3701_DisableInt, .-SPIM_ITG3701_DisableInt
 1049 000e 00BF     		.section	.text.SPIM_ITG3701_SetInterruptMode,"ax",%progbits
 1050              		.align	2
 1051              		.global	SPIM_ITG3701_SetInterruptMode
 1052              		.thumb
 1053              		.thumb_func
 1054              		.type	SPIM_ITG3701_SetInterruptMode, %function
 1055              	SPIM_ITG3701_SetInterruptMode:
 1056              	.LFB22:
1071:.\Generated_Source\PSoC5/SPIM_ITG3701.c **** 
1072:.\Generated_Source\PSoC5/SPIM_ITG3701.c **** 
1073:.\Generated_Source\PSoC5/SPIM_ITG3701.c **** /*******************************************************************************
1074:.\Generated_Source\PSoC5/SPIM_ITG3701.c **** * Function Name: SPIM_ITG3701_SetInterruptMode
1075:.\Generated_Source\PSoC5/SPIM_ITG3701.c **** ********************************************************************************
1076:.\Generated_Source\PSoC5/SPIM_ITG3701.c **** *
1077:.\Generated_Source\PSoC5/SPIM_ITG3701.c **** * Summary:
1078:.\Generated_Source\PSoC5/SPIM_ITG3701.c **** *  Configure which status bits trigger an interrupt event.
1079:.\Generated_Source\PSoC5/SPIM_ITG3701.c **** *
1080:.\Generated_Source\PSoC5/SPIM_ITG3701.c **** * Parameters:
1081:.\Generated_Source\PSoC5/SPIM_ITG3701.c **** *  intSrc: An or'd combination of the desired status bit masks (defined in the
1082:.\Generated_Source\PSoC5/SPIM_ITG3701.c **** *  header file).
1083:.\Generated_Source\PSoC5/SPIM_ITG3701.c **** *
1084:.\Generated_Source\PSoC5/SPIM_ITG3701.c **** * Return:
1085:.\Generated_Source\PSoC5/SPIM_ITG3701.c **** *  None.
1086:.\Generated_Source\PSoC5/SPIM_ITG3701.c **** *
1087:.\Generated_Source\PSoC5/SPIM_ITG3701.c **** * Theory:
1088:.\Generated_Source\PSoC5/SPIM_ITG3701.c **** *  Enables the output of specific status bits to the interrupt controller.
1089:.\Generated_Source\PSoC5/SPIM_ITG3701.c **** *
1090:.\Generated_Source\PSoC5/SPIM_ITG3701.c **** *******************************************************************************/
1091:.\Generated_Source\PSoC5/SPIM_ITG3701.c **** void SPIM_ITG3701_SetInterruptMode(uint8 intSrc) 
1092:.\Generated_Source\PSoC5/SPIM_ITG3701.c **** {
 1057              		.loc 1 1092 0
 1058              		.cfi_startproc
 1059              		@ args = 0, pretend = 0, frame = 8
 1060              		@ frame_needed = 1, uses_anonymous_args = 0
 1061              		@ link register save eliminated.
 1062 0000 80B4     		push	{r7}
 1063              	.LCFI57:
 1064              		.cfi_def_cfa_offset 4
 1065              		.cfi_offset 7, -4
 1066 0002 83B0     		sub	sp, sp, #12
 1067              	.LCFI58:
 1068              		.cfi_def_cfa_offset 16
 1069 0004 00AF     		add	r7, sp, #0
 1070              	.LCFI59:
 1071              		.cfi_def_cfa_register 7
ARM GAS  C:\DOCUME~1\user\IMPOST~1\Temp\ccbjPeFq.s 			page 39


 1072 0006 0346     		mov	r3, r0
 1073 0008 FB71     		strb	r3, [r7, #7]
1093:.\Generated_Source\PSoC5/SPIM_ITG3701.c ****     SPIM_ITG3701_TX_STATUS_MASK_REG  = (intSrc & ((uint8) ~SPIM_ITG3701_STS_SPI_IDLE));
 1074              		.loc 1 1093 0
 1075 000a 46F28243 		movw	r3, #25730
 1076 000e C4F20003 		movt	r3, 16384
 1077 0012 FA79     		ldrb	r2, [r7, #7]
 1078 0014 22F01002 		bic	r2, r2, #16
 1079 0018 D2B2     		uxtb	r2, r2
 1080 001a 1A70     		strb	r2, [r3, #0]
1094:.\Generated_Source\PSoC5/SPIM_ITG3701.c ****     SPIM_ITG3701_RX_STATUS_MASK_REG  =  intSrc;
 1081              		.loc 1 1094 0
 1082 001c 46F28643 		movw	r3, #25734
 1083 0020 C4F20003 		movt	r3, 16384
 1084 0024 FA79     		ldrb	r2, [r7, #7]
 1085 0026 1A70     		strb	r2, [r3, #0]
1095:.\Generated_Source\PSoC5/SPIM_ITG3701.c **** }
 1086              		.loc 1 1095 0
 1087 0028 07F10C07 		add	r7, r7, #12
 1088 002c BD46     		mov	sp, r7
 1089 002e 80BC     		pop	{r7}
 1090 0030 7047     		bx	lr
 1091              		.cfi_endproc
 1092              	.LFE22:
 1093              		.size	SPIM_ITG3701_SetInterruptMode, .-SPIM_ITG3701_SetInterruptMode
 1094 0032 00BF     		.section	.text.SPIM_ITG3701_ReadStatus,"ax",%progbits
 1095              		.align	2
 1096              		.global	SPIM_ITG3701_ReadStatus
 1097              		.thumb
 1098              		.thumb_func
 1099              		.type	SPIM_ITG3701_ReadStatus, %function
 1100              	SPIM_ITG3701_ReadStatus:
 1101              	.LFB23:
1096:.\Generated_Source\PSoC5/SPIM_ITG3701.c **** 
1097:.\Generated_Source\PSoC5/SPIM_ITG3701.c **** 
1098:.\Generated_Source\PSoC5/SPIM_ITG3701.c **** /*******************************************************************************
1099:.\Generated_Source\PSoC5/SPIM_ITG3701.c **** * Function Name: SPIM_ITG3701_ReadStatus
1100:.\Generated_Source\PSoC5/SPIM_ITG3701.c **** ********************************************************************************
1101:.\Generated_Source\PSoC5/SPIM_ITG3701.c **** *
1102:.\Generated_Source\PSoC5/SPIM_ITG3701.c **** * Summary:
1103:.\Generated_Source\PSoC5/SPIM_ITG3701.c **** *  Read the status register for the component.
1104:.\Generated_Source\PSoC5/SPIM_ITG3701.c **** *
1105:.\Generated_Source\PSoC5/SPIM_ITG3701.c **** * Parameters:
1106:.\Generated_Source\PSoC5/SPIM_ITG3701.c **** *  None.
1107:.\Generated_Source\PSoC5/SPIM_ITG3701.c **** *
1108:.\Generated_Source\PSoC5/SPIM_ITG3701.c **** * Return:
1109:.\Generated_Source\PSoC5/SPIM_ITG3701.c **** *  Contents of the status register.
1110:.\Generated_Source\PSoC5/SPIM_ITG3701.c **** *
1111:.\Generated_Source\PSoC5/SPIM_ITG3701.c **** * Global variables:
1112:.\Generated_Source\PSoC5/SPIM_ITG3701.c **** *  SPIM_ITG3701_swStatus - used to store in software status register,
1113:.\Generated_Source\PSoC5/SPIM_ITG3701.c **** *  modified every function call - resets to zero.
1114:.\Generated_Source\PSoC5/SPIM_ITG3701.c **** *
1115:.\Generated_Source\PSoC5/SPIM_ITG3701.c **** * Theory:
1116:.\Generated_Source\PSoC5/SPIM_ITG3701.c **** *  Allows the user and the API to read the status register for error detection
1117:.\Generated_Source\PSoC5/SPIM_ITG3701.c **** *  and flow control.
1118:.\Generated_Source\PSoC5/SPIM_ITG3701.c **** *
1119:.\Generated_Source\PSoC5/SPIM_ITG3701.c **** * Side Effects:
ARM GAS  C:\DOCUME~1\user\IMPOST~1\Temp\ccbjPeFq.s 			page 40


1120:.\Generated_Source\PSoC5/SPIM_ITG3701.c **** *  Clear status register of the component.
1121:.\Generated_Source\PSoC5/SPIM_ITG3701.c **** *
1122:.\Generated_Source\PSoC5/SPIM_ITG3701.c **** * Reentrant:
1123:.\Generated_Source\PSoC5/SPIM_ITG3701.c **** *  No.
1124:.\Generated_Source\PSoC5/SPIM_ITG3701.c **** *
1125:.\Generated_Source\PSoC5/SPIM_ITG3701.c **** *******************************************************************************/
1126:.\Generated_Source\PSoC5/SPIM_ITG3701.c **** uint8 SPIM_ITG3701_ReadStatus(void) 
1127:.\Generated_Source\PSoC5/SPIM_ITG3701.c **** {
 1102              		.loc 1 1127 0
 1103              		.cfi_startproc
 1104              		@ args = 0, pretend = 0, frame = 8
 1105              		@ frame_needed = 1, uses_anonymous_args = 0
 1106              		@ link register save eliminated.
 1107 0000 80B4     		push	{r7}
 1108              	.LCFI60:
 1109              		.cfi_def_cfa_offset 4
 1110              		.cfi_offset 7, -4
 1111 0002 83B0     		sub	sp, sp, #12
 1112              	.LCFI61:
 1113              		.cfi_def_cfa_offset 16
 1114 0004 00AF     		add	r7, sp, #0
 1115              	.LCFI62:
 1116              		.cfi_def_cfa_register 7
1128:.\Generated_Source\PSoC5/SPIM_ITG3701.c ****     uint8 tmpStatus;
1129:.\Generated_Source\PSoC5/SPIM_ITG3701.c **** 
1130:.\Generated_Source\PSoC5/SPIM_ITG3701.c ****     #if(SPIM_ITG3701_TX_SOFTWARE_BUF_ENABLED || SPIM_ITG3701_RX_SOFTWARE_BUF_ENABLED)
1131:.\Generated_Source\PSoC5/SPIM_ITG3701.c **** 
1132:.\Generated_Source\PSoC5/SPIM_ITG3701.c ****         SPIM_ITG3701_DisableInt();
1133:.\Generated_Source\PSoC5/SPIM_ITG3701.c **** 
1134:.\Generated_Source\PSoC5/SPIM_ITG3701.c ****         tmpStatus  = SPIM_ITG3701_GET_STATUS_RX(SPIM_ITG3701_swStatusRx);
1135:.\Generated_Source\PSoC5/SPIM_ITG3701.c ****         tmpStatus |= SPIM_ITG3701_GET_STATUS_TX(SPIM_ITG3701_swStatusTx);
1136:.\Generated_Source\PSoC5/SPIM_ITG3701.c ****         tmpStatus &= ((uint8) ~SPIM_ITG3701_STS_SPI_IDLE);
1137:.\Generated_Source\PSoC5/SPIM_ITG3701.c **** 
1138:.\Generated_Source\PSoC5/SPIM_ITG3701.c ****         SPIM_ITG3701_swStatusTx = 0u;
1139:.\Generated_Source\PSoC5/SPIM_ITG3701.c ****         SPIM_ITG3701_swStatusRx = 0u;
1140:.\Generated_Source\PSoC5/SPIM_ITG3701.c **** 
1141:.\Generated_Source\PSoC5/SPIM_ITG3701.c ****         SPIM_ITG3701_EnableInt();
1142:.\Generated_Source\PSoC5/SPIM_ITG3701.c **** 
1143:.\Generated_Source\PSoC5/SPIM_ITG3701.c ****     #else
1144:.\Generated_Source\PSoC5/SPIM_ITG3701.c **** 
1145:.\Generated_Source\PSoC5/SPIM_ITG3701.c ****         tmpStatus  = SPIM_ITG3701_RX_STATUS_REG;
 1117              		.loc 1 1145 0
 1118 0006 46F26643 		movw	r3, #25702
 1119 000a C4F20003 		movt	r3, 16384
 1120 000e 1B78     		ldrb	r3, [r3, #0]
 1121 0010 FB71     		strb	r3, [r7, #7]
1146:.\Generated_Source\PSoC5/SPIM_ITG3701.c ****         tmpStatus |= SPIM_ITG3701_TX_STATUS_REG;
 1122              		.loc 1 1146 0
 1123 0012 46F26243 		movw	r3, #25698
 1124 0016 C4F20003 		movt	r3, 16384
 1125 001a 1B78     		ldrb	r3, [r3, #0]
 1126 001c DAB2     		uxtb	r2, r3
 1127 001e FB79     		ldrb	r3, [r7, #7]
 1128 0020 1343     		orrs	r3, r3, r2
 1129 0022 FB71     		strb	r3, [r7, #7]
1147:.\Generated_Source\PSoC5/SPIM_ITG3701.c ****         tmpStatus &= ((uint8) ~SPIM_ITG3701_STS_SPI_IDLE);
 1130              		.loc 1 1147 0
ARM GAS  C:\DOCUME~1\user\IMPOST~1\Temp\ccbjPeFq.s 			page 41


 1131 0024 FB79     		ldrb	r3, [r7, #7]
 1132 0026 23F01003 		bic	r3, r3, #16
 1133 002a FB71     		strb	r3, [r7, #7]
1148:.\Generated_Source\PSoC5/SPIM_ITG3701.c **** 
1149:.\Generated_Source\PSoC5/SPIM_ITG3701.c ****     #endif /* (SPIM_ITG3701_TX_SOFTWARE_BUF_ENABLED || SPIM_ITG3701_RX_SOFTWARE_BUF_ENABLED) */
1150:.\Generated_Source\PSoC5/SPIM_ITG3701.c **** 
1151:.\Generated_Source\PSoC5/SPIM_ITG3701.c ****     return(tmpStatus);
 1134              		.loc 1 1151 0
 1135 002c FB79     		ldrb	r3, [r7, #7]	@ zero_extendqisi2
1152:.\Generated_Source\PSoC5/SPIM_ITG3701.c **** }
 1136              		.loc 1 1152 0
 1137 002e 1846     		mov	r0, r3
 1138 0030 07F10C07 		add	r7, r7, #12
 1139 0034 BD46     		mov	sp, r7
 1140 0036 80BC     		pop	{r7}
 1141 0038 7047     		bx	lr
 1142              		.cfi_endproc
 1143              	.LFE23:
 1144              		.size	SPIM_ITG3701_ReadStatus, .-SPIM_ITG3701_ReadStatus
 1145 003a 00BF     		.text
 1146              	.Letext0:
 1147              		.file 2 ".\\Generated_Source\\PSoC5\\cytypes.h"