ARM GAS  C:\Users\GRAZIA~1.RAV\AppData\Local\Temp\ccWYc2H4.s 			page 1


   1              		.syntax unified
   2              		.cpu cortex-m3
   3              		.fpu softvfp
   4              		.eabi_attribute 20, 1
   5              		.eabi_attribute 21, 1
   6              		.eabi_attribute 23, 3
   7              		.eabi_attribute 24, 1
   8              		.eabi_attribute 25, 1
   9              		.eabi_attribute 26, 1
  10              		.eabi_attribute 30, 6
  11              		.eabi_attribute 34, 1
  12              		.eabi_attribute 18, 4
  13              		.thumb
  14              		.file	"statistics.c"
  15              		.text
  16              	.Ltext0:
  17              		.cfi_sections	.debug_frame
  18              		.global	__aeabi_fmul
  19              		.global	__aeabi_f2d
  20              		.section	.text.square,"ax",%progbits
  21              		.align	2
  22              		.global	square
  23              		.thumb
  24              		.thumb_func
  25              		.type	square, %function
  26              	square:
  27              	.LFB56:
  28              		.file 1 ".\\statistics.c"
   1:.\statistics.c **** /* =============================================
   2:.\statistics.c ****  * STATISTICS Library code	     				*
   3:.\statistics.c ****  * V.2.3										*
   4:.\statistics.c ****  * 12/10/2018									*
   5:.\statistics.c ****  *												*
   6:.\statistics.c ****  * Copyright 2010-2018 Logic brainstorm         *
   7:.\statistics.c ****  * Author : Graziano G. Ravizza                 *
   8:.\statistics.c ****  * All Rights Reserved							*
   9:.\statistics.c ****  * UNPUBLISHED, LICENSED SOFTWARE.				*
  10:.\statistics.c ****  *												*
  11:.\statistics.c ****  * CONFIDENTIAL AND PROPRIETARY INFORMATION		*
  12:.\statistics.c ****  * WHICH IS THE PROPERTY OF Logic brainstorm	*
  13:.\statistics.c ****  * =============================================
  14:.\statistics.c **** */
  15:.\statistics.c **** /* Include files */
  16:.\statistics.c **** #include <device.h>
  17:.\statistics.c **** #include <math.h>
  18:.\statistics.c **** #include <statistics.h>
  19:.\statistics.c **** 
  20:.\statistics.c **** 
  21:.\statistics.c **** /* Floating point square function	*/
  22:.\statistics.c **** double square(float x)
  23:.\statistics.c **** {
  29              		.loc 1 23 0
  30              		.cfi_startproc
  31              		@ args = 0, pretend = 0, frame = 8
  32              		@ frame_needed = 1, uses_anonymous_args = 0
  33 0000 80B5     		push	{r7, lr}
  34              	.LCFI0:
ARM GAS  C:\Users\GRAZIA~1.RAV\AppData\Local\Temp\ccWYc2H4.s 			page 2


  35              		.cfi_def_cfa_offset 8
  36              		.cfi_offset 7, -8
  37              		.cfi_offset 14, -4
  38 0002 82B0     		sub	sp, sp, #8
  39              	.LCFI1:
  40              		.cfi_def_cfa_offset 16
  41 0004 00AF     		add	r7, sp, #0
  42              	.LCFI2:
  43              		.cfi_def_cfa_register 7
  44 0006 7860     		str	r0, [r7, #4]	@ float
  24:.\statistics.c ****     return(x*x);
  45              		.loc 1 24 0
  46 0008 7868     		ldr	r0, [r7, #4]	@ float
  47 000a 7968     		ldr	r1, [r7, #4]	@ float
  48 000c FFF7FEFF 		bl	__aeabi_fmul
  49 0010 0346     		mov	r3, r0
  50 0012 1846     		mov	r0, r3
  51 0014 FFF7FEFF 		bl	__aeabi_f2d
  52 0018 0246     		mov	r2, r0
  53 001a 0B46     		mov	r3, r1
  25:.\statistics.c **** }
  54              		.loc 1 25 0
  55 001c 1046     		mov	r0, r2
  56 001e 1946     		mov	r1, r3
  57 0020 07F10807 		add	r7, r7, #8
  58 0024 BD46     		mov	sp, r7
  59 0026 80BD     		pop	{r7, pc}
  60              		.cfi_endproc
  61              	.LFE56:
  62              		.size	square, .-square
  63              		.section	.text.statistics_init,"ax",%progbits
  64              		.align	2
  65              		.global	statistics_init
  66              		.thumb
  67              		.thumb_func
  68              		.type	statistics_init, %function
  69              	statistics_init:
  70              	.LFB57:
  26:.\statistics.c **** 
  27:.\statistics.c **** /********************************************************************************************/
  28:.\statistics.c **** /* Statistics Initialization																*/
  29:.\statistics.c **** /********************************************************************************************/
  30:.\statistics.c **** void statistics_init(struct STATISTICS *stat)
  31:.\statistics.c **** {
  71              		.loc 1 31 0
  72              		.cfi_startproc
  73              		@ args = 0, pretend = 0, frame = 8
  74              		@ frame_needed = 1, uses_anonymous_args = 0
  75              		@ link register save eliminated.
  76 0000 80B4     		push	{r7}
  77              	.LCFI3:
  78              		.cfi_def_cfa_offset 4
  79              		.cfi_offset 7, -4
  80 0002 83B0     		sub	sp, sp, #12
  81              	.LCFI4:
  82              		.cfi_def_cfa_offset 16
  83 0004 00AF     		add	r7, sp, #0
ARM GAS  C:\Users\GRAZIA~1.RAV\AppData\Local\Temp\ccWYc2H4.s 			page 3


  84              	.LCFI5:
  85              		.cfi_def_cfa_register 7
  86 0006 7860     		str	r0, [r7, #4]
  32:.\statistics.c **** 	(*stat).messg = STATISTICS_STOP;	
  87              		.loc 1 32 0
  88 0008 7B68     		ldr	r3, [r7, #4]
  89 000a 4FF00202 		mov	r2, #2
  90 000e 1A70     		strb	r2, [r3, #0]
  33:.\statistics.c **** }
  91              		.loc 1 33 0
  92 0010 07F10C07 		add	r7, r7, #12
  93 0014 BD46     		mov	sp, r7
  94 0016 80BC     		pop	{r7}
  95 0018 7047     		bx	lr
  96              		.cfi_endproc
  97              	.LFE57:
  98              		.size	statistics_init, .-statistics_init
  99 001a 00BF     		.section	.text.statistics_start,"ax",%progbits
 100              		.align	2
 101              		.global	statistics_start
 102              		.thumb
 103              		.thumb_func
 104              		.type	statistics_start, %function
 105              	statistics_start:
 106              	.LFB58:
  34:.\statistics.c **** 
  35:.\statistics.c **** /********************************************************************************************/
  36:.\statistics.c **** /* Statistics Start																			*/
  37:.\statistics.c **** /********************************************************************************************/
  38:.\statistics.c **** void statistics_start(struct STATISTICS *stat)
  39:.\statistics.c **** {
 107              		.loc 1 39 0
 108              		.cfi_startproc
 109              		@ args = 0, pretend = 0, frame = 8
 110              		@ frame_needed = 1, uses_anonymous_args = 0
 111              		@ link register save eliminated.
 112 0000 80B4     		push	{r7}
 113              	.LCFI6:
 114              		.cfi_def_cfa_offset 4
 115              		.cfi_offset 7, -4
 116 0002 83B0     		sub	sp, sp, #12
 117              	.LCFI7:
 118              		.cfi_def_cfa_offset 16
 119 0004 00AF     		add	r7, sp, #0
 120              	.LCFI8:
 121              		.cfi_def_cfa_register 7
 122 0006 7860     		str	r0, [r7, #4]
  40:.\statistics.c **** 	(*stat).messg = STATISTICS_START;	
 123              		.loc 1 40 0
 124 0008 7B68     		ldr	r3, [r7, #4]
 125 000a 4FF00102 		mov	r2, #1
 126 000e 1A70     		strb	r2, [r3, #0]
  41:.\statistics.c **** }
 127              		.loc 1 41 0
 128 0010 07F10C07 		add	r7, r7, #12
 129 0014 BD46     		mov	sp, r7
 130 0016 80BC     		pop	{r7}
ARM GAS  C:\Users\GRAZIA~1.RAV\AppData\Local\Temp\ccWYc2H4.s 			page 4


 131 0018 7047     		bx	lr
 132              		.cfi_endproc
 133              	.LFE58:
 134              		.size	statistics_start, .-statistics_start
 135 001a 00BF     		.section	.text.statistics_stop,"ax",%progbits
 136              		.align	2
 137              		.global	statistics_stop
 138              		.thumb
 139              		.thumb_func
 140              		.type	statistics_stop, %function
 141              	statistics_stop:
 142              	.LFB59:
  42:.\statistics.c **** 
  43:.\statistics.c **** 
  44:.\statistics.c **** /********************************************************************************************/
  45:.\statistics.c **** /* Statistics Stop																			*/
  46:.\statistics.c **** /********************************************************************************************/
  47:.\statistics.c **** void statistics_stop(struct STATISTICS *stat)
  48:.\statistics.c **** {
 143              		.loc 1 48 0
 144              		.cfi_startproc
 145              		@ args = 0, pretend = 0, frame = 8
 146              		@ frame_needed = 1, uses_anonymous_args = 0
 147              		@ link register save eliminated.
 148 0000 80B4     		push	{r7}
 149              	.LCFI9:
 150              		.cfi_def_cfa_offset 4
 151              		.cfi_offset 7, -4
 152 0002 83B0     		sub	sp, sp, #12
 153              	.LCFI10:
 154              		.cfi_def_cfa_offset 16
 155 0004 00AF     		add	r7, sp, #0
 156              	.LCFI11:
 157              		.cfi_def_cfa_register 7
 158 0006 7860     		str	r0, [r7, #4]
  49:.\statistics.c **** 	(*stat).messg = STATISTICS_STOP;	
 159              		.loc 1 49 0
 160 0008 7B68     		ldr	r3, [r7, #4]
 161 000a 4FF00202 		mov	r2, #2
 162 000e 1A70     		strb	r2, [r3, #0]
  50:.\statistics.c **** }
 163              		.loc 1 50 0
 164 0010 07F10C07 		add	r7, r7, #12
 165 0014 BD46     		mov	sp, r7
 166 0016 80BC     		pop	{r7}
 167 0018 7047     		bx	lr
 168              		.cfi_endproc
 169              	.LFE59:
 170              		.size	statistics_stop, .-statistics_stop
 171              		.global	__aeabi_ui2f
 172              		.global	__aeabi_fadd
 173              		.global	__aeabi_fdiv
 174              		.global	__aeabi_fcmpgt
 175              		.global	__aeabi_fcmplt
 176              		.global	__aeabi_fsub
 177 001a 00BF     		.section	.text.statistics_elab_step,"ax",%progbits
 178              		.align	2
ARM GAS  C:\Users\GRAZIA~1.RAV\AppData\Local\Temp\ccWYc2H4.s 			page 5


 179              		.global	statistics_elab_step
 180              		.thumb
 181              		.thumb_func
 182              		.type	statistics_elab_step, %function
 183              	statistics_elab_step:
 184              	.LFB60:
  51:.\statistics.c **** 
  52:.\statistics.c **** 
  53:.\statistics.c **** /********************************************************************************************/
  54:.\statistics.c **** /* Value Statistics Iterative Calculus														*/
  55:.\statistics.c **** /* iteration >= 2																			*/
  56:.\statistics.c **** /* Calcola il valor medio e altre variabili statistiche del flusso di value passato			*/
  57:.\statistics.c **** /* Fonte: http://www.cs.berkeley.edu/~mhoemmen/cs194/Tutorials/variance.pdf					*/
  58:.\statistics.c **** /* vedi anche \Study\Statistica\variance(Computing the standard deviation efficiently).pdf	*/
  59:.\statistics.c **** /********************************************************************************************/
  60:.\statistics.c **** void statistics_elab_step(struct STATISTICS *stat, float value)
  61:.\statistics.c **** {
 185              		.loc 1 61 0
 186              		.cfi_startproc
 187              		@ args = 0, pretend = 0, frame = 8
 188              		@ frame_needed = 1, uses_anonymous_args = 0
 189 0000 90B5     		push	{r4, r7, lr}
 190              	.LCFI12:
 191              		.cfi_def_cfa_offset 12
 192              		.cfi_offset 4, -12
 193              		.cfi_offset 7, -8
 194              		.cfi_offset 14, -4
 195 0002 83B0     		sub	sp, sp, #12
 196              	.LCFI13:
 197              		.cfi_def_cfa_offset 24
 198 0004 00AF     		add	r7, sp, #0
 199              	.LCFI14:
 200              		.cfi_def_cfa_register 7
 201 0006 7860     		str	r0, [r7, #4]
 202 0008 3960     		str	r1, [r7, #0]	@ float
  62:.\statistics.c **** 	(*stat).tick = (*stat).tick + 1;	//increment statistic tick
 203              		.loc 1 62 0
 204 000a 7B68     		ldr	r3, [r7, #4]
 205 000c DB6A     		ldr	r3, [r3, #44]
 206 000e 03F10102 		add	r2, r3, #1
 207 0012 7B68     		ldr	r3, [r7, #4]
 208 0014 DA62     		str	r2, [r3, #44]
  63:.\statistics.c **** 	
  64:.\statistics.c **** 	if ((*stat).messg == STATISTICS_START)
 209              		.loc 1 64 0
 210 0016 7B68     		ldr	r3, [r7, #4]
 211 0018 1B78     		ldrb	r3, [r3, #0]	@ zero_extendqisi2
 212 001a 012B     		cmp	r3, #1
 213 001c 28D1     		bne	.L7
  65:.\statistics.c **** 	{
  66:.\statistics.c **** 		(*stat).tick = 0;				/* tick = 0 [ms]									*/
 214              		.loc 1 66 0
 215 001e 7B68     		ldr	r3, [r7, #4]
 216 0020 4FF00002 		mov	r2, #0
 217 0024 DA62     		str	r2, [r3, #44]
  67:.\statistics.c **** 		(*stat).mean  = value;			/* mean value(t) 									*/
 218              		.loc 1 67 0
ARM GAS  C:\Users\GRAZIA~1.RAV\AppData\Local\Temp\ccWYc2H4.s 			page 6


 219 0026 7B68     		ldr	r3, [r7, #4]
 220 0028 3A68     		ldr	r2, [r7, #0]	@ float
 221 002a 5A60     		str	r2, [r3, #4]	@ float
  68:.\statistics.c **** 		(*stat).mean_previous = value; 	/* mean value(t-1)									*/		
 222              		.loc 1 68 0
 223 002c 7B68     		ldr	r3, [r7, #4]
 224 002e 3A68     		ldr	r2, [r7, #0]	@ float
 225 0030 9A60     		str	r2, [r3, #8]	@ float
  69:.\statistics.c **** 		(*stat).min   = value;			/* minimum value(t) 								*/
 226              		.loc 1 69 0
 227 0032 7B68     		ldr	r3, [r7, #4]
 228 0034 3A68     		ldr	r2, [r7, #0]	@ float
 229 0036 DA60     		str	r2, [r3, #12]	@ float
  70:.\statistics.c **** 		(*stat).max   = value;			/* maximum value(t) 								*/
 230              		.loc 1 70 0
 231 0038 7B68     		ldr	r3, [r7, #4]
 232 003a 3A68     		ldr	r2, [r7, #0]	@ float
 233 003c 1A61     		str	r2, [r3, #16]	@ float
  71:.\statistics.c **** 		(*stat).range = 0;				/* range = maximum - minimum value 					*/
 234              		.loc 1 71 0
 235 003e 7B68     		ldr	r3, [r7, #4]
 236 0040 4FF00002 		mov	r2, #0
 237 0044 5A61     		str	r2, [r3, #20]	@ float
  72:.\statistics.c **** 		(*stat).scarto = 0;				/* scarto = value - mean(value)						*/
 238              		.loc 1 72 0
 239 0046 7B68     		ldr	r3, [r7, #4]
 240 0048 4FF00002 		mov	r2, #0
 241 004c 9A61     		str	r2, [r3, #24]	@ float
  73:.\statistics.c **** 		(*stat).Qk	= 0;				/* Qk value for sample variance iterative calculus 	*/
 242              		.loc 1 73 0
 243 004e 7B68     		ldr	r3, [r7, #4]
 244 0050 4FF00002 		mov	r2, #0
 245 0054 DA61     		str	r2, [r3, #28]	@ float
  74:.\statistics.c **** 		(*stat).Qk_previous = 0;		/* Qk(t-1)											*/
 246              		.loc 1 74 0
 247 0056 7B68     		ldr	r3, [r7, #4]
 248 0058 4FF00002 		mov	r2, #0
 249 005c 1A62     		str	r2, [r3, #32]	@ float
  75:.\statistics.c **** 		
  76:.\statistics.c **** 		(*stat).iteration_num = 2;		/* iteration_num = n = 2							*/
 250              		.loc 1 76 0
 251 005e 7B68     		ldr	r3, [r7, #4]
 252 0060 4FF00202 		mov	r2, #2
 253 0064 9A62     		str	r2, [r3, #40]
  77:.\statistics.c **** 		
  78:.\statistics.c **** 		(*stat).messg = STATISTICS_STARTED; /* issue STAT STARTED MESSAGE 					*/
 254              		.loc 1 78 0
 255 0066 7B68     		ldr	r3, [r7, #4]
 256 0068 4FF00302 		mov	r2, #3
 257 006c 1A70     		strb	r2, [r3, #0]
 258 006e 54E0     		b	.L6
 259              	.L7:
  79:.\statistics.c **** 	}
  80:.\statistics.c **** 	else
  81:.\statistics.c **** 		if ((*stat).messg != STATISTICS_STOP)
 260              		.loc 1 81 0
 261 0070 7B68     		ldr	r3, [r7, #4]
ARM GAS  C:\Users\GRAZIA~1.RAV\AppData\Local\Temp\ccWYc2H4.s 			page 7


 262 0072 1B78     		ldrb	r3, [r3, #0]	@ zero_extendqisi2
 263 0074 022B     		cmp	r3, #2
 264 0076 50D0     		beq	.L6
  82:.\statistics.c **** 		{
  83:.\statistics.c **** 			/* Mean calculus iterative step */
  84:.\statistics.c **** 			(*stat).mean = ((*stat).mean_previous * ((*stat).iteration_num - 1) + value) / (*stat).iteration
 265              		.loc 1 84 0
 266 0078 7B68     		ldr	r3, [r7, #4]
 267 007a 9C68     		ldr	r4, [r3, #8]	@ float
 268 007c 7B68     		ldr	r3, [r7, #4]
 269 007e 9B6A     		ldr	r3, [r3, #40]
 270 0080 03F1FF33 		add	r3, r3, #-1
 271 0084 1846     		mov	r0, r3
 272 0086 FFF7FEFF 		bl	__aeabi_ui2f
 273 008a 0346     		mov	r3, r0
 274 008c 2046     		mov	r0, r4
 275 008e 1946     		mov	r1, r3
 276 0090 FFF7FEFF 		bl	__aeabi_fmul
 277 0094 0346     		mov	r3, r0
 278 0096 1846     		mov	r0, r3
 279 0098 3968     		ldr	r1, [r7, #0]	@ float
 280 009a FFF7FEFF 		bl	__aeabi_fadd
 281 009e 0346     		mov	r3, r0
 282 00a0 1C46     		mov	r4, r3
 283 00a2 7B68     		ldr	r3, [r7, #4]
 284 00a4 9B6A     		ldr	r3, [r3, #40]
 285 00a6 1846     		mov	r0, r3
 286 00a8 FFF7FEFF 		bl	__aeabi_ui2f
 287 00ac 0346     		mov	r3, r0
 288 00ae 2046     		mov	r0, r4
 289 00b0 1946     		mov	r1, r3
 290 00b2 FFF7FEFF 		bl	__aeabi_fdiv
 291 00b6 0346     		mov	r3, r0
 292 00b8 1A46     		mov	r2, r3
 293 00ba 7B68     		ldr	r3, [r7, #4]
 294 00bc 5A60     		str	r2, [r3, #4]	@ float
  85:.\statistics.c **** 			(*stat).mean_previous = (*stat).mean;
 295              		.loc 1 85 0
 296 00be 7B68     		ldr	r3, [r7, #4]
 297 00c0 5A68     		ldr	r2, [r3, #4]	@ float
 298 00c2 7B68     		ldr	r3, [r7, #4]
 299 00c4 9A60     		str	r2, [r3, #8]	@ float
  86:.\statistics.c **** 			
  87:.\statistics.c **** //			/* Sample Variance iterative step */
  88:.\statistics.c **** //			(*stat).Qk = (*stat).Qk_previous + ((((*stat).iteration_num - 1 ) * pow(value - (*stat).mean_p
  89:.\statistics.c **** //			(*stat).variance = (*stat).Qk / ((*stat).iteration_num - 1);
  90:.\statistics.c **** //
  91:.\statistics.c **** //			/* scarto(t) iterative step */
  92:.\statistics.c **** //			(*stat).scarto = value - (*stat).mean;
  93:.\statistics.c **** 			
  94:.\statistics.c **** 			/* n = n + 1 */
  95:.\statistics.c **** 			(*stat).iteration_num = (*stat).iteration_num + 1;
 300              		.loc 1 95 0
 301 00c6 7B68     		ldr	r3, [r7, #4]
 302 00c8 9B6A     		ldr	r3, [r3, #40]
 303 00ca 03F10102 		add	r2, r3, #1
 304 00ce 7B68     		ldr	r3, [r7, #4]
ARM GAS  C:\Users\GRAZIA~1.RAV\AppData\Local\Temp\ccWYc2H4.s 			page 8


 305 00d0 9A62     		str	r2, [r3, #40]
  96:.\statistics.c **** 			
  97:.\statistics.c **** 			/* Angle Range calculus */
  98:.\statistics.c **** 			if (value < (*stat).min)
 306              		.loc 1 98 0
 307 00d2 7B68     		ldr	r3, [r7, #4]
 308 00d4 DB68     		ldr	r3, [r3, #12]	@ float
 309 00d6 1846     		mov	r0, r3
 310 00d8 3968     		ldr	r1, [r7, #0]	@ float
 311 00da FFF7FEFF 		bl	__aeabi_fcmpgt
 312 00de 0346     		mov	r3, r0
 313 00e0 002B     		cmp	r3, #0
 314 00e2 02D0     		beq	.L9
 315              	.L13:
  99:.\statistics.c **** 				(*stat).min = value;
 316              		.loc 1 99 0
 317 00e4 7B68     		ldr	r3, [r7, #4]
 318 00e6 3A68     		ldr	r2, [r7, #0]	@ float
 319 00e8 DA60     		str	r2, [r3, #12]	@ float
 320              	.L9:
 100:.\statistics.c **** 
 101:.\statistics.c **** 			if (value > (*stat).max)
 321              		.loc 1 101 0
 322 00ea 7B68     		ldr	r3, [r7, #4]
 323 00ec 1B69     		ldr	r3, [r3, #16]	@ float
 324 00ee 1846     		mov	r0, r3
 325 00f0 3968     		ldr	r1, [r7, #0]	@ float
 326 00f2 FFF7FEFF 		bl	__aeabi_fcmplt
 327 00f6 0346     		mov	r3, r0
 328 00f8 002B     		cmp	r3, #0
 329 00fa 02D0     		beq	.L11
 330              	.L14:
 102:.\statistics.c **** 				(*stat).max = value;
 331              		.loc 1 102 0
 332 00fc 7B68     		ldr	r3, [r7, #4]
 333 00fe 3A68     		ldr	r2, [r7, #0]	@ float
 334 0100 1A61     		str	r2, [r3, #16]	@ float
 335              	.L11:
 103:.\statistics.c **** 				
 104:.\statistics.c **** 			(*stat).range = (*stat).max - (*stat).min;	
 336              		.loc 1 104 0
 337 0102 7B68     		ldr	r3, [r7, #4]
 338 0104 1A69     		ldr	r2, [r3, #16]	@ float
 339 0106 7B68     		ldr	r3, [r7, #4]
 340 0108 DB68     		ldr	r3, [r3, #12]	@ float
 341 010a 1046     		mov	r0, r2
 342 010c 1946     		mov	r1, r3
 343 010e FFF7FEFF 		bl	__aeabi_fsub
 344 0112 0346     		mov	r3, r0
 345 0114 1A46     		mov	r2, r3
 346 0116 7B68     		ldr	r3, [r7, #4]
 347 0118 5A61     		str	r2, [r3, #20]	@ float
 348              	.L6:
 105:.\statistics.c **** 		}	
 106:.\statistics.c **** }
 349              		.loc 1 106 0
 350 011a 07F10C07 		add	r7, r7, #12
ARM GAS  C:\Users\GRAZIA~1.RAV\AppData\Local\Temp\ccWYc2H4.s 			page 9


 351 011e BD46     		mov	sp, r7
 352 0120 90BD     		pop	{r4, r7, pc}
 353              		.cfi_endproc
 354              	.LFE60:
 355              		.size	statistics_elab_step, .-statistics_elab_step
 356 0122 00BF     		.text
 357              	.Letext0:
 358              		.file 2 "c:\\program files (x86)\\cypress\\psoc creator\\3.0\\psoc creator\\import\\gnu_cs\\arm\\4
 359              		.file 3 "./Generated_Source/PSoC5/cytypes.h"
 360              		.file 4 "./statistics.h"
 361              		.file 5 "./Generated_Source/PSoC5/core_cm3.h"