ARM GAS  C:\Users\GRAZIA~1.RAV\AppData\Local\Temp\ccUtzTBI.s 			page 1


   1              		.syntax unified
   2              		.cpu cortex-m3
   3              		.fpu softvfp
   4              		.eabi_attribute 20, 1
   5              		.eabi_attribute 21, 1
   6              		.eabi_attribute 23, 3
   7              		.eabi_attribute 24, 1
   8              		.eabi_attribute 25, 1
   9              		.eabi_attribute 26, 1
  10              		.eabi_attribute 30, 6
  11              		.eabi_attribute 34, 1
  12              		.eabi_attribute 18, 4
  13              		.thumb
  14              		.file	"torquestat.c"
  15              		.text
  16              	.Ltext0:
  17              		.cfi_sections	.debug_frame
  18              		.comm	TORQUESTAT,32,8
  19              		.global	__aeabi_f2d
  20              		.global	__aeabi_dadd
  21              		.section	.text.current_statistics_elab_step,"ax",%progbits
  22              		.align	2
  23              		.global	current_statistics_elab_step
  24              		.thumb
  25              		.thumb_func
  26              		.type	current_statistics_elab_step, %function
  27              	current_statistics_elab_step:
  28              	.LFB56:
  29              		.file 1 ".\\torquestat.c"
   1:.\torquestat.c **** /* ========================================
   2:.\torquestat.c ****  *
   3:.\torquestat.c ****  * TORQUE STATISTICS library functions
   4:.\torquestat.c ****  * Vers.2.1
   5:.\torquestat.c ****  * 22/10/2018
   6:.\torquestat.c ****  *
   7:.\torquestat.c ****   *   Funzioni per misura e statistica delle:
   8:.\torquestat.c ****  *		coppie
   9:.\torquestat.c ****  *		correnti assorbite
  10:.\torquestat.c ****  *		potenza assorbita ed erogata
  11:.\torquestat.c ****  *		energia utilizzata
  12:.\torquestat.c ****  *
  13:.\torquestat.c ****  *    Versione con puntatori per stima
  14:.\torquestat.c ****  *    contemporanea di pan e tilt
  15:.\torquestat.c ****  *
  16:.\torquestat.c ****  * Copyright Logic brainstorm, 2018
  17:.\torquestat.c ****  * All Rights Reserved
  18:.\torquestat.c ****  * UNPUBLISHED, LICENSED SOFTWARE.
  19:.\torquestat.c ****  *
  20:.\torquestat.c ****  * CONFIDENTIAL AND PROPRIETARY INFORMATION
  21:.\torquestat.c ****  * WHICH IS THE PROPERTY OF Logic brainstorm.
  22:.\torquestat.c ****  *
  23:.\torquestat.c ****  * ========================================
  24:.\torquestat.c **** */
  25:.\torquestat.c **** /* Include files */
  26:.\torquestat.c **** #include <device.h>
  27:.\torquestat.c **** #include <gobee.h>
  28:.\torquestat.c **** #include <math.h>
ARM GAS  C:\Users\GRAZIA~1.RAV\AppData\Local\Temp\ccUtzTBI.s 			page 2


  29:.\torquestat.c **** #include <statistics.h>
  30:.\torquestat.c **** #include <torquestat.h>
  31:.\torquestat.c **** 
  32:.\torquestat.c **** 
  33:.\torquestat.c **** ///////////////////////////////////////////////////////////////////////////////////////////////////
  34:.\torquestat.c **** // MOTOR CURRENT STATISTICS ELABORATION STEP
  35:.\torquestat.c **** ///////////////////////////////////////////////////////////////////////////////////////////////////
  36:.\torquestat.c **** // Se i(t) misurabile -->
  37:.\torquestat.c **** // 		Output Torque(t) = i(t) * Km * eff_M * N * eff_R	[mNm]
  38:.\torquestat.c **** // 		i(t)   = istantaneous current 						[A]
  39:.\torquestat.c **** //		Km     = Torque constant 							[mNm/A]
  40:.\torquestat.c **** //		eff_M  = Motor efficiency							[%]
  41:.\torquestat.c **** //		N      = Gears rate									[adim]
  42:.\torquestat.c **** //		eff_R  = Gears efficiency							[%]
  43:.\torquestat.c **** ///////////////////////////////////////////////////////////////////////////////////////////////////
  44:.\torquestat.c **** void current_statistics_elab_step(struct TORQUESTAT *tstat, struct STATISTICS *current_stat,  float
  45:.\torquestat.c **** {
  30              		.loc 1 45 0
  31              		.cfi_startproc
  32              		@ args = 0, pretend = 0, frame = 16
  33              		@ frame_needed = 1, uses_anonymous_args = 0
  34 0000 B0B5     		push	{r4, r5, r7, lr}
  35              	.LCFI0:
  36              		.cfi_def_cfa_offset 16
  37              		.cfi_offset 4, -16
  38              		.cfi_offset 5, -12
  39              		.cfi_offset 7, -8
  40              		.cfi_offset 14, -4
  41 0002 84B0     		sub	sp, sp, #16
  42              	.LCFI1:
  43              		.cfi_def_cfa_offset 32
  44 0004 00AF     		add	r7, sp, #0
  45              	.LCFI2:
  46              		.cfi_def_cfa_register 7
  47 0006 F860     		str	r0, [r7, #12]
  48 0008 B960     		str	r1, [r7, #8]
  49 000a 7A60     		str	r2, [r7, #4]	@ float
  46:.\torquestat.c **** 	current = fabsf(current);											//make the absolute value   [A]
  50              		.loc 1 46 0
  51 000c 7B68     		ldr	r3, [r7, #4]
  52 000e 23F00043 		bic	r3, r3, #-2147483648
  53 0012 7B60     		str	r3, [r7, #4]	@ float
  47:.\torquestat.c **** 	
  48:.\torquestat.c **** 	(*tstat).abs_current_t = current;									//save abs(current(t))
  54              		.loc 1 48 0
  55 0014 FB68     		ldr	r3, [r7, #12]
  56 0016 7A68     		ldr	r2, [r7, #4]	@ float
  57 0018 9A60     		str	r2, [r3, #8]	@ float
  49:.\torquestat.c **** 	
  50:.\torquestat.c **** 	(*tstat).current_integral = (*tstat).current_integral + current;	//integrate the current 	[A]
  58              		.loc 1 50 0
  59 001a FB68     		ldr	r3, [r7, #12]
  60 001c D3E90045 		ldrd	r4, [r3]
  61 0020 7868     		ldr	r0, [r7, #4]	@ float
  62 0022 FFF7FEFF 		bl	__aeabi_f2d
  63 0026 0246     		mov	r2, r0
  64 0028 0B46     		mov	r3, r1
ARM GAS  C:\Users\GRAZIA~1.RAV\AppData\Local\Temp\ccUtzTBI.s 			page 3


  65 002a 2046     		mov	r0, r4
  66 002c 2946     		mov	r1, r5
  67 002e FFF7FEFF 		bl	__aeabi_dadd
  68 0032 0246     		mov	r2, r0
  69 0034 0B46     		mov	r3, r1
  70 0036 F968     		ldr	r1, [r7, #12]
  71 0038 C1E90023 		strd	r2, [r1]
  51:.\torquestat.c **** 	
  52:.\torquestat.c **** 	/********************************************************************************************/
  53:.\torquestat.c **** 	/* Value Statistics Iterative Calculus						 								*/
  54:.\torquestat.c **** 	/* 																							*/
  55:.\torquestat.c **** 	/* iteration >= 2																			*/
  56:.\torquestat.c **** 	/* Calcola il valor medio e altre variabili statistiche del flusso di value passato			*/
  57:.\torquestat.c **** 	/* Fonte: http://www.cs.berkeley.edu/~mhoemmen/cs194/Tutorials/variance.pdf					*/
  58:.\torquestat.c **** 	/* vedi anche \Study\Statistica\variance(Computing the standard deviation efficiently).pdf	*/
  59:.\torquestat.c **** 	/********************************************************************************************/
  60:.\torquestat.c **** 	statistics_elab_step(current_stat, current);
  72              		.loc 1 60 0
  73 003c B868     		ldr	r0, [r7, #8]
  74 003e 7968     		ldr	r1, [r7, #4]	@ float
  75 0040 FFF7FEFF 		bl	statistics_elab_step
  61:.\torquestat.c **** }
  76              		.loc 1 61 0
  77 0044 07F11007 		add	r7, r7, #16
  78 0048 BD46     		mov	sp, r7
  79 004a B0BD     		pop	{r4, r5, r7, pc}
  80              		.cfi_endproc
  81              	.LFE56:
  82              		.size	current_statistics_elab_step, .-current_statistics_elab_step
  83              		.section	.text.current_statistics_init,"ax",%progbits
  84              		.align	2
  85              		.global	current_statistics_init
  86              		.thumb
  87              		.thumb_func
  88              		.type	current_statistics_init, %function
  89              	current_statistics_init:
  90              	.LFB57:
  62:.\torquestat.c **** 
  63:.\torquestat.c **** /* Initialize Current Statistics */
  64:.\torquestat.c **** void current_statistics_init(struct STATISTICS *current_stat)
  65:.\torquestat.c **** {
  91              		.loc 1 65 0
  92              		.cfi_startproc
  93              		@ args = 0, pretend = 0, frame = 8
  94              		@ frame_needed = 1, uses_anonymous_args = 0
  95 0000 80B5     		push	{r7, lr}
  96              	.LCFI3:
  97              		.cfi_def_cfa_offset 8
  98              		.cfi_offset 7, -8
  99              		.cfi_offset 14, -4
 100 0002 82B0     		sub	sp, sp, #8
 101              	.LCFI4:
 102              		.cfi_def_cfa_offset 16
 103 0004 00AF     		add	r7, sp, #0
 104              	.LCFI5:
 105              		.cfi_def_cfa_register 7
 106 0006 7860     		str	r0, [r7, #4]
ARM GAS  C:\Users\GRAZIA~1.RAV\AppData\Local\Temp\ccUtzTBI.s 			page 4


  66:.\torquestat.c **** 	statistics_init(current_stat);	//Statistics-only initialization
 107              		.loc 1 66 0
 108 0008 7868     		ldr	r0, [r7, #4]
 109 000a FFF7FEFF 		bl	statistics_init
  67:.\torquestat.c **** }
 110              		.loc 1 67 0
 111 000e 07F10807 		add	r7, r7, #8
 112 0012 BD46     		mov	sp, r7
 113 0014 80BD     		pop	{r7, pc}
 114              		.cfi_endproc
 115              	.LFE57:
 116              		.size	current_statistics_init, .-current_statistics_init
 117 0016 00BF     		.section	.text.current_statistics_start,"ax",%progbits
 118              		.align	2
 119              		.global	current_statistics_start
 120              		.thumb
 121              		.thumb_func
 122              		.type	current_statistics_start, %function
 123              	current_statistics_start:
 124              	.LFB58:
  68:.\torquestat.c **** 
  69:.\torquestat.c **** /* Start Current Statistics */
  70:.\torquestat.c **** void current_statistics_start(struct STATISTICS *current_stat)
  71:.\torquestat.c **** {
 125              		.loc 1 71 0
 126              		.cfi_startproc
 127              		@ args = 0, pretend = 0, frame = 8
 128              		@ frame_needed = 1, uses_anonymous_args = 0
 129 0000 80B5     		push	{r7, lr}
 130              	.LCFI6:
 131              		.cfi_def_cfa_offset 8
 132              		.cfi_offset 7, -8
 133              		.cfi_offset 14, -4
 134 0002 82B0     		sub	sp, sp, #8
 135              	.LCFI7:
 136              		.cfi_def_cfa_offset 16
 137 0004 00AF     		add	r7, sp, #0
 138              	.LCFI8:
 139              		.cfi_def_cfa_register 7
 140 0006 7860     		str	r0, [r7, #4]
  72:.\torquestat.c **** 	statistics_start(current_stat);	//Statistics-only initialization
 141              		.loc 1 72 0
 142 0008 7868     		ldr	r0, [r7, #4]
 143 000a FFF7FEFF 		bl	statistics_start
  73:.\torquestat.c **** }
 144              		.loc 1 73 0
 145 000e 07F10807 		add	r7, r7, #8
 146 0012 BD46     		mov	sp, r7
 147 0014 80BD     		pop	{r7, pc}
 148              		.cfi_endproc
 149              	.LFE58:
 150              		.size	current_statistics_start, .-current_statistics_start
 151 0016 00BF     		.section	.text.current_statistics_stop,"ax",%progbits
 152              		.align	2
 153              		.global	current_statistics_stop
 154              		.thumb
 155              		.thumb_func
ARM GAS  C:\Users\GRAZIA~1.RAV\AppData\Local\Temp\ccUtzTBI.s 			page 5


 156              		.type	current_statistics_stop, %function
 157              	current_statistics_stop:
 158              	.LFB59:
  74:.\torquestat.c **** 
  75:.\torquestat.c **** /* Stop Current Statistics */
  76:.\torquestat.c **** void current_statistics_stop(struct STATISTICS *current_stat)
  77:.\torquestat.c **** {
 159              		.loc 1 77 0
 160              		.cfi_startproc
 161              		@ args = 0, pretend = 0, frame = 8
 162              		@ frame_needed = 1, uses_anonymous_args = 0
 163 0000 80B5     		push	{r7, lr}
 164              	.LCFI9:
 165              		.cfi_def_cfa_offset 8
 166              		.cfi_offset 7, -8
 167              		.cfi_offset 14, -4
 168 0002 82B0     		sub	sp, sp, #8
 169              	.LCFI10:
 170              		.cfi_def_cfa_offset 16
 171 0004 00AF     		add	r7, sp, #0
 172              	.LCFI11:
 173              		.cfi_def_cfa_register 7
 174 0006 7860     		str	r0, [r7, #4]
  78:.\torquestat.c **** 	statistics_stop(current_stat);	//Statistics-only stop
 175              		.loc 1 78 0
 176 0008 7868     		ldr	r0, [r7, #4]
 177 000a FFF7FEFF 		bl	statistics_stop
  79:.\torquestat.c **** }
 178              		.loc 1 79 0
 179 000e 07F10807 		add	r7, r7, #8
 180 0012 BD46     		mov	sp, r7
 181 0014 80BD     		pop	{r7, pc}
 182              		.cfi_endproc
 183              	.LFE59:
 184              		.size	current_statistics_stop, .-current_statistics_stop
 185              		.global	__aeabi_fmul
 186 0016 00BF     		.section	.text.qpower_statistics_elab_step,"ax",%progbits
 187              		.align	2
 188              		.global	qpower_statistics_elab_step
 189              		.thumb
 190              		.thumb_func
 191              		.type	qpower_statistics_elab_step, %function
 192              	qpower_statistics_elab_step:
 193              	.LFB60:
  80:.\torquestat.c **** 
  81:.\torquestat.c **** ///////////////////////////////////////////////////////////////////////////////////////////////////
  82:.\torquestat.c **** // MOTOR POWER STATISTICS ELABORATION STEP
  83:.\torquestat.c **** ///////////////////////////////////////////////////////////////////////////////////////////////////
  84:.\torquestat.c **** // Se i(t) misurabile -->
  85:.\torquestat.c **** // 		Output Power(t) = omega(t) * i(t) * Km * eff_M		[mW]
  86:.\torquestat.c **** //		omega(t) = instantaneous angular velocity			[rad/sec]
  87:.\torquestat.c **** // 		i(t)   = istantaneous current 						[A]
  88:.\torquestat.c **** //		Km     = Torque constant 							[mNm/A]
  89:.\torquestat.c **** //		eff_M  = Motor efficiency							[%]
  90:.\torquestat.c **** ///////////////////////////////////////////////////////////////////////////////////////////////////
  91:.\torquestat.c **** void qpower_statistics_elab_step(struct TORQUESTAT *tstat, struct STATISTICS *qpower_stat, float cu
  92:.\torquestat.c **** {	
ARM GAS  C:\Users\GRAZIA~1.RAV\AppData\Local\Temp\ccUtzTBI.s 			page 6


 194              		.loc 1 92 0
 195              		.cfi_startproc
 196              		@ args = 0, pretend = 0, frame = 16
 197              		@ frame_needed = 1, uses_anonymous_args = 0
 198 0000 80B5     		push	{r7, lr}
 199              	.LCFI12:
 200              		.cfi_def_cfa_offset 8
 201              		.cfi_offset 7, -8
 202              		.cfi_offset 14, -4
 203 0002 84B0     		sub	sp, sp, #16
 204              	.LCFI13:
 205              		.cfi_def_cfa_offset 24
 206 0004 00AF     		add	r7, sp, #0
 207              	.LCFI14:
 208              		.cfi_def_cfa_register 7
 209 0006 F860     		str	r0, [r7, #12]
 210 0008 B960     		str	r1, [r7, #8]
 211 000a 7A60     		str	r2, [r7, #4]	@ float
 212 000c 3B60     		str	r3, [r7, #0]	@ float
  93:.\torquestat.c **** 	current = fabsf(current);						//make the absolute value   [A]
 213              		.loc 1 93 0
 214 000e 7B68     		ldr	r3, [r7, #4]
 215 0010 23F00043 		bic	r3, r3, #-2147483648
 216 0014 7B60     		str	r3, [r7, #4]	@ float
  94:.\torquestat.c **** 
  95:.\torquestat.c **** 	(*tstat).pwcalc.abs_omega_t = omega;
 217              		.loc 1 95 0
 218 0016 FB68     		ldr	r3, [r7, #12]
 219 0018 3A68     		ldr	r2, [r7, #0]	@ float
 220 001a DA60     		str	r2, [r3, #12]	@ float
  96:.\torquestat.c **** 	
  97:.\torquestat.c **** 	(*tstat).pwcalc.qpower_t    = current * omega;		//quasi-power(t) = current(t) [A] * velocity(t) [r
 221              		.loc 1 97 0
 222 001c 7868     		ldr	r0, [r7, #4]	@ float
 223 001e 3968     		ldr	r1, [r7, #0]	@ float
 224 0020 FFF7FEFF 		bl	__aeabi_fmul
 225 0024 0346     		mov	r3, r0
 226 0026 1A46     		mov	r2, r3
 227 0028 FB68     		ldr	r3, [r7, #12]
 228 002a 1A61     		str	r2, [r3, #16]	@ float
  98:.\torquestat.c **** 	
  99:.\torquestat.c **** 	/********************************************************************************************/
 100:.\torquestat.c **** 	/* Value Statistics Iterative Calculus						 								*/
 101:.\torquestat.c **** 	/* 																							*/
 102:.\torquestat.c **** 	/* iteration >= 2																			*/
 103:.\torquestat.c **** 	/* Calcola il valor medio e altre variabili statistiche del flusso di value passato			*/
 104:.\torquestat.c **** 	/* Fonte: http://www.cs.berkeley.edu/~mhoemmen/cs194/Tutorials/variance.pdf					*/
 105:.\torquestat.c **** 	/* vedi anche \Study\Statistica\variance(Computing the standard deviation efficiently).pdf	*/
 106:.\torquestat.c **** 	/********************************************************************************************/
 107:.\torquestat.c **** 	statistics_elab_step(qpower_stat, (*tstat).pwcalc.qpower_t);
 229              		.loc 1 107 0
 230 002c FB68     		ldr	r3, [r7, #12]
 231 002e 1B69     		ldr	r3, [r3, #16]	@ float
 232 0030 B868     		ldr	r0, [r7, #8]
 233 0032 1946     		mov	r1, r3
 234 0034 FFF7FEFF 		bl	statistics_elab_step
 108:.\torquestat.c **** }
ARM GAS  C:\Users\GRAZIA~1.RAV\AppData\Local\Temp\ccUtzTBI.s 			page 7


 235              		.loc 1 108 0
 236 0038 07F11007 		add	r7, r7, #16
 237 003c BD46     		mov	sp, r7
 238 003e 80BD     		pop	{r7, pc}
 239              		.cfi_endproc
 240              	.LFE60:
 241              		.size	qpower_statistics_elab_step, .-qpower_statistics_elab_step
 242              		.section	.text.qpower_statistics_init,"ax",%progbits
 243              		.align	2
 244              		.global	qpower_statistics_init
 245              		.thumb
 246              		.thumb_func
 247              		.type	qpower_statistics_init, %function
 248              	qpower_statistics_init:
 249              	.LFB61:
 109:.\torquestat.c **** 
 110:.\torquestat.c **** /* Initialize quasi-power Statistics */
 111:.\torquestat.c **** void qpower_statistics_init(struct STATISTICS *qpower_stat)
 112:.\torquestat.c **** {
 250              		.loc 1 112 0
 251              		.cfi_startproc
 252              		@ args = 0, pretend = 0, frame = 8
 253              		@ frame_needed = 1, uses_anonymous_args = 0
 254 0000 80B5     		push	{r7, lr}
 255              	.LCFI15:
 256              		.cfi_def_cfa_offset 8
 257              		.cfi_offset 7, -8
 258              		.cfi_offset 14, -4
 259 0002 82B0     		sub	sp, sp, #8
 260              	.LCFI16:
 261              		.cfi_def_cfa_offset 16
 262 0004 00AF     		add	r7, sp, #0
 263              	.LCFI17:
 264              		.cfi_def_cfa_register 7
 265 0006 7860     		str	r0, [r7, #4]
 113:.\torquestat.c **** 	statistics_init(qpower_stat);	//Statistics-only initialization
 266              		.loc 1 113 0
 267 0008 7868     		ldr	r0, [r7, #4]
 268 000a FFF7FEFF 		bl	statistics_init
 114:.\torquestat.c **** }
 269              		.loc 1 114 0
 270 000e 07F10807 		add	r7, r7, #8
 271 0012 BD46     		mov	sp, r7
 272 0014 80BD     		pop	{r7, pc}
 273              		.cfi_endproc
 274              	.LFE61:
 275              		.size	qpower_statistics_init, .-qpower_statistics_init
 276 0016 00BF     		.section	.text.qpower_statistics_start,"ax",%progbits
 277              		.align	2
 278              		.global	qpower_statistics_start
 279              		.thumb
 280              		.thumb_func
 281              		.type	qpower_statistics_start, %function
 282              	qpower_statistics_start:
 283              	.LFB62:
 115:.\torquestat.c **** 
 116:.\torquestat.c **** /* Start quasi-power Statistics */
ARM GAS  C:\Users\GRAZIA~1.RAV\AppData\Local\Temp\ccUtzTBI.s 			page 8


 117:.\torquestat.c **** void qpower_statistics_start(struct STATISTICS *qpower_stat)
 118:.\torquestat.c **** {
 284              		.loc 1 118 0
 285              		.cfi_startproc
 286              		@ args = 0, pretend = 0, frame = 8
 287              		@ frame_needed = 1, uses_anonymous_args = 0
 288 0000 80B5     		push	{r7, lr}
 289              	.LCFI18:
 290              		.cfi_def_cfa_offset 8
 291              		.cfi_offset 7, -8
 292              		.cfi_offset 14, -4
 293 0002 82B0     		sub	sp, sp, #8
 294              	.LCFI19:
 295              		.cfi_def_cfa_offset 16
 296 0004 00AF     		add	r7, sp, #0
 297              	.LCFI20:
 298              		.cfi_def_cfa_register 7
 299 0006 7860     		str	r0, [r7, #4]
 119:.\torquestat.c **** 	statistics_start(qpower_stat);	//Statistics-only initialization
 300              		.loc 1 119 0
 301 0008 7868     		ldr	r0, [r7, #4]
 302 000a FFF7FEFF 		bl	statistics_start
 120:.\torquestat.c **** }
 303              		.loc 1 120 0
 304 000e 07F10807 		add	r7, r7, #8
 305 0012 BD46     		mov	sp, r7
 306 0014 80BD     		pop	{r7, pc}
 307              		.cfi_endproc
 308              	.LFE62:
 309              		.size	qpower_statistics_start, .-qpower_statistics_start
 310 0016 00BF     		.section	.text.qpower_statistics_stop,"ax",%progbits
 311              		.align	2
 312              		.global	qpower_statistics_stop
 313              		.thumb
 314              		.thumb_func
 315              		.type	qpower_statistics_stop, %function
 316              	qpower_statistics_stop:
 317              	.LFB63:
 121:.\torquestat.c **** 
 122:.\torquestat.c **** /* Stop quasi-power Statistics */
 123:.\torquestat.c **** void qpower_statistics_stop(struct STATISTICS *qpower_stat)
 124:.\torquestat.c **** {
 318              		.loc 1 124 0
 319              		.cfi_startproc
 320              		@ args = 0, pretend = 0, frame = 8
 321              		@ frame_needed = 1, uses_anonymous_args = 0
 322 0000 80B5     		push	{r7, lr}
 323              	.LCFI21:
 324              		.cfi_def_cfa_offset 8
 325              		.cfi_offset 7, -8
 326              		.cfi_offset 14, -4
 327 0002 82B0     		sub	sp, sp, #8
 328              	.LCFI22:
 329              		.cfi_def_cfa_offset 16
 330 0004 00AF     		add	r7, sp, #0
 331              	.LCFI23:
 332              		.cfi_def_cfa_register 7
ARM GAS  C:\Users\GRAZIA~1.RAV\AppData\Local\Temp\ccUtzTBI.s 			page 9


 333 0006 7860     		str	r0, [r7, #4]
 125:.\torquestat.c **** 	statistics_stop(qpower_stat);	//Statistics-only stop
 334              		.loc 1 125 0
 335 0008 7868     		ldr	r0, [r7, #4]
 336 000a FFF7FEFF 		bl	statistics_stop
 126:.\torquestat.c **** }
 337              		.loc 1 126 0
 338 000e 07F10807 		add	r7, r7, #8
 339 0012 BD46     		mov	sp, r7
 340 0014 80BD     		pop	{r7, pc}
 341              		.cfi_endproc
 342              	.LFE63:
 343              		.size	qpower_statistics_stop, .-qpower_statistics_stop
 344              		.global	__aeabi_i2f
 345              		.global	__aeabi_dmul
 346              		.global	__aeabi_d2f
 347 0016 00BF     		.section	.text.motor_abs_velocity_sampling,"ax",%progbits
 348              		.align	2
 349              		.global	motor_abs_velocity_sampling
 350              		.thumb
 351              		.thumb_func
 352              		.type	motor_abs_velocity_sampling, %function
 353              	motor_abs_velocity_sampling:
 354              	.LFB64:
 127:.\torquestat.c **** 
 128:.\torquestat.c **** 
 129:.\torquestat.c **** ///////////////////////////////////////////////////////////////////////////////////////////////////
 130:.\torquestat.c **** // MOTOR ANGULAR VELOCITY SAMPLING (used to calc motor power)
 131:.\torquestat.c **** ///////////////////////////////////////////////////////////////////////////////////////////////////
 132:.\torquestat.c **** // return: absolute value of motor angular velocity [rad/sec]
 133:.\torquestat.c **** ///////////////////////////////////////////////////////////////////////////////////////////////////
 134:.\torquestat.c **** float motor_abs_velocity_sampling(struct TORQUESTAT *tstat, int32 enc_position_actual)
 135:.\torquestat.c **** {
 355              		.loc 1 135 0
 356              		.cfi_startproc
 357              		@ args = 0, pretend = 0, frame = 16
 358              		@ frame_needed = 1, uses_anonymous_args = 0
 359 0000 80B5     		push	{r7, lr}
 360              	.LCFI24:
 361              		.cfi_def_cfa_offset 8
 362              		.cfi_offset 7, -8
 363              		.cfi_offset 14, -4
 364 0002 84B0     		sub	sp, sp, #16
 365              	.LCFI25:
 366              		.cfi_def_cfa_offset 24
 367 0004 00AF     		add	r7, sp, #0
 368              	.LCFI26:
 369              		.cfi_def_cfa_register 7
 370 0006 7860     		str	r0, [r7, #4]
 371 0008 3960     		str	r1, [r7, #0]
 136:.\torquestat.c **** 	float  motor_abs_velocity;			// Motor angular velocity		[rad/sec]
 137:.\torquestat.c **** 	
 138:.\torquestat.c **** 	//calc abs(motor velocity) [rad/sec] = (position[t] - position[t-Tsample])/Tsample * 2PI/Encoder_R
 139:.\torquestat.c **** 	//						        	 = (position[t] - position[t-Tsample]) * TQS_SAMPLING_RATE * 2PI/Encoder_Resoluti
 140:.\torquestat.c **** 	//	Tsample = 0.24 sec (@ 4.167Hz sampling rate)
 141:.\torquestat.c **** 	
 142:.\torquestat.c **** 	if (enc_position_actual >= (*tstat).vcalc.enc_position_bef)
ARM GAS  C:\Users\GRAZIA~1.RAV\AppData\Local\Temp\ccUtzTBI.s 			page 10


 372              		.loc 1 142 0
 373 000a 7B68     		ldr	r3, [r7, #4]
 374 000c 9A69     		ldr	r2, [r3, #24]
 375 000e 3B68     		ldr	r3, [r7, #0]
 376 0010 9A42     		cmp	r2, r3
 377 0012 25DC     		bgt	.L10
 143:.\torquestat.c **** 	{
 144:.\torquestat.c **** 		/* abs(motor velocity) */
 145:.\torquestat.c **** 		motor_abs_velocity = (float)(enc_position_actual - (*tstat).vcalc.enc_position_bef) * TQS_SAMPLIN
 378              		.loc 1 145 0
 379 0014 7B68     		ldr	r3, [r7, #4]
 380 0016 9B69     		ldr	r3, [r3, #24]
 381 0018 3A68     		ldr	r2, [r7, #0]
 382 001a D31A     		subs	r3, r2, r3
 383 001c 1846     		mov	r0, r3
 384 001e FFF7FEFF 		bl	__aeabi_i2f
 385 0022 0346     		mov	r3, r0
 386 0024 1846     		mov	r0, r3
 387 0026 4FF00001 		mov	r1, #0
 388 002a C4F24801 		movt	r1, 16456
 389 002e FFF7FEFF 		bl	__aeabi_fmul
 390 0032 0346     		mov	r3, r0
 391 0034 FB60     		str	r3, [r7, #12]	@ float
 146:.\torquestat.c **** 		motor_abs_velocity = motor_abs_velocity * PIx2_OVER_MOTENCODER_RESOLUTION;					//[rad/sec]
 392              		.loc 1 146 0
 393 0036 F868     		ldr	r0, [r7, #12]	@ float
 394 0038 FFF7FEFF 		bl	__aeabi_f2d
 395 003c 0246     		mov	r2, r0
 396 003e 0B46     		mov	r3, r1
 397 0040 1046     		mov	r0, r2
 398 0042 1946     		mov	r1, r3
 399 0044 1EA3     		adr	r3, .L13
 400 0046 D3E90023 		ldrd	r2, [r3]
 401 004a FFF7FEFF 		bl	__aeabi_dmul
 402 004e 0246     		mov	r2, r0
 403 0050 0B46     		mov	r3, r1
 404 0052 1046     		mov	r0, r2
 405 0054 1946     		mov	r1, r3
 406 0056 FFF7FEFF 		bl	__aeabi_d2f
 407 005a 0346     		mov	r3, r0
 408 005c FB60     		str	r3, [r7, #12]	@ float
 409 005e 24E0     		b	.L11
 410              	.L10:
 147:.\torquestat.c **** 	}
 148:.\torquestat.c **** 	else
 149:.\torquestat.c **** 	{
 150:.\torquestat.c **** 		/* abs(motor velocity) */		
 151:.\torquestat.c **** 		motor_abs_velocity = (float)((*tstat).vcalc.enc_position_bef - enc_position_actual) * TQS_SAMPLIN
 411              		.loc 1 151 0
 412 0060 7B68     		ldr	r3, [r7, #4]
 413 0062 9A69     		ldr	r2, [r3, #24]
 414 0064 3B68     		ldr	r3, [r7, #0]
 415 0066 D31A     		subs	r3, r2, r3
 416 0068 1846     		mov	r0, r3
 417 006a FFF7FEFF 		bl	__aeabi_i2f
 418 006e 0346     		mov	r3, r0
 419 0070 1846     		mov	r0, r3
ARM GAS  C:\Users\GRAZIA~1.RAV\AppData\Local\Temp\ccUtzTBI.s 			page 11


 420 0072 4FF00001 		mov	r1, #0
 421 0076 C4F24801 		movt	r1, 16456
 422 007a FFF7FEFF 		bl	__aeabi_fmul
 423 007e 0346     		mov	r3, r0
 424 0080 FB60     		str	r3, [r7, #12]	@ float
 152:.\torquestat.c **** 		motor_abs_velocity = motor_abs_velocity * PIx2_OVER_MOTENCODER_RESOLUTION;					//[rad/sec]		
 425              		.loc 1 152 0
 426 0082 F868     		ldr	r0, [r7, #12]	@ float
 427 0084 FFF7FEFF 		bl	__aeabi_f2d
 428 0088 0246     		mov	r2, r0
 429 008a 0B46     		mov	r3, r1
 430 008c 1046     		mov	r0, r2
 431 008e 1946     		mov	r1, r3
 432 0090 0BA3     		adr	r3, .L13
 433 0092 D3E90023 		ldrd	r2, [r3]
 434 0096 FFF7FEFF 		bl	__aeabi_dmul
 435 009a 0246     		mov	r2, r0
 436 009c 0B46     		mov	r3, r1
 437 009e 1046     		mov	r0, r2
 438 00a0 1946     		mov	r1, r3
 439 00a2 FFF7FEFF 		bl	__aeabi_d2f
 440 00a6 0346     		mov	r3, r0
 441 00a8 FB60     		str	r3, [r7, #12]	@ float
 442              	.L11:
 153:.\torquestat.c **** 	}
 154:.\torquestat.c **** 	
 155:.\torquestat.c **** 	//save encoder position[t-Tsample]
 156:.\torquestat.c **** 	(*tstat).vcalc.enc_position_bef = enc_position_actual;
 443              		.loc 1 156 0
 444 00aa 7B68     		ldr	r3, [r7, #4]
 445 00ac 3A68     		ldr	r2, [r7, #0]
 446 00ae 9A61     		str	r2, [r3, #24]
 157:.\torquestat.c **** 	
 158:.\torquestat.c **** 	return motor_abs_velocity;	//[rad/sec] absolute value of angular velocity
 447              		.loc 1 158 0
 448 00b0 FB68     		ldr	r3, [r7, #12]	@ float
 159:.\torquestat.c **** }
 449              		.loc 1 159 0
 450 00b2 1846     		mov	r0, r3
 451 00b4 07F11007 		add	r7, r7, #16
 452 00b8 BD46     		mov	sp, r7
 453 00ba 80BD     		pop	{r7, pc}
 454              	.L14:
 455 00bc AFF30080 		.align	3
 456              	.L13:
 457 00c0 2CA7B17B 		.word	2075240236
 458 00c4 FA21593F 		.word	1062806010
 459              		.cfi_endproc
 460              	.LFE64:
 461              		.size	motor_abs_velocity_sampling, .-motor_abs_velocity_sampling
 462              		.section	.text.motor_abs_velocity_sampling_init,"ax",%progbits
 463              		.align	2
 464              		.global	motor_abs_velocity_sampling_init
 465              		.thumb
 466              		.thumb_func
 467              		.type	motor_abs_velocity_sampling_init, %function
 468              	motor_abs_velocity_sampling_init:
ARM GAS  C:\Users\GRAZIA~1.RAV\AppData\Local\Temp\ccUtzTBI.s 			page 12


 469              	.LFB65:
 160:.\torquestat.c **** 
 161:.\torquestat.c **** /* Initialize Motor abs(Angular Velocity) Sampling */
 162:.\torquestat.c **** void motor_abs_velocity_sampling_init(struct TORQUESTAT *tstat)
 163:.\torquestat.c **** {
 470              		.loc 1 163 0
 471              		.cfi_startproc
 472              		@ args = 0, pretend = 0, frame = 8
 473              		@ frame_needed = 1, uses_anonymous_args = 0
 474              		@ link register save eliminated.
 475 0000 80B4     		push	{r7}
 476              	.LCFI27:
 477              		.cfi_def_cfa_offset 4
 478              		.cfi_offset 7, -4
 479 0002 83B0     		sub	sp, sp, #12
 480              	.LCFI28:
 481              		.cfi_def_cfa_offset 16
 482 0004 00AF     		add	r7, sp, #0
 483              	.LCFI29:
 484              		.cfi_def_cfa_register 7
 485 0006 7860     		str	r0, [r7, #4]
 164:.\torquestat.c **** 	(*tstat).vcalc.enc_position_bef = 0;				//encoder[0] <-- 0 [step]
 486              		.loc 1 164 0
 487 0008 7B68     		ldr	r3, [r7, #4]
 488 000a 4FF00002 		mov	r2, #0
 489 000e 9A61     		str	r2, [r3, #24]
 165:.\torquestat.c **** }
 490              		.loc 1 165 0
 491 0010 07F10C07 		add	r7, r7, #12
 492 0014 BD46     		mov	sp, r7
 493 0016 80BC     		pop	{r7}
 494 0018 7047     		bx	lr
 495              		.cfi_endproc
 496              	.LFE65:
 497              		.size	motor_abs_velocity_sampling_init, .-motor_abs_velocity_sampling_init
 498 001a 00BF     		.section	.text.i_noload,"ax",%progbits
 499              		.align	2
 500              		.global	i_noload
 501              		.thumb
 502              		.thumb_func
 503              		.type	i_noload, %function
 504              	i_noload:
 505              	.LFB66:
 166:.\torquestat.c **** 
 167:.\torquestat.c **** 
 168:.\torquestat.c **** /* No Load Current [A] 			*/
 169:.\torquestat.c **** float i_noload(void)
 170:.\torquestat.c **** {
 506              		.loc 1 170 0
 507              		.cfi_startproc
 508              		@ args = 0, pretend = 0, frame = 0
 509              		@ frame_needed = 1, uses_anonymous_args = 0
 510              		@ link register save eliminated.
 511 0000 80B4     		push	{r7}
 512              	.LCFI30:
 513              		.cfi_def_cfa_offset 4
 514              		.cfi_offset 7, -4
ARM GAS  C:\Users\GRAZIA~1.RAV\AppData\Local\Temp\ccUtzTBI.s 			page 13


 515 0002 00AF     		add	r7, sp, #0
 516              	.LCFI31:
 517              		.cfi_def_cfa_register 7
 171:.\torquestat.c **** 	return NOLOAD_CURR;
 518              		.loc 1 171 0
 519 0004 46F24203 		movw	r3, #24642
 520 0008 C3F66543 		movt	r3, 15461
 172:.\torquestat.c **** }
 521              		.loc 1 172 0
 522 000c 1846     		mov	r0, r3
 523 000e BD46     		mov	sp, r7
 524 0010 80BC     		pop	{r7}
 525 0012 7047     		bx	lr
 526              		.cfi_endproc
 527              	.LFE66:
 528              		.size	i_noload, .-i_noload
 529              		.section	.text.i_min,"ax",%progbits
 530              		.align	2
 531              		.global	i_min
 532              		.thumb
 533              		.thumb_func
 534              		.type	i_min, %function
 535              	i_min:
 536              	.LFB67:
 173:.\torquestat.c **** 
 174:.\torquestat.c **** /* Minimum Current Measured [A] */
 175:.\torquestat.c **** float i_min(struct STATISTICS *current_stat)
 176:.\torquestat.c **** {
 537              		.loc 1 176 0
 538              		.cfi_startproc
 539              		@ args = 0, pretend = 0, frame = 8
 540              		@ frame_needed = 1, uses_anonymous_args = 0
 541              		@ link register save eliminated.
 542 0000 80B4     		push	{r7}
 543              	.LCFI32:
 544              		.cfi_def_cfa_offset 4
 545              		.cfi_offset 7, -4
 546 0002 83B0     		sub	sp, sp, #12
 547              	.LCFI33:
 548              		.cfi_def_cfa_offset 16
 549 0004 00AF     		add	r7, sp, #0
 550              	.LCFI34:
 551              		.cfi_def_cfa_register 7
 552 0006 7860     		str	r0, [r7, #4]
 177:.\torquestat.c **** 	return (*current_stat).min;	
 553              		.loc 1 177 0
 554 0008 7B68     		ldr	r3, [r7, #4]
 555 000a DB68     		ldr	r3, [r3, #12]	@ float
 178:.\torquestat.c **** }
 556              		.loc 1 178 0
 557 000c 1846     		mov	r0, r3
 558 000e 07F10C07 		add	r7, r7, #12
 559 0012 BD46     		mov	sp, r7
 560 0014 80BC     		pop	{r7}
 561 0016 7047     		bx	lr
 562              		.cfi_endproc
 563              	.LFE67:
ARM GAS  C:\Users\GRAZIA~1.RAV\AppData\Local\Temp\ccUtzTBI.s 			page 14


 564              		.size	i_min, .-i_min
 565              		.global	__aeabi_dsub
 566              		.section	.text.TMOT_min,"ax",%progbits
 567              		.align	2
 568              		.global	TMOT_min
 569              		.thumb
 570              		.thumb_func
 571              		.type	TMOT_min, %function
 572              	TMOT_min:
 573              	.LFB68:
 179:.\torquestat.c **** 
 180:.\torquestat.c **** /* Minimum Motor Torque Measured [mNm] */
 181:.\torquestat.c **** float TMOT_min(struct STATISTICS *current_stat)
 182:.\torquestat.c **** {
 574              		.loc 1 182 0
 575              		.cfi_startproc
 576              		@ args = 0, pretend = 0, frame = 8
 577              		@ frame_needed = 1, uses_anonymous_args = 0
 578 0000 80B5     		push	{r7, lr}
 579              	.LCFI35:
 580              		.cfi_def_cfa_offset 8
 581              		.cfi_offset 7, -8
 582              		.cfi_offset 14, -4
 583 0002 82B0     		sub	sp, sp, #8
 584              	.LCFI36:
 585              		.cfi_def_cfa_offset 16
 586 0004 00AF     		add	r7, sp, #0
 587              	.LCFI37:
 588              		.cfi_def_cfa_register 7
 589 0006 7860     		str	r0, [r7, #4]
 183:.\torquestat.c **** 	return fabsf((*current_stat).min - NOLOAD_CURR) * Km * eff_M;	//No load current does not contribut
 590              		.loc 1 183 0
 591 0008 7B68     		ldr	r3, [r7, #4]
 592 000a DB68     		ldr	r3, [r3, #12]	@ float
 593 000c 1846     		mov	r0, r3
 594 000e FFF7FEFF 		bl	__aeabi_f2d
 595 0012 0246     		mov	r2, r0
 596 0014 0B46     		mov	r3, r1
 597 0016 1046     		mov	r0, r2
 598 0018 1946     		mov	r1, r3
 599 001a 17A3     		adr	r3, .L22
 600 001c D3E90023 		ldrd	r2, [r3]
 601 0020 FFF7FEFF 		bl	__aeabi_dsub
 602 0024 0246     		mov	r2, r0
 603 0026 0B46     		mov	r3, r1
 604 0028 1046     		mov	r0, r2
 605 002a 1946     		mov	r1, r3
 606 002c FFF7FEFF 		bl	__aeabi_d2f
 607 0030 0346     		mov	r3, r0
 608 0032 23F00043 		bic	r3, r3, #-2147483648
 609 0036 1846     		mov	r0, r3
 610 0038 FFF7FEFF 		bl	__aeabi_f2d
 611 003c 0246     		mov	r2, r0
 612 003e 0B46     		mov	r3, r1
 613 0040 1046     		mov	r0, r2
 614 0042 1946     		mov	r1, r3
 615 0044 0EA3     		adr	r3, .L22+8
ARM GAS  C:\Users\GRAZIA~1.RAV\AppData\Local\Temp\ccUtzTBI.s 			page 15


 616 0046 D3E90023 		ldrd	r2, [r3]
 617 004a FFF7FEFF 		bl	__aeabi_dmul
 618 004e 0246     		mov	r2, r0
 619 0050 0B46     		mov	r3, r1
 620 0052 1046     		mov	r0, r2
 621 0054 1946     		mov	r1, r3
 622 0056 0CA3     		adr	r3, .L22+16
 623 0058 D3E90023 		ldrd	r2, [r3]
 624 005c FFF7FEFF 		bl	__aeabi_dmul
 625 0060 0246     		mov	r2, r0
 626 0062 0B46     		mov	r3, r1
 627 0064 1046     		mov	r0, r2
 628 0066 1946     		mov	r1, r3
 629 0068 FFF7FEFF 		bl	__aeabi_d2f
 630 006c 0346     		mov	r3, r0
 184:.\torquestat.c **** }
 631              		.loc 1 184 0
 632 006e 1846     		mov	r0, r3
 633 0070 07F10807 		add	r7, r7, #8
 634 0074 BD46     		mov	sp, r7
 635 0076 80BD     		pop	{r7, pc}
 636              	.L23:
 637              		.align	3
 638              	.L22:
 639 0078 79E92631 		.word	824633721
 640 007c 08AC8C3F 		.word	1066183688
 641 0080 C3F5285C 		.word	1546188227
 642 0084 8FC21C40 		.word	1075626639
 643 0088 EC51B81E 		.word	515396076
 644 008c 85EBE93F 		.word	1072294789
 645              		.cfi_endproc
 646              	.LFE68:
 647              		.size	TMOT_min, .-TMOT_min
 648              		.section	.text.PMOTE_min,"ax",%progbits
 649              		.align	2
 650              		.global	PMOTE_min
 651              		.thumb
 652              		.thumb_func
 653              		.type	PMOTE_min, %function
 654              	PMOTE_min:
 655              	.LFB69:
 185:.\torquestat.c **** 
 186:.\torquestat.c **** /* Minimum Erogated Motor Power Estimated [mW] */
 187:.\torquestat.c **** float PMOTE_min(struct STATISTICS *qpower_stat)
 188:.\torquestat.c **** {
 656              		.loc 1 188 0
 657              		.cfi_startproc
 658              		@ args = 0, pretend = 0, frame = 8
 659              		@ frame_needed = 1, uses_anonymous_args = 0
 660 0000 80B5     		push	{r7, lr}
 661              	.LCFI38:
 662              		.cfi_def_cfa_offset 8
 663              		.cfi_offset 7, -8
 664              		.cfi_offset 14, -4
 665 0002 82B0     		sub	sp, sp, #8
 666              	.LCFI39:
 667              		.cfi_def_cfa_offset 16
ARM GAS  C:\Users\GRAZIA~1.RAV\AppData\Local\Temp\ccUtzTBI.s 			page 16


 668 0004 00AF     		add	r7, sp, #0
 669              	.LCFI40:
 670              		.cfi_def_cfa_register 7
 671 0006 7860     		str	r0, [r7, #4]
 189:.\torquestat.c **** 	return (*qpower_stat).min * Km * eff_M;		//[mW] potenza elettrica minima erogata dal motore
 672              		.loc 1 189 0
 673 0008 7B68     		ldr	r3, [r7, #4]
 674 000a DB68     		ldr	r3, [r3, #12]	@ float
 675 000c 1846     		mov	r0, r3
 676 000e FFF7FEFF 		bl	__aeabi_f2d
 677 0012 0246     		mov	r2, r0
 678 0014 0B46     		mov	r3, r1
 679 0016 1046     		mov	r0, r2
 680 0018 1946     		mov	r1, r3
 681 001a 0DA3     		adr	r3, .L26
 682 001c D3E90023 		ldrd	r2, [r3]
 683 0020 FFF7FEFF 		bl	__aeabi_dmul
 684 0024 0246     		mov	r2, r0
 685 0026 0B46     		mov	r3, r1
 686 0028 1046     		mov	r0, r2
 687 002a 1946     		mov	r1, r3
 688 002c 0AA3     		adr	r3, .L26+8
 689 002e D3E90023 		ldrd	r2, [r3]
 690 0032 FFF7FEFF 		bl	__aeabi_dmul
 691 0036 0246     		mov	r2, r0
 692 0038 0B46     		mov	r3, r1
 693 003a 1046     		mov	r0, r2
 694 003c 1946     		mov	r1, r3
 695 003e FFF7FEFF 		bl	__aeabi_d2f
 696 0042 0346     		mov	r3, r0
 190:.\torquestat.c **** }
 697              		.loc 1 190 0
 698 0044 1846     		mov	r0, r3
 699 0046 07F10807 		add	r7, r7, #8
 700 004a BD46     		mov	sp, r7
 701 004c 80BD     		pop	{r7, pc}
 702              	.L27:
 703 004e 00BF     		.align	3
 704              	.L26:
 705 0050 C3F5285C 		.word	1546188227
 706 0054 8FC21C40 		.word	1075626639
 707 0058 EC51B81E 		.word	515396076
 708 005c 85EBE93F 		.word	1072294789
 709              		.cfi_endproc
 710              	.LFE69:
 711              		.size	PMOTE_min, .-PMOTE_min
 712              		.section	.text.TOUT_min,"ax",%progbits
 713              		.align	2
 714              		.global	TOUT_min
 715              		.thumb
 716              		.thumb_func
 717              		.type	TOUT_min, %function
 718              	TOUT_min:
 719              	.LFB70:
 191:.\torquestat.c **** 
 192:.\torquestat.c **** /* Minimum Output Torque Measured [mNm] */
 193:.\torquestat.c **** float TOUT_min(struct STATISTICS *current_stat, float gear_ratio)
ARM GAS  C:\Users\GRAZIA~1.RAV\AppData\Local\Temp\ccUtzTBI.s 			page 17


 194:.\torquestat.c **** {
 720              		.loc 1 194 0
 721              		.cfi_startproc
 722              		@ args = 0, pretend = 0, frame = 8
 723              		@ frame_needed = 1, uses_anonymous_args = 0
 724 0000 80B5     		push	{r7, lr}
 725              	.LCFI41:
 726              		.cfi_def_cfa_offset 8
 727              		.cfi_offset 7, -8
 728              		.cfi_offset 14, -4
 729 0002 82B0     		sub	sp, sp, #8
 730              	.LCFI42:
 731              		.cfi_def_cfa_offset 16
 732 0004 00AF     		add	r7, sp, #0
 733              	.LCFI43:
 734              		.cfi_def_cfa_register 7
 735 0006 7860     		str	r0, [r7, #4]
 736 0008 3960     		str	r1, [r7, #0]	@ float
 195:.\torquestat.c **** 	return TMOT_min(current_stat) * gear_ratio * eff_R;
 737              		.loc 1 195 0
 738 000a 7868     		ldr	r0, [r7, #4]
 739 000c FFF7FEFF 		bl	TMOT_min
 740 0010 0346     		mov	r3, r0
 741 0012 1846     		mov	r0, r3
 742 0014 3968     		ldr	r1, [r7, #0]	@ float
 743 0016 FFF7FEFF 		bl	__aeabi_fmul
 744 001a 0346     		mov	r3, r0
 745 001c 1846     		mov	r0, r3
 746 001e 4FF07D51 		mov	r1, #1061158912
 747 0022 FFF7FEFF 		bl	__aeabi_fmul
 748 0026 0346     		mov	r3, r0
 196:.\torquestat.c **** }
 749              		.loc 1 196 0
 750 0028 1846     		mov	r0, r3
 751 002a 07F10807 		add	r7, r7, #8
 752 002e BD46     		mov	sp, r7
 753 0030 80BD     		pop	{r7, pc}
 754              		.cfi_endproc
 755              	.LFE70:
 756              		.size	TOUT_min, .-TOUT_min
 757 0032 00BF     		.section	.text.i_max,"ax",%progbits
 758              		.align	2
 759              		.global	i_max
 760              		.thumb
 761              		.thumb_func
 762              		.type	i_max, %function
 763              	i_max:
 764              	.LFB71:
 197:.\torquestat.c **** 
 198:.\torquestat.c **** /* Maximum Current Measured [A] */
 199:.\torquestat.c **** float i_max(struct STATISTICS *current_stat)
 200:.\torquestat.c **** {
 765              		.loc 1 200 0
 766              		.cfi_startproc
 767              		@ args = 0, pretend = 0, frame = 8
 768              		@ frame_needed = 1, uses_anonymous_args = 0
 769              		@ link register save eliminated.
ARM GAS  C:\Users\GRAZIA~1.RAV\AppData\Local\Temp\ccUtzTBI.s 			page 18


 770 0000 80B4     		push	{r7}
 771              	.LCFI44:
 772              		.cfi_def_cfa_offset 4
 773              		.cfi_offset 7, -4
 774 0002 83B0     		sub	sp, sp, #12
 775              	.LCFI45:
 776              		.cfi_def_cfa_offset 16
 777 0004 00AF     		add	r7, sp, #0
 778              	.LCFI46:
 779              		.cfi_def_cfa_register 7
 780 0006 7860     		str	r0, [r7, #4]
 201:.\torquestat.c **** 	return (*current_stat).max;	
 781              		.loc 1 201 0
 782 0008 7B68     		ldr	r3, [r7, #4]
 783 000a 1B69     		ldr	r3, [r3, #16]	@ float
 202:.\torquestat.c **** }
 784              		.loc 1 202 0
 785 000c 1846     		mov	r0, r3
 786 000e 07F10C07 		add	r7, r7, #12
 787 0012 BD46     		mov	sp, r7
 788 0014 80BC     		pop	{r7}
 789 0016 7047     		bx	lr
 790              		.cfi_endproc
 791              	.LFE71:
 792              		.size	i_max, .-i_max
 793              		.section	.text.TMOT_max,"ax",%progbits
 794              		.align	2
 795              		.global	TMOT_max
 796              		.thumb
 797              		.thumb_func
 798              		.type	TMOT_max, %function
 799              	TMOT_max:
 800              	.LFB72:
 203:.\torquestat.c **** 
 204:.\torquestat.c **** /* Maximum Motor Torque Measured [mNm] */
 205:.\torquestat.c **** float TMOT_max(struct STATISTICS *current_stat)
 206:.\torquestat.c **** {
 801              		.loc 1 206 0
 802              		.cfi_startproc
 803              		@ args = 0, pretend = 0, frame = 8
 804              		@ frame_needed = 1, uses_anonymous_args = 0
 805 0000 80B5     		push	{r7, lr}
 806              	.LCFI47:
 807              		.cfi_def_cfa_offset 8
 808              		.cfi_offset 7, -8
 809              		.cfi_offset 14, -4
 810 0002 82B0     		sub	sp, sp, #8
 811              	.LCFI48:
 812              		.cfi_def_cfa_offset 16
 813 0004 00AF     		add	r7, sp, #0
 814              	.LCFI49:
 815              		.cfi_def_cfa_register 7
 816 0006 7860     		str	r0, [r7, #4]
 207:.\torquestat.c **** 	return fabsf((*current_stat).max - NOLOAD_CURR) * Km * eff_M;		//No load current does not contribu
 817              		.loc 1 207 0
 818 0008 7B68     		ldr	r3, [r7, #4]
 819 000a 1B69     		ldr	r3, [r3, #16]	@ float
ARM GAS  C:\Users\GRAZIA~1.RAV\AppData\Local\Temp\ccUtzTBI.s 			page 19


 820 000c 1846     		mov	r0, r3
 821 000e FFF7FEFF 		bl	__aeabi_f2d
 822 0012 0246     		mov	r2, r0
 823 0014 0B46     		mov	r3, r1
 824 0016 1046     		mov	r0, r2
 825 0018 1946     		mov	r1, r3
 826 001a 17A3     		adr	r3, .L34
 827 001c D3E90023 		ldrd	r2, [r3]
 828 0020 FFF7FEFF 		bl	__aeabi_dsub
 829 0024 0246     		mov	r2, r0
 830 0026 0B46     		mov	r3, r1
 831 0028 1046     		mov	r0, r2
 832 002a 1946     		mov	r1, r3
 833 002c FFF7FEFF 		bl	__aeabi_d2f
 834 0030 0346     		mov	r3, r0
 835 0032 23F00043 		bic	r3, r3, #-2147483648
 836 0036 1846     		mov	r0, r3
 837 0038 FFF7FEFF 		bl	__aeabi_f2d
 838 003c 0246     		mov	r2, r0
 839 003e 0B46     		mov	r3, r1
 840 0040 1046     		mov	r0, r2
 841 0042 1946     		mov	r1, r3
 842 0044 0EA3     		adr	r3, .L34+8
 843 0046 D3E90023 		ldrd	r2, [r3]
 844 004a FFF7FEFF 		bl	__aeabi_dmul
 845 004e 0246     		mov	r2, r0
 846 0050 0B46     		mov	r3, r1
 847 0052 1046     		mov	r0, r2
 848 0054 1946     		mov	r1, r3
 849 0056 0CA3     		adr	r3, .L34+16
 850 0058 D3E90023 		ldrd	r2, [r3]
 851 005c FFF7FEFF 		bl	__aeabi_dmul
 852 0060 0246     		mov	r2, r0
 853 0062 0B46     		mov	r3, r1
 854 0064 1046     		mov	r0, r2
 855 0066 1946     		mov	r1, r3
 856 0068 FFF7FEFF 		bl	__aeabi_d2f
 857 006c 0346     		mov	r3, r0
 208:.\torquestat.c **** }
 858              		.loc 1 208 0
 859 006e 1846     		mov	r0, r3
 860 0070 07F10807 		add	r7, r7, #8
 861 0074 BD46     		mov	sp, r7
 862 0076 80BD     		pop	{r7, pc}
 863              	.L35:
 864              		.align	3
 865              	.L34:
 866 0078 79E92631 		.word	824633721
 867 007c 08AC8C3F 		.word	1066183688
 868 0080 C3F5285C 		.word	1546188227
 869 0084 8FC21C40 		.word	1075626639
 870 0088 EC51B81E 		.word	515396076
 871 008c 85EBE93F 		.word	1072294789
 872              		.cfi_endproc
 873              	.LFE72:
 874              		.size	TMOT_max, .-TMOT_max
 875              		.section	.text.PMOTE_max,"ax",%progbits
ARM GAS  C:\Users\GRAZIA~1.RAV\AppData\Local\Temp\ccUtzTBI.s 			page 20


 876              		.align	2
 877              		.global	PMOTE_max
 878              		.thumb
 879              		.thumb_func
 880              		.type	PMOTE_max, %function
 881              	PMOTE_max:
 882              	.LFB73:
 209:.\torquestat.c **** 
 210:.\torquestat.c **** /* Maximum Erogated Motor Power Estimated [mW] */
 211:.\torquestat.c **** float PMOTE_max(struct STATISTICS *qpower_stat)
 212:.\torquestat.c **** {
 883              		.loc 1 212 0
 884              		.cfi_startproc
 885              		@ args = 0, pretend = 0, frame = 8
 886              		@ frame_needed = 1, uses_anonymous_args = 0
 887 0000 80B5     		push	{r7, lr}
 888              	.LCFI50:
 889              		.cfi_def_cfa_offset 8
 890              		.cfi_offset 7, -8
 891              		.cfi_offset 14, -4
 892 0002 82B0     		sub	sp, sp, #8
 893              	.LCFI51:
 894              		.cfi_def_cfa_offset 16
 895 0004 00AF     		add	r7, sp, #0
 896              	.LCFI52:
 897              		.cfi_def_cfa_register 7
 898 0006 7860     		str	r0, [r7, #4]
 213:.\torquestat.c **** 	return (*qpower_stat).max * Km * eff_M;		//[mW] potenza elettrica massima erogata dal motore
 899              		.loc 1 213 0
 900 0008 7B68     		ldr	r3, [r7, #4]
 901 000a 1B69     		ldr	r3, [r3, #16]	@ float
 902 000c 1846     		mov	r0, r3
 903 000e FFF7FEFF 		bl	__aeabi_f2d
 904 0012 0246     		mov	r2, r0
 905 0014 0B46     		mov	r3, r1
 906 0016 1046     		mov	r0, r2
 907 0018 1946     		mov	r1, r3
 908 001a 0DA3     		adr	r3, .L38
 909 001c D3E90023 		ldrd	r2, [r3]
 910 0020 FFF7FEFF 		bl	__aeabi_dmul
 911 0024 0246     		mov	r2, r0
 912 0026 0B46     		mov	r3, r1
 913 0028 1046     		mov	r0, r2
 914 002a 1946     		mov	r1, r3
 915 002c 0AA3     		adr	r3, .L38+8
 916 002e D3E90023 		ldrd	r2, [r3]
 917 0032 FFF7FEFF 		bl	__aeabi_dmul
 918 0036 0246     		mov	r2, r0
 919 0038 0B46     		mov	r3, r1
 920 003a 1046     		mov	r0, r2
 921 003c 1946     		mov	r1, r3
 922 003e FFF7FEFF 		bl	__aeabi_d2f
 923 0042 0346     		mov	r3, r0
 214:.\torquestat.c **** }
 924              		.loc 1 214 0
 925 0044 1846     		mov	r0, r3
 926 0046 07F10807 		add	r7, r7, #8
ARM GAS  C:\Users\GRAZIA~1.RAV\AppData\Local\Temp\ccUtzTBI.s 			page 21


 927 004a BD46     		mov	sp, r7
 928 004c 80BD     		pop	{r7, pc}
 929              	.L39:
 930 004e 00BF     		.align	3
 931              	.L38:
 932 0050 C3F5285C 		.word	1546188227
 933 0054 8FC21C40 		.word	1075626639
 934 0058 EC51B81E 		.word	515396076
 935 005c 85EBE93F 		.word	1072294789
 936              		.cfi_endproc
 937              	.LFE73:
 938              		.size	PMOTE_max, .-PMOTE_max
 939              		.section	.text.TOUT_max,"ax",%progbits
 940              		.align	2
 941              		.global	TOUT_max
 942              		.thumb
 943              		.thumb_func
 944              		.type	TOUT_max, %function
 945              	TOUT_max:
 946              	.LFB74:
 215:.\torquestat.c **** 
 216:.\torquestat.c **** /* Maximum Output Torque Measured [mNm] */
 217:.\torquestat.c **** float TOUT_max(struct STATISTICS *current_stat, float gear_ratio)
 218:.\torquestat.c **** {
 947              		.loc 1 218 0
 948              		.cfi_startproc
 949              		@ args = 0, pretend = 0, frame = 8
 950              		@ frame_needed = 1, uses_anonymous_args = 0
 951 0000 80B5     		push	{r7, lr}
 952              	.LCFI53:
 953              		.cfi_def_cfa_offset 8
 954              		.cfi_offset 7, -8
 955              		.cfi_offset 14, -4
 956 0002 82B0     		sub	sp, sp, #8
 957              	.LCFI54:
 958              		.cfi_def_cfa_offset 16
 959 0004 00AF     		add	r7, sp, #0
 960              	.LCFI55:
 961              		.cfi_def_cfa_register 7
 962 0006 7860     		str	r0, [r7, #4]
 963 0008 3960     		str	r1, [r7, #0]	@ float
 219:.\torquestat.c **** 	return TMOT_max(current_stat) * gear_ratio * eff_R;
 964              		.loc 1 219 0
 965 000a 7868     		ldr	r0, [r7, #4]
 966 000c FFF7FEFF 		bl	TMOT_max
 967 0010 0346     		mov	r3, r0
 968 0012 1846     		mov	r0, r3
 969 0014 3968     		ldr	r1, [r7, #0]	@ float
 970 0016 FFF7FEFF 		bl	__aeabi_fmul
 971 001a 0346     		mov	r3, r0
 972 001c 1846     		mov	r0, r3
 973 001e 4FF07D51 		mov	r1, #1061158912
 974 0022 FFF7FEFF 		bl	__aeabi_fmul
 975 0026 0346     		mov	r3, r0
 220:.\torquestat.c **** }
 976              		.loc 1 220 0
 977 0028 1846     		mov	r0, r3
ARM GAS  C:\Users\GRAZIA~1.RAV\AppData\Local\Temp\ccUtzTBI.s 			page 22


 978 002a 07F10807 		add	r7, r7, #8
 979 002e BD46     		mov	sp, r7
 980 0030 80BD     		pop	{r7, pc}
 981              		.cfi_endproc
 982              	.LFE74:
 983              		.size	TOUT_max, .-TOUT_max
 984 0032 00BF     		.section	.text.i_mean,"ax",%progbits
 985              		.align	2
 986              		.global	i_mean
 987              		.thumb
 988              		.thumb_func
 989              		.type	i_mean, %function
 990              	i_mean:
 991              	.LFB75:
 221:.\torquestat.c **** 
 222:.\torquestat.c **** /* Mean Current Measured [A]	*/
 223:.\torquestat.c **** float i_mean(struct STATISTICS *current_stat)
 224:.\torquestat.c **** {
 992              		.loc 1 224 0
 993              		.cfi_startproc
 994              		@ args = 0, pretend = 0, frame = 8
 995              		@ frame_needed = 1, uses_anonymous_args = 0
 996              		@ link register save eliminated.
 997 0000 80B4     		push	{r7}
 998              	.LCFI56:
 999              		.cfi_def_cfa_offset 4
 1000              		.cfi_offset 7, -4
 1001 0002 83B0     		sub	sp, sp, #12
 1002              	.LCFI57:
 1003              		.cfi_def_cfa_offset 16
 1004 0004 00AF     		add	r7, sp, #0
 1005              	.LCFI58:
 1006              		.cfi_def_cfa_register 7
 1007 0006 7860     		str	r0, [r7, #4]
 225:.\torquestat.c **** 	return (*current_stat).mean;		
 1008              		.loc 1 225 0
 1009 0008 7B68     		ldr	r3, [r7, #4]
 1010 000a 5B68     		ldr	r3, [r3, #4]	@ float
 226:.\torquestat.c **** }
 1011              		.loc 1 226 0
 1012 000c 1846     		mov	r0, r3
 1013 000e 07F10C07 		add	r7, r7, #12
 1014 0012 BD46     		mov	sp, r7
 1015 0014 80BC     		pop	{r7}
 1016 0016 7047     		bx	lr
 1017              		.cfi_endproc
 1018              	.LFE75:
 1019              		.size	i_mean, .-i_mean
 1020              		.section	.text.TMOT_mean,"ax",%progbits
 1021              		.align	2
 1022              		.global	TMOT_mean
 1023              		.thumb
 1024              		.thumb_func
 1025              		.type	TMOT_mean, %function
 1026              	TMOT_mean:
 1027              	.LFB76:
 227:.\torquestat.c **** 
ARM GAS  C:\Users\GRAZIA~1.RAV\AppData\Local\Temp\ccUtzTBI.s 			page 23


 228:.\torquestat.c **** /* Mean Motor Torque Measured	[mNm] */
 229:.\torquestat.c **** float TMOT_mean(struct STATISTICS *current_stat)
 230:.\torquestat.c **** {
 1028              		.loc 1 230 0
 1029              		.cfi_startproc
 1030              		@ args = 0, pretend = 0, frame = 8
 1031              		@ frame_needed = 1, uses_anonymous_args = 0
 1032 0000 80B5     		push	{r7, lr}
 1033              	.LCFI59:
 1034              		.cfi_def_cfa_offset 8
 1035              		.cfi_offset 7, -8
 1036              		.cfi_offset 14, -4
 1037 0002 82B0     		sub	sp, sp, #8
 1038              	.LCFI60:
 1039              		.cfi_def_cfa_offset 16
 1040 0004 00AF     		add	r7, sp, #0
 1041              	.LCFI61:
 1042              		.cfi_def_cfa_register 7
 1043 0006 7860     		str	r0, [r7, #4]
 231:.\torquestat.c **** 	return fabsf((*current_stat).mean - NOLOAD_CURR) * Km * eff_M ;		//No load current does not contri
 1044              		.loc 1 231 0
 1045 0008 7B68     		ldr	r3, [r7, #4]
 1046 000a 5B68     		ldr	r3, [r3, #4]	@ float
 1047 000c 1846     		mov	r0, r3
 1048 000e FFF7FEFF 		bl	__aeabi_f2d
 1049 0012 0246     		mov	r2, r0
 1050 0014 0B46     		mov	r3, r1
 1051 0016 1046     		mov	r0, r2
 1052 0018 1946     		mov	r1, r3
 1053 001a 17A3     		adr	r3, .L46
 1054 001c D3E90023 		ldrd	r2, [r3]
 1055 0020 FFF7FEFF 		bl	__aeabi_dsub
 1056 0024 0246     		mov	r2, r0
 1057 0026 0B46     		mov	r3, r1
 1058 0028 1046     		mov	r0, r2
 1059 002a 1946     		mov	r1, r3
 1060 002c FFF7FEFF 		bl	__aeabi_d2f
 1061 0030 0346     		mov	r3, r0
 1062 0032 23F00043 		bic	r3, r3, #-2147483648
 1063 0036 1846     		mov	r0, r3
 1064 0038 FFF7FEFF 		bl	__aeabi_f2d
 1065 003c 0246     		mov	r2, r0
 1066 003e 0B46     		mov	r3, r1
 1067 0040 1046     		mov	r0, r2
 1068 0042 1946     		mov	r1, r3
 1069 0044 0EA3     		adr	r3, .L46+8
 1070 0046 D3E90023 		ldrd	r2, [r3]
 1071 004a FFF7FEFF 		bl	__aeabi_dmul
 1072 004e 0246     		mov	r2, r0
 1073 0050 0B46     		mov	r3, r1
 1074 0052 1046     		mov	r0, r2
 1075 0054 1946     		mov	r1, r3
 1076 0056 0CA3     		adr	r3, .L46+16
 1077 0058 D3E90023 		ldrd	r2, [r3]
 1078 005c FFF7FEFF 		bl	__aeabi_dmul
 1079 0060 0246     		mov	r2, r0
 1080 0062 0B46     		mov	r3, r1
ARM GAS  C:\Users\GRAZIA~1.RAV\AppData\Local\Temp\ccUtzTBI.s 			page 24


 1081 0064 1046     		mov	r0, r2
 1082 0066 1946     		mov	r1, r3
 1083 0068 FFF7FEFF 		bl	__aeabi_d2f
 1084 006c 0346     		mov	r3, r0
 232:.\torquestat.c **** }
 1085              		.loc 1 232 0
 1086 006e 1846     		mov	r0, r3
 1087 0070 07F10807 		add	r7, r7, #8
 1088 0074 BD46     		mov	sp, r7
 1089 0076 80BD     		pop	{r7, pc}
 1090              	.L47:
 1091              		.align	3
 1092              	.L46:
 1093 0078 79E92631 		.word	824633721
 1094 007c 08AC8C3F 		.word	1066183688
 1095 0080 C3F5285C 		.word	1546188227
 1096 0084 8FC21C40 		.word	1075626639
 1097 0088 EC51B81E 		.word	515396076
 1098 008c 85EBE93F 		.word	1072294789
 1099              		.cfi_endproc
 1100              	.LFE76:
 1101              		.size	TMOT_mean, .-TMOT_mean
 1102              		.section	.text.PMOTE_mean,"ax",%progbits
 1103              		.align	2
 1104              		.global	PMOTE_mean
 1105              		.thumb
 1106              		.thumb_func
 1107              		.type	PMOTE_mean, %function
 1108              	PMOTE_mean:
 1109              	.LFB77:
 233:.\torquestat.c **** 
 234:.\torquestat.c **** /* Mean Erogated Motor Power Estimated	[mW] */
 235:.\torquestat.c **** float PMOTE_mean(struct STATISTICS *qpower_stat)
 236:.\torquestat.c **** {
 1110              		.loc 1 236 0
 1111              		.cfi_startproc
 1112              		@ args = 0, pretend = 0, frame = 8
 1113              		@ frame_needed = 1, uses_anonymous_args = 0
 1114 0000 80B5     		push	{r7, lr}
 1115              	.LCFI62:
 1116              		.cfi_def_cfa_offset 8
 1117              		.cfi_offset 7, -8
 1118              		.cfi_offset 14, -4
 1119 0002 82B0     		sub	sp, sp, #8
 1120              	.LCFI63:
 1121              		.cfi_def_cfa_offset 16
 1122 0004 00AF     		add	r7, sp, #0
 1123              	.LCFI64:
 1124              		.cfi_def_cfa_register 7
 1125 0006 7860     		str	r0, [r7, #4]
 237:.\torquestat.c **** 	return (*qpower_stat).mean * Km * eff_M;		//[mW] potenza elettrica media erogata dal motore
 1126              		.loc 1 237 0
 1127 0008 7B68     		ldr	r3, [r7, #4]
 1128 000a 5B68     		ldr	r3, [r3, #4]	@ float
 1129 000c 1846     		mov	r0, r3
 1130 000e FFF7FEFF 		bl	__aeabi_f2d
 1131 0012 0246     		mov	r2, r0
ARM GAS  C:\Users\GRAZIA~1.RAV\AppData\Local\Temp\ccUtzTBI.s 			page 25


 1132 0014 0B46     		mov	r3, r1
 1133 0016 1046     		mov	r0, r2
 1134 0018 1946     		mov	r1, r3
 1135 001a 0DA3     		adr	r3, .L50
 1136 001c D3E90023 		ldrd	r2, [r3]
 1137 0020 FFF7FEFF 		bl	__aeabi_dmul
 1138 0024 0246     		mov	r2, r0
 1139 0026 0B46     		mov	r3, r1
 1140 0028 1046     		mov	r0, r2
 1141 002a 1946     		mov	r1, r3
 1142 002c 0AA3     		adr	r3, .L50+8
 1143 002e D3E90023 		ldrd	r2, [r3]
 1144 0032 FFF7FEFF 		bl	__aeabi_dmul
 1145 0036 0246     		mov	r2, r0
 1146 0038 0B46     		mov	r3, r1
 1147 003a 1046     		mov	r0, r2
 1148 003c 1946     		mov	r1, r3
 1149 003e FFF7FEFF 		bl	__aeabi_d2f
 1150 0042 0346     		mov	r3, r0
 238:.\torquestat.c **** }
 1151              		.loc 1 238 0
 1152 0044 1846     		mov	r0, r3
 1153 0046 07F10807 		add	r7, r7, #8
 1154 004a BD46     		mov	sp, r7
 1155 004c 80BD     		pop	{r7, pc}
 1156              	.L51:
 1157 004e 00BF     		.align	3
 1158              	.L50:
 1159 0050 C3F5285C 		.word	1546188227
 1160 0054 8FC21C40 		.word	1075626639
 1161 0058 EC51B81E 		.word	515396076
 1162 005c 85EBE93F 		.word	1072294789
 1163              		.cfi_endproc
 1164              	.LFE77:
 1165              		.size	PMOTE_mean, .-PMOTE_mean
 1166              		.section	.text.TOUT_mean,"ax",%progbits
 1167              		.align	2
 1168              		.global	TOUT_mean
 1169              		.thumb
 1170              		.thumb_func
 1171              		.type	TOUT_mean, %function
 1172              	TOUT_mean:
 1173              	.LFB78:
 239:.\torquestat.c **** 
 240:.\torquestat.c **** /* Mean Output Torque Measured	[mNm] */
 241:.\torquestat.c **** float TOUT_mean(struct STATISTICS *current_stat, float gear_ratio)
 242:.\torquestat.c **** {
 1174              		.loc 1 242 0
 1175              		.cfi_startproc
 1176              		@ args = 0, pretend = 0, frame = 8
 1177              		@ frame_needed = 1, uses_anonymous_args = 0
 1178 0000 80B5     		push	{r7, lr}
 1179              	.LCFI65:
 1180              		.cfi_def_cfa_offset 8
 1181              		.cfi_offset 7, -8
 1182              		.cfi_offset 14, -4
 1183 0002 82B0     		sub	sp, sp, #8
ARM GAS  C:\Users\GRAZIA~1.RAV\AppData\Local\Temp\ccUtzTBI.s 			page 26


 1184              	.LCFI66:
 1185              		.cfi_def_cfa_offset 16
 1186 0004 00AF     		add	r7, sp, #0
 1187              	.LCFI67:
 1188              		.cfi_def_cfa_register 7
 1189 0006 7860     		str	r0, [r7, #4]
 1190 0008 3960     		str	r1, [r7, #0]	@ float
 243:.\torquestat.c **** 	return TMOT_mean(current_stat) * gear_ratio * eff_R;	
 1191              		.loc 1 243 0
 1192 000a 7868     		ldr	r0, [r7, #4]
 1193 000c FFF7FEFF 		bl	TMOT_mean
 1194 0010 0346     		mov	r3, r0
 1195 0012 1846     		mov	r0, r3
 1196 0014 3968     		ldr	r1, [r7, #0]	@ float
 1197 0016 FFF7FEFF 		bl	__aeabi_fmul
 1198 001a 0346     		mov	r3, r0
 1199 001c 1846     		mov	r0, r3
 1200 001e 4FF07D51 		mov	r1, #1061158912
 1201 0022 FFF7FEFF 		bl	__aeabi_fmul
 1202 0026 0346     		mov	r3, r0
 244:.\torquestat.c **** }
 1203              		.loc 1 244 0
 1204 0028 1846     		mov	r0, r3
 1205 002a 07F10807 		add	r7, r7, #8
 1206 002e BD46     		mov	sp, r7
 1207 0030 80BD     		pop	{r7, pc}
 1208              		.cfi_endproc
 1209              	.LFE78:
 1210              		.size	TOUT_mean, .-TOUT_mean
 1211 0032 00BF     		.section	.text.i_variance,"ax",%progbits
 1212              		.align	2
 1213              		.global	i_variance
 1214              		.thumb
 1215              		.thumb_func
 1216              		.type	i_variance, %function
 1217              	i_variance:
 1218              	.LFB79:
 245:.\torquestat.c **** 
 246:.\torquestat.c **** /* Current Variance Measured [A]	*/
 247:.\torquestat.c **** float i_variance(struct STATISTICS *current_stat)
 248:.\torquestat.c **** {
 1219              		.loc 1 248 0
 1220              		.cfi_startproc
 1221              		@ args = 0, pretend = 0, frame = 8
 1222              		@ frame_needed = 1, uses_anonymous_args = 0
 1223              		@ link register save eliminated.
 1224 0000 80B4     		push	{r7}
 1225              	.LCFI68:
 1226              		.cfi_def_cfa_offset 4
 1227              		.cfi_offset 7, -4
 1228 0002 83B0     		sub	sp, sp, #12
 1229              	.LCFI69:
 1230              		.cfi_def_cfa_offset 16
 1231 0004 00AF     		add	r7, sp, #0
 1232              	.LCFI70:
 1233              		.cfi_def_cfa_register 7
 1234 0006 7860     		str	r0, [r7, #4]
ARM GAS  C:\Users\GRAZIA~1.RAV\AppData\Local\Temp\ccUtzTBI.s 			page 27


 249:.\torquestat.c **** 	return (*current_stat).variance;		
 1235              		.loc 1 249 0
 1236 0008 7B68     		ldr	r3, [r7, #4]
 1237 000a 5B6A     		ldr	r3, [r3, #36]	@ float
 250:.\torquestat.c **** }
 1238              		.loc 1 250 0
 1239 000c 1846     		mov	r0, r3
 1240 000e 07F10C07 		add	r7, r7, #12
 1241 0012 BD46     		mov	sp, r7
 1242 0014 80BC     		pop	{r7}
 1243 0016 7047     		bx	lr
 1244              		.cfi_endproc
 1245              	.LFE79:
 1246              		.size	i_variance, .-i_variance
 1247              		.section	.text.TMOT_variance,"ax",%progbits
 1248              		.align	2
 1249              		.global	TMOT_variance
 1250              		.thumb
 1251              		.thumb_func
 1252              		.type	TMOT_variance, %function
 1253              	TMOT_variance:
 1254              	.LFB80:
 251:.\torquestat.c **** 
 252:.\torquestat.c **** /* Torque Motor Variance Measured	[mNm] */
 253:.\torquestat.c **** float TMOT_variance(struct STATISTICS *current_stat)
 254:.\torquestat.c **** {
 1255              		.loc 1 254 0
 1256              		.cfi_startproc
 1257              		@ args = 0, pretend = 0, frame = 8
 1258              		@ frame_needed = 1, uses_anonymous_args = 0
 1259 0000 80B5     		push	{r7, lr}
 1260              	.LCFI71:
 1261              		.cfi_def_cfa_offset 8
 1262              		.cfi_offset 7, -8
 1263              		.cfi_offset 14, -4
 1264 0002 82B0     		sub	sp, sp, #8
 1265              	.LCFI72:
 1266              		.cfi_def_cfa_offset 16
 1267 0004 00AF     		add	r7, sp, #0
 1268              	.LCFI73:
 1269              		.cfi_def_cfa_register 7
 1270 0006 7860     		str	r0, [r7, #4]
 255:.\torquestat.c **** 	return (*current_stat).variance * Km * eff_M;		
 1271              		.loc 1 255 0
 1272 0008 7B68     		ldr	r3, [r7, #4]
 1273 000a 5B6A     		ldr	r3, [r3, #36]	@ float
 1274 000c 1846     		mov	r0, r3
 1275 000e FFF7FEFF 		bl	__aeabi_f2d
 1276 0012 0246     		mov	r2, r0
 1277 0014 0B46     		mov	r3, r1
 1278 0016 1046     		mov	r0, r2
 1279 0018 1946     		mov	r1, r3
 1280 001a 0DA3     		adr	r3, .L58
 1281 001c D3E90023 		ldrd	r2, [r3]
 1282 0020 FFF7FEFF 		bl	__aeabi_dmul
 1283 0024 0246     		mov	r2, r0
 1284 0026 0B46     		mov	r3, r1
ARM GAS  C:\Users\GRAZIA~1.RAV\AppData\Local\Temp\ccUtzTBI.s 			page 28


 1285 0028 1046     		mov	r0, r2
 1286 002a 1946     		mov	r1, r3
 1287 002c 0AA3     		adr	r3, .L58+8
 1288 002e D3E90023 		ldrd	r2, [r3]
 1289 0032 FFF7FEFF 		bl	__aeabi_dmul
 1290 0036 0246     		mov	r2, r0
 1291 0038 0B46     		mov	r3, r1
 1292 003a 1046     		mov	r0, r2
 1293 003c 1946     		mov	r1, r3
 1294 003e FFF7FEFF 		bl	__aeabi_d2f
 1295 0042 0346     		mov	r3, r0
 256:.\torquestat.c **** }
 1296              		.loc 1 256 0
 1297 0044 1846     		mov	r0, r3
 1298 0046 07F10807 		add	r7, r7, #8
 1299 004a BD46     		mov	sp, r7
 1300 004c 80BD     		pop	{r7, pc}
 1301              	.L59:
 1302 004e 00BF     		.align	3
 1303              	.L58:
 1304 0050 C3F5285C 		.word	1546188227
 1305 0054 8FC21C40 		.word	1075626639
 1306 0058 EC51B81E 		.word	515396076
 1307 005c 85EBE93F 		.word	1072294789
 1308              		.cfi_endproc
 1309              	.LFE80:
 1310              		.size	TMOT_variance, .-TMOT_variance
 1311              		.section	.text.TOUT_variance,"ax",%progbits
 1312              		.align	2
 1313              		.global	TOUT_variance
 1314              		.thumb
 1315              		.thumb_func
 1316              		.type	TOUT_variance, %function
 1317              	TOUT_variance:
 1318              	.LFB81:
 257:.\torquestat.c **** 
 258:.\torquestat.c **** /* Torque Output Variance Measured	[mNm] */
 259:.\torquestat.c **** float TOUT_variance(struct STATISTICS *current_stat, float gear_ratio)
 260:.\torquestat.c **** {
 1319              		.loc 1 260 0
 1320              		.cfi_startproc
 1321              		@ args = 0, pretend = 0, frame = 8
 1322              		@ frame_needed = 1, uses_anonymous_args = 0
 1323 0000 80B5     		push	{r7, lr}
 1324              	.LCFI74:
 1325              		.cfi_def_cfa_offset 8
 1326              		.cfi_offset 7, -8
 1327              		.cfi_offset 14, -4
 1328 0002 82B0     		sub	sp, sp, #8
 1329              	.LCFI75:
 1330              		.cfi_def_cfa_offset 16
 1331 0004 00AF     		add	r7, sp, #0
 1332              	.LCFI76:
 1333              		.cfi_def_cfa_register 7
 1334 0006 7860     		str	r0, [r7, #4]
 1335 0008 3960     		str	r1, [r7, #0]	@ float
 261:.\torquestat.c **** 	return TMOT_variance(current_stat) * gear_ratio * eff_R;		
ARM GAS  C:\Users\GRAZIA~1.RAV\AppData\Local\Temp\ccUtzTBI.s 			page 29


 1336              		.loc 1 261 0
 1337 000a 7868     		ldr	r0, [r7, #4]
 1338 000c FFF7FEFF 		bl	TMOT_variance
 1339 0010 0346     		mov	r3, r0
 1340 0012 1846     		mov	r0, r3
 1341 0014 3968     		ldr	r1, [r7, #0]	@ float
 1342 0016 FFF7FEFF 		bl	__aeabi_fmul
 1343 001a 0346     		mov	r3, r0
 1344 001c 1846     		mov	r0, r3
 1345 001e 4FF07D51 		mov	r1, #1061158912
 1346 0022 FFF7FEFF 		bl	__aeabi_fmul
 1347 0026 0346     		mov	r3, r0
 262:.\torquestat.c **** }
 1348              		.loc 1 262 0
 1349 0028 1846     		mov	r0, r3
 1350 002a 07F10807 		add	r7, r7, #8
 1351 002e BD46     		mov	sp, r7
 1352 0030 80BD     		pop	{r7, pc}
 1353              		.cfi_endproc
 1354              	.LFE81:
 1355              		.size	TOUT_variance, .-TOUT_variance
 1356 0032 00BF     		.section	.text.i_t,"ax",%progbits
 1357              		.align	2
 1358              		.global	i_t
 1359              		.thumb
 1360              		.thumb_func
 1361              		.type	i_t, %function
 1362              	i_t:
 1363              	.LFB82:
 263:.\torquestat.c **** 
 264:.\torquestat.c **** /* Instantaneous Absolute Current Measured [A] */
 265:.\torquestat.c **** float i_t(struct TORQUESTAT *torque_stat)
 266:.\torquestat.c **** {
 1364              		.loc 1 266 0
 1365              		.cfi_startproc
 1366              		@ args = 0, pretend = 0, frame = 8
 1367              		@ frame_needed = 1, uses_anonymous_args = 0
 1368              		@ link register save eliminated.
 1369 0000 80B4     		push	{r7}
 1370              	.LCFI77:
 1371              		.cfi_def_cfa_offset 4
 1372              		.cfi_offset 7, -4
 1373 0002 83B0     		sub	sp, sp, #12
 1374              	.LCFI78:
 1375              		.cfi_def_cfa_offset 16
 1376 0004 00AF     		add	r7, sp, #0
 1377              	.LCFI79:
 1378              		.cfi_def_cfa_register 7
 1379 0006 7860     		str	r0, [r7, #4]
 267:.\torquestat.c **** 	return (*torque_stat).abs_current_t;	//abs(i(t))	
 1380              		.loc 1 267 0
 1381 0008 7B68     		ldr	r3, [r7, #4]
 1382 000a 9B68     		ldr	r3, [r3, #8]	@ float
 268:.\torquestat.c **** }
 1383              		.loc 1 268 0
 1384 000c 1846     		mov	r0, r3
 1385 000e 07F10C07 		add	r7, r7, #12
ARM GAS  C:\Users\GRAZIA~1.RAV\AppData\Local\Temp\ccUtzTBI.s 			page 30


 1386 0012 BD46     		mov	sp, r7
 1387 0014 80BC     		pop	{r7}
 1388 0016 7047     		bx	lr
 1389              		.cfi_endproc
 1390              	.LFE82:
 1391              		.size	i_t, .-i_t
 1392              		.section	.text.omega_t,"ax",%progbits
 1393              		.align	2
 1394              		.global	omega_t
 1395              		.thumb
 1396              		.thumb_func
 1397              		.type	omega_t, %function
 1398              	omega_t:
 1399              	.LFB83:
 269:.\torquestat.c **** 
 270:.\torquestat.c **** /* Instantaneous angular velocity Measured [rad/sec] */
 271:.\torquestat.c **** float omega_t(struct TORQUESTAT *torque_stat)
 272:.\torquestat.c **** {
 1400              		.loc 1 272 0
 1401              		.cfi_startproc
 1402              		@ args = 0, pretend = 0, frame = 8
 1403              		@ frame_needed = 1, uses_anonymous_args = 0
 1404              		@ link register save eliminated.
 1405 0000 80B4     		push	{r7}
 1406              	.LCFI80:
 1407              		.cfi_def_cfa_offset 4
 1408              		.cfi_offset 7, -4
 1409 0002 83B0     		sub	sp, sp, #12
 1410              	.LCFI81:
 1411              		.cfi_def_cfa_offset 16
 1412 0004 00AF     		add	r7, sp, #0
 1413              	.LCFI82:
 1414              		.cfi_def_cfa_register 7
 1415 0006 7860     		str	r0, [r7, #4]
 273:.\torquestat.c **** 	return (*torque_stat).pwcalc.abs_omega_t;			//abs(omega(t))	
 1416              		.loc 1 273 0
 1417 0008 7B68     		ldr	r3, [r7, #4]
 1418 000a DB68     		ldr	r3, [r3, #12]	@ float
 274:.\torquestat.c **** }
 1419              		.loc 1 274 0
 1420 000c 1846     		mov	r0, r3
 1421 000e 07F10C07 		add	r7, r7, #12
 1422 0012 BD46     		mov	sp, r7
 1423 0014 80BC     		pop	{r7}
 1424 0016 7047     		bx	lr
 1425              		.cfi_endproc
 1426              	.LFE83:
 1427              		.size	omega_t, .-omega_t
 1428              		.section	.text.rpm_t,"ax",%progbits
 1429              		.align	2
 1430              		.global	rpm_t
 1431              		.thumb
 1432              		.thumb_func
 1433              		.type	rpm_t, %function
 1434              	rpm_t:
 1435              	.LFB84:
 275:.\torquestat.c **** 
ARM GAS  C:\Users\GRAZIA~1.RAV\AppData\Local\Temp\ccUtzTBI.s 			page 31


 276:.\torquestat.c **** /* Instantaneous angular velocity Measured [rpm] */
 277:.\torquestat.c **** float rpm_t(struct TORQUESTAT *torque_stat)
 278:.\torquestat.c **** {
 1436              		.loc 1 278 0
 1437              		.cfi_startproc
 1438              		@ args = 0, pretend = 0, frame = 8
 1439              		@ frame_needed = 1, uses_anonymous_args = 0
 1440 0000 80B5     		push	{r7, lr}
 1441              	.LCFI83:
 1442              		.cfi_def_cfa_offset 8
 1443              		.cfi_offset 7, -8
 1444              		.cfi_offset 14, -4
 1445 0002 82B0     		sub	sp, sp, #8
 1446              	.LCFI84:
 1447              		.cfi_def_cfa_offset 16
 1448 0004 00AF     		add	r7, sp, #0
 1449              	.LCFI85:
 1450              		.cfi_def_cfa_register 7
 1451 0006 7860     		str	r0, [r7, #4]
 279:.\torquestat.c **** 	return omega_t(torque_stat) * RADSEC_TO_RPM;		//abs(rpm(t))	
 1452              		.loc 1 279 0
 1453 0008 7868     		ldr	r0, [r7, #4]
 1454 000a FFF7FEFF 		bl	omega_t
 1455 000e 0346     		mov	r3, r0
 1456 0010 1846     		mov	r0, r3
 1457 0012 FFF7FEFF 		bl	__aeabi_f2d
 1458 0016 0246     		mov	r2, r0
 1459 0018 0B46     		mov	r3, r1
 1460 001a 1046     		mov	r0, r2
 1461 001c 1946     		mov	r1, r3
 1462 001e 08A3     		adr	r3, .L68
 1463 0020 D3E90023 		ldrd	r2, [r3]
 1464 0024 FFF7FEFF 		bl	__aeabi_dmul
 1465 0028 0246     		mov	r2, r0
 1466 002a 0B46     		mov	r3, r1
 1467 002c 1046     		mov	r0, r2
 1468 002e 1946     		mov	r1, r3
 1469 0030 FFF7FEFF 		bl	__aeabi_d2f
 1470 0034 0346     		mov	r3, r0
 280:.\torquestat.c **** }
 1471              		.loc 1 280 0
 1472 0036 1846     		mov	r0, r3
 1473 0038 07F10807 		add	r7, r7, #8
 1474 003c BD46     		mov	sp, r7
 1475 003e 80BD     		pop	{r7, pc}
 1476              	.L69:
 1477              		.align	3
 1478              	.L68:
 1479 0040 6AB51367 		.word	1729344874
 1480 0044 3D192340 		.word	1076042045
 1481              		.cfi_endproc
 1482              	.LFE84:
 1483              		.size	rpm_t, .-rpm_t
 1484              		.section	.text.TMOT_t,"ax",%progbits
 1485              		.align	2
 1486              		.global	TMOT_t
 1487              		.thumb
ARM GAS  C:\Users\GRAZIA~1.RAV\AppData\Local\Temp\ccUtzTBI.s 			page 32


 1488              		.thumb_func
 1489              		.type	TMOT_t, %function
 1490              	TMOT_t:
 1491              	.LFB85:
 281:.\torquestat.c **** 
 282:.\torquestat.c **** /* Instantaneous Motor Torque Measured [mNm] */
 283:.\torquestat.c **** float TMOT_t(struct TORQUESTAT *torque_stat)
 284:.\torquestat.c **** {
 1492              		.loc 1 284 0
 1493              		.cfi_startproc
 1494              		@ args = 0, pretend = 0, frame = 8
 1495              		@ frame_needed = 1, uses_anonymous_args = 0
 1496 0000 80B5     		push	{r7, lr}
 1497              	.LCFI86:
 1498              		.cfi_def_cfa_offset 8
 1499              		.cfi_offset 7, -8
 1500              		.cfi_offset 14, -4
 1501 0002 82B0     		sub	sp, sp, #8
 1502              	.LCFI87:
 1503              		.cfi_def_cfa_offset 16
 1504 0004 00AF     		add	r7, sp, #0
 1505              	.LCFI88:
 1506              		.cfi_def_cfa_register 7
 1507 0006 7860     		str	r0, [r7, #4]
 285:.\torquestat.c **** 	return fabsf((*torque_stat).abs_current_t - NOLOAD_CURR) * Km * eff_M;		//No load current does not
 1508              		.loc 1 285 0
 1509 0008 7B68     		ldr	r3, [r7, #4]
 1510 000a 9B68     		ldr	r3, [r3, #8]	@ float
 1511 000c 1846     		mov	r0, r3
 1512 000e FFF7FEFF 		bl	__aeabi_f2d
 1513 0012 0246     		mov	r2, r0
 1514 0014 0B46     		mov	r3, r1
 1515 0016 1046     		mov	r0, r2
 1516 0018 1946     		mov	r1, r3
 1517 001a 17A3     		adr	r3, .L72
 1518 001c D3E90023 		ldrd	r2, [r3]
 1519 0020 FFF7FEFF 		bl	__aeabi_dsub
 1520 0024 0246     		mov	r2, r0
 1521 0026 0B46     		mov	r3, r1
 1522 0028 1046     		mov	r0, r2
 1523 002a 1946     		mov	r1, r3
 1524 002c FFF7FEFF 		bl	__aeabi_d2f
 1525 0030 0346     		mov	r3, r0
 1526 0032 23F00043 		bic	r3, r3, #-2147483648
 1527 0036 1846     		mov	r0, r3
 1528 0038 FFF7FEFF 		bl	__aeabi_f2d
 1529 003c 0246     		mov	r2, r0
 1530 003e 0B46     		mov	r3, r1
 1531 0040 1046     		mov	r0, r2
 1532 0042 1946     		mov	r1, r3
 1533 0044 0EA3     		adr	r3, .L72+8
 1534 0046 D3E90023 		ldrd	r2, [r3]
 1535 004a FFF7FEFF 		bl	__aeabi_dmul
 1536 004e 0246     		mov	r2, r0
 1537 0050 0B46     		mov	r3, r1
 1538 0052 1046     		mov	r0, r2
 1539 0054 1946     		mov	r1, r3
ARM GAS  C:\Users\GRAZIA~1.RAV\AppData\Local\Temp\ccUtzTBI.s 			page 33


 1540 0056 0CA3     		adr	r3, .L72+16
 1541 0058 D3E90023 		ldrd	r2, [r3]
 1542 005c FFF7FEFF 		bl	__aeabi_dmul
 1543 0060 0246     		mov	r2, r0
 1544 0062 0B46     		mov	r3, r1
 1545 0064 1046     		mov	r0, r2
 1546 0066 1946     		mov	r1, r3
 1547 0068 FFF7FEFF 		bl	__aeabi_d2f
 1548 006c 0346     		mov	r3, r0
 286:.\torquestat.c **** }
 1549              		.loc 1 286 0
 1550 006e 1846     		mov	r0, r3
 1551 0070 07F10807 		add	r7, r7, #8
 1552 0074 BD46     		mov	sp, r7
 1553 0076 80BD     		pop	{r7, pc}
 1554              	.L73:
 1555              		.align	3
 1556              	.L72:
 1557 0078 79E92631 		.word	824633721
 1558 007c 08AC8C3F 		.word	1066183688
 1559 0080 C3F5285C 		.word	1546188227
 1560 0084 8FC21C40 		.word	1075626639
 1561 0088 EC51B81E 		.word	515396076
 1562 008c 85EBE93F 		.word	1072294789
 1563              		.cfi_endproc
 1564              	.LFE85:
 1565              		.size	TMOT_t, .-TMOT_t
 1566              		.section	.text.PMOTE_t,"ax",%progbits
 1567              		.align	2
 1568              		.global	PMOTE_t
 1569              		.thumb
 1570              		.thumb_func
 1571              		.type	PMOTE_t, %function
 1572              	PMOTE_t:
 1573              	.LFB86:
 287:.\torquestat.c **** 
 288:.\torquestat.c **** /* Instantaneous Erogated Motor Power Estimated [mW] */
 289:.\torquestat.c **** float PMOTE_t(struct TORQUESTAT *torque_stat)
 290:.\torquestat.c **** {
 1574              		.loc 1 290 0
 1575              		.cfi_startproc
 1576              		@ args = 0, pretend = 0, frame = 8
 1577              		@ frame_needed = 1, uses_anonymous_args = 0
 1578 0000 80B5     		push	{r7, lr}
 1579              	.LCFI89:
 1580              		.cfi_def_cfa_offset 8
 1581              		.cfi_offset 7, -8
 1582              		.cfi_offset 14, -4
 1583 0002 82B0     		sub	sp, sp, #8
 1584              	.LCFI90:
 1585              		.cfi_def_cfa_offset 16
 1586 0004 00AF     		add	r7, sp, #0
 1587              	.LCFI91:
 1588              		.cfi_def_cfa_register 7
 1589 0006 7860     		str	r0, [r7, #4]
 291:.\torquestat.c **** 	return (*torque_stat).pwcalc.qpower_t * Km * eff_M;				//[mW] potenza elettrica istantanea erogata
 1590              		.loc 1 291 0
ARM GAS  C:\Users\GRAZIA~1.RAV\AppData\Local\Temp\ccUtzTBI.s 			page 34


 1591 0008 7B68     		ldr	r3, [r7, #4]
 1592 000a 1B69     		ldr	r3, [r3, #16]	@ float
 1593 000c 1846     		mov	r0, r3
 1594 000e FFF7FEFF 		bl	__aeabi_f2d
 1595 0012 0246     		mov	r2, r0
 1596 0014 0B46     		mov	r3, r1
 1597 0016 1046     		mov	r0, r2
 1598 0018 1946     		mov	r1, r3
 1599 001a 0DA3     		adr	r3, .L76
 1600 001c D3E90023 		ldrd	r2, [r3]
 1601 0020 FFF7FEFF 		bl	__aeabi_dmul
 1602 0024 0246     		mov	r2, r0
 1603 0026 0B46     		mov	r3, r1
 1604 0028 1046     		mov	r0, r2
 1605 002a 1946     		mov	r1, r3
 1606 002c 0AA3     		adr	r3, .L76+8
 1607 002e D3E90023 		ldrd	r2, [r3]
 1608 0032 FFF7FEFF 		bl	__aeabi_dmul
 1609 0036 0246     		mov	r2, r0
 1610 0038 0B46     		mov	r3, r1
 1611 003a 1046     		mov	r0, r2
 1612 003c 1946     		mov	r1, r3
 1613 003e FFF7FEFF 		bl	__aeabi_d2f
 1614 0042 0346     		mov	r3, r0
 292:.\torquestat.c **** }
 1615              		.loc 1 292 0
 1616 0044 1846     		mov	r0, r3
 1617 0046 07F10807 		add	r7, r7, #8
 1618 004a BD46     		mov	sp, r7
 1619 004c 80BD     		pop	{r7, pc}
 1620              	.L77:
 1621 004e 00BF     		.align	3
 1622              	.L76:
 1623 0050 C3F5285C 		.word	1546188227
 1624 0054 8FC21C40 		.word	1075626639
 1625 0058 EC51B81E 		.word	515396076
 1626 005c 85EBE93F 		.word	1072294789
 1627              		.cfi_endproc
 1628              	.LFE86:
 1629              		.size	PMOTE_t, .-PMOTE_t
 1630              		.section	.text.TOUT_t,"ax",%progbits
 1631              		.align	2
 1632              		.global	TOUT_t
 1633              		.thumb
 1634              		.thumb_func
 1635              		.type	TOUT_t, %function
 1636              	TOUT_t:
 1637              	.LFB87:
 293:.\torquestat.c **** 
 294:.\torquestat.c **** /* Instantaneous Output Torque Measured [mNm] */
 295:.\torquestat.c **** float TOUT_t(struct TORQUESTAT *torque_stat, float gear_ratio)
 296:.\torquestat.c **** {
 1638              		.loc 1 296 0
 1639              		.cfi_startproc
 1640              		@ args = 0, pretend = 0, frame = 8
 1641              		@ frame_needed = 1, uses_anonymous_args = 0
 1642 0000 80B5     		push	{r7, lr}
ARM GAS  C:\Users\GRAZIA~1.RAV\AppData\Local\Temp\ccUtzTBI.s 			page 35


 1643              	.LCFI92:
 1644              		.cfi_def_cfa_offset 8
 1645              		.cfi_offset 7, -8
 1646              		.cfi_offset 14, -4
 1647 0002 82B0     		sub	sp, sp, #8
 1648              	.LCFI93:
 1649              		.cfi_def_cfa_offset 16
 1650 0004 00AF     		add	r7, sp, #0
 1651              	.LCFI94:
 1652              		.cfi_def_cfa_register 7
 1653 0006 7860     		str	r0, [r7, #4]
 1654 0008 3960     		str	r1, [r7, #0]	@ float
 297:.\torquestat.c **** 	return TMOT_t(torque_stat) * gear_ratio * eff_R;
 1655              		.loc 1 297 0
 1656 000a 7868     		ldr	r0, [r7, #4]
 1657 000c FFF7FEFF 		bl	TMOT_t
 1658 0010 0346     		mov	r3, r0
 1659 0012 1846     		mov	r0, r3
 1660 0014 3968     		ldr	r1, [r7, #0]	@ float
 1661 0016 FFF7FEFF 		bl	__aeabi_fmul
 1662 001a 0346     		mov	r3, r0
 1663 001c 1846     		mov	r0, r3
 1664 001e 4FF07D51 		mov	r1, #1061158912
 1665 0022 FFF7FEFF 		bl	__aeabi_fmul
 1666 0026 0346     		mov	r3, r0
 298:.\torquestat.c **** }
 1667              		.loc 1 298 0
 1668 0028 1846     		mov	r0, r3
 1669 002a 07F10807 		add	r7, r7, #8
 1670 002e BD46     		mov	sp, r7
 1671 0030 80BD     		pop	{r7, pc}
 1672              		.cfi_endproc
 1673              	.LFE87:
 1674              		.size	TOUT_t, .-TOUT_t
 1675 0032 00BF     		.section	.text.Battery_Energy_Integral_Reset,"ax",%progbits
 1676              		.align	2
 1677              		.global	Battery_Energy_Integral_Reset
 1678              		.thumb
 1679              		.thumb_func
 1680              		.type	Battery_Energy_Integral_Reset, %function
 1681              	Battery_Energy_Integral_Reset:
 1682              	.LFB88:
 299:.\torquestat.c **** 
 300:.\torquestat.c **** 
 301:.\torquestat.c **** /* Battery Energy Integral Reset */
 302:.\torquestat.c **** void Battery_Energy_Integral_Reset(struct TORQUESTAT *torque_stat)
 303:.\torquestat.c **** {
 1683              		.loc 1 303 0
 1684              		.cfi_startproc
 1685              		@ args = 0, pretend = 0, frame = 8
 1686              		@ frame_needed = 1, uses_anonymous_args = 0
 1687              		@ link register save eliminated.
 1688 0000 80B4     		push	{r7}
 1689              	.LCFI95:
 1690              		.cfi_def_cfa_offset 4
 1691              		.cfi_offset 7, -4
 1692 0002 83B0     		sub	sp, sp, #12
ARM GAS  C:\Users\GRAZIA~1.RAV\AppData\Local\Temp\ccUtzTBI.s 			page 36


 1693              	.LCFI96:
 1694              		.cfi_def_cfa_offset 16
 1695 0004 00AF     		add	r7, sp, #0
 1696              	.LCFI97:
 1697              		.cfi_def_cfa_register 7
 1698 0006 7860     		str	r0, [r7, #4]
 304:.\torquestat.c **** 	(*torque_stat).current_integral = 0;			// [A] sampled in one Sampling Point
 1699              		.loc 1 304 0
 1700 0008 7968     		ldr	r1, [r7, #4]
 1701 000a 4FF00002 		mov	r2, #0
 1702 000e 4FF00003 		mov	r3, #0
 1703 0012 C1E90023 		strd	r2, [r1]
 305:.\torquestat.c **** }
 1704              		.loc 1 305 0
 1705 0016 07F10C07 		add	r7, r7, #12
 1706 001a BD46     		mov	sp, r7
 1707 001c 80BC     		pop	{r7}
 1708 001e 7047     		bx	lr
 1709              		.cfi_endproc
 1710              	.LFE88:
 1711              		.size	Battery_Energy_Integral_Reset, .-Battery_Energy_Integral_Reset
 1712              		.global	__aeabi_ui2d
 1713              		.global	__aeabi_ddiv
 1714              		.section	.text.Battery_Energy,"ax",%progbits
 1715              		.align	2
 1716              		.global	Battery_Energy
 1717              		.thumb
 1718              		.thumb_func
 1719              		.type	Battery_Energy, %function
 1720              	Battery_Energy:
 1721              	.LFB89:
 306:.\torquestat.c **** 
 307:.\torquestat.c **** /* Battery used Energy Calculation [mAh used]*/
 308:.\torquestat.c **** float Battery_Energy(struct TORQUESTAT *torque_stat, struct STATISTICS *current_stat)
 309:.\torquestat.c **** {
 1722              		.loc 1 309 0
 1723              		.cfi_startproc
 1724              		@ args = 0, pretend = 0, frame = 8
 1725              		@ frame_needed = 1, uses_anonymous_args = 0
 1726 0000 B0B5     		push	{r4, r5, r7, lr}
 1727              	.LCFI98:
 1728              		.cfi_def_cfa_offset 16
 1729              		.cfi_offset 4, -16
 1730              		.cfi_offset 5, -12
 1731              		.cfi_offset 7, -8
 1732              		.cfi_offset 14, -4
 1733 0002 82B0     		sub	sp, sp, #8
 1734              	.LCFI99:
 1735              		.cfi_def_cfa_offset 24
 1736 0004 00AF     		add	r7, sp, #0
 1737              	.LCFI100:
 1738              		.cfi_def_cfa_register 7
 1739 0006 7860     		str	r0, [r7, #4]
 1740 0008 3960     		str	r1, [r7, #0]
 310:.\torquestat.c **** 	//current_stat.tick  [ticks]		--> number of ticks elapsed during statistics	[ticks]
 311:.\torquestat.c **** 	//current_integral   [A]			--> sum of every current of every sample		[A]
 312:.\torquestat.c **** 	//CSSR				 [ticks/sec]	--> Current Statistics Sampling Rate 			[Hz]
ARM GAS  C:\Users\GRAZIA~1.RAV\AppData\Local\Temp\ccUtzTBI.s 			page 37


 313:.\torquestat.c **** 	//hours elapsed = (ticks/CSSR)/3600 --> Hours elapsed during statistics				[h]
 314:.\torquestat.c **** 	return	(float)((double)((*torque_stat).current_integral) * 1000 / ((*current_stat).tick * 60));	//
 1741              		.loc 1 314 0
 1742 000a 7B68     		ldr	r3, [r7, #4]
 1743 000c D3E90023 		ldrd	r2, [r3]
 1744 0010 1046     		mov	r0, r2
 1745 0012 1946     		mov	r1, r3
 1746 0014 4FF00002 		mov	r2, #0
 1747 0018 4FF48043 		mov	r3, #16384
 1748 001c C4F28F03 		movt	r3, 16527
 1749 0020 FFF7FEFF 		bl	__aeabi_dmul
 1750 0024 0246     		mov	r2, r0
 1751 0026 0B46     		mov	r3, r1
 1752 0028 1446     		mov	r4, r2
 1753 002a 1D46     		mov	r5, r3
 1754 002c 3B68     		ldr	r3, [r7, #0]
 1755 002e DA6A     		ldr	r2, [r3, #44]
 1756 0030 1346     		mov	r3, r2
 1757 0032 4FEA0313 		lsl	r3, r3, #4
 1758 0036 9B1A     		subs	r3, r3, r2
 1759 0038 4FEA8303 		lsl	r3, r3, #2
 1760 003c 1846     		mov	r0, r3
 1761 003e FFF7FEFF 		bl	__aeabi_ui2d
 1762 0042 0246     		mov	r2, r0
 1763 0044 0B46     		mov	r3, r1
 1764 0046 2046     		mov	r0, r4
 1765 0048 2946     		mov	r1, r5
 1766 004a FFF7FEFF 		bl	__aeabi_ddiv
 1767 004e 0246     		mov	r2, r0
 1768 0050 0B46     		mov	r3, r1
 1769 0052 1046     		mov	r0, r2
 1770 0054 1946     		mov	r1, r3
 1771 0056 FFF7FEFF 		bl	__aeabi_d2f
 1772 005a 0346     		mov	r3, r0
 315:.\torquestat.c **** }
 1773              		.loc 1 315 0
 1774 005c 1846     		mov	r0, r3
 1775 005e 07F10807 		add	r7, r7, #8
 1776 0062 BD46     		mov	sp, r7
 1777 0064 B0BD     		pop	{r4, r5, r7, pc}
 1778              		.cfi_endproc
 1779              	.LFE89:
 1780              		.size	Battery_Energy, .-Battery_Energy
 1781              		.global	__aeabi_fdiv
 1782 0066 00BF     		.section	.text.Battery_Energy_Meter,"ax",%progbits
 1783              		.align	2
 1784              		.global	Battery_Energy_Meter
 1785              		.thumb
 1786              		.thumb_func
 1787              		.type	Battery_Energy_Meter, %function
 1788              	Battery_Energy_Meter:
 1789              	.LFB90:
 316:.\torquestat.c **** 
 317:.\torquestat.c **** /* Battery Meter Calculation [% of used Energy]*/
 318:.\torquestat.c **** float Battery_Energy_Meter(struct TORQUESTAT *torque_stat, struct STATISTICS *current_stat, float b
 319:.\torquestat.c **** {
 1790              		.loc 1 319 0
ARM GAS  C:\Users\GRAZIA~1.RAV\AppData\Local\Temp\ccUtzTBI.s 			page 38


 1791              		.cfi_startproc
 1792              		@ args = 0, pretend = 0, frame = 16
 1793              		@ frame_needed = 1, uses_anonymous_args = 0
 1794 0000 80B5     		push	{r7, lr}
 1795              	.LCFI101:
 1796              		.cfi_def_cfa_offset 8
 1797              		.cfi_offset 7, -8
 1798              		.cfi_offset 14, -4
 1799 0002 84B0     		sub	sp, sp, #16
 1800              	.LCFI102:
 1801              		.cfi_def_cfa_offset 24
 1802 0004 00AF     		add	r7, sp, #0
 1803              	.LCFI103:
 1804              		.cfi_def_cfa_register 7
 1805 0006 F860     		str	r0, [r7, #12]
 1806 0008 B960     		str	r1, [r7, #8]
 1807 000a 7A60     		str	r2, [r7, #4]	@ float
 320:.\torquestat.c **** 	//battery capacity [mAh]
 321:.\torquestat.c **** 	return	Battery_Energy(torque_stat, current_stat) / battery_max_capacity * 100;	//	[% of used Energ
 1808              		.loc 1 321 0
 1809 000c F868     		ldr	r0, [r7, #12]
 1810 000e B968     		ldr	r1, [r7, #8]
 1811 0010 FFF7FEFF 		bl	Battery_Energy
 1812 0014 0346     		mov	r3, r0
 1813 0016 1846     		mov	r0, r3
 1814 0018 7968     		ldr	r1, [r7, #4]	@ float
 1815 001a FFF7FEFF 		bl	__aeabi_fdiv
 1816 001e 0346     		mov	r3, r0
 1817 0020 1846     		mov	r0, r3
 1818 0022 4FF00001 		mov	r1, #0
 1819 0026 C4F2C821 		movt	r1, 17096
 1820 002a FFF7FEFF 		bl	__aeabi_fmul
 1821 002e 0346     		mov	r3, r0
 322:.\torquestat.c **** }
 1822              		.loc 1 322 0
 1823 0030 1846     		mov	r0, r3
 1824 0032 07F11007 		add	r7, r7, #16
 1825 0036 BD46     		mov	sp, r7
 1826 0038 80BD     		pop	{r7, pc}
 1827              		.cfi_endproc
 1828              	.LFE90:
 1829              		.size	Battery_Energy_Meter, .-Battery_Energy_Meter
 1830 003a 00BF     		.text
 1831              	.Letext0:
 1832              		.file 2 "c:\\program files (x86)\\cypress\\psoc creator\\3.0\\psoc creator\\import\\gnu_cs\\arm\\4
 1833              		.file 3 "./Generated_Source/PSoC5/cytypes.h"
 1834              		.file 4 "./statistics.h"
 1835              		.file 5 "./torquestat.h"
 1836              		.file 6 "./Generated_Source/PSoC5/core_cm3.h"