ARM GAS  C:\Users\gravi\AppData\Local\Temp\ccjRoW16.s 			page 1


   1              		.syntax unified
   2              		.cpu cortex-m3
   3              		.fpu softvfp
   4              		.eabi_attribute 20, 1
   5              		.eabi_attribute 21, 1
   6              		.eabi_attribute 23, 3
   7              		.eabi_attribute 24, 1
   8              		.eabi_attribute 25, 1
   9              		.eabi_attribute 26, 1
  10              		.eabi_attribute 30, 6
  11              		.eabi_attribute 34, 1
  12              		.eabi_attribute 18, 4
  13              		.thumb
  14              		.file	"XTR-8LR100.c"
  15              		.text
  16              	.Ltext0:
  17              		.cfi_sections	.debug_frame
  18              		.comm	UART_LORA_charin,1,1
  19              		.comm	UART_LORA_RxStatus,1,1
  20              		.global	CMD_AT
  21              		.section	.rodata
  22              		.align	2
  23              		.type	CMD_AT, %object
  24              		.size	CMD_AT, 5
  25              	CMD_AT:
  26 0000 2B2B2B2B 		.ascii	"++++\000"
  26      00
  27              		.global	CMD_AT_SHOWVERSION
  28 0005 000000   		.align	2
  29              		.type	CMD_AT_SHOWVERSION, %object
  30              		.size	CMD_AT_SHOWVERSION, 5
  31              	CMD_AT_SHOWVERSION:
  32 0008 41545330 		.ascii	"ATS0\000"
  32      00
  33 000d 000000   		.section	.text.sendLoRaATcmd,"ax",%progbits
  34              		.align	2
  35              		.global	sendLoRaATcmd
  36              		.thumb
  37              		.thumb_func
  38              		.type	sendLoRaATcmd, %function
  39              	sendLoRaATcmd:
  40              	.LFB56:
  41              		.file 1 ".\\XTR-8LR100.c"
   1:.\XTR-8LR100.c **** /* ========================================
   2:.\XTR-8LR100.c ****  *
   3:.\XTR-8LR100.c ****  * Copyright YOUR COMPANY, THE YEAR
   4:.\XTR-8LR100.c ****  * All Rights Reserved
   5:.\XTR-8LR100.c ****  * UNPUBLISHED, LICENSED SOFTWARE.
   6:.\XTR-8LR100.c ****  *
   7:.\XTR-8LR100.c ****  * CONFIDENTIAL AND PROPRIETARY INFORMATION
   8:.\XTR-8LR100.c ****  * WHICH IS THE PROPERTY OF your company.
   9:.\XTR-8LR100.c ****  *
  10:.\XTR-8LR100.c ****  * ========================================
  11:.\XTR-8LR100.c **** */
  12:.\XTR-8LR100.c **** 
  13:.\XTR-8LR100.c **** /* PSOC Include Files */
  14:.\XTR-8LR100.c **** #include <device.h>
ARM GAS  C:\Users\gravi\AppData\Local\Temp\ccjRoW16.s 			page 2


  15:.\XTR-8LR100.c **** #include <gobee.h>
  16:.\XTR-8LR100.c **** 
  17:.\XTR-8LR100.c **** /* This PRJ Include Files */
  18:.\XTR-8LR100.c **** #include <XTR-8LR100.h>
  19:.\XTR-8LR100.c **** 
  20:.\XTR-8LR100.c **** /* local wars */
  21:.\XTR-8LR100.c **** uint8 UART_LORA_charin;						/* Received character from UART WIFI */
  22:.\XTR-8LR100.c **** uint8 UART_LORA_RxStatus;						/* WIFI UART Rx STATUS 				 */
  23:.\XTR-8LR100.c **** //uint8 idx=0;
  24:.\XTR-8LR100.c **** //char  xtrstring[20];
  25:.\XTR-8LR100.c **** 
  26:.\XTR-8LR100.c **** /**************************************************************************************************
  27:.\XTR-8LR100.c **** /**************************************************************************************************
  28:.\XTR-8LR100.c **** /* XTR-8LR100 command strings definitions 																										*/
  29:.\XTR-8LR100.c **** /**************************************************************************************************
  30:.\XTR-8LR100.c **** /**************************************************************************************************
  31:.\XTR-8LR100.c **** 
  32:.\XTR-8LR100.c **** //======================================//
  33:.\XTR-8LR100.c **** // AT									//
  34:.\XTR-8LR100.c **** //======================================//
  35:.\XTR-8LR100.c **** const char CMD_AT[ ] 
  36:.\XTR-8LR100.c **** 	= "++++";					// simple AT
  37:.\XTR-8LR100.c **** 
  38:.\XTR-8LR100.c **** 
  39:.\XTR-8LR100.c **** //======================================//
  40:.\XTR-8LR100.c **** // Versione dell'XTR-8LR100				//
  41:.\XTR-8LR100.c **** //======================================//
  42:.\XTR-8LR100.c **** const char CMD_AT_SHOWVERSION[]
  43:.\XTR-8LR100.c **** 	= "ATS0";	// show version information
  44:.\XTR-8LR100.c **** 
  45:.\XTR-8LR100.c **** 
  46:.\XTR-8LR100.c **** /**************************************************************************************************
  47:.\XTR-8LR100.c **** /**************************************************************************************************
  48:.\XTR-8LR100.c **** /* XTR-8LR100 access functions definitions 																									*/
  49:.\XTR-8LR100.c **** /**************************************************************************************************
  50:.\XTR-8LR100.c **** /**************************************************************************************************
  51:.\XTR-8LR100.c **** void sendLoRaATcmd(const char *cmd)
  52:.\XTR-8LR100.c **** {
  42              		.loc 1 52 0
  43              		.cfi_startproc
  44              		@ args = 0, pretend = 0, frame = 16
  45              		@ frame_needed = 1, uses_anonymous_args = 0
  46 0000 90B5     		push	{r4, r7, lr}
  47              	.LCFI0:
  48              		.cfi_def_cfa_offset 12
  49              		.cfi_offset 4, -12
  50              		.cfi_offset 7, -8
  51              		.cfi_offset 14, -4
  52 0002 85B0     		sub	sp, sp, #20
  53              	.LCFI1:
  54              		.cfi_def_cfa_offset 32
  55 0004 00AF     		add	r7, sp, #0
  56              	.LCFI2:
  57              		.cfi_def_cfa_register 7
  58 0006 7860     		str	r0, [r7, #4]
  53:.\XTR-8LR100.c **** 	uint8 idx;
  54:.\XTR-8LR100.c **** 	
ARM GAS  C:\Users\gravi\AppData\Local\Temp\ccjRoW16.s 			page 3


  55:.\XTR-8LR100.c **** 	//send string until end
  56:.\XTR-8LR100.c **** 	for (idx=0;idx<strlen(cmd);idx++)
  59              		.loc 1 56 0
  60 0008 4FF00003 		mov	r3, #0
  61 000c FB73     		strb	r3, [r7, #15]
  62 000e 0DE0     		b	.L2
  63              	.L5:
  57:.\XTR-8LR100.c **** 	{
  58:.\XTR-8LR100.c **** 		if (cmd[idx] == '\0')
  64              		.loc 1 58 0
  65 0010 FB7B     		ldrb	r3, [r7, #15]	@ zero_extendqisi2
  66 0012 7A68     		ldr	r2, [r7, #4]
  67 0014 D318     		adds	r3, r2, r3
  68 0016 1B78     		ldrb	r3, [r3, #0]	@ zero_extendqisi2
  69 0018 002B     		cmp	r3, #0
  70 001a 0FD0     		beq	.L6
  71              	.L3:
  59:.\XTR-8LR100.c **** 			break;
  60:.\XTR-8LR100.c **** 		
  61:.\XTR-8LR100.c **** 		//UART_LORA_PutChar((uint8)cmd[idx]);	//UART_LORA <-- string character
  62:.\XTR-8LR100.c **** 		CyDelay(1);
  72              		.loc 1 62 0
  73 001c 4FF00100 		mov	r0, #1
  74 0020 FFF7FEFF 		bl	CyDelay
  56:.\XTR-8LR100.c **** 	for (idx=0;idx<strlen(cmd);idx++)
  75              		.loc 1 56 0
  76 0024 FB7B     		ldrb	r3, [r7, #15]
  77 0026 03F10103 		add	r3, r3, #1
  78 002a FB73     		strb	r3, [r7, #15]
  79              	.L2:
  56:.\XTR-8LR100.c **** 	for (idx=0;idx<strlen(cmd);idx++)
  80              		.loc 1 56 0 is_stmt 0 discriminator 1
  81 002c FC7B     		ldrb	r4, [r7, #15]	@ zero_extendqisi2
  82 002e 7868     		ldr	r0, [r7, #4]
  83 0030 FFF7FEFF 		bl	strlen
  84 0034 0346     		mov	r3, r0
  85 0036 9C42     		cmp	r4, r3
  86 0038 EAD3     		bcc	.L5
  87 003a 00E0     		b	.L4
  88              	.L6:
  59:.\XTR-8LR100.c **** 			break;
  89              		.loc 1 59 0 is_stmt 1
  90 003c 00BF     		nop
  91              	.L4:
  63:.\XTR-8LR100.c **** 	}
  64:.\XTR-8LR100.c **** 	
  65:.\XTR-8LR100.c **** 	//send CR+LF
  66:.\XTR-8LR100.c **** 	//UART_LORA_PutChar(0x0D);		//cr
  67:.\XTR-8LR100.c **** 	CyDelay(1);
  92              		.loc 1 67 0
  93 003e 4FF00100 		mov	r0, #1
  94 0042 FFF7FEFF 		bl	CyDelay
  68:.\XTR-8LR100.c **** 	//UART_LORA_PutChar(0x0A);		//nl	
  69:.\XTR-8LR100.c **** 	CyDelay(1);
  95              		.loc 1 69 0
  96 0046 4FF00100 		mov	r0, #1
  97 004a FFF7FEFF 		bl	CyDelay
ARM GAS  C:\Users\gravi\AppData\Local\Temp\ccjRoW16.s 			page 4


  70:.\XTR-8LR100.c **** 	
  71:.\XTR-8LR100.c **** 	//result=WaitLoRa_OK(timeout);
  72:.\XTR-8LR100.c **** 	
  73:.\XTR-8LR100.c **** 	//return result
  74:.\XTR-8LR100.c **** 	//   OK
  75:.\XTR-8LR100.c **** 	//   FAIL
  76:.\XTR-8LR100.c **** 	//   ERROR
  77:.\XTR-8LR100.c **** 	//   LORA MODULE NOT CONNECTED
  78:.\XTR-8LR100.c **** }
  98              		.loc 1 78 0
  99 004e 07F11407 		add	r7, r7, #20
 100 0052 BD46     		mov	sp, r7
 101 0054 90BD     		pop	{r4, r7, pc}
 102              		.cfi_endproc
 103              	.LFE56:
 104              		.size	sendLoRaATcmd, .-sendLoRaATcmd
 105 0056 00BF     		.section	.text.UART_LORA_RX_isr_process,"ax",%progbits
 106              		.align	2
 107              		.global	UART_LORA_RX_isr_process
 108              		.thumb
 109              		.thumb_func
 110              		.type	UART_LORA_RX_isr_process, %function
 111              	UART_LORA_RX_isr_process:
 112              	.LFB57:
  79:.\XTR-8LR100.c **** 
  80:.\XTR-8LR100.c **** /* isr di ricezione caratteri dall'UART LORA*/
  81:.\XTR-8LR100.c **** void UART_LORA_RX_isr_process(void)
  82:.\XTR-8LR100.c **** {
 113              		.loc 1 82 0
 114              		.cfi_startproc
 115              		@ args = 0, pretend = 0, frame = 0
 116              		@ frame_needed = 1, uses_anonymous_args = 0
 117              		@ link register save eliminated.
 118 0000 80B4     		push	{r7}
 119              	.LCFI3:
 120              		.cfi_def_cfa_offset 4
 121              		.cfi_offset 7, -4
 122 0002 00AF     		add	r7, sp, #0
 123              	.LCFI4:
 124              		.cfi_def_cfa_register 7
  83:.\XTR-8LR100.c **** 	/* Check for UART LORA RX communication errors			*/
  84:.\XTR-8LR100.c **** 	//UART_LORA_RxStatus = UART_LORA_ReadRxStatus();
  85:.\XTR-8LR100.c **** 
  86:.\XTR-8LR100.c **** #if SYS_FAULTS_LOG_ENABLE
  87:.\XTR-8LR100.c **** 	if (UART_LORA_RxStatus & (UART_LORA_RX_STS_PAR_ERROR |
  88:.\XTR-8LR100.c **** 				  			  UART_LORA_RX_STS_STOP_ERROR |
  89:.\XTR-8LR100.c **** 							  UART_LORA_RX_STS_OVERRUN |
  90:.\XTR-8LR100.c **** 							  UART_LORA_RX_STS_SOFT_BUFF_OVER))
  91:.\XTR-8LR100.c **** 	{
  92:.\XTR-8LR100.c **** 		sysFaults.general = sysFaults.general | GEN_UART_LORA_FAULT;
  93:.\XTR-8LR100.c **** 		sysFaults.UART_LORA_RxStatusOnError = UART_LORA_RxStatus;		/* SAVE STATUS ON ERROR	*/
  94:.\XTR-8LR100.c **** 		
  95:.\XTR-8LR100.c **** 		// FAULT LOG ONE SHOT CONTROL (fault asserted/trigger branch)
  96:.\XTR-8LR100.c **** 		if (sysFaults.FaultLogOneShotTrigger[GEN_UART_LORA_FAULT_LOG] == ONESHOT_TRIGGER_ENABLED)
  97:.\XTR-8LR100.c **** 		{
  98:.\XTR-8LR100.c **** 			sysFaults.FaultLogCounter[GEN_UART_LORA_FAULT_LOG]++;
  99:.\XTR-8LR100.c **** 			sysFaults.FaultLogOneShotTrigger[GEN_UART_LORA_FAULT_LOG] = ONESHOT_TRIGGER_DISABLED;
ARM GAS  C:\Users\gravi\AppData\Local\Temp\ccjRoW16.s 			page 5


 100:.\XTR-8LR100.c **** 		}		
 101:.\XTR-8LR100.c **** 		
 102:.\XTR-8LR100.c **** 		// FAULT LOG ONE SHOT CONTROL (fault asserted/trigger branch) - parity error UART_LORA		
 103:.\XTR-8LR100.c **** 		if (sysFaults.UART_LORA_RxStatusOnError & UART_LORA_RX_STS_PAR_ERROR)
 104:.\XTR-8LR100.c **** 		{
 105:.\XTR-8LR100.c **** 			if (sysFaults.FaultLogOneShotTrigger[UART_LORA_FAULT_ParityError_LOG] == ONESHOT_TRIGGER_ENABLED
 106:.\XTR-8LR100.c **** 			{
 107:.\XTR-8LR100.c **** 				sysFaults.FaultLogCounter[UART_LORA_FAULT_ParityError_LOG]++;
 108:.\XTR-8LR100.c **** 				sysFaults.FaultLogOneShotTrigger[UART_LORA_FAULT_ParityError_LOG] = ONESHOT_TRIGGER_DISABLED;
 109:.\XTR-8LR100.c **** 			}			
 110:.\XTR-8LR100.c **** 		}
 111:.\XTR-8LR100.c **** 		
 112:.\XTR-8LR100.c **** 		// FAULT LOG ONE SHOT CONTROL (fault asserted/trigger branch) - buffer overrun UART_LORA		
 113:.\XTR-8LR100.c **** 		if (sysFaults.UART_LORA_RxStatusOnError & UART_LORA_RX_STS_OVERRUN)
 114:.\XTR-8LR100.c **** 		{
 115:.\XTR-8LR100.c **** 			if (sysFaults.FaultLogOneShotTrigger[UART_LORA_FAULT_BufferOverrunError_LOG] == ONESHOT_TRIGGER_
 116:.\XTR-8LR100.c **** 			{
 117:.\XTR-8LR100.c **** 				sysFaults.FaultLogCounter[UART_LORA_FAULT_BufferOverrunError_LOG]++;
 118:.\XTR-8LR100.c **** 				sysFaults.FaultLogOneShotTrigger[UART_LORA_FAULT_BufferOverrunError_LOG] = ONESHOT_TRIGGER_DISA
 119:.\XTR-8LR100.c **** 			}			
 120:.\XTR-8LR100.c **** 		}
 121:.\XTR-8LR100.c **** 
 122:.\XTR-8LR100.c **** 		// FAULT LOG ONE SHOT CONTROL (fault asserted/trigger branch) - framing error UART_LORA		
 123:.\XTR-8LR100.c **** 		if (sysFaults.UART_LORA_RxStatusOnError & UART_LORA_RX_STS_STOP_ERROR)
 124:.\XTR-8LR100.c **** 		{
 125:.\XTR-8LR100.c **** 			if (sysFaults.FaultLogOneShotTrigger[UART_LORA_FAULT_FramingError_LOG] == ONESHOT_TRIGGER_ENABLE
 126:.\XTR-8LR100.c **** 			{
 127:.\XTR-8LR100.c **** 				sysFaults.FaultLogCounter[UART_LORA_FAULT_FramingError_LOG]++;
 128:.\XTR-8LR100.c **** 				sysFaults.FaultLogOneShotTrigger[UART_LORA_FAULT_FramingError_LOG] = ONESHOT_TRIGGER_DISABLED;
 129:.\XTR-8LR100.c **** 			}			
 130:.\XTR-8LR100.c **** 		}	
 131:.\XTR-8LR100.c **** 		
 132:.\XTR-8LR100.c **** 		// FAULT LOG ONE SHOT CONTROL (fault asserted/trigger branch) - FIFO buffer overrun UART_LORA		
 133:.\XTR-8LR100.c **** 		if (sysFaults.UART_LORA_RxStatusOnError & UART_LORA_RX_STS_SOFT_BUFF_OVER)
 134:.\XTR-8LR100.c **** 		{
 135:.\XTR-8LR100.c **** 			if (sysFaults.FaultLogOneShotTrigger[UART_LORA_FAULT_FIFOBufferOverrunError_LOG] == ONESHOT_TRIG
 136:.\XTR-8LR100.c **** 			{
 137:.\XTR-8LR100.c **** 				sysFaults.FaultLogCounter[UART_LORA_FAULT_FIFOBufferOverrunError_LOG]++;
 138:.\XTR-8LR100.c **** 				sysFaults.FaultLogOneShotTrigger[UART_LORA_FAULT_FIFOBufferOverrunError_LOG] = ONESHOT_TRIGGER_
 139:.\XTR-8LR100.c **** 			}			
 140:.\XTR-8LR100.c **** 		}				
 141:.\XTR-8LR100.c **** 	}
 142:.\XTR-8LR100.c **** //	else
 143:.\XTR-8LR100.c **** //	{
 144:.\XTR-8LR100.c **** 	//	sysFaults.general = sysFaults.general & ~(GEN_UART_LORA_FAULT);	
 145:.\XTR-8LR100.c **** //	}
 146:.\XTR-8LR100.c **** #endif	//SYS_FAULTS_LOG_ENABLE
 147:.\XTR-8LR100.c **** 
 148:.\XTR-8LR100.c **** //	do 
 149:.\XTR-8LR100.c **** //	{
 150:.\XTR-8LR100.c **** //		UART_LORA_RxStatus = UART_LORA_ReadRxStatus();
 151:.\XTR-8LR100.c **** //		UART_LORA_charin = UART_LORA_GetChar();
 152:.\XTR-8LR100.c **** //	
 153:.\XTR-8LR100.c **** //		/* gateway UART LORA --> UART USB			*/
 154:.\XTR-8LR100.c **** //		if (UART_LORA_charin != 0)
 155:.\XTR-8LR100.c **** //		{
 156:.\XTR-8LR100.c **** //			UART_USB_PutChar(UART_LORA_charin);				//send feedback through console
ARM GAS  C:\Users\gravi\AppData\Local\Temp\ccjRoW16.s 			page 6


 157:.\XTR-8LR100.c **** //		}
 158:.\XTR-8LR100.c **** //	}
 159:.\XTR-8LR100.c **** //	while (UART_LORA_GetRxBufferSize() > 0);
 160:.\XTR-8LR100.c **** }	
 125              		.loc 1 160 0
 126 0004 BD46     		mov	sp, r7
 127 0006 80BC     		pop	{r7}
 128 0008 7047     		bx	lr
 129              		.cfi_endproc
 130              	.LFE57:
 131              		.size	UART_LORA_RX_isr_process, .-UART_LORA_RX_isr_process
 132 000a 00BF     		.text
 133              	.Letext0:
 134              		.file 2 "c:\\program files (x86)\\cypress\\psoc creator\\3.0\\psoc creator\\import\\gnu_cs\\arm\\4
 135              		.file 3 "./Generated_Source/PSoC5/cytypes.h"
 136              		.file 4 "./Generated_Source/PSoC5/core_cm3.h"